
/home/mubai/ysyx-workbench/am-kernels/kernels/snake/build/snake-riscv32e-npc.elf:     file format elf32-littleriscv


Disassembly of section .text:

80000000 <_start>:
80000000:	00000413          	li	s0,0
80000004:	0000b117          	auipc	sp,0xb
80000008:	ffc10113          	addi	sp,sp,-4 # 8000b000 <_end>
8000000c:	02d000ef          	jal	80000838 <_trm_init>

80000010 <draw_tile>:
80000010:	fdc10113          	addi	sp,sp,-36
80000014:	00003697          	auipc	a3,0x3
80000018:	a5c68693          	addi	a3,a3,-1444 # 80002a70 <buf.0>
8000001c:	02112023          	sw	ra,32(sp)
80000020:	00068793          	mv	a5,a3
80000024:	00003717          	auipc	a4,0x3
80000028:	b4c70713          	addi	a4,a4,-1204 # 80002b70 <buf.0+0x100>
8000002c:	00c7a023          	sw	a2,0(a5)
80000030:	00478793          	addi	a5,a5,4
80000034:	fef71ce3          	bne	a4,a5,8000002c <draw_tile+0x1c>
80000038:	00800613          	li	a2,8
8000003c:	00359713          	slli	a4,a1,0x3
80000040:	00351793          	slli	a5,a0,0x3
80000044:	00010593          	mv	a1,sp
80000048:	00b00513          	li	a0,11
8000004c:	00e12023          	sw	a4,0(sp)
80000050:	00f12223          	sw	a5,4(sp)
80000054:	00d12423          	sw	a3,8(sp)
80000058:	00c12623          	sw	a2,12(sp)
8000005c:	00c12823          	sw	a2,16(sp)
80000060:	00010a23          	sb	zero,20(sp)
80000064:	0f1000ef          	jal	80000954 <ioe_write>
80000068:	02012083          	lw	ra,32(sp)
8000006c:	02410113          	addi	sp,sp,36
80000070:	00008067          	ret

80000074 <main>:
80000074:	c6010113          	addi	sp,sp,-928
80000078:	38f10793          	addi	a5,sp,911
8000007c:	ff87f793          	andi	a5,a5,-8
80000080:	32c00613          	li	a2,812
80000084:	00000593          	li	a1,0
80000088:	05c10513          	addi	a0,sp,92
8000008c:	02f12c23          	sw	a5,56(sp)
80000090:	38112e23          	sw	ra,924(sp)
80000094:	38812c23          	sw	s0,920(sp)
80000098:	38912a23          	sw	s1,916(sp)
8000009c:	1d9000ef          	jal	80000a74 <memset>
800000a0:	045000ef          	jal	800008e4 <ioe_init>
800000a4:	04410593          	addi	a1,sp,68
800000a8:	00900513          	li	a0,9
800000ac:	08d000ef          	jal	80000938 <ioe_read>
800000b0:	04410593          	addi	a1,sp,68
800000b4:	00900513          	li	a0,9
800000b8:	04c12403          	lw	s0,76(sp)
800000bc:	07d000ef          	jal	80000938 <ioe_read>
800000c0:	04812583          	lw	a1,72(sp)
800000c4:	41f45793          	srai	a5,s0,0x1f
800000c8:	0077f693          	andi	a3,a5,7
800000cc:	41f5d713          	srai	a4,a1,0x1f
800000d0:	00777613          	andi	a2,a4,7
800000d4:	00b60633          	add	a2,a2,a1
800000d8:	008686b3          	add	a3,a3,s0
800000dc:	40365613          	srai	a2,a2,0x3
800000e0:	4036d693          	srai	a3,a3,0x3
800000e4:	ffe60513          	addi	a0,a2,-2
800000e8:	ffe68313          	addi	t1,a3,-2
800000ec:	01f55613          	srli	a2,a0,0x1f
800000f0:	01f35693          	srli	a3,t1,0x1f
800000f4:	00f77713          	andi	a4,a4,15
800000f8:	00f7f793          	andi	a5,a5,15
800000fc:	00a60633          	add	a2,a2,a0
80000100:	00b70733          	add	a4,a4,a1
80000104:	006686b3          	add	a3,a3,t1
80000108:	008787b3          	add	a5,a5,s0
8000010c:	40165593          	srai	a1,a2,0x1
80000110:	4016d693          	srai	a3,a3,0x1
80000114:	40475713          	srai	a4,a4,0x4
80000118:	4047d793          	srai	a5,a5,0x4
8000011c:	40b70733          	sub	a4,a4,a1
80000120:	40d787b3          	sub	a5,a5,a3
80000124:	00030613          	mv	a2,t1
80000128:	fff70713          	addi	a4,a4,-1
8000012c:	fff78793          	addi	a5,a5,-1
80000130:	00168293          	addi	t0,a3,1
80000134:	02612a23          	sw	t1,52(sp)
80000138:	00b12023          	sw	a1,0(sp)
8000013c:	00058313          	mv	t1,a1
80000140:	00f12c23          	sw	a5,24(sp)
80000144:	00e505b3          	add	a1,a0,a4
80000148:	00f607b3          	add	a5,a2,a5
8000014c:	02a12623          	sw	a0,44(sp)
80000150:	02f12023          	sw	a5,32(sp)
80000154:	00e12a23          	sw	a4,20(sp)
80000158:	00512223          	sw	t0,4(sp)
8000015c:	04612e23          	sw	t1,92(sp)
80000160:	06d12023          	sw	a3,96(sp)
80000164:	06612223          	sw	t1,100(sp)
80000168:	06512423          	sw	t0,104(sp)
8000016c:	00158513          	addi	a0,a1,1
80000170:	00178493          	addi	s1,a5,1
80000174:	00003797          	auipc	a5,0x3
80000178:	9fc78793          	addi	a5,a5,-1540 # 80002b70 <buf.0+0x100>
8000017c:	10e54463          	blt	a0,a4,80000284 <main+0x210>
80000180:	01812783          	lw	a5,24(sp)
80000184:	01412683          	lw	a3,20(sp)
80000188:	00010437          	lui	s0,0x10
8000018c:	00379793          	slli	a5,a5,0x3
80000190:	f0040413          	addi	s0,s0,-256 # ff00 <_entry_offset+0xff00>
80000194:	02f12423          	sw	a5,40(sp)
80000198:	00349793          	slli	a5,s1,0x3
8000019c:	02f12223          	sw	a5,36(sp)
800001a0:	04912023          	sw	s1,64(sp)
800001a4:	00003797          	auipc	a5,0x3
800001a8:	9cc78793          	addi	a5,a5,-1588 # 80002b70 <buf.0+0x100>
800001ac:	00040493          	mv	s1,s0
800001b0:	02b12823          	sw	a1,48(sp)
800001b4:	02a12e23          	sw	a0,60(sp)
800001b8:	00068413          	mv	s0,a3
800001bc:	00003717          	auipc	a4,0x3
800001c0:	8b470713          	addi	a4,a4,-1868 # 80002a70 <buf.0>
800001c4:	00070293          	mv	t0,a4
800001c8:	00070613          	mv	a2,a4
800001cc:	00962023          	sw	s1,0(a2)
800001d0:	00460613          	addi	a2,a2,4
800001d4:	fec79ce3          	bne	a5,a2,800001cc <main+0x158>
800001d8:	00f12823          	sw	a5,16(sp)
800001dc:	02812783          	lw	a5,40(sp)
800001e0:	00341613          	slli	a2,s0,0x3
800001e4:	00800393          	li	t2,8
800001e8:	04410593          	addi	a1,sp,68
800001ec:	00b00513          	li	a0,11
800001f0:	00e12e23          	sw	a4,28(sp)
800001f4:	04c12223          	sw	a2,68(sp)
800001f8:	00c12623          	sw	a2,12(sp)
800001fc:	04f12423          	sw	a5,72(sp)
80000200:	04512623          	sw	t0,76(sp)
80000204:	00512423          	sw	t0,8(sp)
80000208:	04712823          	sw	t2,80(sp)
8000020c:	04712a23          	sw	t2,84(sp)
80000210:	04010c23          	sb	zero,88(sp)
80000214:	740000ef          	jal	80000954 <ioe_write>
80000218:	01c12703          	lw	a4,28(sp)
8000021c:	00c12603          	lw	a2,12(sp)
80000220:	01012783          	lw	a5,16(sp)
80000224:	00812283          	lw	t0,8(sp)
80000228:	00972023          	sw	s1,0(a4)
8000022c:	00470713          	addi	a4,a4,4
80000230:	fef71ce3          	bne	a4,a5,80000228 <main+0x1b4>
80000234:	00f12423          	sw	a5,8(sp)
80000238:	02412783          	lw	a5,36(sp)
8000023c:	00800713          	li	a4,8
80000240:	04410593          	addi	a1,sp,68
80000244:	00b00513          	li	a0,11
80000248:	04f12423          	sw	a5,72(sp)
8000024c:	04e12823          	sw	a4,80(sp)
80000250:	04e12a23          	sw	a4,84(sp)
80000254:	04c12223          	sw	a2,68(sp)
80000258:	04512623          	sw	t0,76(sp)
8000025c:	04010c23          	sb	zero,88(sp)
80000260:	6f4000ef          	jal	80000954 <ioe_write>
80000264:	03012683          	lw	a3,48(sp)
80000268:	00812783          	lw	a5,8(sp)
8000026c:	00140713          	addi	a4,s0,1
80000270:	0086c663          	blt	a3,s0,8000027c <main+0x208>
80000274:	00070413          	mv	s0,a4
80000278:	f45ff06f          	j	800001bc <main+0x148>
8000027c:	03c12503          	lw	a0,60(sp)
80000280:	04012483          	lw	s1,64(sp)
80000284:	01812303          	lw	t1,24(sp)
80000288:	0e64c463          	blt	s1,t1,80000370 <main+0x2fc>
8000028c:	01412703          	lw	a4,20(sp)
80000290:	00010437          	lui	s0,0x10
80000294:	f0040413          	addi	s0,s0,-256 # ff00 <_entry_offset+0xff00>
80000298:	00371713          	slli	a4,a4,0x3
8000029c:	02e12423          	sw	a4,40(sp)
800002a0:	00351713          	slli	a4,a0,0x3
800002a4:	00040493          	mv	s1,s0
800002a8:	02e12223          	sw	a4,36(sp)
800002ac:	00030413          	mv	s0,t1
800002b0:	00002717          	auipc	a4,0x2
800002b4:	7c070713          	addi	a4,a4,1984 # 80002a70 <buf.0>
800002b8:	00070293          	mv	t0,a4
800002bc:	00070693          	mv	a3,a4
800002c0:	0096a023          	sw	s1,0(a3)
800002c4:	00468693          	addi	a3,a3,4
800002c8:	fed79ce3          	bne	a5,a3,800002c0 <main+0x24c>
800002cc:	00f12823          	sw	a5,16(sp)
800002d0:	02812783          	lw	a5,40(sp)
800002d4:	00341693          	slli	a3,s0,0x3
800002d8:	00800393          	li	t2,8
800002dc:	04410593          	addi	a1,sp,68
800002e0:	00b00513          	li	a0,11
800002e4:	00e12e23          	sw	a4,28(sp)
800002e8:	04f12223          	sw	a5,68(sp)
800002ec:	04d12423          	sw	a3,72(sp)
800002f0:	00d12623          	sw	a3,12(sp)
800002f4:	04512623          	sw	t0,76(sp)
800002f8:	00512423          	sw	t0,8(sp)
800002fc:	04712823          	sw	t2,80(sp)
80000300:	04712a23          	sw	t2,84(sp)
80000304:	04010c23          	sb	zero,88(sp)
80000308:	64c000ef          	jal	80000954 <ioe_write>
8000030c:	01c12703          	lw	a4,28(sp)
80000310:	00c12683          	lw	a3,12(sp)
80000314:	01012783          	lw	a5,16(sp)
80000318:	00812283          	lw	t0,8(sp)
8000031c:	00972023          	sw	s1,0(a4)
80000320:	00470713          	addi	a4,a4,4
80000324:	fef71ce3          	bne	a4,a5,8000031c <main+0x2a8>
80000328:	00f12423          	sw	a5,8(sp)
8000032c:	02412783          	lw	a5,36(sp)
80000330:	00800713          	li	a4,8
80000334:	04410593          	addi	a1,sp,68
80000338:	00b00513          	li	a0,11
8000033c:	04f12223          	sw	a5,68(sp)
80000340:	04d12423          	sw	a3,72(sp)
80000344:	04e12823          	sw	a4,80(sp)
80000348:	04e12a23          	sw	a4,84(sp)
8000034c:	04512623          	sw	t0,76(sp)
80000350:	04010c23          	sb	zero,88(sp)
80000354:	600000ef          	jal	80000954 <ioe_write>
80000358:	02012683          	lw	a3,32(sp)
8000035c:	00812783          	lw	a5,8(sp)
80000360:	00140713          	addi	a4,s0,1
80000364:	0086c663          	blt	a3,s0,80000370 <main+0x2fc>
80000368:	00070413          	mv	s0,a4
8000036c:	f45ff06f          	j	800002b0 <main+0x23c>
80000370:	00f12823          	sw	a5,16(sp)
80000374:	720000ef          	jal	80000a94 <rand>
80000378:	02c12583          	lw	a1,44(sp)
8000037c:	6c8000ef          	jal	80000a44 <__modsi3>
80000380:	00050413          	mv	s0,a0
80000384:	02a12423          	sw	a0,40(sp)
80000388:	70c000ef          	jal	80000a94 <rand>
8000038c:	03412583          	lw	a1,52(sp)
80000390:	6b4000ef          	jal	80000a44 <__modsi3>
80000394:	01412703          	lw	a4,20(sp)
80000398:	02a12823          	sw	a0,48(sp)
8000039c:	0ff00613          	li	a2,255
800003a0:	008705b3          	add	a1,a4,s0
800003a4:	01812703          	lw	a4,24(sp)
800003a8:	00158593          	addi	a1,a1,1
800003ac:	00a70533          	add	a0,a4,a0
800003b0:	00150513          	addi	a0,a0,1
800003b4:	c5dff0ef          	jal	80000010 <draw_tile>
800003b8:	00100793          	li	a5,1
800003bc:	00f12423          	sw	a5,8(sp)
800003c0:	00200793          	li	a5,2
800003c4:	00f12623          	sw	a5,12(sp)
800003c8:	00400793          	li	a5,4
800003cc:	02f12223          	sw	a5,36(sp)
800003d0:	01012783          	lw	a5,16(sp)
800003d4:	03812483          	lw	s1,56(sp)
800003d8:	00f12e23          	sw	a5,28(sp)
800003dc:	01812783          	lw	a5,24(sp)
800003e0:	00412703          	lw	a4,4(sp)
800003e4:	00002417          	auipc	s0,0x2
800003e8:	68c40413          	addi	s0,s0,1676 # 80002a70 <buf.0>
800003ec:	00040293          	mv	t0,s0
800003f0:	00e786b3          	add	a3,a5,a4
800003f4:	01412783          	lw	a5,20(sp)
800003f8:	00012703          	lw	a4,0(sp)
800003fc:	00168593          	addi	a1,a3,1
80000400:	00ff06b7          	lui	a3,0xff0
80000404:	00e78733          	add	a4,a5,a4
80000408:	01c12783          	lw	a5,28(sp)
8000040c:	00170613          	addi	a2,a4,1
80000410:	00040713          	mv	a4,s0
80000414:	00d72023          	sw	a3,0(a4)
80000418:	00470713          	addi	a4,a4,4
8000041c:	fee79ce3          	bne	a5,a4,80000414 <main+0x3a0>
80000420:	00800313          	li	t1,8
80000424:	00361713          	slli	a4,a2,0x3
80000428:	00359693          	slli	a3,a1,0x3
8000042c:	00b00513          	li	a0,11
80000430:	04410593          	addi	a1,sp,68
80000434:	04e12223          	sw	a4,68(sp)
80000438:	04512623          	sw	t0,76(sp)
8000043c:	00512823          	sw	t0,16(sp)
80000440:	04d12423          	sw	a3,72(sp)
80000444:	04612823          	sw	t1,80(sp)
80000448:	04612a23          	sw	t1,84(sp)
8000044c:	04010c23          	sb	zero,88(sp)
80000450:	504000ef          	jal	80000954 <ioe_write>
80000454:	00812783          	lw	a5,8(sp)
80000458:	00c12703          	lw	a4,12(sp)
8000045c:	01012283          	lw	t0,16(sp)
80000460:	40e78733          	sub	a4,a5,a4
80000464:	00075463          	bgez	a4,8000046c <main+0x3f8>
80000468:	06470713          	addi	a4,a4,100
8000046c:	00371713          	slli	a4,a4,0x3
80000470:	35070793          	addi	a5,a4,848
80000474:	04410713          	addi	a4,sp,68
80000478:	00e78733          	add	a4,a5,a4
8000047c:	ccc72683          	lw	a3,-820(a4)
80000480:	01812783          	lw	a5,24(sp)
80000484:	cc872603          	lw	a2,-824(a4)
80000488:	00d78733          	add	a4,a5,a3
8000048c:	01412783          	lw	a5,20(sp)
80000490:	00170713          	addi	a4,a4,1
80000494:	00c786b3          	add	a3,a5,a2
80000498:	01c12783          	lw	a5,28(sp)
8000049c:	00168693          	addi	a3,a3,1 # ff0001 <_entry_offset+0xff0001>
800004a0:	00042023          	sw	zero,0(s0)
800004a4:	00440413          	addi	s0,s0,4
800004a8:	fef41ce3          	bne	s0,a5,800004a0 <main+0x42c>
800004ac:	00800613          	li	a2,8
800004b0:	00369693          	slli	a3,a3,0x3
800004b4:	00371713          	slli	a4,a4,0x3
800004b8:	04410593          	addi	a1,sp,68
800004bc:	00b00513          	li	a0,11
800004c0:	04d12223          	sw	a3,68(sp)
800004c4:	04e12423          	sw	a4,72(sp)
800004c8:	04512623          	sw	t0,76(sp)
800004cc:	04c12823          	sw	a2,80(sp)
800004d0:	04c12a23          	sw	a2,84(sp)
800004d4:	04010c23          	sb	zero,88(sp)
800004d8:	47c000ef          	jal	80000954 <ioe_write>
800004dc:	0080006f          	j	800004e4 <main+0x470>
800004e0:	28070663          	beqz	a4,8000076c <main+0x6f8>
800004e4:	04410593          	addi	a1,sp,68
800004e8:	00800513          	li	a0,8
800004ec:	44c000ef          	jal	80000938 <ioe_read>
800004f0:	04414783          	lbu	a5,68(sp)
800004f4:	04812703          	lw	a4,72(sp)
800004f8:	fe0784e3          	beqz	a5,800004e0 <main+0x46c>
800004fc:	fb770693          	addi	a3,a4,-73
80000500:	00300613          	li	a2,3
80000504:	26d66463          	bltu	a2,a3,8000076c <main+0x6f8>
80000508:	fb870713          	addi	a4,a4,-72
8000050c:	2ac70663          	beq	a4,a2,800007b8 <main+0x744>
80000510:	00400693          	li	a3,4
80000514:	2ed70663          	beq	a4,a3,80000800 <main+0x78c>
80000518:	00200693          	li	a3,2
8000051c:	26d70c63          	beq	a4,a3,80000794 <main+0x720>
80000520:	02412783          	lw	a5,36(sp)
80000524:	26d78e63          	beq	a5,a3,800007a0 <main+0x72c>
80000528:	00412783          	lw	a5,4(sp)
8000052c:	fff78793          	addi	a5,a5,-1
80000530:	00f12223          	sw	a5,4(sp)
80000534:	00100793          	li	a5,1
80000538:	02f12223          	sw	a5,36(sp)
8000053c:	00812783          	lw	a5,8(sp)
80000540:	00012303          	lw	t1,0(sp)
80000544:	00412383          	lw	t2,4(sp)
80000548:	f9d78713          	addi	a4,a5,-99
8000054c:	00e03733          	snez	a4,a4
80000550:	40e00733          	neg	a4,a4
80000554:	00178793          	addi	a5,a5,1
80000558:	00e7f7b3          	and	a5,a5,a4
8000055c:	00379713          	slli	a4,a5,0x3
80000560:	04410693          	addi	a3,sp,68
80000564:	35070713          	addi	a4,a4,848
80000568:	00d70733          	add	a4,a4,a3
8000056c:	00100693          	li	a3,1
80000570:	cc672423          	sw	t1,-824(a4)
80000574:	cc772623          	sw	t2,-820(a4)
80000578:	00f12423          	sw	a5,8(sp)
8000057c:	fff00713          	li	a4,-1
80000580:	00d12823          	sw	a3,16(sp)
80000584:	04e30e63          	beq	t1,a4,800005e0 <main+0x56c>
80000588:	02c12603          	lw	a2,44(sp)
8000058c:	04660a63          	beq	a2,t1,800005e0 <main+0x56c>
80000590:	04e38863          	beq	t2,a4,800005e0 <main+0x56c>
80000594:	03412703          	lw	a4,52(sp)
80000598:	04770463          	beq	a4,t2,800005e0 <main+0x56c>
8000059c:	00c12283          	lw	t0,12(sp)
800005a0:	02d28e63          	beq	t0,a3,800005dc <main+0x568>
800005a4:	fff78693          	addi	a3,a5,-1
800005a8:	00078513          	mv	a0,a5
800005ac:	00068713          	mv	a4,a3
800005b0:	0006d463          	bgez	a3,800005b8 <main+0x544>
800005b4:	06468713          	addi	a4,a3,100
800005b8:	00371713          	slli	a4,a4,0x3
800005bc:	35070793          	addi	a5,a4,848
800005c0:	04410713          	addi	a4,sp,68
800005c4:	00e78733          	add	a4,a5,a4
800005c8:	cc872603          	lw	a2,-824(a4)
800005cc:	fff68693          	addi	a3,a3,-1
800005d0:	40d505b3          	sub	a1,a0,a3
800005d4:	10660e63          	beq	a2,t1,800006f0 <main+0x67c>
800005d8:	fc559ae3          	bne	a1,t0,800005ac <main+0x538>
800005dc:	00012823          	sw	zero,16(sp)
800005e0:	00012783          	lw	a5,0(sp)
800005e4:	02812703          	lw	a4,40(sp)
800005e8:	12e78263          	beq	a5,a4,8000070c <main+0x698>
800005ec:	00100713          	li	a4,1
800005f0:	04410593          	addi	a1,sp,68
800005f4:	00b00513          	li	a0,11
800005f8:	04e10c23          	sb	a4,88(sp)
800005fc:	04012223          	sw	zero,68(sp)
80000600:	04012423          	sw	zero,72(sp)
80000604:	04012623          	sw	zero,76(sp)
80000608:	04012823          	sw	zero,80(sp)
8000060c:	04012a23          	sw	zero,84(sp)
80000610:	344000ef          	jal	80000954 <ioe_write>
80000614:	00048593          	mv	a1,s1
80000618:	00600513          	li	a0,6
8000061c:	31c000ef          	jal	80000938 <ioe_read>
80000620:	00c12783          	lw	a5,12(sp)
80000624:	fffe96b7          	lui	a3,0xfffe9
80000628:	ce868693          	addi	a3,a3,-792 # fffe8ce8 <_end+0x7ffddce8>
8000062c:	00279713          	slli	a4,a5,0x2
80000630:	00f70733          	add	a4,a4,a5
80000634:	00371713          	slli	a4,a4,0x3
80000638:	40f70733          	sub	a4,a4,a5
8000063c:	00471713          	slli	a4,a4,0x4
80000640:	00f70733          	add	a4,a4,a5
80000644:	00371713          	slli	a4,a4,0x3
80000648:	40e00733          	neg	a4,a4
8000064c:	0004a583          	lw	a1,0(s1)
80000650:	0044a603          	lw	a2,4(s1)
80000654:	00d75463          	bge	a4,a3,8000065c <main+0x5e8>
80000658:	00068713          	mv	a4,a3
8000065c:	000186b7          	lui	a3,0x18
80000660:	6a068693          	addi	a3,a3,1696 # 186a0 <_entry_offset+0x186a0>
80000664:	00d70733          	add	a4,a4,a3
80000668:	41f75693          	srai	a3,a4,0x1f
8000066c:	00b707b3          	add	a5,a4,a1
80000670:	00e7b733          	sltu	a4,a5,a4
80000674:	00c686b3          	add	a3,a3,a2
80000678:	02f12023          	sw	a5,32(sp)
8000067c:	00d70433          	add	s0,a4,a3
80000680:	00048593          	mv	a1,s1
80000684:	00600513          	li	a0,6
80000688:	2b0000ef          	jal	80000938 <ioe_read>
8000068c:	0044a783          	lw	a5,4(s1)
80000690:	0004a683          	lw	a3,0(s1)
80000694:	fe87e6e3          	bltu	a5,s0,80000680 <main+0x60c>
80000698:	00f41663          	bne	s0,a5,800006a4 <main+0x630>
8000069c:	02012783          	lw	a5,32(sp)
800006a0:	fef6e0e3          	bltu	a3,a5,80000680 <main+0x60c>
800006a4:	01012783          	lw	a5,16(sp)
800006a8:	d2078ae3          	beqz	a5,800003dc <main+0x368>
800006ac:	00002517          	auipc	a0,0x2
800006b0:	ddc50513          	addi	a0,a0,-548 # 80002488 <_etext>
800006b4:	6ac010ef          	jal	80001d60 <printf>
800006b8:	01d00413          	li	s0,29
800006bc:	04410593          	addi	a1,sp,68
800006c0:	00800513          	li	a0,8
800006c4:	274000ef          	jal	80000938 <ioe_read>
800006c8:	04414783          	lbu	a5,68(sp)
800006cc:	04812703          	lw	a4,72(sp)
800006d0:	fe0786e3          	beqz	a5,800006bc <main+0x648>
800006d4:	fe8714e3          	bne	a4,s0,800006bc <main+0x648>
800006d8:	39c12083          	lw	ra,924(sp)
800006dc:	39812403          	lw	s0,920(sp)
800006e0:	39412483          	lw	s1,916(sp)
800006e4:	00000513          	li	a0,0
800006e8:	3a010113          	addi	sp,sp,928
800006ec:	00008067          	ret
800006f0:	ccc72703          	lw	a4,-820(a4)
800006f4:	ee7712e3          	bne	a4,t2,800005d8 <main+0x564>
800006f8:	00100793          	li	a5,1
800006fc:	00f12823          	sw	a5,16(sp)
80000700:	02812703          	lw	a4,40(sp)
80000704:	00012783          	lw	a5,0(sp)
80000708:	eee792e3          	bne	a5,a4,800005ec <main+0x578>
8000070c:	00412783          	lw	a5,4(sp)
80000710:	03012703          	lw	a4,48(sp)
80000714:	ece79ce3          	bne	a5,a4,800005ec <main+0x578>
80000718:	00c12783          	lw	a5,12(sp)
8000071c:	00178793          	addi	a5,a5,1
80000720:	00f12623          	sw	a5,12(sp)
80000724:	370000ef          	jal	80000a94 <rand>
80000728:	02c12583          	lw	a1,44(sp)
8000072c:	318000ef          	jal	80000a44 <__modsi3>
80000730:	00050413          	mv	s0,a0
80000734:	02a12423          	sw	a0,40(sp)
80000738:	35c000ef          	jal	80000a94 <rand>
8000073c:	03412583          	lw	a1,52(sp)
80000740:	304000ef          	jal	80000a44 <__modsi3>
80000744:	01412703          	lw	a4,20(sp)
80000748:	02a12823          	sw	a0,48(sp)
8000074c:	0ff00613          	li	a2,255
80000750:	008705b3          	add	a1,a4,s0
80000754:	01812703          	lw	a4,24(sp)
80000758:	00158593          	addi	a1,a1,1
8000075c:	00a70533          	add	a0,a4,a0
80000760:	00150513          	addi	a0,a0,1
80000764:	8adff0ef          	jal	80000010 <draw_tile>
80000768:	e85ff06f          	j	800005ec <main+0x578>
8000076c:	02412783          	lw	a5,36(sp)
80000770:	00300713          	li	a4,3
80000774:	04e78863          	beq	a5,a4,800007c4 <main+0x750>
80000778:	06f76263          	bltu	a4,a5,800007dc <main+0x768>
8000077c:	00100713          	li	a4,1
80000780:	dae784e3          	beq	a5,a4,80000528 <main+0x4b4>
80000784:	00200713          	li	a4,2
80000788:	00e78c63          	beq	a5,a4,800007a0 <main+0x72c>
8000078c:	02012223          	sw	zero,36(sp)
80000790:	dadff06f          	j	8000053c <main+0x4c8>
80000794:	02412783          	lw	a5,36(sp)
80000798:	00100713          	li	a4,1
8000079c:	d8e786e3          	beq	a5,a4,80000528 <main+0x4b4>
800007a0:	00412783          	lw	a5,4(sp)
800007a4:	00178793          	addi	a5,a5,1
800007a8:	00f12223          	sw	a5,4(sp)
800007ac:	00200793          	li	a5,2
800007b0:	02f12223          	sw	a5,36(sp)
800007b4:	d89ff06f          	j	8000053c <main+0x4c8>
800007b8:	02412783          	lw	a5,36(sp)
800007bc:	00400713          	li	a4,4
800007c0:	02e78463          	beq	a5,a4,800007e8 <main+0x774>
800007c4:	00012783          	lw	a5,0(sp)
800007c8:	fff78793          	addi	a5,a5,-1
800007cc:	00f12023          	sw	a5,0(sp)
800007d0:	00300793          	li	a5,3
800007d4:	02f12223          	sw	a5,36(sp)
800007d8:	d65ff06f          	j	8000053c <main+0x4c8>
800007dc:	02412783          	lw	a5,36(sp)
800007e0:	00400713          	li	a4,4
800007e4:	d4e79ce3          	bne	a5,a4,8000053c <main+0x4c8>
800007e8:	00012783          	lw	a5,0(sp)
800007ec:	00178793          	addi	a5,a5,1
800007f0:	00f12023          	sw	a5,0(sp)
800007f4:	00400793          	li	a5,4
800007f8:	02f12223          	sw	a5,36(sp)
800007fc:	d41ff06f          	j	8000053c <main+0x4c8>
80000800:	02412783          	lw	a5,36(sp)
80000804:	fcc780e3          	beq	a5,a2,800007c4 <main+0x750>
80000808:	00012783          	lw	a5,0(sp)
8000080c:	00178793          	addi	a5,a5,1
80000810:	00f12023          	sw	a5,0(sp)
80000814:	00400793          	li	a5,4
80000818:	02f12223          	sw	a5,36(sp)
8000081c:	d21ff06f          	j	8000053c <main+0x4c8>

80000820 <putch>:
80000820:	a00007b7          	lui	a5,0xa0000
80000824:	3ea78c23          	sb	a0,1016(a5) # a00003f8 <_end+0x1fff53f8>
80000828:	00008067          	ret

8000082c <halt>:
8000082c:	00050513          	mv	a0,a0
80000830:	00100073          	ebreak
80000834:	0000006f          	j	80000834 <halt+0x8>

80000838 <_trm_init>:
80000838:	ff410113          	addi	sp,sp,-12
8000083c:	00002517          	auipc	a0,0x2
80000840:	d1850513          	addi	a0,a0,-744 # 80002554 <mainargs>
80000844:	00112423          	sw	ra,8(sp)
80000848:	82dff0ef          	jal	80000074 <main>
8000084c:	00050513          	mv	a0,a0
80000850:	00100073          	ebreak
80000854:	0000006f          	j	80000854 <_trm_init+0x1c>

80000858 <__am_timer_config>:
80000858:	00100793          	li	a5,1
8000085c:	00f50023          	sb	a5,0(a0)
80000860:	00f500a3          	sb	a5,1(a0)
80000864:	00008067          	ret

80000868 <__am_input_config>:
80000868:	00100793          	li	a5,1
8000086c:	00f50023          	sb	a5,0(a0)
80000870:	00008067          	ret

80000874 <__am_uart_config>:
80000874:	00050023          	sb	zero,0(a0)
80000878:	00008067          	ret

8000087c <fail>:
8000087c:	ff410113          	addi	sp,sp,-12
80000880:	00812223          	sw	s0,4(sp)
80000884:	00112423          	sw	ra,8(sp)
80000888:	00002417          	auipc	s0,0x2
8000088c:	c1c40413          	addi	s0,s0,-996 # 800024a4 <_etext+0x1c>
80000890:	04100513          	li	a0,65
80000894:	f8dff0ef          	jal	80000820 <putch>
80000898:	00144503          	lbu	a0,1(s0)
8000089c:	00140413          	addi	s0,s0,1
800008a0:	fe051ae3          	bnez	a0,80000894 <fail+0x18>
800008a4:	00002417          	auipc	s0,0x2
800008a8:	c1040413          	addi	s0,s0,-1008 # 800024b4 <_etext+0x2c>
800008ac:	06100513          	li	a0,97
800008b0:	f71ff0ef          	jal	80000820 <putch>
800008b4:	00144503          	lbu	a0,1(s0)
800008b8:	00140413          	addi	s0,s0,1
800008bc:	fe051ae3          	bnez	a0,800008b0 <fail+0x34>
800008c0:	00002417          	auipc	s0,0x2
800008c4:	c1040413          	addi	s0,s0,-1008 # 800024d0 <_etext+0x48>
800008c8:	02000513          	li	a0,32
800008cc:	f55ff0ef          	jal	80000820 <putch>
800008d0:	00144503          	lbu	a0,1(s0)
800008d4:	00140413          	addi	s0,s0,1
800008d8:	fe051ae3          	bnez	a0,800008cc <fail+0x50>
800008dc:	00100513          	li	a0,1
800008e0:	f4dff0ef          	jal	8000082c <halt>

800008e4 <ioe_init>:
800008e4:	ff410113          	addi	sp,sp,-12
800008e8:	00112423          	sw	ra,8(sp)
800008ec:	00002797          	auipc	a5,0x2
800008f0:	f8078793          	addi	a5,a5,-128 # 8000286c <lut>
800008f4:	00002697          	auipc	a3,0x2
800008f8:	17868693          	addi	a3,a3,376 # 80002a6c <next>
800008fc:	00000617          	auipc	a2,0x0
80000900:	f8060613          	addi	a2,a2,-128 # 8000087c <fail>
80000904:	00c0006f          	j	80000910 <ioe_init+0x2c>
80000908:	00478793          	addi	a5,a5,4
8000090c:	00d78c63          	beq	a5,a3,80000924 <ioe_init+0x40>
80000910:	0007a703          	lw	a4,0(a5)
80000914:	fe071ae3          	bnez	a4,80000908 <ioe_init+0x24>
80000918:	00c7a023          	sw	a2,0(a5)
8000091c:	00478793          	addi	a5,a5,4
80000920:	fed798e3          	bne	a5,a3,80000910 <ioe_init+0x2c>
80000924:	04c000ef          	jal	80000970 <__am_timer_init>
80000928:	00812083          	lw	ra,8(sp)
8000092c:	00100513          	li	a0,1
80000930:	00c10113          	addi	sp,sp,12
80000934:	00008067          	ret

80000938 <ioe_read>:
80000938:	00251513          	slli	a0,a0,0x2
8000093c:	00002797          	auipc	a5,0x2
80000940:	f3078793          	addi	a5,a5,-208 # 8000286c <lut>
80000944:	00a787b3          	add	a5,a5,a0
80000948:	0007a783          	lw	a5,0(a5)
8000094c:	00058513          	mv	a0,a1
80000950:	00078067          	jr	a5

80000954 <ioe_write>:
80000954:	00251513          	slli	a0,a0,0x2
80000958:	00002797          	auipc	a5,0x2
8000095c:	f1478793          	addi	a5,a5,-236 # 8000286c <lut>
80000960:	00a787b3          	add	a5,a5,a0
80000964:	0007a783          	lw	a5,0(a5)
80000968:	00058513          	mv	a0,a1
8000096c:	00078067          	jr	a5

80000970 <__am_timer_init>:
80000970:	00008067          	ret

80000974 <__am_timer_uptime>:
80000974:	a0000737          	lui	a4,0xa0000
80000978:	a00007b7          	lui	a5,0xa0000
8000097c:	04870713          	addi	a4,a4,72 # a0000048 <_end+0x1fff5048>
80000980:	04c7a683          	lw	a3,76(a5) # a000004c <_end+0x1fff504c>
80000984:	00072703          	lw	a4,0(a4)
80000988:	00d52223          	sw	a3,4(a0)
8000098c:	00e52023          	sw	a4,0(a0)
80000990:	00008067          	ret

80000994 <__am_timer_rtc>:
80000994:	76c00793          	li	a5,1900
80000998:	00052a23          	sw	zero,20(a0)
8000099c:	00052823          	sw	zero,16(a0)
800009a0:	00052623          	sw	zero,12(a0)
800009a4:	00052423          	sw	zero,8(a0)
800009a8:	00052223          	sw	zero,4(a0)
800009ac:	00f52023          	sw	a5,0(a0)
800009b0:	00008067          	ret

800009b4 <__am_input_keybrd>:
800009b4:	00050023          	sb	zero,0(a0)
800009b8:	00052223          	sw	zero,4(a0)
800009bc:	00008067          	ret

800009c0 <__divsi3>:
800009c0:	06054063          	bltz	a0,80000a20 <__umodsi3+0x10>
800009c4:	0605c663          	bltz	a1,80000a30 <__umodsi3+0x20>

800009c8 <__hidden___udivsi3>:
800009c8:	00058613          	mv	a2,a1
800009cc:	00050593          	mv	a1,a0
800009d0:	fff00513          	li	a0,-1
800009d4:	02060c63          	beqz	a2,80000a0c <__hidden___udivsi3+0x44>
800009d8:	00100693          	li	a3,1
800009dc:	00b67a63          	bgeu	a2,a1,800009f0 <__hidden___udivsi3+0x28>
800009e0:	00c05863          	blez	a2,800009f0 <__hidden___udivsi3+0x28>
800009e4:	00161613          	slli	a2,a2,0x1
800009e8:	00169693          	slli	a3,a3,0x1
800009ec:	feb66ae3          	bltu	a2,a1,800009e0 <__hidden___udivsi3+0x18>
800009f0:	00000513          	li	a0,0
800009f4:	00c5e663          	bltu	a1,a2,80000a00 <__hidden___udivsi3+0x38>
800009f8:	40c585b3          	sub	a1,a1,a2
800009fc:	00d56533          	or	a0,a0,a3
80000a00:	0016d693          	srli	a3,a3,0x1
80000a04:	00165613          	srli	a2,a2,0x1
80000a08:	fe0696e3          	bnez	a3,800009f4 <__hidden___udivsi3+0x2c>
80000a0c:	00008067          	ret

80000a10 <__umodsi3>:
80000a10:	00008293          	mv	t0,ra
80000a14:	fb5ff0ef          	jal	800009c8 <__hidden___udivsi3>
80000a18:	00058513          	mv	a0,a1
80000a1c:	00028067          	jr	t0
80000a20:	40a00533          	neg	a0,a0
80000a24:	00b04863          	bgtz	a1,80000a34 <__umodsi3+0x24>
80000a28:	40b005b3          	neg	a1,a1
80000a2c:	f9dff06f          	j	800009c8 <__hidden___udivsi3>
80000a30:	40b005b3          	neg	a1,a1
80000a34:	00008293          	mv	t0,ra
80000a38:	f91ff0ef          	jal	800009c8 <__hidden___udivsi3>
80000a3c:	40a00533          	neg	a0,a0
80000a40:	00028067          	jr	t0

80000a44 <__modsi3>:
80000a44:	00008293          	mv	t0,ra
80000a48:	0005ca63          	bltz	a1,80000a5c <__modsi3+0x18>
80000a4c:	00054c63          	bltz	a0,80000a64 <__modsi3+0x20>
80000a50:	f79ff0ef          	jal	800009c8 <__hidden___udivsi3>
80000a54:	00058513          	mv	a0,a1
80000a58:	00028067          	jr	t0
80000a5c:	40b005b3          	neg	a1,a1
80000a60:	fe0558e3          	bgez	a0,80000a50 <__modsi3+0xc>
80000a64:	40a00533          	neg	a0,a0
80000a68:	f61ff0ef          	jal	800009c8 <__hidden___udivsi3>
80000a6c:	40b00533          	neg	a0,a1
80000a70:	00028067          	jr	t0

80000a74 <memset>:
80000a74:	0ff5f593          	zext.b	a1,a1
80000a78:	00c50733          	add	a4,a0,a2
80000a7c:	00050793          	mv	a5,a0
80000a80:	00060863          	beqz	a2,80000a90 <memset+0x1c>
80000a84:	00178793          	addi	a5,a5,1
80000a88:	feb78fa3          	sb	a1,-1(a5)
80000a8c:	fef71ce3          	bne	a4,a5,80000a84 <memset+0x10>
80000a90:	00008067          	ret

80000a94 <rand>:
80000a94:	00002697          	auipc	a3,0x2
80000a98:	fd868693          	addi	a3,a3,-40 # 80002a6c <next>
80000a9c:	0006a583          	lw	a1,0(a3)
80000aa0:	00003637          	lui	a2,0x3
80000aa4:	03960613          	addi	a2,a2,57 # 3039 <_entry_offset+0x3039>
80000aa8:	00859713          	slli	a4,a1,0x8
80000aac:	40b70733          	sub	a4,a4,a1
80000ab0:	00371713          	slli	a4,a4,0x3
80000ab4:	00b70733          	add	a4,a4,a1
80000ab8:	00771713          	slli	a4,a4,0x7
80000abc:	00b70733          	add	a4,a4,a1
80000ac0:	00371713          	slli	a4,a4,0x3
80000ac4:	40b70733          	sub	a4,a4,a1
80000ac8:	00571793          	slli	a5,a4,0x5
80000acc:	00f707b3          	add	a5,a4,a5
80000ad0:	00279793          	slli	a5,a5,0x2
80000ad4:	40b787b3          	sub	a5,a5,a1
80000ad8:	00279793          	slli	a5,a5,0x2
80000adc:	00b787b3          	add	a5,a5,a1
80000ae0:	00c787b3          	add	a5,a5,a2
80000ae4:	00179513          	slli	a0,a5,0x1
80000ae8:	00f6a023          	sw	a5,0(a3)
80000aec:	01155513          	srli	a0,a0,0x11
80000af0:	00008067          	ret

80000af4 <vsnprintf>:
80000af4:	f6c10113          	addi	sp,sp,-148
80000af8:	08112823          	sw	ra,144(sp)
80000afc:	00a12623          	sw	a0,12(sp)
80000b00:	00c12223          	sw	a2,4(sp)
80000b04:	00d12823          	sw	a3,16(sp)
80000b08:	2c058ce3          	beqz	a1,800015e0 <vsnprintf+0xaec>
80000b0c:	00100793          	li	a5,1
80000b10:	2cf584e3          	beq	a1,a5,800015d8 <vsnprintf+0xae4>
80000b14:	08812623          	sw	s0,140(sp)
80000b18:	00064703          	lbu	a4,0(a2)
80000b1c:	fff58793          	addi	a5,a1,-1
80000b20:	00f12423          	sw	a5,8(sp)
80000b24:	00012023          	sw	zero,0(sp)
80000b28:	00000513          	li	a0,0
80000b2c:	00000413          	li	s0,0
80000b30:	06070a63          	beqz	a4,80000ba4 <vsnprintf+0xb0>
80000b34:	08912423          	sw	s1,136(sp)
80000b38:	02500793          	li	a5,37
80000b3c:	00040393          	mv	t2,s0
80000b40:	00150693          	addi	a3,a0,1
80000b44:	06f70e63          	beq	a4,a5,80000bc0 <vsnprintf+0xcc>
80000b48:	00012783          	lw	a5,0(sp)
80000b4c:	00178793          	addi	a5,a5,1
80000b50:	00f12023          	sw	a5,0(sp)
80000b54:	00812783          	lw	a5,8(sp)
80000b58:	00f47c63          	bgeu	s0,a5,80000b70 <vsnprintf+0x7c>
80000b5c:	00c12783          	lw	a5,12(sp)
80000b60:	008783b3          	add	t2,a5,s0
80000b64:	00140413          	addi	s0,s0,1
80000b68:	00e38023          	sb	a4,0(t2)
80000b6c:	00040393          	mv	t2,s0
80000b70:	00068513          	mv	a0,a3
80000b74:	00412783          	lw	a5,4(sp)
80000b78:	00a787b3          	add	a5,a5,a0
80000b7c:	0007c703          	lbu	a4,0(a5)
80000b80:	fa071ce3          	bnez	a4,80000b38 <vsnprintf+0x44>
80000b84:	00812703          	lw	a4,8(sp)
80000b88:	00038793          	mv	a5,t2
80000b8c:	00777463          	bgeu	a4,t2,80000b94 <vsnprintf+0xa0>
80000b90:	00070793          	mv	a5,a4
80000b94:	00c12703          	lw	a4,12(sp)
80000b98:	08812483          	lw	s1,136(sp)
80000b9c:	00f707b3          	add	a5,a4,a5
80000ba0:	00f12623          	sw	a5,12(sp)
80000ba4:	00c12783          	lw	a5,12(sp)
80000ba8:	00012503          	lw	a0,0(sp)
80000bac:	00078023          	sb	zero,0(a5)
80000bb0:	08c12403          	lw	s0,140(sp)
80000bb4:	09012083          	lw	ra,144(sp)
80000bb8:	09410113          	addi	sp,sp,148
80000bbc:	00008067          	ret
80000bc0:	00412783          	lw	a5,4(sp)
80000bc4:	00250713          	addi	a4,a0,2
80000bc8:	00012e23          	sw	zero,28(sp)
80000bcc:	00d786b3          	add	a3,a5,a3
80000bd0:	00012c23          	sw	zero,24(sp)
80000bd4:	02012023          	sw	zero,32(sp)
80000bd8:	02012223          	sw	zero,36(sp)
80000bdc:	00012a23          	sw	zero,20(sp)
80000be0:	0006c783          	lbu	a5,0(a3)
80000be4:	01000593          	li	a1,16
80000be8:	00068313          	mv	t1,a3
80000bec:	fe078613          	addi	a2,a5,-32
80000bf0:	0ff67613          	zext.b	a2,a2
80000bf4:	02c5e063          	bltu	a1,a2,80000c14 <vsnprintf+0x120>
80000bf8:	00002597          	auipc	a1,0x2
80000bfc:	99c58593          	addi	a1,a1,-1636 # 80002594 <mainargs+0x40>
80000c00:	00261613          	slli	a2,a2,0x2
80000c04:	00b60633          	add	a2,a2,a1
80000c08:	00062603          	lw	a2,0(a2)
80000c0c:	00b60633          	add	a2,a2,a1
80000c10:	00060067          	jr	a2
80000c14:	02a00693          	li	a3,42
80000c18:	0ad79263          	bne	a5,a3,80000cbc <vsnprintf+0x1c8>
80000c1c:	01012783          	lw	a5,16(sp)
80000c20:	0007a483          	lw	s1,0(a5)
80000c24:	00478693          	addi	a3,a5,4
80000c28:	0004d863          	bgez	s1,80000c38 <vsnprintf+0x144>
80000c2c:	00100793          	li	a5,1
80000c30:	409004b3          	neg	s1,s1
80000c34:	00f12a23          	sw	a5,20(sp)
80000c38:	00412783          	lw	a5,4(sp)
80000c3c:	00070513          	mv	a0,a4
80000c40:	00d12823          	sw	a3,16(sp)
80000c44:	00e78333          	add	t1,a5,a4
80000c48:	00034783          	lbu	a5,0(t1)
80000c4c:	02e00713          	li	a4,46
80000c50:	fff00613          	li	a2,-1
80000c54:	0ce78663          	beq	a5,a4,80000d20 <vsnprintf+0x22c>
80000c58:	00412683          	lw	a3,4(sp)
80000c5c:	00150593          	addi	a1,a0,1
80000c60:	06800713          	li	a4,104
80000c64:	00b686b3          	add	a3,a3,a1
80000c68:	10e78463          	beq	a5,a4,80000d70 <vsnprintf+0x27c>
80000c6c:	06c00713          	li	a4,108
80000c70:	18e78663          	beq	a5,a4,80000dfc <vsnprintf+0x308>
80000c74:	07a00713          	li	a4,122
80000c78:	00e79863          	bne	a5,a4,80000c88 <vsnprintf+0x194>
80000c7c:	0006c783          	lbu	a5,0(a3)
80000c80:	00068313          	mv	t1,a3
80000c84:	00058513          	mv	a0,a1
80000c88:	02500713          	li	a4,37
80000c8c:	10e78ce3          	beq	a5,a4,800015a4 <vsnprintf+0xab0>
80000c90:	fa878713          	addi	a4,a5,-88
80000c94:	0ff77713          	zext.b	a4,a4
80000c98:	02000693          	li	a3,32
80000c9c:	10e6ec63          	bltu	a3,a4,80000db4 <vsnprintf+0x2c0>
80000ca0:	00002697          	auipc	a3,0x2
80000ca4:	93868693          	addi	a3,a3,-1736 # 800025d8 <mainargs+0x84>
80000ca8:	00271713          	slli	a4,a4,0x2
80000cac:	00d70733          	add	a4,a4,a3
80000cb0:	00072703          	lw	a4,0(a4)
80000cb4:	00d70733          	add	a4,a4,a3
80000cb8:	00070067          	jr	a4
80000cbc:	00412603          	lw	a2,4(sp)
80000cc0:	fd078693          	addi	a3,a5,-48
80000cc4:	0ff6f293          	zext.b	t0,a3
80000cc8:	00900593          	li	a1,9
80000ccc:	fff70513          	addi	a0,a4,-1
80000cd0:	00000493          	li	s1,0
80000cd4:	00e60733          	add	a4,a2,a4
80000cd8:	00900613          	li	a2,9
80000cdc:	f655e8e3          	bltu	a1,t0,80000c4c <vsnprintf+0x158>
80000ce0:	00048593          	mv	a1,s1
80000ce4:	00074783          	lbu	a5,0(a4)
80000ce8:	00259493          	slli	s1,a1,0x2
80000cec:	00b484b3          	add	s1,s1,a1
80000cf0:	00149493          	slli	s1,s1,0x1
80000cf4:	009685b3          	add	a1,a3,s1
80000cf8:	fd078693          	addi	a3,a5,-48
80000cfc:	0ff6f293          	zext.b	t0,a3
80000d00:	00070313          	mv	t1,a4
80000d04:	00150513          	addi	a0,a0,1
80000d08:	00170713          	addi	a4,a4,1
80000d0c:	fc567ce3          	bgeu	a2,t0,80000ce4 <vsnprintf+0x1f0>
80000d10:	02e00713          	li	a4,46
80000d14:	00058493          	mv	s1,a1
80000d18:	fff00613          	li	a2,-1
80000d1c:	f2e79ee3          	bne	a5,a4,80000c58 <vsnprintf+0x164>
80000d20:	00412783          	lw	a5,4(sp)
80000d24:	00150613          	addi	a2,a0,1
80000d28:	02a00713          	li	a4,42
80000d2c:	00c78333          	add	t1,a5,a2
80000d30:	00034783          	lbu	a5,0(t1)
80000d34:	00e796e3          	bne	a5,a4,80001540 <vsnprintf+0xa4c>
80000d38:	01012783          	lw	a5,16(sp)
80000d3c:	0007a603          	lw	a2,0(a5)
80000d40:	00478713          	addi	a4,a5,4
80000d44:	12064c63          	bltz	a2,80000e7c <vsnprintf+0x388>
80000d48:	00412783          	lw	a5,4(sp)
80000d4c:	00250513          	addi	a0,a0,2
80000d50:	00412683          	lw	a3,4(sp)
80000d54:	00a78333          	add	t1,a5,a0
80000d58:	00034783          	lbu	a5,0(t1)
80000d5c:	00e12823          	sw	a4,16(sp)
80000d60:	00150593          	addi	a1,a0,1
80000d64:	06800713          	li	a4,104
80000d68:	00b686b3          	add	a3,a3,a1
80000d6c:	f0e790e3          	bne	a5,a4,80000c6c <vsnprintf+0x178>
80000d70:	0006c783          	lbu	a5,0(a3)
80000d74:	08e780e3          	beq	a5,a4,800015f4 <vsnprintf+0xb00>
80000d78:	02500713          	li	a4,37
80000d7c:	02e782e3          	beq	a5,a4,800015a0 <vsnprintf+0xaac>
80000d80:	fa878713          	addi	a4,a5,-88
80000d84:	0ff77713          	zext.b	a4,a4
80000d88:	02000513          	li	a0,32
80000d8c:	02e56063          	bltu	a0,a4,80000dac <vsnprintf+0x2b8>
80000d90:	00002517          	auipc	a0,0x2
80000d94:	8cc50513          	addi	a0,a0,-1844 # 8000265c <mainargs+0x108>
80000d98:	00271713          	slli	a4,a4,0x2
80000d9c:	00a70733          	add	a4,a4,a0
80000da0:	00072703          	lw	a4,0(a4)
80000da4:	00a70733          	add	a4,a4,a0
80000da8:	00070067          	jr	a4
80000dac:	00058513          	mv	a0,a1
80000db0:	00068313          	mv	t1,a3
80000db4:	00012783          	lw	a5,0(sp)
80000db8:	00812683          	lw	a3,8(sp)
80000dbc:	00278793          	addi	a5,a5,2
80000dc0:	00f12023          	sw	a5,0(sp)
80000dc4:	02d47863          	bgeu	s0,a3,80000df4 <vsnprintf+0x300>
80000dc8:	00c12603          	lw	a2,12(sp)
80000dcc:	02500713          	li	a4,37
80000dd0:	00140393          	addi	t2,s0,1
80000dd4:	008607b3          	add	a5,a2,s0
80000dd8:	00e78023          	sb	a4,0(a5)
80000ddc:	76d3f8e3          	bgeu	t2,a3,80001d4c <vsnprintf+0x1258>
80000de0:	00034783          	lbu	a5,0(t1)
80000de4:	007603b3          	add	t2,a2,t2
80000de8:	00240413          	addi	s0,s0,2
80000dec:	00f38023          	sb	a5,0(t2)
80000df0:	00040393          	mv	t2,s0
80000df4:	00150513          	addi	a0,a0,1
80000df8:	d7dff06f          	j	80000b74 <vsnprintf+0x80>
80000dfc:	0006c783          	lbu	a5,0(a3)
80000e00:	08e78263          	beq	a5,a4,80000e84 <vsnprintf+0x390>
80000e04:	02500713          	li	a4,37
80000e08:	78e78c63          	beq	a5,a4,800015a0 <vsnprintf+0xaac>
80000e0c:	fa878713          	addi	a4,a5,-88
80000e10:	0ff77713          	zext.b	a4,a4
80000e14:	02000513          	li	a0,32
80000e18:	f8e56ae3          	bltu	a0,a4,80000dac <vsnprintf+0x2b8>
80000e1c:	00002517          	auipc	a0,0x2
80000e20:	8c450513          	addi	a0,a0,-1852 # 800026e0 <mainargs+0x18c>
80000e24:	00271713          	slli	a4,a4,0x2
80000e28:	00a70733          	add	a4,a4,a0
80000e2c:	00072703          	lw	a4,0(a4)
80000e30:	00a70733          	add	a4,a4,a0
80000e34:	00070067          	jr	a4
80000e38:	00100793          	li	a5,1
80000e3c:	00f12c23          	sw	a5,24(sp)
80000e40:	00168693          	addi	a3,a3,1
80000e44:	00170713          	addi	a4,a4,1
80000e48:	d99ff06f          	j	80000be0 <vsnprintf+0xec>
80000e4c:	00100793          	li	a5,1
80000e50:	02f12023          	sw	a5,32(sp)
80000e54:	fedff06f          	j	80000e40 <vsnprintf+0x34c>
80000e58:	00100793          	li	a5,1
80000e5c:	00f12e23          	sw	a5,28(sp)
80000e60:	fe1ff06f          	j	80000e40 <vsnprintf+0x34c>
80000e64:	00100793          	li	a5,1
80000e68:	00f12a23          	sw	a5,20(sp)
80000e6c:	fd5ff06f          	j	80000e40 <vsnprintf+0x34c>
80000e70:	00100793          	li	a5,1
80000e74:	02f12223          	sw	a5,36(sp)
80000e78:	fc9ff06f          	j	80000e40 <vsnprintf+0x34c>
80000e7c:	fff00613          	li	a2,-1
80000e80:	ec9ff06f          	j	80000d48 <vsnprintf+0x254>
80000e84:	00412783          	lw	a5,4(sp)
80000e88:	00250513          	addi	a0,a0,2
80000e8c:	02500713          	li	a4,37
80000e90:	00a78333          	add	t1,a5,a0
80000e94:	00034783          	lbu	a5,0(t1)
80000e98:	70e78663          	beq	a5,a4,800015a4 <vsnprintf+0xab0>
80000e9c:	fa878713          	addi	a4,a5,-88
80000ea0:	0ff77713          	zext.b	a4,a4
80000ea4:	02000693          	li	a3,32
80000ea8:	f0e6e6e3          	bltu	a3,a4,80000db4 <vsnprintf+0x2c0>
80000eac:	00002697          	auipc	a3,0x2
80000eb0:	8b868693          	addi	a3,a3,-1864 # 80002764 <mainargs+0x210>
80000eb4:	00271713          	slli	a4,a4,0x2
80000eb8:	00d70733          	add	a4,a4,a3
80000ebc:	00072703          	lw	a4,0(a4)
80000ec0:	00d70733          	add	a4,a4,a3
80000ec4:	00070067          	jr	a4
80000ec8:	01012703          	lw	a4,16(sp)
80000ecc:	00072783          	lw	a5,0(a4)
80000ed0:	00470713          	addi	a4,a4,4
80000ed4:	02e12623          	sw	a4,44(sp)
80000ed8:	41f7d713          	srai	a4,a5,0x1f
80000edc:	120742e3          	bltz	a4,80001800 <vsnprintf+0xd0c>
80000ee0:	00e7e6b3          	or	a3,a5,a4
80000ee4:	60069ee3          	bnez	a3,80001d00 <vsnprintf+0x120c>
80000ee8:	52060ce3          	beqz	a2,80001c20 <vsnprintf+0x112c>
80000eec:	03000793          	li	a5,48
80000ef0:	04f10423          	sb	a5,72(sp)
80000ef4:	00100313          	li	t1,1
80000ef8:	00000593          	li	a1,0
80000efc:	04810293          	addi	t0,sp,72
80000f00:	42c350e3          	bge	t1,a2,80001b20 <vsnprintf+0x102c>
80000f04:	00030793          	mv	a5,t1
80000f08:	03000693          	li	a3,48
80000f0c:	00178793          	addi	a5,a5,1
80000f10:	00f28733          	add	a4,t0,a5
80000f14:	fed70fa3          	sb	a3,-1(a4)
80000f18:	fec7cae3          	blt	a5,a2,80000f0c <vsnprintf+0x418>
80000f1c:	00130713          	addi	a4,t1,1
80000f20:	00000793          	li	a5,0
80000f24:	00c35663          	bge	t1,a2,80000f30 <vsnprintf+0x43c>
80000f28:	fff60793          	addi	a5,a2,-1
80000f2c:	406787b3          	sub	a5,a5,t1
80000f30:	00e78333          	add	t1,a5,a4
80000f34:	3e0586e3          	beqz	a1,80001b20 <vsnprintf+0x102c>
80000f38:	04030793          	addi	a5,t1,64
80000f3c:	04810713          	addi	a4,sp,72
80000f40:	00e78733          	add	a4,a5,a4
80000f44:	02d00693          	li	a3,45
80000f48:	fcd70023          	sb	a3,-64(a4)
80000f4c:	02c12703          	lw	a4,44(sp)
80000f50:	00130793          	addi	a5,t1,1
80000f54:	00e12823          	sw	a4,16(sp)
80000f58:	40f48733          	sub	a4,s1,a5
80000f5c:	00e04463          	bgtz	a4,80000f64 <vsnprintf+0x470>
80000f60:	00078493          	mv	s1,a5
80000f64:	00012683          	lw	a3,0(sp)
80000f68:	009686b3          	add	a3,a3,s1
80000f6c:	00d12023          	sw	a3,0(sp)
80000f70:	01412683          	lw	a3,20(sp)
80000f74:	340688e3          	beqz	a3,80001ac4 <vsnprintf+0xfd0>
80000f78:	04078063          	beqz	a5,80000fb8 <vsnprintf+0x4c4>
80000f7c:	00812683          	lw	a3,8(sp)
80000f80:	00c12583          	lw	a1,12(sp)
80000f84:	04810293          	addi	t0,sp,72
80000f88:	00f287b3          	add	a5,t0,a5
80000f8c:	00040393          	mv	t2,s0
80000f90:	00d47c63          	bgeu	s0,a3,80000fa8 <vsnprintf+0x4b4>
80000f94:	fff7c603          	lbu	a2,-1(a5)
80000f98:	008583b3          	add	t2,a1,s0
80000f9c:	00140413          	addi	s0,s0,1
80000fa0:	00c38023          	sb	a2,0(t2)
80000fa4:	00040393          	mv	t2,s0
80000fa8:	fff78793          	addi	a5,a5,-1
80000fac:	fef290e3          	bne	t0,a5,80000f8c <vsnprintf+0x498>
80000fb0:	01412783          	lw	a5,20(sp)
80000fb4:	e40780e3          	beqz	a5,80000df4 <vsnprintf+0x300>
80000fb8:	fff70793          	addi	a5,a4,-1
80000fbc:	e2e05ce3          	blez	a4,80000df4 <vsnprintf+0x300>
80000fc0:	00812603          	lw	a2,8(sp)
80000fc4:	00c12583          	lw	a1,12(sp)
80000fc8:	02000693          	li	a3,32
80000fcc:	fff00713          	li	a4,-1
80000fd0:	00040393          	mv	t2,s0
80000fd4:	00c47a63          	bgeu	s0,a2,80000fe8 <vsnprintf+0x4f4>
80000fd8:	008583b3          	add	t2,a1,s0
80000fdc:	00140413          	addi	s0,s0,1
80000fe0:	00d38023          	sb	a3,0(t2)
80000fe4:	00040393          	mv	t2,s0
80000fe8:	fff78793          	addi	a5,a5,-1
80000fec:	fee792e3          	bne	a5,a4,80000fd0 <vsnprintf+0x4dc>
80000ff0:	00150513          	addi	a0,a0,1
80000ff4:	b81ff06f          	j	80000b74 <vsnprintf+0x80>
80000ff8:	01012703          	lw	a4,16(sp)
80000ffc:	00058513          	mv	a0,a1
80001000:	00071783          	lh	a5,0(a4)
80001004:	00470713          	addi	a4,a4,4
80001008:	02e12623          	sw	a4,44(sp)
8000100c:	41f7d713          	srai	a4,a5,0x1f
80001010:	ecdff06f          	j	80000edc <vsnprintf+0x3e8>
80001014:	01012303          	lw	t1,16(sp)
80001018:	00058513          	mv	a0,a1
8000101c:	00000693          	li	a3,0
80001020:	00035703          	lhu	a4,0(t1)
80001024:	00430593          	addi	a1,t1,4
80001028:	00b12823          	sw	a1,16(sp)
8000102c:	00001317          	auipc	t1,0x1
80001030:	50430313          	addi	t1,t1,1284 # 80002530 <_etext+0xa8>
80001034:	07800593          	li	a1,120
80001038:	02612023          	sw	t1,32(sp)
8000103c:	00b79863          	bne	a5,a1,8000104c <vsnprintf+0x558>
80001040:	00001597          	auipc	a1,0x1
80001044:	4dc58593          	addi	a1,a1,1244 # 8000251c <_etext+0x94>
80001048:	02b12023          	sw	a1,32(sp)
8000104c:	00d765b3          	or	a1,a4,a3
80001050:	20059ce3          	bnez	a1,80001a68 <vsnprintf+0xf74>
80001054:	3a0606e3          	beqz	a2,80001c00 <vsnprintf+0x110c>
80001058:	03000713          	li	a4,48
8000105c:	04e10423          	sb	a4,72(sp)
80001060:	00100313          	li	t1,1
80001064:	04810293          	addi	t0,sp,72
80001068:	46c35ae3          	bge	t1,a2,80001cdc <vsnprintf+0x11e8>
8000106c:	00030713          	mv	a4,t1
80001070:	03000593          	li	a1,48
80001074:	00170713          	addi	a4,a4,1
80001078:	00e286b3          	add	a3,t0,a4
8000107c:	feb68fa3          	sb	a1,-1(a3)
80001080:	fec74ae3          	blt	a4,a2,80001074 <vsnprintf+0x580>
80001084:	00130693          	addi	a3,t1,1
80001088:	00000713          	li	a4,0
8000108c:	00c35663          	bge	t1,a2,80001098 <vsnprintf+0x5a4>
80001090:	fff60713          	addi	a4,a2,-1
80001094:	40670733          	sub	a4,a4,t1
80001098:	00d70333          	add	t1,a4,a3
8000109c:	01812703          	lw	a4,24(sp)
800010a0:	40070663          	beqz	a4,800014ac <vsnprintf+0x9b8>
800010a4:	04814683          	lbu	a3,72(sp)
800010a8:	03000713          	li	a4,48
800010ac:	40e68063          	beq	a3,a4,800014ac <vsnprintf+0x9b8>
800010b0:	07800713          	li	a4,120
800010b4:	00e78463          	beq	a5,a4,800010bc <vsnprintf+0x5c8>
800010b8:	05800793          	li	a5,88
800010bc:	04810593          	addi	a1,sp,72
800010c0:	04030693          	addi	a3,t1,64
800010c4:	00130713          	addi	a4,t1,1
800010c8:	00b686b3          	add	a3,a3,a1
800010cc:	fcf68023          	sb	a5,-64(a3)
800010d0:	04070793          	addi	a5,a4,64
800010d4:	00b78733          	add	a4,a5,a1
800010d8:	00230313          	addi	t1,t1,2
800010dc:	03000793          	li	a5,48
800010e0:	fcf70023          	sb	a5,-64(a4)
800010e4:	406485b3          	sub	a1,s1,t1
800010e8:	00012783          	lw	a5,0(sp)
800010ec:	3cb056e3          	blez	a1,80001cb8 <vsnprintf+0x11c4>
800010f0:	009787b3          	add	a5,a5,s1
800010f4:	00f12023          	sw	a5,0(sp)
800010f8:	01412783          	lw	a5,20(sp)
800010fc:	3c079663          	bnez	a5,800014c8 <vsnprintf+0x9d4>
80001100:	01c12783          	lw	a5,28(sp)
80001104:	340794e3          	bnez	a5,80001c4c <vsnprintf+0x1158>
80001108:	fff58793          	addi	a5,a1,-1
8000110c:	00078613          	mv	a2,a5
80001110:	02000693          	li	a3,32
80001114:	00812283          	lw	t0,8(sp)
80001118:	00c12483          	lw	s1,12(sp)
8000111c:	fff00713          	li	a4,-1
80001120:	00040393          	mv	t2,s0
80001124:	00547a63          	bgeu	s0,t0,80001138 <vsnprintf+0x644>
80001128:	008483b3          	add	t2,s1,s0
8000112c:	00140413          	addi	s0,s0,1
80001130:	00d38023          	sb	a3,0(t2)
80001134:	00040393          	mv	t2,s0
80001138:	fff78793          	addi	a5,a5,-1
8000113c:	fee792e3          	bne	a5,a4,80001120 <vsnprintf+0x62c>
80001140:	40b605b3          	sub	a1,a2,a1
80001144:	04810293          	addi	t0,sp,72
80001148:	38031063          	bnez	t1,800014c8 <vsnprintf+0x9d4>
8000114c:	00150513          	addi	a0,a0,1
80001150:	a25ff06f          	j	80000b74 <vsnprintf+0x80>
80001154:	00058513          	mv	a0,a1
80001158:	01012783          	lw	a5,16(sp)
8000115c:	0007a703          	lw	a4,0(a5)
80001160:	00478313          	addi	t1,a5,4
80001164:	76070063          	beqz	a4,800018c4 <vsnprintf+0xdd0>
80001168:	000037b7          	lui	a5,0x3
8000116c:	07878793          	addi	a5,a5,120 # 3078 <_entry_offset+0x3078>
80001170:	04f11423          	sh	a5,72(sp)
80001174:	00200693          	li	a3,2
80001178:	04810293          	addi	t0,sp,72
8000117c:	00001597          	auipc	a1,0x1
80001180:	3a058593          	addi	a1,a1,928 # 8000251c <_etext+0x94>
80001184:	00f77793          	andi	a5,a4,15
80001188:	00f587b3          	add	a5,a1,a5
8000118c:	0007c603          	lbu	a2,0(a5)
80001190:	00168693          	addi	a3,a3,1
80001194:	00d287b3          	add	a5,t0,a3
80001198:	fec78fa3          	sb	a2,-1(a5)
8000119c:	00475713          	srli	a4,a4,0x4
800011a0:	fe0712e3          	bnez	a4,80001184 <vsnprintf+0x690>
800011a4:	40d48733          	sub	a4,s1,a3
800011a8:	78e05e63          	blez	a4,80001944 <vsnprintf+0xe50>
800011ac:	00012683          	lw	a3,0(sp)
800011b0:	009686b3          	add	a3,a3,s1
800011b4:	00d12023          	sw	a3,0(sp)
800011b8:	01412683          	lw	a3,20(sp)
800011bc:	4c068263          	beqz	a3,80001680 <vsnprintf+0xb8c>
800011c0:	00812683          	lw	a3,8(sp)
800011c4:	00c12583          	lw	a1,12(sp)
800011c8:	00040393          	mv	t2,s0
800011cc:	00d47c63          	bgeu	s0,a3,800011e4 <vsnprintf+0x6f0>
800011d0:	fff7c603          	lbu	a2,-1(a5)
800011d4:	008583b3          	add	t2,a1,s0
800011d8:	00140413          	addi	s0,s0,1
800011dc:	00c38023          	sb	a2,0(t2)
800011e0:	00040393          	mv	t2,s0
800011e4:	fff78793          	addi	a5,a5,-1
800011e8:	fef290e3          	bne	t0,a5,800011c8 <vsnprintf+0x6d4>
800011ec:	01412783          	lw	a5,20(sp)
800011f0:	00612823          	sw	t1,16(sp)
800011f4:	c00780e3          	beqz	a5,80000df4 <vsnprintf+0x300>
800011f8:	fff70793          	addi	a5,a4,-1
800011fc:	bee05ce3          	blez	a4,80000df4 <vsnprintf+0x300>
80001200:	00812603          	lw	a2,8(sp)
80001204:	00c12583          	lw	a1,12(sp)
80001208:	02000693          	li	a3,32
8000120c:	fff00713          	li	a4,-1
80001210:	00040393          	mv	t2,s0
80001214:	00c47a63          	bgeu	s0,a2,80001228 <vsnprintf+0x734>
80001218:	008583b3          	add	t2,a1,s0
8000121c:	00140413          	addi	s0,s0,1
80001220:	00d38023          	sb	a3,0(t2)
80001224:	00040393          	mv	t2,s0
80001228:	fff78793          	addi	a5,a5,-1
8000122c:	fee792e3          	bne	a5,a4,80001210 <vsnprintf+0x71c>
80001230:	00612823          	sw	t1,16(sp)
80001234:	00150513          	addi	a0,a0,1
80001238:	93dff06f          	j	80000b74 <vsnprintf+0x80>
8000123c:	00058513          	mv	a0,a1
80001240:	01012703          	lw	a4,16(sp)
80001244:	00072783          	lw	a5,0(a4)
80001248:	00470313          	addi	t1,a4,4
8000124c:	6e078463          	beqz	a5,80001934 <vsnprintf+0xe40>
80001250:	0007c703          	lbu	a4,0(a5)
80001254:	50070663          	beqz	a4,80001760 <vsnprintf+0xc6c>
80001258:	00000693          	li	a3,0
8000125c:	3cd60e63          	beq	a2,a3,80001638 <vsnprintf+0xb44>
80001260:	00168693          	addi	a3,a3,1
80001264:	00d78733          	add	a4,a5,a3
80001268:	00074703          	lbu	a4,0(a4)
8000126c:	fe0718e3          	bnez	a4,8000125c <vsnprintf+0x768>
80001270:	40d48733          	sub	a4,s1,a3
80001274:	10e050e3          	blez	a4,80001b74 <vsnprintf+0x1080>
80001278:	00012603          	lw	a2,0(sp)
8000127c:	00960633          	add	a2,a2,s1
80001280:	00c12023          	sw	a2,0(sp)
80001284:	01412603          	lw	a2,20(sp)
80001288:	42060863          	beqz	a2,800016b8 <vsnprintf+0xbc4>
8000128c:	00812583          	lw	a1,8(sp)
80001290:	00c12483          	lw	s1,12(sp)
80001294:	00000613          	li	a2,0
80001298:	00040393          	mv	t2,s0
8000129c:	00b47e63          	bgeu	s0,a1,800012b8 <vsnprintf+0x7c4>
800012a0:	00c782b3          	add	t0,a5,a2
800012a4:	0002c283          	lbu	t0,0(t0)
800012a8:	008483b3          	add	t2,s1,s0
800012ac:	00140413          	addi	s0,s0,1
800012b0:	00538023          	sb	t0,0(t2)
800012b4:	00040393          	mv	t2,s0
800012b8:	00160613          	addi	a2,a2,1
800012bc:	fcd64ee3          	blt	a2,a3,80001298 <vsnprintf+0x7a4>
800012c0:	01412783          	lw	a5,20(sp)
800012c4:	00612823          	sw	t1,16(sp)
800012c8:	b20786e3          	beqz	a5,80000df4 <vsnprintf+0x300>
800012cc:	fff70493          	addi	s1,a4,-1
800012d0:	b2e052e3          	blez	a4,80000df4 <vsnprintf+0x300>
800012d4:	00812683          	lw	a3,8(sp)
800012d8:	00c12603          	lw	a2,12(sp)
800012dc:	02000713          	li	a4,32
800012e0:	fff00793          	li	a5,-1
800012e4:	00040393          	mv	t2,s0
800012e8:	00d47a63          	bgeu	s0,a3,800012fc <vsnprintf+0x808>
800012ec:	008603b3          	add	t2,a2,s0
800012f0:	00140413          	addi	s0,s0,1
800012f4:	00e38023          	sb	a4,0(t2)
800012f8:	00040393          	mv	t2,s0
800012fc:	fff48493          	addi	s1,s1,-1
80001300:	fef492e3          	bne	s1,a5,800012e4 <vsnprintf+0x7f0>
80001304:	00612823          	sw	t1,16(sp)
80001308:	f2dff06f          	j	80001234 <vsnprintf+0x740>
8000130c:	00058513          	mv	a0,a1
80001310:	01012603          	lw	a2,16(sp)
80001314:	409007b3          	neg	a5,s1
80001318:	fff48713          	addi	a4,s1,-1
8000131c:	00062683          	lw	a3,0(a2)
80001320:	41f7d793          	srai	a5,a5,0x1f
80001324:	00460593          	addi	a1,a2,4
80001328:	00012603          	lw	a2,0(sp)
8000132c:	00f777b3          	and	a5,a4,a5
80001330:	00178793          	addi	a5,a5,1
80001334:	00f607b3          	add	a5,a2,a5
80001338:	00f12023          	sw	a5,0(sp)
8000133c:	01412783          	lw	a5,20(sp)
80001340:	62078063          	beqz	a5,80001960 <vsnprintf+0xe6c>
80001344:	00812783          	lw	a5,8(sp)
80001348:	00f47c63          	bgeu	s0,a5,80001360 <vsnprintf+0x86c>
8000134c:	00c12783          	lw	a5,12(sp)
80001350:	00140413          	addi	s0,s0,1
80001354:	007783b3          	add	t2,a5,t2
80001358:	00d38023          	sb	a3,0(t2)
8000135c:	00040393          	mv	t2,s0
80001360:	ffe48493          	addi	s1,s1,-2
80001364:	02e05a63          	blez	a4,80001398 <vsnprintf+0x8a4>
80001368:	00812683          	lw	a3,8(sp)
8000136c:	00c12603          	lw	a2,12(sp)
80001370:	02000713          	li	a4,32
80001374:	fff00793          	li	a5,-1
80001378:	00040393          	mv	t2,s0
8000137c:	00d47a63          	bgeu	s0,a3,80001390 <vsnprintf+0x89c>
80001380:	008603b3          	add	t2,a2,s0
80001384:	00140413          	addi	s0,s0,1
80001388:	00e38023          	sb	a4,0(t2)
8000138c:	00040393          	mv	t2,s0
80001390:	fff48493          	addi	s1,s1,-1
80001394:	fef492e3          	bne	s1,a5,80001378 <vsnprintf+0x884>
80001398:	00b12823          	sw	a1,16(sp)
8000139c:	00150513          	addi	a0,a0,1
800013a0:	fd4ff06f          	j	80000b74 <vsnprintf+0x80>
800013a4:	01012783          	lw	a5,16(sp)
800013a8:	00000313          	li	t1,0
800013ac:	0007a703          	lw	a4,0(a5)
800013b0:	00478793          	addi	a5,a5,4
800013b4:	00f12823          	sw	a5,16(sp)
800013b8:	006767b3          	or	a5,a4,t1
800013bc:	60079063          	bnez	a5,800019bc <vsnprintf+0xec8>
800013c0:	020600e3          	beqz	a2,80001be0 <vsnprintf+0x10ec>
800013c4:	03000793          	li	a5,48
800013c8:	04f10423          	sb	a5,72(sp)
800013cc:	00100793          	li	a5,1
800013d0:	04810293          	addi	t0,sp,72
800013d4:	00f28733          	add	a4,t0,a5
800013d8:	03000693          	li	a3,48
800013dc:	00c282b3          	add	t0,t0,a2
800013e0:	0ac7d8e3          	bge	a5,a2,80001c90 <vsnprintf+0x119c>
800013e4:	00d70023          	sb	a3,0(a4)
800013e8:	00170713          	addi	a4,a4,1
800013ec:	fee29ce3          	bne	t0,a4,800013e4 <vsnprintf+0x8f0>
800013f0:	40c48733          	sub	a4,s1,a2
800013f4:	00060793          	mv	a5,a2
800013f8:	00e04463          	bgtz	a4,80001400 <vsnprintf+0x90c>
800013fc:	00078493          	mv	s1,a5
80001400:	00012683          	lw	a3,0(sp)
80001404:	009686b3          	add	a3,a3,s1
80001408:	00d12023          	sw	a3,0(sp)
8000140c:	01412683          	lw	a3,20(sp)
80001410:	78068063          	beqz	a3,80001b90 <vsnprintf+0x109c>
80001414:	00812683          	lw	a3,8(sp)
80001418:	00c12583          	lw	a1,12(sp)
8000141c:	04810293          	addi	t0,sp,72
80001420:	00f287b3          	add	a5,t0,a5
80001424:	00040393          	mv	t2,s0
80001428:	00d47c63          	bgeu	s0,a3,80001440 <vsnprintf+0x94c>
8000142c:	fff7c603          	lbu	a2,-1(a5)
80001430:	008583b3          	add	t2,a1,s0
80001434:	00140413          	addi	s0,s0,1
80001438:	00c38023          	sb	a2,0(t2)
8000143c:	00040393          	mv	t2,s0
80001440:	fff78793          	addi	a5,a5,-1
80001444:	fef290e3          	bne	t0,a5,80001424 <vsnprintf+0x930>
80001448:	01412783          	lw	a5,20(sp)
8000144c:	9a0784e3          	beqz	a5,80000df4 <vsnprintf+0x300>
80001450:	fff70493          	addi	s1,a4,-1
80001454:	9ae050e3          	blez	a4,80000df4 <vsnprintf+0x300>
80001458:	00812683          	lw	a3,8(sp)
8000145c:	00c12603          	lw	a2,12(sp)
80001460:	02000713          	li	a4,32
80001464:	fff00793          	li	a5,-1
80001468:	00040393          	mv	t2,s0
8000146c:	00d47a63          	bgeu	s0,a3,80001480 <vsnprintf+0x98c>
80001470:	008603b3          	add	t2,a2,s0
80001474:	00140413          	addi	s0,s0,1
80001478:	00e38023          	sb	a4,0(t2)
8000147c:	00040393          	mv	t2,s0
80001480:	fff48493          	addi	s1,s1,-1
80001484:	fef492e3          	bne	s1,a5,80001468 <vsnprintf+0x974>
80001488:	00150513          	addi	a0,a0,1
8000148c:	ee8ff06f          	j	80000b74 <vsnprintf+0x80>
80001490:	01012783          	lw	a5,16(sp)
80001494:	00000313          	li	t1,0
80001498:	00058513          	mv	a0,a1
8000149c:	0007d703          	lhu	a4,0(a5)
800014a0:	00478793          	addi	a5,a5,4
800014a4:	00f12823          	sw	a5,16(sp)
800014a8:	f11ff06f          	j	800013b8 <vsnprintf+0x8c4>
800014ac:	406485b3          	sub	a1,s1,t1
800014b0:	1cb05463          	blez	a1,80001678 <vsnprintf+0xb84>
800014b4:	00012783          	lw	a5,0(sp)
800014b8:	009787b3          	add	a5,a5,s1
800014bc:	00f12023          	sw	a5,0(sp)
800014c0:	01412783          	lw	a5,20(sp)
800014c4:	76078663          	beqz	a5,80001c30 <vsnprintf+0x113c>
800014c8:	00812703          	lw	a4,8(sp)
800014cc:	00c12603          	lw	a2,12(sp)
800014d0:	006287b3          	add	a5,t0,t1
800014d4:	00040393          	mv	t2,s0
800014d8:	00e47c63          	bgeu	s0,a4,800014f0 <vsnprintf+0x9fc>
800014dc:	fff7c683          	lbu	a3,-1(a5)
800014e0:	008603b3          	add	t2,a2,s0
800014e4:	00140413          	addi	s0,s0,1
800014e8:	00d38023          	sb	a3,0(t2)
800014ec:	00040393          	mv	t2,s0
800014f0:	fff78793          	addi	a5,a5,-1
800014f4:	fef290e3          	bne	t0,a5,800014d4 <vsnprintf+0x9e0>
800014f8:	01412783          	lw	a5,20(sp)
800014fc:	8e078ce3          	beqz	a5,80000df4 <vsnprintf+0x300>
80001500:	fff58493          	addi	s1,a1,-1
80001504:	8eb058e3          	blez	a1,80000df4 <vsnprintf+0x300>
80001508:	00812683          	lw	a3,8(sp)
8000150c:	00c12603          	lw	a2,12(sp)
80001510:	02000713          	li	a4,32
80001514:	fff00793          	li	a5,-1
80001518:	00040393          	mv	t2,s0
8000151c:	00d47a63          	bgeu	s0,a3,80001530 <vsnprintf+0xa3c>
80001520:	008603b3          	add	t2,a2,s0
80001524:	00140413          	addi	s0,s0,1
80001528:	00e38023          	sb	a4,0(t2)
8000152c:	00040393          	mv	t2,s0
80001530:	fff48493          	addi	s1,s1,-1
80001534:	fef492e3          	bne	s1,a5,80001518 <vsnprintf+0xa24>
80001538:	00150513          	addi	a0,a0,1
8000153c:	e38ff06f          	j	80000b74 <vsnprintf+0x80>
80001540:	fd078693          	addi	a3,a5,-48
80001544:	0ff6f593          	zext.b	a1,a3
80001548:	00900713          	li	a4,9
8000154c:	72b76463          	bltu	a4,a1,80001c74 <vsnprintf+0x1180>
80001550:	00412783          	lw	a5,4(sp)
80001554:	00250713          	addi	a4,a0,2
80001558:	00060513          	mv	a0,a2
8000155c:	00000613          	li	a2,0
80001560:	00e78733          	add	a4,a5,a4
80001564:	00900293          	li	t0,9
80001568:	00060593          	mv	a1,a2
8000156c:	00074783          	lbu	a5,0(a4)
80001570:	00259613          	slli	a2,a1,0x2
80001574:	00b60633          	add	a2,a2,a1
80001578:	00161613          	slli	a2,a2,0x1
8000157c:	00c685b3          	add	a1,a3,a2
80001580:	fd078693          	addi	a3,a5,-48
80001584:	0ff6f613          	zext.b	a2,a3
80001588:	00070313          	mv	t1,a4
8000158c:	00150513          	addi	a0,a0,1
80001590:	00170713          	addi	a4,a4,1
80001594:	fcc2fce3          	bgeu	t0,a2,8000156c <vsnprintf+0xa78>
80001598:	00058613          	mv	a2,a1
8000159c:	ebcff06f          	j	80000c58 <vsnprintf+0x164>
800015a0:	00058513          	mv	a0,a1
800015a4:	00012783          	lw	a5,0(sp)
800015a8:	00178793          	addi	a5,a5,1
800015ac:	00f12023          	sw	a5,0(sp)
800015b0:	00812783          	lw	a5,8(sp)
800015b4:	84f470e3          	bgeu	s0,a5,80000df4 <vsnprintf+0x300>
800015b8:	00c12783          	lw	a5,12(sp)
800015bc:	00140413          	addi	s0,s0,1
800015c0:	00150513          	addi	a0,a0,1
800015c4:	007783b3          	add	t2,a5,t2
800015c8:	02500793          	li	a5,37
800015cc:	00f38023          	sb	a5,0(t2)
800015d0:	00040393          	mv	t2,s0
800015d4:	da0ff06f          	j	80000b74 <vsnprintf+0x80>
800015d8:	00c12783          	lw	a5,12(sp)
800015dc:	00078023          	sb	zero,0(a5)
800015e0:	09012083          	lw	ra,144(sp)
800015e4:	00012023          	sw	zero,0(sp)
800015e8:	00012503          	lw	a0,0(sp)
800015ec:	09410113          	addi	sp,sp,148
800015f0:	00008067          	ret
800015f4:	00412783          	lw	a5,4(sp)
800015f8:	00250513          	addi	a0,a0,2
800015fc:	02500713          	li	a4,37
80001600:	00a78333          	add	t1,a5,a0
80001604:	00034783          	lbu	a5,0(t1)
80001608:	f8e78ee3          	beq	a5,a4,800015a4 <vsnprintf+0xab0>
8000160c:	fa878713          	addi	a4,a5,-88
80001610:	0ff77713          	zext.b	a4,a4
80001614:	02000693          	li	a3,32
80001618:	f8e6ee63          	bltu	a3,a4,80000db4 <vsnprintf+0x2c0>
8000161c:	00001697          	auipc	a3,0x1
80001620:	1cc68693          	addi	a3,a3,460 # 800027e8 <mainargs+0x294>
80001624:	00271713          	slli	a4,a4,0x2
80001628:	00d70733          	add	a4,a4,a3
8000162c:	00072703          	lw	a4,0(a4)
80001630:	00d70733          	add	a4,a4,a3
80001634:	00070067          	jr	a4
80001638:	40c48733          	sub	a4,s1,a2
8000163c:	00012583          	lw	a1,0(sp)
80001640:	60e05c63          	blez	a4,80001c58 <vsnprintf+0x1164>
80001644:	009585b3          	add	a1,a1,s1
80001648:	00b12023          	sw	a1,0(sp)
8000164c:	01412583          	lw	a1,20(sp)
80001650:	06058463          	beqz	a1,800016b8 <vsnprintf+0xbc4>
80001654:	c2061ce3          	bnez	a2,8000128c <vsnprintf+0x798>
80001658:	fff70493          	addi	s1,a4,-1
8000165c:	c79ff06f          	j	800012d4 <vsnprintf+0x7e0>
80001660:	01012583          	lw	a1,16(sp)
80001664:	00000693          	li	a3,0
80001668:	0005a703          	lw	a4,0(a1)
8000166c:	00458593          	addi	a1,a1,4
80001670:	00b12823          	sw	a1,16(sp)
80001674:	9b9ff06f          	j	8000102c <vsnprintf+0x538>
80001678:	00030493          	mv	s1,t1
8000167c:	e39ff06f          	j	800014b4 <vsnprintf+0x9c0>
80001680:	00812383          	lw	t2,8(sp)
80001684:	00c12483          	lw	s1,12(sp)
80001688:	fff70713          	addi	a4,a4,-1
8000168c:	02000593          	li	a1,32
80001690:	fff00613          	li	a2,-1
80001694:	00747863          	bgeu	s0,t2,800016a4 <vsnprintf+0xbb0>
80001698:	008486b3          	add	a3,s1,s0
8000169c:	00b68023          	sb	a1,0(a3)
800016a0:	00140413          	addi	s0,s0,1
800016a4:	fff70713          	addi	a4,a4,-1
800016a8:	fec716e3          	bne	a4,a2,80001694 <vsnprintf+0xba0>
800016ac:	b15ff06f          	j	800011c0 <vsnprintf+0x6cc>
800016b0:	00048713          	mv	a4,s1
800016b4:	00000693          	li	a3,0
800016b8:	00812283          	lw	t0,8(sp)
800016bc:	00c12483          	lw	s1,12(sp)
800016c0:	fff70713          	addi	a4,a4,-1
800016c4:	02000593          	li	a1,32
800016c8:	fff00613          	li	a2,-1
800016cc:	00040393          	mv	t2,s0
800016d0:	00547a63          	bgeu	s0,t0,800016e4 <vsnprintf+0xbf0>
800016d4:	008483b3          	add	t2,s1,s0
800016d8:	00140413          	addi	s0,s0,1
800016dc:	00b38023          	sb	a1,0(t2)
800016e0:	00040393          	mv	t2,s0
800016e4:	fff70713          	addi	a4,a4,-1
800016e8:	fec712e3          	bne	a4,a2,800016cc <vsnprintf+0xbd8>
800016ec:	ba0690e3          	bnez	a3,8000128c <vsnprintf+0x798>
800016f0:	00612823          	sw	t1,16(sp)
800016f4:	b41ff06f          	j	80001234 <vsnprintf+0x740>
800016f8:	01012703          	lw	a4,16(sp)
800016fc:	00058513          	mv	a0,a1
80001700:	00072783          	lw	a5,0(a4)
80001704:	00470713          	addi	a4,a4,4
80001708:	02e12623          	sw	a4,44(sp)
8000170c:	41f7d713          	srai	a4,a5,0x1f
80001710:	fccff06f          	j	80000edc <vsnprintf+0x3e8>
80001714:	01012303          	lw	t1,16(sp)
80001718:	00058513          	mv	a0,a1
8000171c:	00000693          	li	a3,0
80001720:	00430593          	addi	a1,t1,4
80001724:	00032703          	lw	a4,0(t1)
80001728:	00b12823          	sw	a1,16(sp)
8000172c:	901ff06f          	j	8000102c <vsnprintf+0x538>
80001730:	01012703          	lw	a4,16(sp)
80001734:	00074783          	lbu	a5,0(a4)
80001738:	00470713          	addi	a4,a4,4
8000173c:	02e12623          	sw	a4,44(sp)
80001740:	00000713          	li	a4,0
80001744:	f9cff06f          	j	80000ee0 <vsnprintf+0x3ec>
80001748:	01012583          	lw	a1,16(sp)
8000174c:	00000693          	li	a3,0
80001750:	0005c703          	lbu	a4,0(a1)
80001754:	00458593          	addi	a1,a1,4
80001758:	00b12823          	sw	a1,16(sp)
8000175c:	8d1ff06f          	j	8000102c <vsnprintf+0x538>
80001760:	00612823          	sw	t1,16(sp)
80001764:	e8905863          	blez	s1,80000df4 <vsnprintf+0x300>
80001768:	00012703          	lw	a4,0(sp)
8000176c:	00970733          	add	a4,a4,s1
80001770:	00e12023          	sw	a4,0(sp)
80001774:	01412703          	lw	a4,20(sp)
80001778:	f2070ce3          	beqz	a4,800016b0 <vsnprintf+0xbbc>
8000177c:	fff48493          	addi	s1,s1,-1
80001780:	b55ff06f          	j	800012d4 <vsnprintf+0x7e0>
80001784:	01012583          	lw	a1,16(sp)
80001788:	0005a703          	lw	a4,0(a1)
8000178c:	0045a683          	lw	a3,4(a1)
80001790:	00858593          	addi	a1,a1,8
80001794:	00b12823          	sw	a1,16(sp)
80001798:	895ff06f          	j	8000102c <vsnprintf+0x538>
8000179c:	01012683          	lw	a3,16(sp)
800017a0:	0006a783          	lw	a5,0(a3)
800017a4:	0046a703          	lw	a4,4(a3)
800017a8:	00868693          	addi	a3,a3,8
800017ac:	02d12623          	sw	a3,44(sp)
800017b0:	f2cff06f          	j	80000edc <vsnprintf+0x3e8>
800017b4:	01012783          	lw	a5,16(sp)
800017b8:	00000313          	li	t1,0
800017bc:	00058513          	mv	a0,a1
800017c0:	0007a703          	lw	a4,0(a5)
800017c4:	00478793          	addi	a5,a5,4
800017c8:	00f12823          	sw	a5,16(sp)
800017cc:	bedff06f          	j	800013b8 <vsnprintf+0x8c4>
800017d0:	01012783          	lw	a5,16(sp)
800017d4:	00000313          	li	t1,0
800017d8:	0007c703          	lbu	a4,0(a5)
800017dc:	00478793          	addi	a5,a5,4
800017e0:	00f12823          	sw	a5,16(sp)
800017e4:	bd5ff06f          	j	800013b8 <vsnprintf+0x8c4>
800017e8:	01012783          	lw	a5,16(sp)
800017ec:	0007a703          	lw	a4,0(a5)
800017f0:	0047a303          	lw	t1,4(a5)
800017f4:	00878793          	addi	a5,a5,8
800017f8:	00f12823          	sw	a5,16(sp)
800017fc:	bbdff06f          	j	800013b8 <vsnprintf+0x8c4>
80001800:	00f036b3          	snez	a3,a5
80001804:	40e00733          	neg	a4,a4
80001808:	40d70733          	sub	a4,a4,a3
8000180c:	40f007b3          	neg	a5,a5
80001810:	00100593          	li	a1,1
80001814:	00000313          	li	t1,0
80001818:	04810293          	addi	t0,sp,72
8000181c:	02812c23          	sw	s0,56(sp)
80001820:	02912e23          	sw	s1,60(sp)
80001824:	02a12823          	sw	a0,48(sp)
80001828:	02b12a23          	sw	a1,52(sp)
8000182c:	04c12023          	sw	a2,64(sp)
80001830:	00030493          	mv	s1,t1
80001834:	04712223          	sw	t2,68(sp)
80001838:	00078413          	mv	s0,a5
8000183c:	02512423          	sw	t0,40(sp)
80001840:	02812783          	lw	a5,40(sp)
80001844:	00148493          	addi	s1,s1,1
80001848:	00a00613          	li	a2,10
8000184c:	009783b3          	add	t2,a5,s1
80001850:	00000693          	li	a3,0
80001854:	00040513          	mv	a0,s0
80001858:	00070593          	mv	a1,a4
8000185c:	00e12c23          	sw	a4,24(sp)
80001860:	00712823          	sw	t2,16(sp)
80001864:	255000ef          	jal	800022b8 <__moddi3>
80001868:	01812703          	lw	a4,24(sp)
8000186c:	01012383          	lw	t2,16(sp)
80001870:	03050293          	addi	t0,a0,48
80001874:	00000693          	li	a3,0
80001878:	00040513          	mv	a0,s0
8000187c:	00070593          	mv	a1,a4
80001880:	00a00613          	li	a2,10
80001884:	fe538fa3          	sb	t0,-1(t2)
80001888:	1b9000ef          	jal	80002240 <__divdi3>
8000188c:	00a5e6b3          	or	a3,a1,a0
80001890:	00058713          	mv	a4,a1
80001894:	00050413          	mv	s0,a0
80001898:	fa0694e3          	bnez	a3,80001840 <vsnprintf+0xd4c>
8000189c:	04012603          	lw	a2,64(sp)
800018a0:	00048313          	mv	t1,s1
800018a4:	03012503          	lw	a0,48(sp)
800018a8:	03412583          	lw	a1,52(sp)
800018ac:	03812403          	lw	s0,56(sp)
800018b0:	03c12483          	lw	s1,60(sp)
800018b4:	04412383          	lw	t2,68(sp)
800018b8:	02812283          	lw	t0,40(sp)
800018bc:	e4c34463          	blt	t1,a2,80000f04 <vsnprintf+0x410>
800018c0:	e74ff06f          	j	80000f34 <vsnprintf+0x440>
800018c4:	00001597          	auipc	a1,0x1
800018c8:	c8958593          	addi	a1,a1,-887 # 8000254d <_etext+0xc5>
800018cc:	00058713          	mv	a4,a1
800018d0:	00000793          	li	a5,0
800018d4:	00074603          	lbu	a2,0(a4)
800018d8:	00078693          	mv	a3,a5
800018dc:	00170713          	addi	a4,a4,1
800018e0:	00178793          	addi	a5,a5,1
800018e4:	fe0618e3          	bnez	a2,800018d4 <vsnprintf+0xde0>
800018e8:	00012703          	lw	a4,0(sp)
800018ec:	00d586b3          	add	a3,a1,a3
800018f0:	00c12583          	lw	a1,12(sp)
800018f4:	00f707b3          	add	a5,a4,a5
800018f8:	00812703          	lw	a4,8(sp)
800018fc:	00f12023          	sw	a5,0(sp)
80001900:	00001797          	auipc	a5,0x1
80001904:	c4c78793          	addi	a5,a5,-948 # 8000254c <_etext+0xc4>
80001908:	00040393          	mv	t2,s0
8000190c:	00e47c63          	bgeu	s0,a4,80001924 <vsnprintf+0xe30>
80001910:	0007c603          	lbu	a2,0(a5)
80001914:	008583b3          	add	t2,a1,s0
80001918:	00140413          	addi	s0,s0,1
8000191c:	00c38023          	sb	a2,0(t2)
80001920:	00040393          	mv	t2,s0
80001924:	00178793          	addi	a5,a5,1
80001928:	fef690e3          	bne	a3,a5,80001908 <vsnprintf+0xe14>
8000192c:	00612823          	sw	t1,16(sp)
80001930:	905ff06f          	j	80001234 <vsnprintf+0x740>
80001934:	00001797          	auipc	a5,0x1
80001938:	c1078793          	addi	a5,a5,-1008 # 80002544 <_etext+0xbc>
8000193c:	00000693          	li	a3,0
80001940:	91dff06f          	j	8000125c <vsnprintf+0x768>
80001944:	00012583          	lw	a1,0(sp)
80001948:	01412603          	lw	a2,20(sp)
8000194c:	00d586b3          	add	a3,a1,a3
80001950:	00163613          	seqz	a2,a2
80001954:	00d12023          	sw	a3,0(sp)
80001958:	40c70733          	sub	a4,a4,a2
8000195c:	865ff06f          	j	800011c0 <vsnprintf+0x6cc>
80001960:	ffe48493          	addi	s1,s1,-2
80001964:	02000613          	li	a2,32
80001968:	fff00793          	li	a5,-1
8000196c:	02e05663          	blez	a4,80001998 <vsnprintf+0xea4>
80001970:	00812703          	lw	a4,8(sp)
80001974:	00c12303          	lw	t1,12(sp)
80001978:	00040393          	mv	t2,s0
8000197c:	00e47a63          	bgeu	s0,a4,80001990 <vsnprintf+0xe9c>
80001980:	008303b3          	add	t2,t1,s0
80001984:	00140413          	addi	s0,s0,1
80001988:	00c38023          	sb	a2,0(t2)
8000198c:	00040393          	mv	t2,s0
80001990:	fff48493          	addi	s1,s1,-1
80001994:	fef492e3          	bne	s1,a5,80001978 <vsnprintf+0xe84>
80001998:	00812783          	lw	a5,8(sp)
8000199c:	9ef47ee3          	bgeu	s0,a5,80001398 <vsnprintf+0x8a4>
800019a0:	00c12783          	lw	a5,12(sp)
800019a4:	00140413          	addi	s0,s0,1
800019a8:	00b12823          	sw	a1,16(sp)
800019ac:	007783b3          	add	t2,a5,t2
800019b0:	00d38023          	sb	a3,0(t2)
800019b4:	00040393          	mv	t2,s0
800019b8:	9e5ff06f          	j	8000139c <vsnprintf+0x8a8>
800019bc:	00000793          	li	a5,0
800019c0:	02912823          	sw	s1,48(sp)
800019c4:	04810293          	addi	t0,sp,72
800019c8:	02a12423          	sw	a0,40(sp)
800019cc:	02812623          	sw	s0,44(sp)
800019d0:	02c12a23          	sw	a2,52(sp)
800019d4:	00078493          	mv	s1,a5
800019d8:	02712c23          	sw	t2,56(sp)
800019dc:	00a00613          	li	a2,10
800019e0:	00000693          	li	a3,0
800019e4:	00070513          	mv	a0,a4
800019e8:	00030593          	mv	a1,t1
800019ec:	00148493          	addi	s1,s1,1
800019f0:	00928433          	add	s0,t0,s1
800019f4:	00512c23          	sw	t0,24(sp)
800019f8:	02e12223          	sw	a4,36(sp)
800019fc:	02612023          	sw	t1,32(sp)
80001a00:	14d000ef          	jal	8000234c <__umoddi3>
80001a04:	02012303          	lw	t1,32(sp)
80001a08:	02412703          	lw	a4,36(sp)
80001a0c:	03050393          	addi	t2,a0,48
80001a10:	00030593          	mv	a1,t1
80001a14:	00070513          	mv	a0,a4
80001a18:	fe740fa3          	sb	t2,-1(s0)
80001a1c:	00a00613          	li	a2,10
80001a20:	00000693          	li	a3,0
80001a24:	02e12023          	sw	a4,32(sp)
80001a28:	00030413          	mv	s0,t1
80001a2c:	119000ef          	jal	80002344 <__udivdi3>
80001a30:	01812283          	lw	t0,24(sp)
80001a34:	00050713          	mv	a4,a0
80001a38:	00058313          	mv	t1,a1
80001a3c:	fa0410e3          	bnez	s0,800019dc <vsnprintf+0xee8>
80001a40:	02012783          	lw	a5,32(sp)
80001a44:	00900693          	li	a3,9
80001a48:	f8f6eae3          	bltu	a3,a5,800019dc <vsnprintf+0xee8>
80001a4c:	00048793          	mv	a5,s1
80001a50:	02812503          	lw	a0,40(sp)
80001a54:	02c12403          	lw	s0,44(sp)
80001a58:	03412603          	lw	a2,52(sp)
80001a5c:	03012483          	lw	s1,48(sp)
80001a60:	03812383          	lw	t2,56(sp)
80001a64:	96dff06f          	j	800013d0 <vsnprintf+0x8dc>
80001a68:	02812623          	sw	s0,44(sp)
80001a6c:	02012403          	lw	s0,32(sp)
80001a70:	00000313          	li	t1,0
80001a74:	04810293          	addi	t0,sp,72
80001a78:	02f12223          	sw	a5,36(sp)
80001a7c:	02a12423          	sw	a0,40(sp)
80001a80:	00f77793          	andi	a5,a4,15
80001a84:	00f407b3          	add	a5,s0,a5
80001a88:	0007c583          	lbu	a1,0(a5)
80001a8c:	01c69513          	slli	a0,a3,0x1c
80001a90:	00130313          	addi	t1,t1,1
80001a94:	00475713          	srli	a4,a4,0x4
80001a98:	006287b3          	add	a5,t0,t1
80001a9c:	00e56733          	or	a4,a0,a4
80001aa0:	0046d693          	srli	a3,a3,0x4
80001aa4:	feb78fa3          	sb	a1,-1(a5)
80001aa8:	00d767b3          	or	a5,a4,a3
80001aac:	fc079ae3          	bnez	a5,80001a80 <vsnprintf+0xf8c>
80001ab0:	02412783          	lw	a5,36(sp)
80001ab4:	02812503          	lw	a0,40(sp)
80001ab8:	02c12403          	lw	s0,44(sp)
80001abc:	dac34863          	blt	t1,a2,8000106c <vsnprintf+0x578>
80001ac0:	ddcff06f          	j	8000109c <vsnprintf+0x5a8>
80001ac4:	01c12583          	lw	a1,28(sp)
80001ac8:	02000693          	li	a3,32
80001acc:	00058863          	beqz	a1,80001adc <vsnprintf+0xfe8>
80001ad0:	41f65693          	srai	a3,a2,0x1f
80001ad4:	0106f693          	andi	a3,a3,16
80001ad8:	02068693          	addi	a3,a3,32
80001adc:	fff70613          	addi	a2,a4,-1
80001ae0:	24e05263          	blez	a4,80001d24 <vsnprintf+0x1230>
80001ae4:	00812583          	lw	a1,8(sp)
80001ae8:	00c12303          	lw	t1,12(sp)
80001aec:	00060713          	mv	a4,a2
80001af0:	fff00613          	li	a2,-1
80001af4:	00040393          	mv	t2,s0
80001af8:	00b47a63          	bgeu	s0,a1,80001b0c <vsnprintf+0x1018>
80001afc:	008303b3          	add	t2,t1,s0
80001b00:	00140413          	addi	s0,s0,1
80001b04:	00d38023          	sb	a3,0(t2)
80001b08:	00040393          	mv	t2,s0
80001b0c:	fff70713          	addi	a4,a4,-1
80001b10:	fec712e3          	bne	a4,a2,80001af4 <vsnprintf+0x1000>
80001b14:	c6079463          	bnez	a5,80000f7c <vsnprintf+0x488>
80001b18:	00150513          	addi	a0,a0,1
80001b1c:	858ff06f          	j	80000b74 <vsnprintf+0x80>
80001b20:	02c12783          	lw	a5,44(sp)
80001b24:	00f12823          	sw	a5,16(sp)
80001b28:	02412783          	lw	a5,36(sp)
80001b2c:	02078063          	beqz	a5,80001b4c <vsnprintf+0x1058>
80001b30:	04030793          	addi	a5,t1,64
80001b34:	04810713          	addi	a4,sp,72
80001b38:	00e78733          	add	a4,a5,a4
80001b3c:	02b00693          	li	a3,43
80001b40:	00130793          	addi	a5,t1,1
80001b44:	fcd70023          	sb	a3,-64(a4)
80001b48:	c10ff06f          	j	80000f58 <vsnprintf+0x464>
80001b4c:	02012703          	lw	a4,32(sp)
80001b50:	00030793          	mv	a5,t1
80001b54:	c0070263          	beqz	a4,80000f58 <vsnprintf+0x464>
80001b58:	04030713          	addi	a4,t1,64
80001b5c:	04810693          	addi	a3,sp,72
80001b60:	00d70333          	add	t1,a4,a3
80001b64:	02000713          	li	a4,32
80001b68:	00178793          	addi	a5,a5,1
80001b6c:	fce30023          	sb	a4,-64(t1)
80001b70:	be8ff06f          	j	80000f58 <vsnprintf+0x464>
80001b74:	00012583          	lw	a1,0(sp)
80001b78:	01412603          	lw	a2,20(sp)
80001b7c:	00d585b3          	add	a1,a1,a3
80001b80:	00163613          	seqz	a2,a2
80001b84:	00b12023          	sw	a1,0(sp)
80001b88:	40c70733          	sub	a4,a4,a2
80001b8c:	f00ff06f          	j	8000128c <vsnprintf+0x798>
80001b90:	01c12683          	lw	a3,28(sp)
80001b94:	0e069663          	bnez	a3,80001c80 <vsnprintf+0x118c>
80001b98:	00070493          	mv	s1,a4
80001b9c:	02000693          	li	a3,32
80001ba0:	fff48713          	addi	a4,s1,-1
80001ba4:	02905863          	blez	s1,80001bd4 <vsnprintf+0x10e0>
80001ba8:	00812583          	lw	a1,8(sp)
80001bac:	00c12303          	lw	t1,12(sp)
80001bb0:	fff00613          	li	a2,-1
80001bb4:	00040393          	mv	t2,s0
80001bb8:	00b47a63          	bgeu	s0,a1,80001bcc <vsnprintf+0x10d8>
80001bbc:	008303b3          	add	t2,t1,s0
80001bc0:	00140413          	addi	s0,s0,1
80001bc4:	00d38023          	sb	a3,0(t2)
80001bc8:	00040393          	mv	t2,s0
80001bcc:	fff70713          	addi	a4,a4,-1
80001bd0:	fec712e3          	bne	a4,a2,80001bb4 <vsnprintf+0x10c0>
80001bd4:	840790e3          	bnez	a5,80001414 <vsnprintf+0x920>
80001bd8:	00150513          	addi	a0,a0,1
80001bdc:	f99fe06f          	j	80000b74 <vsnprintf+0x80>
80001be0:	0a905c63          	blez	s1,80001c98 <vsnprintf+0x11a4>
80001be4:	00012783          	lw	a5,0(sp)
80001be8:	009787b3          	add	a5,a5,s1
80001bec:	00f12023          	sw	a5,0(sp)
80001bf0:	01412783          	lw	a5,20(sp)
80001bf4:	0a078663          	beqz	a5,80001ca0 <vsnprintf+0x11ac>
80001bf8:	fff48493          	addi	s1,s1,-1
80001bfc:	85dff06f          	j	80001458 <vsnprintf+0x964>
80001c00:	9e905a63          	blez	s1,80000df4 <vsnprintf+0x300>
80001c04:	00012783          	lw	a5,0(sp)
80001c08:	009787b3          	add	a5,a5,s1
80001c0c:	00f12023          	sw	a5,0(sp)
80001c10:	01412783          	lw	a5,20(sp)
80001c14:	10078263          	beqz	a5,80001d18 <vsnprintf+0x1224>
80001c18:	fff48493          	addi	s1,s1,-1
80001c1c:	8edff06f          	j	80001508 <vsnprintf+0xa14>
80001c20:	02c12783          	lw	a5,44(sp)
80001c24:	00000313          	li	t1,0
80001c28:	00f12823          	sw	a5,16(sp)
80001c2c:	efdff06f          	j	80001b28 <vsnprintf+0x1034>
80001c30:	01c12783          	lw	a5,28(sp)
80001c34:	00079c63          	bnez	a5,80001c4c <vsnprintf+0x1158>
80001c38:	02000693          	li	a3,32
80001c3c:	fff58793          	addi	a5,a1,-1
80001c40:	10b05c63          	blez	a1,80001d58 <vsnprintf+0x1264>
80001c44:	00078613          	mv	a2,a5
80001c48:	cccff06f          	j	80001114 <vsnprintf+0x620>
80001c4c:	fe0656e3          	bgez	a2,80001c38 <vsnprintf+0x1144>
80001c50:	03000693          	li	a3,48
80001c54:	fe9ff06f          	j	80001c3c <vsnprintf+0x1148>
80001c58:	00c585b3          	add	a1,a1,a2
80001c5c:	00b12023          	sw	a1,0(sp)
80001c60:	01412583          	lw	a1,20(sp)
80001c64:	0a058263          	beqz	a1,80001d08 <vsnprintf+0x1214>
80001c68:	e2061263          	bnez	a2,8000128c <vsnprintf+0x798>
80001c6c:	00612823          	sw	t1,16(sp)
80001c70:	dc4ff06f          	j	80001234 <vsnprintf+0x740>
80001c74:	00060513          	mv	a0,a2
80001c78:	00000613          	li	a2,0
80001c7c:	fddfe06f          	j	80000c58 <vsnprintf+0x164>
80001c80:	f0065ce3          	bgez	a2,80001b98 <vsnprintf+0x10a4>
80001c84:	00070493          	mv	s1,a4
80001c88:	03000693          	li	a3,48
80001c8c:	f15ff06f          	j	80001ba0 <vsnprintf+0x10ac>
80001c90:	40f48733          	sub	a4,s1,a5
80001c94:	f64ff06f          	j	800013f8 <vsnprintf+0x904>
80001c98:	01412783          	lw	a5,20(sp)
80001c9c:	94079c63          	bnez	a5,80000df4 <vsnprintf+0x300>
80001ca0:	01c12783          	lw	a5,28(sp)
80001ca4:	00048713          	mv	a4,s1
80001ca8:	ee0788e3          	beqz	a5,80001b98 <vsnprintf+0x10a4>
80001cac:	00000793          	li	a5,0
80001cb0:	02000693          	li	a3,32
80001cb4:	eedff06f          	j	80001ba0 <vsnprintf+0x10ac>
80001cb8:	006787b3          	add	a5,a5,t1
80001cbc:	00f12023          	sw	a5,0(sp)
80001cc0:	01412783          	lw	a5,20(sp)
80001cc4:	800792e3          	bnez	a5,800014c8 <vsnprintf+0x9d4>
80001cc8:	01c12783          	lw	a5,28(sp)
80001ccc:	f80790e3          	bnez	a5,80001c4c <vsnprintf+0x1158>
80001cd0:	fff58593          	addi	a1,a1,-1
80001cd4:	04810293          	addi	t0,sp,72
80001cd8:	ff0ff06f          	j	800014c8 <vsnprintf+0x9d4>
80001cdc:	fff48593          	addi	a1,s1,-1
80001ce0:	04b05863          	blez	a1,80001d30 <vsnprintf+0x123c>
80001ce4:	00012783          	lw	a5,0(sp)
80001ce8:	009787b3          	add	a5,a5,s1
80001cec:	00f12023          	sw	a5,0(sp)
80001cf0:	01412783          	lw	a5,20(sp)
80001cf4:	c0078663          	beqz	a5,80001100 <vsnprintf+0x60c>
80001cf8:	00078313          	mv	t1,a5
80001cfc:	fccff06f          	j	800014c8 <vsnprintf+0x9d4>
80001d00:	00000593          	li	a1,0
80001d04:	b11ff06f          	j	80001814 <vsnprintf+0xd20>
80001d08:	fff70713          	addi	a4,a4,-1
80001d0c:	d8061063          	bnez	a2,8000128c <vsnprintf+0x798>
80001d10:	00612823          	sw	t1,16(sp)
80001d14:	d20ff06f          	j	80001234 <vsnprintf+0x740>
80001d18:	00048593          	mv	a1,s1
80001d1c:	00000313          	li	t1,0
80001d20:	be0ff06f          	j	80001100 <vsnprintf+0x60c>
80001d24:	00060713          	mv	a4,a2
80001d28:	a4079a63          	bnez	a5,80000f7c <vsnprintf+0x488>
80001d2c:	dedff06f          	j	80001b18 <vsnprintf+0x1024>
80001d30:	00012783          	lw	a5,0(sp)
80001d34:	00178793          	addi	a5,a5,1
80001d38:	00f12023          	sw	a5,0(sp)
80001d3c:	01412783          	lw	a5,20(sp)
80001d40:	f80784e3          	beqz	a5,80001cc8 <vsnprintf+0x11d4>
80001d44:	00078313          	mv	t1,a5
80001d48:	f80ff06f          	j	800014c8 <vsnprintf+0x9d4>
80001d4c:	00038413          	mv	s0,t2
80001d50:	00150513          	addi	a0,a0,1
80001d54:	e21fe06f          	j	80000b74 <vsnprintf+0x80>
80001d58:	00078593          	mv	a1,a5
80001d5c:	be8ff06f          	j	80001144 <vsnprintf+0x650>

80001d60 <printf>:
80001d60:	fd810113          	addi	sp,sp,-40
80001d64:	fffff2b7          	lui	t0,0xfffff
80001d68:	00112823          	sw	ra,16(sp)
80001d6c:	00912423          	sw	s1,8(sp)
80001d70:	00812623          	sw	s0,12(sp)
80001d74:	00510133          	add	sp,sp,t0
80001d78:	000012b7          	lui	t0,0x1
80001d7c:	fffff337          	lui	t1,0xfffff
80001d80:	00428393          	addi	t2,t0,4 # 1004 <_entry_offset+0x1004>
80001d84:	006383b3          	add	t2,t2,t1
80001d88:	00410313          	addi	t1,sp,4
80001d8c:	00410093          	addi	ra,sp,4
80001d90:	00638333          	add	t1,t2,t1
80001d94:	01028393          	addi	t2,t0,16
80001d98:	00612023          	sw	t1,0(sp)
80001d9c:	001383b3          	add	t2,t2,ra
80001da0:	00b3a023          	sw	a1,0(t2)
80001da4:	01428593          	addi	a1,t0,20
80001da8:	001585b3          	add	a1,a1,ra
80001dac:	00c5a023          	sw	a2,0(a1)
80001db0:	01828613          	addi	a2,t0,24
80001db4:	00160633          	add	a2,a2,ra
80001db8:	01c28393          	addi	t2,t0,28
80001dbc:	00d62023          	sw	a3,0(a2)
80001dc0:	001383b3          	add	t2,t2,ra
80001dc4:	00050613          	mv	a2,a0
80001dc8:	00012503          	lw	a0,0(sp)
80001dcc:	00e3a023          	sw	a4,0(t2)
80001dd0:	02028713          	addi	a4,t0,32
80001dd4:	00170733          	add	a4,a4,ra
80001dd8:	00f72023          	sw	a5,0(a4)
80001ddc:	00012783          	lw	a5,0(sp)
80001de0:	01428313          	addi	t1,t0,20
80001de4:	00230333          	add	t1,t1,sp
80001de8:	00030693          	mv	a3,t1
80001dec:	000015b7          	lui	a1,0x1
80001df0:	fe67ae23          	sw	t1,-4(a5)
80001df4:	d01fe0ef          	jal	80000af4 <vsnprintf>
80001df8:	00012783          	lw	a5,0(sp)
80001dfc:	00050493          	mv	s1,a0
80001e00:	0007c503          	lbu	a0,0(a5)
80001e04:	00050c63          	beqz	a0,80001e1c <printf+0xbc>
80001e08:	00178413          	addi	s0,a5,1
80001e0c:	a15fe0ef          	jal	80000820 <putch>
80001e10:	00044503          	lbu	a0,0(s0)
80001e14:	00140413          	addi	s0,s0,1
80001e18:	fe051ae3          	bnez	a0,80001e0c <printf+0xac>
80001e1c:	000012b7          	lui	t0,0x1
80001e20:	00510133          	add	sp,sp,t0
80001e24:	01012083          	lw	ra,16(sp)
80001e28:	00048513          	mv	a0,s1
80001e2c:	00c12403          	lw	s0,12(sp)
80001e30:	00812483          	lw	s1,8(sp)
80001e34:	02810113          	addi	sp,sp,40
80001e38:	00008067          	ret

80001e3c <__udivmoddi4>:
80001e3c:	fdc10113          	addi	sp,sp,-36
80001e40:	00812e23          	sw	s0,28(sp)
80001e44:	02112023          	sw	ra,32(sp)
80001e48:	00060413          	mv	s0,a2
80001e4c:	00050293          	mv	t0,a0
80001e50:	00070613          	mv	a2,a4
80001e54:	04059663          	bnez	a1,80001ea0 <__udivmoddi4+0x64>
80001e58:	20069e63          	bnez	a3,80002074 <__udivmoddi4+0x238>
80001e5c:	00e12023          	sw	a4,0(sp)
80001e60:	02070063          	beqz	a4,80001e80 <__udivmoddi4+0x44>
80001e64:	00040593          	mv	a1,s0
80001e68:	00a12223          	sw	a0,4(sp)
80001e6c:	ba5fe0ef          	jal	80000a10 <__umodsi3>
80001e70:	00012603          	lw	a2,0(sp)
80001e74:	00412283          	lw	t0,4(sp)
80001e78:	00a62023          	sw	a0,0(a2)
80001e7c:	00062223          	sw	zero,4(a2)
80001e80:	00040593          	mv	a1,s0
80001e84:	00028513          	mv	a0,t0
80001e88:	b41fe0ef          	jal	800009c8 <__hidden___udivsi3>
80001e8c:	00000593          	li	a1,0
80001e90:	02012083          	lw	ra,32(sp)
80001e94:	01c12403          	lw	s0,28(sp)
80001e98:	02410113          	addi	sp,sp,36
80001e9c:	00008067          	ret
80001ea0:	00912c23          	sw	s1,24(sp)
80001ea4:	00058313          	mv	t1,a1
80001ea8:	00040493          	mv	s1,s0
80001eac:	08041a63          	bnez	s0,80001f40 <__udivmoddi4+0x104>
80001eb0:	22068e63          	beqz	a3,800020ec <__udivmoddi4+0x2b0>
80001eb4:	2c050663          	beqz	a0,80002180 <__udivmoddi4+0x344>
80001eb8:	fff68793          	addi	a5,a3,-1
80001ebc:	00d7f5b3          	and	a1,a5,a3
80001ec0:	32058063          	beqz	a1,800021e0 <__udivmoddi4+0x3a4>
80001ec4:	00a12823          	sw	a0,16(sp)
80001ec8:	00068513          	mv	a0,a3
80001ecc:	00612a23          	sw	t1,20(sp)
80001ed0:	00c12623          	sw	a2,12(sp)
80001ed4:	00612023          	sw	t1,0(sp)
80001ed8:	00d12423          	sw	a3,8(sp)
80001edc:	4a4000ef          	jal	80002380 <__clzsi2>
80001ee0:	00012703          	lw	a4,0(sp)
80001ee4:	00050793          	mv	a5,a0
80001ee8:	00f12023          	sw	a5,0(sp)
80001eec:	00070513          	mv	a0,a4
80001ef0:	00e12223          	sw	a4,4(sp)
80001ef4:	48c000ef          	jal	80002380 <__clzsi2>
80001ef8:	00012783          	lw	a5,0(sp)
80001efc:	00412703          	lw	a4,4(sp)
80001f00:	00812683          	lw	a3,8(sp)
80001f04:	40a78533          	sub	a0,a5,a0
80001f08:	01e00793          	li	a5,30
80001f0c:	00c12603          	lw	a2,12(sp)
80001f10:	01012283          	lw	t0,16(sp)
80001f14:	01412303          	lw	t1,20(sp)
80001f18:	1ca7ec63          	bltu	a5,a0,800020f0 <__udivmoddi4+0x2b4>
80001f1c:	00150393          	addi	t2,a0,1
80001f20:	02000513          	li	a0,32
80001f24:	40750533          	sub	a0,a0,t2
80001f28:	00a71333          	sll	t1,a4,a0
80001f2c:	0072d5b3          	srl	a1,t0,t2
80001f30:	007757b3          	srl	a5,a4,t2
80001f34:	00a29533          	sll	a0,t0,a0
80001f38:	00b36733          	or	a4,t1,a1
80001f3c:	0800006f          	j	80001fbc <__udivmoddi4+0x180>
80001f40:	14068663          	beqz	a3,8000208c <__udivmoddi4+0x250>
80001f44:	00a12423          	sw	a0,8(sp)
80001f48:	00068513          	mv	a0,a3
80001f4c:	00c12223          	sw	a2,4(sp)
80001f50:	00b12623          	sw	a1,12(sp)
80001f54:	00b12023          	sw	a1,0(sp)
80001f58:	00d12823          	sw	a3,16(sp)
80001f5c:	424000ef          	jal	80002380 <__clzsi2>
80001f60:	00012703          	lw	a4,0(sp)
80001f64:	00050493          	mv	s1,a0
80001f68:	00070513          	mv	a0,a4
80001f6c:	414000ef          	jal	80002380 <__clzsi2>
80001f70:	40a48533          	sub	a0,s1,a0
80001f74:	01f00793          	li	a5,31
80001f78:	00412603          	lw	a2,4(sp)
80001f7c:	00812283          	lw	t0,8(sp)
80001f80:	00c12303          	lw	t1,12(sp)
80001f84:	16a7e663          	bltu	a5,a0,800020f0 <__udivmoddi4+0x2b4>
80001f88:	00150393          	addi	t2,a0,1
80001f8c:	02000793          	li	a5,32
80001f90:	00012703          	lw	a4,0(sp)
80001f94:	01012683          	lw	a3,16(sp)
80001f98:	00028513          	mv	a0,t0
80001f9c:	26f38a63          	beq	t2,a5,80002210 <__udivmoddi4+0x3d4>
80001fa0:	407785b3          	sub	a1,a5,t2
80001fa4:	0072d333          	srl	t1,t0,t2
80001fa8:	00b712b3          	sll	t0,a4,a1
80001fac:	007757b3          	srl	a5,a4,t2
80001fb0:	00b51533          	sll	a0,a0,a1
80001fb4:	0062e733          	or	a4,t0,t1
80001fb8:	00000493          	li	s1,0
80001fbc:	00c12223          	sw	a2,4(sp)
80001fc0:	00068613          	mv	a2,a3
80001fc4:	00012023          	sw	zero,0(sp)
80001fc8:	00078693          	mv	a3,a5
80001fcc:	00060793          	mv	a5,a2
80001fd0:	01f55593          	srli	a1,a0,0x1f
80001fd4:	00171613          	slli	a2,a4,0x1
80001fd8:	00b66633          	or	a2,a2,a1
80001fdc:	01f75713          	srli	a4,a4,0x1f
80001fe0:	00169693          	slli	a3,a3,0x1
80001fe4:	00e6e6b3          	or	a3,a3,a4
80001fe8:	40c40733          	sub	a4,s0,a2
80001fec:	40d78333          	sub	t1,a5,a3
80001ff0:	00e435b3          	sltu	a1,s0,a4
80001ff4:	40b305b3          	sub	a1,t1,a1
80001ff8:	00173713          	seqz	a4,a4
80001ffc:	40e585b3          	sub	a1,a1,a4
80002000:	41f5d313          	srai	t1,a1,0x1f
80002004:	00837733          	and	a4,t1,s0
80002008:	00f37333          	and	t1,t1,a5
8000200c:	406686b3          	sub	a3,a3,t1
80002010:	00012303          	lw	t1,0(sp)
80002014:	40e60733          	sub	a4,a2,a4
80002018:	01f5d593          	srli	a1,a1,0x1f
8000201c:	01f4d293          	srli	t0,s1,0x1f
80002020:	00151513          	slli	a0,a0,0x1
80002024:	00149493          	slli	s1,s1,0x1
80002028:	00e63633          	sltu	a2,a2,a4
8000202c:	fff38393          	addi	t2,t2,-1
80002030:	00b12023          	sw	a1,0(sp)
80002034:	0064e4b3          	or	s1,s1,t1
80002038:	00556533          	or	a0,a0,t0
8000203c:	40c686b3          	sub	a3,a3,a2
80002040:	f80398e3          	bnez	t2,80001fd0 <__udivmoddi4+0x194>
80002044:	00412603          	lw	a2,4(sp)
80002048:	00060663          	beqz	a2,80002054 <__udivmoddi4+0x218>
8000204c:	00e62023          	sw	a4,0(a2)
80002050:	00d62223          	sw	a3,4(a2)
80002054:	00012703          	lw	a4,0(sp)
80002058:	01f4d313          	srli	t1,s1,0x1f
8000205c:	00151793          	slli	a5,a0,0x1
80002060:	00149513          	slli	a0,s1,0x1
80002064:	00e56533          	or	a0,a0,a4
80002068:	01812483          	lw	s1,24(sp)
8000206c:	00f365b3          	or	a1,t1,a5
80002070:	e21ff06f          	j	80001e90 <__udivmoddi4+0x54>
80002074:	00070663          	beqz	a4,80002080 <__udivmoddi4+0x244>
80002078:	00a62023          	sw	a0,0(a2)
8000207c:	00072223          	sw	zero,4(a4)
80002080:	00000513          	li	a0,0
80002084:	00000593          	li	a1,0
80002088:	e09ff06f          	j	80001e90 <__udivmoddi4+0x54>
8000208c:	fff40593          	addi	a1,s0,-1
80002090:	0085f533          	and	a0,a1,s0
80002094:	06051863          	bnez	a0,80002104 <__udivmoddi4+0x2c8>
80002098:	00060863          	beqz	a2,800020a8 <__udivmoddi4+0x26c>
8000209c:	0055f5b3          	and	a1,a1,t0
800020a0:	00b62023          	sw	a1,0(a2)
800020a4:	00062223          	sw	zero,4(a2)
800020a8:	00100793          	li	a5,1
800020ac:	10f40e63          	beq	s0,a5,800021c8 <__udivmoddi4+0x38c>
800020b0:	00040513          	mv	a0,s0
800020b4:	00612223          	sw	t1,4(sp)
800020b8:	00512023          	sw	t0,0(sp)
800020bc:	354000ef          	jal	80002410 <__ctzsi2>
800020c0:	00412303          	lw	t1,4(sp)
800020c4:	00012283          	lw	t0,0(sp)
800020c8:	02000713          	li	a4,32
800020cc:	40a70733          	sub	a4,a4,a0
800020d0:	00050793          	mv	a5,a0
800020d4:	00e31733          	sll	a4,t1,a4
800020d8:	00a2d2b3          	srl	t0,t0,a0
800020dc:	01812483          	lw	s1,24(sp)
800020e0:	00576533          	or	a0,a4,t0
800020e4:	00f355b3          	srl	a1,t1,a5
800020e8:	da9ff06f          	j	80001e90 <__udivmoddi4+0x54>
800020ec:	00100073          	ebreak
800020f0:	0e060463          	beqz	a2,800021d8 <__udivmoddi4+0x39c>
800020f4:	01812483          	lw	s1,24(sp)
800020f8:	00562023          	sw	t0,0(a2)
800020fc:	00662223          	sw	t1,4(a2)
80002100:	f81ff06f          	j	80002080 <__udivmoddi4+0x244>
80002104:	00040513          	mv	a0,s0
80002108:	00d12823          	sw	a3,16(sp)
8000210c:	00512623          	sw	t0,12(sp)
80002110:	00c12423          	sw	a2,8(sp)
80002114:	00612023          	sw	t1,0(sp)
80002118:	00d12223          	sw	a3,4(sp)
8000211c:	264000ef          	jal	80002380 <__clzsi2>
80002120:	00012703          	lw	a4,0(sp)
80002124:	00050493          	mv	s1,a0
80002128:	00070513          	mv	a0,a4
8000212c:	254000ef          	jal	80002380 <__clzsi2>
80002130:	00c12283          	lw	t0,12(sp)
80002134:	40a485b3          	sub	a1,s1,a0
80002138:	02158393          	addi	t2,a1,33 # 1021 <_entry_offset+0x1021>
8000213c:	02000313          	li	t1,32
80002140:	00012703          	lw	a4,0(sp)
80002144:	00412783          	lw	a5,4(sp)
80002148:	00812603          	lw	a2,8(sp)
8000214c:	01012683          	lw	a3,16(sp)
80002150:	00028513          	mv	a0,t0
80002154:	00000493          	li	s1,0
80002158:	e66382e3          	beq	t2,t1,80001fbc <__udivmoddi4+0x180>
8000215c:	01f00293          	li	t0,31
80002160:	0a72ee63          	bltu	t0,t2,8000221c <__udivmoddi4+0x3e0>
80002164:	40730333          	sub	t1,t1,t2
80002168:	007555b3          	srl	a1,a0,t2
8000216c:	007757b3          	srl	a5,a4,t2
80002170:	00671733          	sll	a4,a4,t1
80002174:	00b76733          	or	a4,a4,a1
80002178:	00651533          	sll	a0,a0,t1
8000217c:	e41ff06f          	j	80001fbc <__udivmoddi4+0x180>
80002180:	00c12023          	sw	a2,0(sp)
80002184:	02060663          	beqz	a2,800021b0 <__udivmoddi4+0x374>
80002188:	00068593          	mv	a1,a3
8000218c:	00030513          	mv	a0,t1
80002190:	00d12423          	sw	a3,8(sp)
80002194:	00612223          	sw	t1,4(sp)
80002198:	879fe0ef          	jal	80000a10 <__umodsi3>
8000219c:	00012603          	lw	a2,0(sp)
800021a0:	00812683          	lw	a3,8(sp)
800021a4:	00412303          	lw	t1,4(sp)
800021a8:	00062023          	sw	zero,0(a2)
800021ac:	00a62223          	sw	a0,4(a2)
800021b0:	00068593          	mv	a1,a3
800021b4:	00030513          	mv	a0,t1
800021b8:	811fe0ef          	jal	800009c8 <__hidden___udivsi3>
800021bc:	00000593          	li	a1,0
800021c0:	01812483          	lw	s1,24(sp)
800021c4:	ccdff06f          	j	80001e90 <__udivmoddi4+0x54>
800021c8:	01812483          	lw	s1,24(sp)
800021cc:	00028513          	mv	a0,t0
800021d0:	00030593          	mv	a1,t1
800021d4:	cbdff06f          	j	80001e90 <__udivmoddi4+0x54>
800021d8:	01812483          	lw	s1,24(sp)
800021dc:	ea5ff06f          	j	80002080 <__udivmoddi4+0x244>
800021e0:	00060863          	beqz	a2,800021f0 <__udivmoddi4+0x3b4>
800021e4:	0067f7b3          	and	a5,a5,t1
800021e8:	00a62023          	sw	a0,0(a2)
800021ec:	00f62223          	sw	a5,4(a2)
800021f0:	00068513          	mv	a0,a3
800021f4:	00612023          	sw	t1,0(sp)
800021f8:	218000ef          	jal	80002410 <__ctzsi2>
800021fc:	00012303          	lw	t1,0(sp)
80002200:	01812483          	lw	s1,24(sp)
80002204:	00000593          	li	a1,0
80002208:	00a35533          	srl	a0,t1,a0
8000220c:	c85ff06f          	j	80001e90 <__udivmoddi4+0x54>
80002210:	00000793          	li	a5,0
80002214:	00000493          	li	s1,0
80002218:	da5ff06f          	j	80001fbc <__udivmoddi4+0x180>
8000221c:	04000493          	li	s1,64
80002220:	407484b3          	sub	s1,s1,t2
80002224:	00158593          	addi	a1,a1,1
80002228:	009712b3          	sll	t0,a4,s1
8000222c:	00b55333          	srl	t1,a0,a1
80002230:	009514b3          	sll	s1,a0,s1
80002234:	00b75733          	srl	a4,a4,a1
80002238:	0062e533          	or	a0,t0,t1
8000223c:	d81ff06f          	j	80001fbc <__udivmoddi4+0x180>

80002240 <__divdi3>:
80002240:	41f5d313          	srai	t1,a1,0x1f
80002244:	41f6d793          	srai	a5,a3,0x1f
80002248:	006542b3          	xor	t0,a0,t1
8000224c:	00f643b3          	xor	t2,a2,a5
80002250:	40f38633          	sub	a2,t2,a5
80002254:	40628533          	sub	a0,t0,t1
80002258:	0065c5b3          	xor	a1,a1,t1
8000225c:	00f6c6b3          	xor	a3,a3,a5
80002260:	00c3b3b3          	sltu	t2,t2,a2
80002264:	40f686b3          	sub	a3,a3,a5
80002268:	00a2b2b3          	sltu	t0,t0,a0
8000226c:	406585b3          	sub	a1,a1,t1
80002270:	ff410113          	addi	sp,sp,-12
80002274:	00000713          	li	a4,0
80002278:	407686b3          	sub	a3,a3,t2
8000227c:	405585b3          	sub	a1,a1,t0
80002280:	00812223          	sw	s0,4(sp)
80002284:	00112423          	sw	ra,8(sp)
80002288:	00f34433          	xor	s0,t1,a5
8000228c:	bb1ff0ef          	jal	80001e3c <__udivmoddi4>
80002290:	00854733          	xor	a4,a0,s0
80002294:	0085c5b3          	xor	a1,a1,s0
80002298:	40870533          	sub	a0,a4,s0
8000229c:	00812083          	lw	ra,8(sp)
800022a0:	408585b3          	sub	a1,a1,s0
800022a4:	00412403          	lw	s0,4(sp)
800022a8:	00a73733          	sltu	a4,a4,a0
800022ac:	40e585b3          	sub	a1,a1,a4
800022b0:	00c10113          	addi	sp,sp,12
800022b4:	00008067          	ret

800022b8 <__moddi3>:
800022b8:	fe810113          	addi	sp,sp,-24
800022bc:	00812823          	sw	s0,16(sp)
800022c0:	41f6d313          	srai	t1,a3,0x1f
800022c4:	41f5d413          	srai	s0,a1,0x1f
800022c8:	00854733          	xor	a4,a0,s0
800022cc:	006647b3          	xor	a5,a2,t1
800022d0:	00912623          	sw	s1,12(sp)
800022d4:	40870533          	sub	a0,a4,s0
800022d8:	40678633          	sub	a2,a5,t1
800022dc:	0066c6b3          	xor	a3,a3,t1
800022e0:	0085c5b3          	xor	a1,a1,s0
800022e4:	00710493          	addi	s1,sp,7
800022e8:	ff84f493          	andi	s1,s1,-8
800022ec:	00c7b7b3          	sltu	a5,a5,a2
800022f0:	406686b3          	sub	a3,a3,t1
800022f4:	408585b3          	sub	a1,a1,s0
800022f8:	00a73333          	sltu	t1,a4,a0
800022fc:	40f686b3          	sub	a3,a3,a5
80002300:	00048713          	mv	a4,s1
80002304:	406585b3          	sub	a1,a1,t1
80002308:	00112a23          	sw	ra,20(sp)
8000230c:	b31ff0ef          	jal	80001e3c <__udivmoddi4>
80002310:	0004a783          	lw	a5,0(s1)
80002314:	0044a583          	lw	a1,4(s1)
80002318:	01412083          	lw	ra,20(sp)
8000231c:	0087c7b3          	xor	a5,a5,s0
80002320:	0085c5b3          	xor	a1,a1,s0
80002324:	40878533          	sub	a0,a5,s0
80002328:	408585b3          	sub	a1,a1,s0
8000232c:	01012403          	lw	s0,16(sp)
80002330:	00a7b7b3          	sltu	a5,a5,a0
80002334:	00c12483          	lw	s1,12(sp)
80002338:	40f585b3          	sub	a1,a1,a5
8000233c:	01810113          	addi	sp,sp,24
80002340:	00008067          	ret

80002344 <__udivdi3>:
80002344:	00000713          	li	a4,0
80002348:	af5ff06f          	j	80001e3c <__udivmoddi4>

8000234c <__umoddi3>:
8000234c:	fe810113          	addi	sp,sp,-24
80002350:	00812823          	sw	s0,16(sp)
80002354:	00710413          	addi	s0,sp,7
80002358:	ff847413          	andi	s0,s0,-8
8000235c:	00040713          	mv	a4,s0
80002360:	00112a23          	sw	ra,20(sp)
80002364:	ad9ff0ef          	jal	80001e3c <__udivmoddi4>
80002368:	00042503          	lw	a0,0(s0)
8000236c:	00442583          	lw	a1,4(s0)
80002370:	01412083          	lw	ra,20(sp)
80002374:	01012403          	lw	s0,16(sp)
80002378:	01810113          	addi	sp,sp,24
8000237c:	00008067          	ret

80002380 <__clzsi2>:
80002380:	000105b7          	lui	a1,0x10
80002384:	00b535b3          	sltu	a1,a0,a1
80002388:	00459593          	slli	a1,a1,0x4
8000238c:	01000793          	li	a5,16
80002390:	40b787b3          	sub	a5,a5,a1
80002394:	00010737          	lui	a4,0x10
80002398:	00f557b3          	srl	a5,a0,a5
8000239c:	f0070713          	addi	a4,a4,-256 # ff00 <_entry_offset+0xff00>
800023a0:	00e7f733          	and	a4,a5,a4
800023a4:	00173713          	seqz	a4,a4
800023a8:	00371713          	slli	a4,a4,0x3
800023ac:	00800693          	li	a3,8
800023b0:	40e686b3          	sub	a3,a3,a4
800023b4:	00d7d7b3          	srl	a5,a5,a3
800023b8:	0f07f693          	andi	a3,a5,240
800023bc:	0016b693          	seqz	a3,a3
800023c0:	00269693          	slli	a3,a3,0x2
800023c4:	00400613          	li	a2,4
800023c8:	40d60633          	sub	a2,a2,a3
800023cc:	00c7d7b3          	srl	a5,a5,a2
800023d0:	00c7f613          	andi	a2,a5,12
800023d4:	00163613          	seqz	a2,a2
800023d8:	00200513          	li	a0,2
800023dc:	00161613          	slli	a2,a2,0x1
800023e0:	40c50333          	sub	t1,a0,a2
800023e4:	0067d7b3          	srl	a5,a5,t1
800023e8:	0017d313          	srli	t1,a5,0x1
800023ec:	00b70733          	add	a4,a4,a1
800023f0:	00137593          	andi	a1,t1,1
800023f4:	00e686b3          	add	a3,a3,a4
800023f8:	40f50533          	sub	a0,a0,a5
800023fc:	00058463          	beqz	a1,80002404 <__clzsi2+0x84>
80002400:	00000513          	li	a0,0
80002404:	00d606b3          	add	a3,a2,a3
80002408:	00d50533          	add	a0,a0,a3
8000240c:	00008067          	ret

80002410 <__ctzsi2>:
80002410:	01051593          	slli	a1,a0,0x10
80002414:	0105d593          	srli	a1,a1,0x10
80002418:	0015b593          	seqz	a1,a1
8000241c:	00459593          	slli	a1,a1,0x4
80002420:	00b557b3          	srl	a5,a0,a1
80002424:	0ff7f613          	zext.b	a2,a5
80002428:	00163613          	seqz	a2,a2
8000242c:	00361613          	slli	a2,a2,0x3
80002430:	00c7d7b3          	srl	a5,a5,a2
80002434:	00f7f693          	andi	a3,a5,15
80002438:	0016b693          	seqz	a3,a3
8000243c:	00269693          	slli	a3,a3,0x2
80002440:	00d7d7b3          	srl	a5,a5,a3
80002444:	0037f713          	andi	a4,a5,3
80002448:	00173713          	seqz	a4,a4
8000244c:	00171713          	slli	a4,a4,0x1
80002450:	00e7d7b3          	srl	a5,a5,a4
80002454:	0017d513          	srli	a0,a5,0x1
80002458:	fff7c793          	not	a5,a5
8000245c:	00b60633          	add	a2,a2,a1
80002460:	0017f793          	andi	a5,a5,1
80002464:	00157593          	andi	a1,a0,1
80002468:	00200513          	li	a0,2
8000246c:	40b50533          	sub	a0,a0,a1
80002470:	00c686b3          	add	a3,a3,a2
80002474:	40f007b3          	neg	a5,a5
80002478:	00f577b3          	and	a5,a0,a5
8000247c:	00d70533          	add	a0,a4,a3
80002480:	00a78533          	add	a0,a5,a0
80002484:	00008067          	ret
