
/home/mubai/ysyx-workbench/am-kernels/tests/cpu-tests/build/hello-riscv32-nemu.elf:     file format elf32-littleriscv


Disassembly of section .text:

80000000 <_start>:
80000000:	00000413          	li	s0,0
80000004:	0000a117          	auipc	sp,0xa
80000008:	ffc10113          	addi	sp,sp,-4 # 8000a000 <_end>
8000000c:	068000ef          	jal	80000074 <_trm_init>

80000010 <main>:
80000010:	00001797          	auipc	a5,0x1
80000014:	50878793          	addi	a5,a5,1288 # 80001518 <mainargs+0x31c>
80000018:	0007a803          	lw	a6,0(a5)
8000001c:	0047a883          	lw	a7,4(a5)
80000020:	fb010113          	addi	sp,sp,-80
80000024:	02a00713          	li	a4,42
80000028:	00001697          	auipc	a3,0x1
8000002c:	16c68693          	addi	a3,a3,364 # 80001194 <_etext>
80000030:	00001617          	auipc	a2,0x1
80000034:	16c60613          	addi	a2,a2,364 # 8000119c <_etext+0x8>
80000038:	03200593          	li	a1,50
8000003c:	00c10513          	addi	a0,sp,12
80000040:	04112623          	sw	ra,76(sp)
80000044:	118010ef          	jal	8000115c <snprintf>
80000048:	00c10593          	addi	a1,sp,12
8000004c:	00001517          	auipc	a0,0x1
80000050:	17050513          	addi	a0,a0,368 # 800011bc <_etext+0x28>
80000054:	00c010ef          	jal	80001060 <printf>
80000058:	04c12083          	lw	ra,76(sp)
8000005c:	00000513          	li	a0,0
80000060:	05010113          	addi	sp,sp,80
80000064:	00008067          	ret

80000068 <putch>:
80000068:	a00007b7          	lui	a5,0xa0000
8000006c:	3ea78c23          	sb	a0,1016(a5) # a00003f8 <_end+0x1fff63f8>
80000070:	00008067          	ret

80000074 <_trm_init>:
80000074:	ff010113          	addi	sp,sp,-16
80000078:	00001517          	auipc	a0,0x1
8000007c:	18450513          	addi	a0,a0,388 # 800011fc <mainargs>
80000080:	00112623          	sw	ra,12(sp)
80000084:	f8dff0ef          	jal	80000010 <main>
80000088:	00050513          	mv	a0,a0
8000008c:	00100073          	ebreak
80000090:	0000006f          	j	80000090 <_trm_init+0x1c>

80000094 <vsnprintf>:
80000094:	16058ae3          	beqz	a1,80000a08 <vsnprintf+0x974>
80000098:	00100793          	li	a5,1
8000009c:	00050f13          	mv	t5,a0
800000a0:	16f582e3          	beq	a1,a5,80000a04 <vsnprintf+0x970>
800000a4:	00064883          	lbu	a7,0(a2)
800000a8:	fff58313          	addi	t1,a1,-1
800000ac:	00000513          	li	a0,0
800000b0:	00000813          	li	a6,0
800000b4:	00000793          	li	a5,0
800000b8:	34088e63          	beqz	a7,80000414 <vsnprintf+0x380>
800000bc:	f8010113          	addi	sp,sp,-128
800000c0:	06812e23          	sw	s0,124(sp)
800000c4:	07312823          	sw	s3,112(sp)
800000c8:	05912c23          	sw	s9,88(sp)
800000cc:	05a12a23          	sw	s10,84(sp)
800000d0:	05b12823          	sw	s11,80(sp)
800000d4:	06912c23          	sw	s1,120(sp)
800000d8:	07212a23          	sw	s2,116(sp)
800000dc:	07412623          	sw	s4,108(sp)
800000e0:	07512423          	sw	s5,104(sp)
800000e4:	07612223          	sw	s6,100(sp)
800000e8:	07712023          	sw	s7,96(sp)
800000ec:	02500413          	li	s0,37
800000f0:	01000993          	li	s3,16
800000f4:	00001d97          	auipc	s11,0x1
800000f8:	148d8d93          	addi	s11,s11,328 # 8000123c <mainargs+0x40>
800000fc:	02e00c93          	li	s9,46
80000100:	06800d13          	li	s10,104
80000104:	00078593          	mv	a1,a5
80000108:	00180713          	addi	a4,a6,1
8000010c:	06888863          	beq	a7,s0,8000017c <vsnprintf+0xe8>
80000110:	00150513          	addi	a0,a0,1
80000114:	0067fa63          	bgeu	a5,t1,80000128 <vsnprintf+0x94>
80000118:	00ff05b3          	add	a1,t5,a5
8000011c:	00178793          	addi	a5,a5,1
80000120:	01158023          	sb	a7,0(a1)
80000124:	00078593          	mv	a1,a5
80000128:	00070813          	mv	a6,a4
8000012c:	01060733          	add	a4,a2,a6
80000130:	00074883          	lbu	a7,0(a4)
80000134:	fc0898e3          	bnez	a7,80000104 <vsnprintf+0x70>
80000138:	00b37463          	bgeu	t1,a1,80000140 <vsnprintf+0xac>
8000013c:	00030593          	mv	a1,t1
80000140:	00bf0f33          	add	t5,t5,a1
80000144:	000f0023          	sb	zero,0(t5)
80000148:	07c12403          	lw	s0,124(sp)
8000014c:	07812483          	lw	s1,120(sp)
80000150:	07412903          	lw	s2,116(sp)
80000154:	07012983          	lw	s3,112(sp)
80000158:	06c12a03          	lw	s4,108(sp)
8000015c:	06812a83          	lw	s5,104(sp)
80000160:	06412b03          	lw	s6,100(sp)
80000164:	06012b83          	lw	s7,96(sp)
80000168:	05812c83          	lw	s9,88(sp)
8000016c:	05412d03          	lw	s10,84(sp)
80000170:	05012d83          	lw	s11,80(sp)
80000174:	08010113          	addi	sp,sp,128
80000178:	00008067          	ret
8000017c:	00e60733          	add	a4,a2,a4
80000180:	00280e13          	addi	t3,a6,2
80000184:	00000b13          	li	s6,0
80000188:	00000f93          	li	t6,0
8000018c:	00000913          	li	s2,0
80000190:	00000a93          	li	s5,0
80000194:	00000493          	li	s1,0
80000198:	00074e83          	lbu	t4,0(a4)
8000019c:	00070393          	mv	t2,a4
800001a0:	fe0e8813          	addi	a6,t4,-32
800001a4:	0ff87813          	zext.b	a6,a6
800001a8:	0109ec63          	bltu	s3,a6,800001c0 <vsnprintf+0x12c>
800001ac:	00281813          	slli	a6,a6,0x2
800001b0:	01b80833          	add	a6,a6,s11
800001b4:	00082803          	lw	a6,0(a6)
800001b8:	01b80833          	add	a6,a6,s11
800001bc:	00080067          	jr	a6
800001c0:	02a00713          	li	a4,42
800001c4:	06ee9c63          	bne	t4,a4,8000023c <vsnprintf+0x1a8>
800001c8:	0006a703          	lw	a4,0(a3)
800001cc:	00468693          	addi	a3,a3,4
800001d0:	00075663          	bgez	a4,800001dc <vsnprintf+0x148>
800001d4:	40e00733          	neg	a4,a4
800001d8:	00100493          	li	s1,1
800001dc:	01c603b3          	add	t2,a2,t3
800001e0:	0003ce83          	lbu	t4,0(t2)
800001e4:	000e0813          	mv	a6,t3
800001e8:	fff00893          	li	a7,-1
800001ec:	0b9e8663          	beq	t4,s9,80000298 <vsnprintf+0x204>
800001f0:	00180e13          	addi	t3,a6,1
800001f4:	01c602b3          	add	t0,a2,t3
800001f8:	0dae8c63          	beq	t4,s10,800002d0 <vsnprintf+0x23c>
800001fc:	06c00a13          	li	s4,108
80000200:	154e8663          	beq	t4,s4,8000034c <vsnprintf+0x2b8>
80000204:	07a00a13          	li	s4,122
80000208:	194e8263          	beq	t4,s4,8000038c <vsnprintf+0x2f8>
8000020c:	7c8e8a63          	beq	t4,s0,800009e0 <vsnprintf+0x94c>
80000210:	fa8e8e13          	addi	t3,t4,-88
80000214:	0ffe7e13          	zext.b	t3,t3
80000218:	02000293          	li	t0,32
8000021c:	0fc2ec63          	bltu	t0,t3,80000314 <vsnprintf+0x280>
80000220:	00001297          	auipc	t0,0x1
80000224:	06028293          	addi	t0,t0,96 # 80001280 <mainargs+0x84>
80000228:	002e1e13          	slli	t3,t3,0x2
8000022c:	005e0e33          	add	t3,t3,t0
80000230:	000e2e03          	lw	t3,0(t3)
80000234:	005e0e33          	add	t3,t3,t0
80000238:	000e0067          	jr	t3
8000023c:	fd0e8293          	addi	t0,t4,-48
80000240:	0ff2f893          	zext.b	a7,t0
80000244:	00900b93          	li	s7,9
80000248:	fffe0813          	addi	a6,t3,-1
8000024c:	00000713          	li	a4,0
80000250:	01c60e33          	add	t3,a2,t3
80000254:	00900a13          	li	s4,9
80000258:	f91be8e3          	bltu	s7,a7,800001e8 <vsnprintf+0x154>
8000025c:	00070893          	mv	a7,a4
80000260:	000e4e83          	lbu	t4,0(t3)
80000264:	00289713          	slli	a4,a7,0x2
80000268:	01170733          	add	a4,a4,a7
8000026c:	00171713          	slli	a4,a4,0x1
80000270:	00e288b3          	add	a7,t0,a4
80000274:	fd0e8293          	addi	t0,t4,-48
80000278:	0ff2f713          	zext.b	a4,t0
8000027c:	000e0393          	mv	t2,t3
80000280:	00180813          	addi	a6,a6,1
80000284:	001e0e13          	addi	t3,t3,1
80000288:	fcea7ce3          	bgeu	s4,a4,80000260 <vsnprintf+0x1cc>
8000028c:	00088713          	mv	a4,a7
80000290:	fff00893          	li	a7,-1
80000294:	f59e9ee3          	bne	t4,s9,800001f0 <vsnprintf+0x15c>
80000298:	00180893          	addi	a7,a6,1
8000029c:	011603b3          	add	t2,a2,a7
800002a0:	0003ce83          	lbu	t4,0(t2)
800002a4:	02a00e13          	li	t3,42
800002a8:	6dce9c63          	bne	t4,t3,80000980 <vsnprintf+0x8ec>
800002ac:	0006a883          	lw	a7,0(a3)
800002b0:	00468693          	addi	a3,a3,4
800002b4:	1008cc63          	bltz	a7,800003cc <vsnprintf+0x338>
800002b8:	00280813          	addi	a6,a6,2
800002bc:	010603b3          	add	t2,a2,a6
800002c0:	0003ce83          	lbu	t4,0(t2)
800002c4:	00180e13          	addi	t3,a6,1
800002c8:	01c602b3          	add	t0,a2,t3
800002cc:	f3ae98e3          	bne	t4,s10,800001fc <vsnprintf+0x168>
800002d0:	0002ce83          	lbu	t4,0(t0)
800002d4:	73ae8e63          	beq	t4,s10,80000a10 <vsnprintf+0x97c>
800002d8:	02500813          	li	a6,37
800002dc:	710e8063          	beq	t4,a6,800009dc <vsnprintf+0x948>
800002e0:	fa8e8813          	addi	a6,t4,-88
800002e4:	0ff87813          	zext.b	a6,a6
800002e8:	02000393          	li	t2,32
800002ec:	0303e063          	bltu	t2,a6,8000030c <vsnprintf+0x278>
800002f0:	00001397          	auipc	t2,0x1
800002f4:	01438393          	addi	t2,t2,20 # 80001304 <mainargs+0x108>
800002f8:	00281813          	slli	a6,a6,0x2
800002fc:	00780833          	add	a6,a6,t2
80000300:	00082803          	lw	a6,0(a6)
80000304:	00780833          	add	a6,a6,t2
80000308:	00080067          	jr	a6
8000030c:	000e0813          	mv	a6,t3
80000310:	00028393          	mv	t2,t0
80000314:	00250513          	addi	a0,a0,2
80000318:	0267f663          	bgeu	a5,t1,80000344 <vsnprintf+0x2b0>
8000031c:	02500593          	li	a1,37
80000320:	00ff0733          	add	a4,t5,a5
80000324:	00b70023          	sb	a1,0(a4)
80000328:	00178593          	addi	a1,a5,1
8000032c:	5265f4e3          	bgeu	a1,t1,80001054 <vsnprintf+0xfc0>
80000330:	0003c703          	lbu	a4,0(t2)
80000334:	00bf05b3          	add	a1,t5,a1
80000338:	00278793          	addi	a5,a5,2
8000033c:	00e58023          	sb	a4,0(a1)
80000340:	00078593          	mv	a1,a5
80000344:	00180813          	addi	a6,a6,1
80000348:	de5ff06f          	j	8000012c <vsnprintf+0x98>
8000034c:	0002ce83          	lbu	t4,0(t0)
80000350:	06c00393          	li	t2,108
80000354:	087e8063          	beq	t4,t2,800003d4 <vsnprintf+0x340>
80000358:	02500813          	li	a6,37
8000035c:	690e8063          	beq	t4,a6,800009dc <vsnprintf+0x948>
80000360:	fa8e8813          	addi	a6,t4,-88
80000364:	0ff87813          	zext.b	a6,a6
80000368:	02000393          	li	t2,32
8000036c:	fb03e0e3          	bltu	t2,a6,8000030c <vsnprintf+0x278>
80000370:	00001397          	auipc	t2,0x1
80000374:	01838393          	addi	t2,t2,24 # 80001388 <mainargs+0x18c>
80000378:	00281813          	slli	a6,a6,0x2
8000037c:	00780833          	add	a6,a6,t2
80000380:	00082803          	lw	a6,0(a6)
80000384:	00780833          	add	a6,a6,t2
80000388:	00080067          	jr	a6
8000038c:	0002ce83          	lbu	t4,0(t0)
80000390:	00028393          	mv	t2,t0
80000394:	000e0813          	mv	a6,t3
80000398:	e75ff06f          	j	8000020c <vsnprintf+0x178>
8000039c:	00100b13          	li	s6,1
800003a0:	00170713          	addi	a4,a4,1
800003a4:	001e0e13          	addi	t3,t3,1
800003a8:	df1ff06f          	j	80000198 <vsnprintf+0x104>
800003ac:	00100f93          	li	t6,1
800003b0:	ff1ff06f          	j	800003a0 <vsnprintf+0x30c>
800003b4:	00100913          	li	s2,1
800003b8:	fe9ff06f          	j	800003a0 <vsnprintf+0x30c>
800003bc:	00100a93          	li	s5,1
800003c0:	fe1ff06f          	j	800003a0 <vsnprintf+0x30c>
800003c4:	00100493          	li	s1,1
800003c8:	fd9ff06f          	j	800003a0 <vsnprintf+0x30c>
800003cc:	fff00893          	li	a7,-1
800003d0:	ee9ff06f          	j	800002b8 <vsnprintf+0x224>
800003d4:	00280813          	addi	a6,a6,2
800003d8:	010603b3          	add	t2,a2,a6
800003dc:	0003ce83          	lbu	t4,0(t2)
800003e0:	02500e13          	li	t3,37
800003e4:	5fce8e63          	beq	t4,t3,800009e0 <vsnprintf+0x94c>
800003e8:	fa8e8e13          	addi	t3,t4,-88
800003ec:	0ffe7e13          	zext.b	t3,t3
800003f0:	02000293          	li	t0,32
800003f4:	f3c2e0e3          	bltu	t0,t3,80000314 <vsnprintf+0x280>
800003f8:	00001297          	auipc	t0,0x1
800003fc:	01428293          	addi	t0,t0,20 # 8000140c <mainargs+0x210>
80000400:	002e1e13          	slli	t3,t3,0x2
80000404:	005e0e33          	add	t3,t3,t0
80000408:	000e2e03          	lw	t3,0(t3)
8000040c:	005e0e33          	add	t3,t3,t0
80000410:	000e0067          	jr	t3
80000414:	000f0023          	sb	zero,0(t5)
80000418:	00008067          	ret
8000041c:	0006ae83          	lw	t4,0(a3)
80000420:	00468a13          	addi	s4,a3,4
80000424:	41fedf93          	srai	t6,t4,0x1f
80000428:	7a0fcc63          	bltz	t6,80000be0 <vsnprintf+0xb4c>
8000042c:	01fee6b3          	or	a3,t4,t6
80000430:	3c0696e3          	bnez	a3,80000ffc <vsnprintf+0xf68>
80000434:	320886e3          	beqz	a7,80000f60 <vsnprintf+0xecc>
80000438:	03000693          	li	a3,48
8000043c:	00d10823          	sb	a3,16(sp)
80000440:	00100293          	li	t0,1
80000444:	00000693          	li	a3,0
80000448:	01010e13          	addi	t3,sp,16
8000044c:	2712dce3          	bge	t0,a7,80000ec4 <vsnprintf+0xe30>
80000450:	00028e93          	mv	t4,t0
80000454:	03000393          	li	t2,48
80000458:	001e8e93          	addi	t4,t4,1
8000045c:	01de0fb3          	add	t6,t3,t4
80000460:	fe7f8fa3          	sb	t2,-1(t6)
80000464:	ff1ecae3          	blt	t4,a7,80000458 <vsnprintf+0x3c4>
80000468:	00128e93          	addi	t4,t0,1
8000046c:	00000e13          	li	t3,0
80000470:	0112d663          	bge	t0,a7,8000047c <vsnprintf+0x3e8>
80000474:	fff88e13          	addi	t3,a7,-1
80000478:	405e0e33          	sub	t3,t3,t0
8000047c:	01de02b3          	add	t0,t3,t4
80000480:	240682e3          	beqz	a3,80000ec4 <vsnprintf+0xe30>
80000484:	01010e13          	addi	t3,sp,16
80000488:	04028693          	addi	a3,t0,64
8000048c:	01c686b3          	add	a3,a3,t3
80000490:	02d00e13          	li	t3,45
80000494:	fdc68023          	sb	t3,-64(a3)
80000498:	00128e93          	addi	t4,t0,1
8000049c:	000a0693          	mv	a3,s4
800004a0:	41d70fb3          	sub	t6,a4,t4
800004a4:	01f04463          	bgtz	t6,800004ac <vsnprintf+0x418>
800004a8:	000e8713          	mv	a4,t4
800004ac:	00e50533          	add	a0,a0,a4
800004b0:	1c0482e3          	beqz	s1,80000e74 <vsnprintf+0xde0>
800004b4:	020e8a63          	beqz	t4,800004e8 <vsnprintf+0x454>
800004b8:	01010e13          	addi	t3,sp,16
800004bc:	01de0733          	add	a4,t3,t4
800004c0:	00078593          	mv	a1,a5
800004c4:	0067fc63          	bgeu	a5,t1,800004dc <vsnprintf+0x448>
800004c8:	fff74883          	lbu	a7,-1(a4)
800004cc:	00ff05b3          	add	a1,t5,a5
800004d0:	00178793          	addi	a5,a5,1
800004d4:	01158023          	sb	a7,0(a1)
800004d8:	00078593          	mv	a1,a5
800004dc:	fff70713          	addi	a4,a4,-1
800004e0:	feee10e3          	bne	t3,a4,800004c0 <vsnprintf+0x42c>
800004e4:	e60480e3          	beqz	s1,80000344 <vsnprintf+0x2b0>
800004e8:	ffff8713          	addi	a4,t6,-1
800004ec:	e5f05ce3          	blez	t6,80000344 <vsnprintf+0x2b0>
800004f0:	02000e13          	li	t3,32
800004f4:	fff00893          	li	a7,-1
800004f8:	00078593          	mv	a1,a5
800004fc:	0067fa63          	bgeu	a5,t1,80000510 <vsnprintf+0x47c>
80000500:	00ff05b3          	add	a1,t5,a5
80000504:	00178793          	addi	a5,a5,1
80000508:	01c58023          	sb	t3,0(a1)
8000050c:	00078593          	mv	a1,a5
80000510:	fff70713          	addi	a4,a4,-1
80000514:	ff1712e3          	bne	a4,a7,800004f8 <vsnprintf+0x464>
80000518:	00180813          	addi	a6,a6,1
8000051c:	c11ff06f          	j	8000012c <vsnprintf+0x98>
80000520:	00069e83          	lh	t4,0(a3)
80000524:	00468a13          	addi	s4,a3,4
80000528:	000e0813          	mv	a6,t3
8000052c:	41fedf93          	srai	t6,t4,0x1f
80000530:	ef9ff06f          	j	80000428 <vsnprintf+0x394>
80000534:	0006d283          	lhu	t0,0(a3)
80000538:	00000913          	li	s2,0
8000053c:	000e0813          	mv	a6,t3
80000540:	00468693          	addi	a3,a3,4
80000544:	07800e13          	li	t3,120
80000548:	00001a97          	auipc	s5,0x1
8000054c:	c90a8a93          	addi	s5,s5,-880 # 800011d8 <_etext+0x44>
80000550:	01ce9663          	bne	t4,t3,8000055c <vsnprintf+0x4c8>
80000554:	00001a97          	auipc	s5,0x1
80000558:	c70a8a93          	addi	s5,s5,-912 # 800011c4 <_etext+0x30>
8000055c:	0122ee33          	or	t3,t0,s2
80000560:	0c0e16e3          	bnez	t3,80000e2c <vsnprintf+0xd98>
80000564:	20088ee3          	beqz	a7,80000f80 <vsnprintf+0xeec>
80000568:	03000e13          	li	t3,48
8000056c:	01c10823          	sb	t3,16(sp)
80000570:	00100393          	li	t2,1
80000574:	01010e13          	addi	t3,sp,16
80000578:	2913d8e3          	bge	t2,a7,80001008 <vsnprintf+0xf74>
8000057c:	00038293          	mv	t0,t2
80000580:	03000a13          	li	s4,48
80000584:	00128293          	addi	t0,t0,1
80000588:	005e0933          	add	s2,t3,t0
8000058c:	ff490fa3          	sb	s4,-1(s2)
80000590:	ff12cae3          	blt	t0,a7,80000584 <vsnprintf+0x4f0>
80000594:	00138913          	addi	s2,t2,1
80000598:	00000293          	li	t0,0
8000059c:	0113d663          	bge	t2,a7,800005a8 <vsnprintf+0x514>
800005a0:	fff88293          	addi	t0,a7,-1
800005a4:	407282b3          	sub	t0,t0,t2
800005a8:	012283b3          	add	t2,t0,s2
800005ac:	360f8c63          	beqz	t6,80000924 <vsnprintf+0x890>
800005b0:	01014283          	lbu	t0,16(sp)
800005b4:	03000f93          	li	t6,48
800005b8:	37f28663          	beq	t0,t6,80000924 <vsnprintf+0x890>
800005bc:	07800f93          	li	t6,120
800005c0:	01fe8463          	beq	t4,t6,800005c8 <vsnprintf+0x534>
800005c4:	05800e93          	li	t4,88
800005c8:	04038293          	addi	t0,t2,64
800005cc:	01010913          	addi	s2,sp,16
800005d0:	00138f93          	addi	t6,t2,1
800005d4:	012282b3          	add	t0,t0,s2
800005d8:	fdd28023          	sb	t4,-64(t0)
800005dc:	040f8e93          	addi	t4,t6,64
800005e0:	012e8eb3          	add	t4,t4,s2
800005e4:	00238393          	addi	t2,t2,2
800005e8:	03000f93          	li	t6,48
800005ec:	fdfe8023          	sb	t6,-64(t4)
800005f0:	40770eb3          	sub	t4,a4,t2
800005f4:	1fd058e3          	blez	t4,80000fe4 <vsnprintf+0xf50>
800005f8:	00e50533          	add	a0,a0,a4
800005fc:	5a048c63          	beqz	s1,80000bb4 <vsnprintf+0xb20>
80000600:	007e0733          	add	a4,t3,t2
80000604:	00078593          	mv	a1,a5
80000608:	0067fc63          	bgeu	a5,t1,80000620 <vsnprintf+0x58c>
8000060c:	fff74883          	lbu	a7,-1(a4)
80000610:	00ff05b3          	add	a1,t5,a5
80000614:	00178793          	addi	a5,a5,1
80000618:	01158023          	sb	a7,0(a1)
8000061c:	00078593          	mv	a1,a5
80000620:	fff70713          	addi	a4,a4,-1
80000624:	feee10e3          	bne	t3,a4,80000604 <vsnprintf+0x570>
80000628:	d0048ee3          	beqz	s1,80000344 <vsnprintf+0x2b0>
8000062c:	fffe8713          	addi	a4,t4,-1
80000630:	d1d05ae3          	blez	t4,80000344 <vsnprintf+0x2b0>
80000634:	02000e13          	li	t3,32
80000638:	fff00893          	li	a7,-1
8000063c:	00078593          	mv	a1,a5
80000640:	0067fa63          	bgeu	a5,t1,80000654 <vsnprintf+0x5c0>
80000644:	00ff05b3          	add	a1,t5,a5
80000648:	00178793          	addi	a5,a5,1
8000064c:	01c58023          	sb	t3,0(a1)
80000650:	00078593          	mv	a1,a5
80000654:	fff70713          	addi	a4,a4,-1
80000658:	ff1712e3          	bne	a4,a7,8000063c <vsnprintf+0x5a8>
8000065c:	00180813          	addi	a6,a6,1
80000660:	acdff06f          	j	8000012c <vsnprintf+0x98>
80000664:	000e0813          	mv	a6,t3
80000668:	0006a583          	lw	a1,0(a3)
8000066c:	00468f93          	addi	t6,a3,4
80000670:	64058863          	beqz	a1,80000cc0 <vsnprintf+0xc2c>
80000674:	000036b7          	lui	a3,0x3
80000678:	07868693          	addi	a3,a3,120 # 3078 <_entry_offset+0x3078>
8000067c:	00d11823          	sh	a3,16(sp)
80000680:	00200893          	li	a7,2
80000684:	01010e13          	addi	t3,sp,16
80000688:	00001297          	auipc	t0,0x1
8000068c:	b3c28293          	addi	t0,t0,-1220 # 800011c4 <_etext+0x30>
80000690:	00f5f693          	andi	a3,a1,15
80000694:	00d286b3          	add	a3,t0,a3
80000698:	0006ce83          	lbu	t4,0(a3)
8000069c:	00188893          	addi	a7,a7,1
800006a0:	011e06b3          	add	a3,t3,a7
800006a4:	ffd68fa3          	sb	t4,-1(a3)
800006a8:	0045d593          	srli	a1,a1,0x4
800006ac:	fe0592e3          	bnez	a1,80000690 <vsnprintf+0x5fc>
800006b0:	41170eb3          	sub	t4,a4,a7
800006b4:	67d05663          	blez	t4,80000d20 <vsnprintf+0xc8c>
800006b8:	00e50533          	add	a0,a0,a4
800006bc:	3c048463          	beqz	s1,80000a84 <vsnprintf+0x9f0>
800006c0:	00068713          	mv	a4,a3
800006c4:	00078593          	mv	a1,a5
800006c8:	0067fc63          	bgeu	a5,t1,800006e0 <vsnprintf+0x64c>
800006cc:	fff74683          	lbu	a3,-1(a4)
800006d0:	00ff05b3          	add	a1,t5,a5
800006d4:	00178793          	addi	a5,a5,1
800006d8:	00d58023          	sb	a3,0(a1)
800006dc:	00078593          	mv	a1,a5
800006e0:	fff70713          	addi	a4,a4,-1
800006e4:	feee10e3          	bne	t3,a4,800006c4 <vsnprintf+0x630>
800006e8:	000f8693          	mv	a3,t6
800006ec:	c4048ce3          	beqz	s1,80000344 <vsnprintf+0x2b0>
800006f0:	fffe8713          	addi	a4,t4,-1
800006f4:	c5d058e3          	blez	t4,80000344 <vsnprintf+0x2b0>
800006f8:	02000893          	li	a7,32
800006fc:	fff00693          	li	a3,-1
80000700:	00078593          	mv	a1,a5
80000704:	0067fa63          	bgeu	a5,t1,80000718 <vsnprintf+0x684>
80000708:	00ff05b3          	add	a1,t5,a5
8000070c:	00178793          	addi	a5,a5,1
80000710:	01158023          	sb	a7,0(a1)
80000714:	00078593          	mv	a1,a5
80000718:	fff70713          	addi	a4,a4,-1
8000071c:	fed712e3          	bne	a4,a3,80000700 <vsnprintf+0x66c>
80000720:	000f8693          	mv	a3,t6
80000724:	00180813          	addi	a6,a6,1
80000728:	a05ff06f          	j	8000012c <vsnprintf+0x98>
8000072c:	000e0813          	mv	a6,t3
80000730:	0006ae83          	lw	t4,0(a3)
80000734:	00468f93          	addi	t6,a3,4
80000738:	560e8c63          	beqz	t4,80000cb0 <vsnprintf+0xc1c>
8000073c:	000ec683          	lbu	a3,0(t4)
80000740:	40068063          	beqz	a3,80000b40 <vsnprintf+0xaac>
80000744:	00000693          	li	a3,0
80000748:	30d88463          	beq	a7,a3,80000a50 <vsnprintf+0x9bc>
8000074c:	00168693          	addi	a3,a3,1
80000750:	00de8e33          	add	t3,t4,a3
80000754:	000e4e03          	lbu	t3,0(t3)
80000758:	fe0e18e3          	bnez	t3,80000748 <vsnprintf+0x6b4>
8000075c:	40d70e33          	sub	t3,a4,a3
80000760:	7bc05663          	blez	t3,80000f0c <vsnprintf+0xe78>
80000764:	00e50533          	add	a0,a0,a4
80000768:	34048663          	beqz	s1,80000ab4 <vsnprintf+0xa20>
8000076c:	00000713          	li	a4,0
80000770:	00078593          	mv	a1,a5
80000774:	0067fe63          	bgeu	a5,t1,80000790 <vsnprintf+0x6fc>
80000778:	00ee88b3          	add	a7,t4,a4
8000077c:	0008c883          	lbu	a7,0(a7)
80000780:	00ff05b3          	add	a1,t5,a5
80000784:	00178793          	addi	a5,a5,1
80000788:	01158023          	sb	a7,0(a1)
8000078c:	00078593          	mv	a1,a5
80000790:	00170713          	addi	a4,a4,1
80000794:	fcd74ee3          	blt	a4,a3,80000770 <vsnprintf+0x6dc>
80000798:	000f8693          	mv	a3,t6
8000079c:	ba0484e3          	beqz	s1,80000344 <vsnprintf+0x2b0>
800007a0:	fffe0713          	addi	a4,t3,-1
800007a4:	bbc050e3          	blez	t3,80000344 <vsnprintf+0x2b0>
800007a8:	02000893          	li	a7,32
800007ac:	fff00693          	li	a3,-1
800007b0:	00078593          	mv	a1,a5
800007b4:	0067fa63          	bgeu	a5,t1,800007c8 <vsnprintf+0x734>
800007b8:	00ff05b3          	add	a1,t5,a5
800007bc:	00178793          	addi	a5,a5,1
800007c0:	01158023          	sb	a7,0(a1)
800007c4:	00078593          	mv	a1,a5
800007c8:	fff70713          	addi	a4,a4,-1
800007cc:	fed712e3          	bne	a4,a3,800007b0 <vsnprintf+0x71c>
800007d0:	000f8693          	mv	a3,t6
800007d4:	f51ff06f          	j	80000724 <vsnprintf+0x690>
800007d8:	000e0813          	mv	a6,t3
800007dc:	40e008b3          	neg	a7,a4
800007e0:	fff70e13          	addi	t3,a4,-1
800007e4:	41f8d893          	srai	a7,a7,0x1f
800007e8:	011e78b3          	and	a7,t3,a7
800007ec:	00188893          	addi	a7,a7,1
800007f0:	0006af83          	lw	t6,0(a3)
800007f4:	01150533          	add	a0,a0,a7
800007f8:	00468693          	addi	a3,a3,4
800007fc:	52048a63          	beqz	s1,80000d30 <vsnprintf+0xc9c>
80000800:	0067fa63          	bgeu	a5,t1,80000814 <vsnprintf+0x780>
80000804:	00bf05b3          	add	a1,t5,a1
80000808:	00178793          	addi	a5,a5,1
8000080c:	01f58023          	sb	t6,0(a1)
80000810:	00078593          	mv	a1,a5
80000814:	ffe70713          	addi	a4,a4,-2
80000818:	b3c056e3          	blez	t3,80000344 <vsnprintf+0x2b0>
8000081c:	02000e13          	li	t3,32
80000820:	fff00893          	li	a7,-1
80000824:	00078593          	mv	a1,a5
80000828:	0067fa63          	bgeu	a5,t1,8000083c <vsnprintf+0x7a8>
8000082c:	00ff05b3          	add	a1,t5,a5
80000830:	00178793          	addi	a5,a5,1
80000834:	01c58023          	sb	t3,0(a1)
80000838:	00078593          	mv	a1,a5
8000083c:	fff70713          	addi	a4,a4,-1
80000840:	ff1712e3          	bne	a4,a7,80000824 <vsnprintf+0x790>
80000844:	00180813          	addi	a6,a6,1
80000848:	8e5ff06f          	j	8000012c <vsnprintf+0x98>
8000084c:	0006af83          	lw	t6,0(a3)
80000850:	00000293          	li	t0,0
80000854:	00468693          	addi	a3,a3,4
80000858:	005fee33          	or	t3,t6,t0
8000085c:	520e1063          	bnez	t3,80000d7c <vsnprintf+0xce8>
80000860:	70088663          	beqz	a7,80000f6c <vsnprintf+0xed8>
80000864:	03000e13          	li	t3,48
80000868:	01c10823          	sb	t3,16(sp)
8000086c:	00100393          	li	t2,1
80000870:	01010e13          	addi	t3,sp,16
80000874:	007e0eb3          	add	t4,t3,t2
80000878:	03000f93          	li	t6,48
8000087c:	011e0e33          	add	t3,t3,a7
80000880:	7513d263          	bge	t2,a7,80000fc4 <vsnprintf+0xf30>
80000884:	01fe8023          	sb	t6,0(t4)
80000888:	001e8e93          	addi	t4,t4,1
8000088c:	ffde1ce3          	bne	t3,t4,80000884 <vsnprintf+0x7f0>
80000890:	41170eb3          	sub	t4,a4,a7
80000894:	00088393          	mv	t2,a7
80000898:	01d04463          	bgtz	t4,800008a0 <vsnprintf+0x80c>
8000089c:	00038713          	mv	a4,t2
800008a0:	00e50533          	add	a0,a0,a4
800008a4:	66048c63          	beqz	s1,80000f1c <vsnprintf+0xe88>
800008a8:	01010e13          	addi	t3,sp,16
800008ac:	007e03b3          	add	t2,t3,t2
800008b0:	00078593          	mv	a1,a5
800008b4:	0067fc63          	bgeu	a5,t1,800008cc <vsnprintf+0x838>
800008b8:	fff3c703          	lbu	a4,-1(t2)
800008bc:	00ff05b3          	add	a1,t5,a5
800008c0:	00178793          	addi	a5,a5,1
800008c4:	00e58023          	sb	a4,0(a1)
800008c8:	00078593          	mv	a1,a5
800008cc:	fff38393          	addi	t2,t2,-1
800008d0:	fe7e10e3          	bne	t3,t2,800008b0 <vsnprintf+0x81c>
800008d4:	a60488e3          	beqz	s1,80000344 <vsnprintf+0x2b0>
800008d8:	fffe8713          	addi	a4,t4,-1
800008dc:	a7d054e3          	blez	t4,80000344 <vsnprintf+0x2b0>
800008e0:	02000e13          	li	t3,32
800008e4:	fff00893          	li	a7,-1
800008e8:	00078593          	mv	a1,a5
800008ec:	0067fa63          	bgeu	a5,t1,80000900 <vsnprintf+0x86c>
800008f0:	00ff05b3          	add	a1,t5,a5
800008f4:	00178793          	addi	a5,a5,1
800008f8:	01c58023          	sb	t3,0(a1)
800008fc:	00078593          	mv	a1,a5
80000900:	fff70713          	addi	a4,a4,-1
80000904:	ff1712e3          	bne	a4,a7,800008e8 <vsnprintf+0x854>
80000908:	00180813          	addi	a6,a6,1
8000090c:	821ff06f          	j	8000012c <vsnprintf+0x98>
80000910:	0006df83          	lhu	t6,0(a3)
80000914:	00000293          	li	t0,0
80000918:	000e0813          	mv	a6,t3
8000091c:	00468693          	addi	a3,a3,4
80000920:	f39ff06f          	j	80000858 <vsnprintf+0x7c4>
80000924:	40770eb3          	sub	t4,a4,t2
80000928:	15d05a63          	blez	t4,80000a7c <vsnprintf+0x9e8>
8000092c:	00e50533          	add	a0,a0,a4
80000930:	cc0498e3          	bnez	s1,80000600 <vsnprintf+0x56c>
80000934:	1e0b1063          	bnez	s6,80000b14 <vsnprintf+0xa80>
80000938:	02000e13          	li	t3,32
8000093c:	fffe8713          	addi	a4,t4,-1
80000940:	71d05663          	blez	t4,8000104c <vsnprintf+0xfb8>
80000944:	00070f93          	mv	t6,a4
80000948:	fff00893          	li	a7,-1
8000094c:	00078593          	mv	a1,a5
80000950:	0067fa63          	bgeu	a5,t1,80000964 <vsnprintf+0x8d0>
80000954:	00ff05b3          	add	a1,t5,a5
80000958:	00178793          	addi	a5,a5,1
8000095c:	01c58023          	sb	t3,0(a1)
80000960:	00078593          	mv	a1,a5
80000964:	fff70713          	addi	a4,a4,-1
80000968:	ff1712e3          	bne	a4,a7,8000094c <vsnprintf+0x8b8>
8000096c:	41df8eb3          	sub	t4,t6,t4
80000970:	01010e13          	addi	t3,sp,16
80000974:	c80396e3          	bnez	t2,80000600 <vsnprintf+0x56c>
80000978:	00180813          	addi	a6,a6,1
8000097c:	fb0ff06f          	j	8000012c <vsnprintf+0x98>
80000980:	fd0e8293          	addi	t0,t4,-48
80000984:	0ff2fa13          	zext.b	s4,t0
80000988:	00900e13          	li	t3,9
8000098c:	614e6e63          	bltu	t3,s4,80000fa8 <vsnprintf+0xf14>
80000990:	00280e13          	addi	t3,a6,2
80000994:	00088813          	mv	a6,a7
80000998:	00000893          	li	a7,0
8000099c:	01c60e33          	add	t3,a2,t3
800009a0:	00900a13          	li	s4,9
800009a4:	00088b93          	mv	s7,a7
800009a8:	000e4e83          	lbu	t4,0(t3)
800009ac:	002b9893          	slli	a7,s7,0x2
800009b0:	017888b3          	add	a7,a7,s7
800009b4:	00189893          	slli	a7,a7,0x1
800009b8:	01128bb3          	add	s7,t0,a7
800009bc:	fd0e8293          	addi	t0,t4,-48
800009c0:	0ff2f893          	zext.b	a7,t0
800009c4:	000e0393          	mv	t2,t3
800009c8:	00180813          	addi	a6,a6,1
800009cc:	001e0e13          	addi	t3,t3,1
800009d0:	fd1a7ce3          	bgeu	s4,a7,800009a8 <vsnprintf+0x914>
800009d4:	000b8893          	mv	a7,s7
800009d8:	819ff06f          	j	800001f0 <vsnprintf+0x15c>
800009dc:	000e0813          	mv	a6,t3
800009e0:	00150513          	addi	a0,a0,1
800009e4:	9667f0e3          	bgeu	a5,t1,80000344 <vsnprintf+0x2b0>
800009e8:	00bf05b3          	add	a1,t5,a1
800009ec:	00178793          	addi	a5,a5,1
800009f0:	02500713          	li	a4,37
800009f4:	00e58023          	sb	a4,0(a1)
800009f8:	00180813          	addi	a6,a6,1
800009fc:	00078593          	mv	a1,a5
80000a00:	f2cff06f          	j	8000012c <vsnprintf+0x98>
80000a04:	00050023          	sb	zero,0(a0)
80000a08:	00000513          	li	a0,0
80000a0c:	00008067          	ret
80000a10:	00280813          	addi	a6,a6,2
80000a14:	010603b3          	add	t2,a2,a6
80000a18:	0003ce83          	lbu	t4,0(t2)
80000a1c:	02500e13          	li	t3,37
80000a20:	fdce80e3          	beq	t4,t3,800009e0 <vsnprintf+0x94c>
80000a24:	fa8e8e13          	addi	t3,t4,-88
80000a28:	0ffe7e13          	zext.b	t3,t3
80000a2c:	02000293          	li	t0,32
80000a30:	8fc2e2e3          	bltu	t0,t3,80000314 <vsnprintf+0x280>
80000a34:	00001297          	auipc	t0,0x1
80000a38:	a5c28293          	addi	t0,t0,-1444 # 80001490 <mainargs+0x294>
80000a3c:	002e1e13          	slli	t3,t3,0x2
80000a40:	005e0e33          	add	t3,t3,t0
80000a44:	000e2e03          	lw	t3,0(t3)
80000a48:	005e0e33          	add	t3,t3,t0
80000a4c:	000e0067          	jr	t3
80000a50:	41170e33          	sub	t3,a4,a7
80000a54:	55c05063          	blez	t3,80000f94 <vsnprintf+0xf00>
80000a58:	00e50533          	add	a0,a0,a4
80000a5c:	04048c63          	beqz	s1,80000ab4 <vsnprintf+0xa20>
80000a60:	d00896e3          	bnez	a7,8000076c <vsnprintf+0x6d8>
80000a64:	fffe0713          	addi	a4,t3,-1
80000a68:	d41ff06f          	j	800007a8 <vsnprintf+0x714>
80000a6c:	0006a283          	lw	t0,0(a3)
80000a70:	00000913          	li	s2,0
80000a74:	00468693          	addi	a3,a3,4
80000a78:	acdff06f          	j	80000544 <vsnprintf+0x4b0>
80000a7c:	00038713          	mv	a4,t2
80000a80:	eadff06f          	j	8000092c <vsnprintf+0x898>
80000a84:	fffe8e93          	addi	t4,t4,-1
80000a88:	02000893          	li	a7,32
80000a8c:	fff00593          	li	a1,-1
80000a90:	0067f863          	bgeu	a5,t1,80000aa0 <vsnprintf+0xa0c>
80000a94:	00ff0733          	add	a4,t5,a5
80000a98:	01170023          	sb	a7,0(a4)
80000a9c:	00178793          	addi	a5,a5,1
80000aa0:	fffe8e93          	addi	t4,t4,-1
80000aa4:	febe96e3          	bne	t4,a1,80000a90 <vsnprintf+0x9fc>
80000aa8:	c19ff06f          	j	800006c0 <vsnprintf+0x62c>
80000aac:	00070e13          	mv	t3,a4
80000ab0:	00000693          	li	a3,0
80000ab4:	fffe0e13          	addi	t3,t3,-1
80000ab8:	02000893          	li	a7,32
80000abc:	fff00713          	li	a4,-1
80000ac0:	00078593          	mv	a1,a5
80000ac4:	0067fa63          	bgeu	a5,t1,80000ad8 <vsnprintf+0xa44>
80000ac8:	00ff05b3          	add	a1,t5,a5
80000acc:	00178793          	addi	a5,a5,1
80000ad0:	01158023          	sb	a7,0(a1)
80000ad4:	00078593          	mv	a1,a5
80000ad8:	fffe0e13          	addi	t3,t3,-1
80000adc:	feee12e3          	bne	t3,a4,80000ac0 <vsnprintf+0xa2c>
80000ae0:	c80696e3          	bnez	a3,8000076c <vsnprintf+0x6d8>
80000ae4:	000f8693          	mv	a3,t6
80000ae8:	c3dff06f          	j	80000724 <vsnprintf+0x690>
80000aec:	0006ae83          	lw	t4,0(a3)
80000af0:	00468a13          	addi	s4,a3,4
80000af4:	000e0813          	mv	a6,t3
80000af8:	41fedf93          	srai	t6,t4,0x1f
80000afc:	92dff06f          	j	80000428 <vsnprintf+0x394>
80000b00:	0006a283          	lw	t0,0(a3)
80000b04:	00000913          	li	s2,0
80000b08:	000e0813          	mv	a6,t3
80000b0c:	00468693          	addi	a3,a3,4
80000b10:	a35ff06f          	j	80000544 <vsnprintf+0x4b0>
80000b14:	e208d2e3          	bgez	a7,80000938 <vsnprintf+0x8a4>
80000b18:	03000e13          	li	t3,48
80000b1c:	e21ff06f          	j	8000093c <vsnprintf+0x8a8>
80000b20:	0006ce83          	lbu	t4,0(a3)
80000b24:	00468a13          	addi	s4,a3,4
80000b28:	00000f93          	li	t6,0
80000b2c:	901ff06f          	j	8000042c <vsnprintf+0x398>
80000b30:	0006c283          	lbu	t0,0(a3)
80000b34:	00000913          	li	s2,0
80000b38:	00468693          	addi	a3,a3,4
80000b3c:	a09ff06f          	j	80000544 <vsnprintf+0x4b0>
80000b40:	000f8693          	mv	a3,t6
80000b44:	80e050e3          	blez	a4,80000344 <vsnprintf+0x2b0>
80000b48:	00e50533          	add	a0,a0,a4
80000b4c:	f60480e3          	beqz	s1,80000aac <vsnprintf+0xa18>
80000b50:	fff70713          	addi	a4,a4,-1
80000b54:	c55ff06f          	j	800007a8 <vsnprintf+0x714>
80000b58:	00768693          	addi	a3,a3,7
80000b5c:	ff86f693          	andi	a3,a3,-8
80000b60:	0006a283          	lw	t0,0(a3)
80000b64:	0046a903          	lw	s2,4(a3)
80000b68:	00868693          	addi	a3,a3,8
80000b6c:	9d9ff06f          	j	80000544 <vsnprintf+0x4b0>
80000b70:	00768693          	addi	a3,a3,7
80000b74:	ff86f693          	andi	a3,a3,-8
80000b78:	0006ae83          	lw	t4,0(a3)
80000b7c:	0046af83          	lw	t6,4(a3)
80000b80:	00868a13          	addi	s4,a3,8
80000b84:	8a5ff06f          	j	80000428 <vsnprintf+0x394>
80000b88:	0006af83          	lw	t6,0(a3)
80000b8c:	00000293          	li	t0,0
80000b90:	000e0813          	mv	a6,t3
80000b94:	00468693          	addi	a3,a3,4
80000b98:	cc1ff06f          	j	80000858 <vsnprintf+0x7c4>
80000b9c:	0006cf83          	lbu	t6,0(a3)
80000ba0:	00000293          	li	t0,0
80000ba4:	00468693          	addi	a3,a3,4
80000ba8:	cb1ff06f          	j	80000858 <vsnprintf+0x7c4>
80000bac:	00070e93          	mv	t4,a4
80000bb0:	00000393          	li	t2,0
80000bb4:	f60b10e3          	bnez	s6,80000b14 <vsnprintf+0xa80>
80000bb8:	fffe8713          	addi	a4,t4,-1
80000bbc:	00070f93          	mv	t6,a4
80000bc0:	02000e13          	li	t3,32
80000bc4:	d85ff06f          	j	80000948 <vsnprintf+0x8b4>
80000bc8:	00768693          	addi	a3,a3,7
80000bcc:	ff86f693          	andi	a3,a3,-8
80000bd0:	0006af83          	lw	t6,0(a3)
80000bd4:	0046a283          	lw	t0,4(a3)
80000bd8:	00868693          	addi	a3,a3,8
80000bdc:	c7dff06f          	j	80000858 <vsnprintf+0x7c4>
80000be0:	01d036b3          	snez	a3,t4
80000be4:	41f00fb3          	neg	t6,t6
80000be8:	40df8fb3          	sub	t6,t6,a3
80000bec:	05812e23          	sw	s8,92(sp)
80000bf0:	41d00eb3          	neg	t4,t4
80000bf4:	00100693          	li	a3,1
80000bf8:	ccccd3b7          	lui	t2,0xccccd
80000bfc:	ccccdbb7          	lui	s7,0xccccd
80000c00:	00000293          	li	t0,0
80000c04:	01010e13          	addi	t3,sp,16
80000c08:	00500c13          	li	s8,5
80000c0c:	ccd38393          	addi	t2,t2,-819 # cccccccd <_end+0x4ccc2ccd>
80000c10:	cccb8b93          	addi	s7,s7,-820 # cccccccc <_end+0x4ccc2ccc>
80000c14:	01512023          	sw	s5,0(sp)
80000c18:	00912223          	sw	s1,4(sp)
80000c1c:	01212423          	sw	s2,8(sp)
80000c20:	01612623          	sw	s6,12(sp)
80000c24:	01fe84b3          	add	s1,t4,t6
80000c28:	01d4b933          	sltu	s2,s1,t4
80000c2c:	012484b3          	add	s1,s1,s2
80000c30:	0384f4b3          	remu	s1,s1,s8
80000c34:	00128293          	addi	t0,t0,1
80000c38:	005e0ab3          	add	s5,t3,t0
80000c3c:	409e84b3          	sub	s1,t4,s1
80000c40:	009eb933          	sltu	s2,t4,s1
80000c44:	412f8933          	sub	s2,t6,s2
80000c48:	02790933          	mul	s2,s2,t2
80000c4c:	03748fb3          	mul	t6,s1,s7
80000c50:	0274bb33          	mulhu	s6,s1,t2
80000c54:	01f90fb3          	add	t6,s2,t6
80000c58:	027484b3          	mul	s1,s1,t2
80000c5c:	016f8fb3          	add	t6,t6,s6
80000c60:	01ff9913          	slli	s2,t6,0x1f
80000c64:	001fdf93          	srli	t6,t6,0x1
80000c68:	0014d493          	srli	s1,s1,0x1
80000c6c:	009964b3          	or	s1,s2,s1
80000c70:	00249913          	slli	s2,s1,0x2
80000c74:	00990933          	add	s2,s2,s1
80000c78:	00191913          	slli	s2,s2,0x1
80000c7c:	412e8933          	sub	s2,t4,s2
80000c80:	03090913          	addi	s2,s2,48
80000c84:	00048e93          	mv	t4,s1
80000c88:	ff2a8fa3          	sb	s2,-1(s5)
80000c8c:	01f4e4b3          	or	s1,s1,t6
80000c90:	f8049ae3          	bnez	s1,80000c24 <vsnprintf+0xb90>
80000c94:	00012a83          	lw	s5,0(sp)
80000c98:	00412483          	lw	s1,4(sp)
80000c9c:	00812903          	lw	s2,8(sp)
80000ca0:	00c12b03          	lw	s6,12(sp)
80000ca4:	05c12c03          	lw	s8,92(sp)
80000ca8:	fb12c463          	blt	t0,a7,80000450 <vsnprintf+0x3bc>
80000cac:	fd4ff06f          	j	80000480 <vsnprintf+0x3ec>
80000cb0:	00000e97          	auipc	t4,0x0
80000cb4:	53ce8e93          	addi	t4,t4,1340 # 800011ec <_etext+0x58>
80000cb8:	00000693          	li	a3,0
80000cbc:	a8dff06f          	j	80000748 <vsnprintf+0x6b4>
80000cc0:	00000897          	auipc	a7,0x0
80000cc4:	53588893          	addi	a7,a7,1333 # 800011f5 <_etext+0x61>
80000cc8:	00088693          	mv	a3,a7
80000ccc:	00000713          	li	a4,0
80000cd0:	0006c583          	lbu	a1,0(a3)
80000cd4:	00070e13          	mv	t3,a4
80000cd8:	00168693          	addi	a3,a3,1
80000cdc:	00170713          	addi	a4,a4,1
80000ce0:	fe0598e3          	bnez	a1,80000cd0 <vsnprintf+0xc3c>
80000ce4:	00e50533          	add	a0,a0,a4
80000ce8:	01c886b3          	add	a3,a7,t3
80000cec:	00000717          	auipc	a4,0x0
80000cf0:	50870713          	addi	a4,a4,1288 # 800011f4 <_etext+0x60>
80000cf4:	00078593          	mv	a1,a5
80000cf8:	0067fc63          	bgeu	a5,t1,80000d10 <vsnprintf+0xc7c>
80000cfc:	00074883          	lbu	a7,0(a4)
80000d00:	00ff05b3          	add	a1,t5,a5
80000d04:	00178793          	addi	a5,a5,1
80000d08:	01158023          	sb	a7,0(a1)
80000d0c:	00078593          	mv	a1,a5
80000d10:	00170713          	addi	a4,a4,1
80000d14:	fee690e3          	bne	a3,a4,80000cf4 <vsnprintf+0xc60>
80000d18:	000f8693          	mv	a3,t6
80000d1c:	a09ff06f          	j	80000724 <vsnprintf+0x690>
80000d20:	0014b713          	seqz	a4,s1
80000d24:	01150533          	add	a0,a0,a7
80000d28:	40ee8eb3          	sub	t4,t4,a4
80000d2c:	995ff06f          	j	800006c0 <vsnprintf+0x62c>
80000d30:	ffe70713          	addi	a4,a4,-2
80000d34:	02000e93          	li	t4,32
80000d38:	fff00893          	li	a7,-1
80000d3c:	03c05263          	blez	t3,80000d60 <vsnprintf+0xccc>
80000d40:	00078593          	mv	a1,a5
80000d44:	0067fa63          	bgeu	a5,t1,80000d58 <vsnprintf+0xcc4>
80000d48:	00ff05b3          	add	a1,t5,a5
80000d4c:	00178793          	addi	a5,a5,1
80000d50:	01d58023          	sb	t4,0(a1)
80000d54:	00078593          	mv	a1,a5
80000d58:	fff70713          	addi	a4,a4,-1
80000d5c:	ff1712e3          	bne	a4,a7,80000d40 <vsnprintf+0xcac>
80000d60:	de67f263          	bgeu	a5,t1,80000344 <vsnprintf+0x2b0>
80000d64:	00bf05b3          	add	a1,t5,a1
80000d68:	00178793          	addi	a5,a5,1
80000d6c:	01f58023          	sb	t6,0(a1)
80000d70:	00180813          	addi	a6,a6,1
80000d74:	00078593          	mv	a1,a5
80000d78:	bb4ff06f          	j	8000012c <vsnprintf+0x98>
80000d7c:	05812e23          	sw	s8,92(sp)
80000d80:	ccccd937          	lui	s2,0xccccd
80000d84:	ccccdc37          	lui	s8,0xccccd
80000d88:	00000393          	li	t2,0
80000d8c:	01010e13          	addi	t3,sp,16
80000d90:	ccd90913          	addi	s2,s2,-819 # cccccccd <_end+0x4ccc2ccd>
80000d94:	cccc0c13          	addi	s8,s8,-820 # cccccccc <_end+0x4ccc2ccc>
80000d98:	00912223          	sw	s1,4(sp)
80000d9c:	005f8eb3          	add	t4,t6,t0
80000da0:	01feb4b3          	sltu	s1,t4,t6
80000da4:	009e8eb3          	add	t4,t4,s1
80000da8:	00500493          	li	s1,5
80000dac:	029efeb3          	remu	t4,t4,s1
80000db0:	00028a13          	mv	s4,t0
80000db4:	00138393          	addi	t2,t2,1
80000db8:	007e0ab3          	add	s5,t3,t2
80000dbc:	01f12023          	sw	t6,0(sp)
80000dc0:	41df8eb3          	sub	t4,t6,t4
80000dc4:	01dfb4b3          	sltu	s1,t6,t4
80000dc8:	409284b3          	sub	s1,t0,s1
80000dcc:	032484b3          	mul	s1,s1,s2
80000dd0:	038e82b3          	mul	t0,t4,s8
80000dd4:	032ebbb3          	mulhu	s7,t4,s2
80000dd8:	005482b3          	add	t0,s1,t0
80000ddc:	032e8eb3          	mul	t4,t4,s2
80000de0:	017282b3          	add	t0,t0,s7
80000de4:	01f29493          	slli	s1,t0,0x1f
80000de8:	0012d293          	srli	t0,t0,0x1
80000dec:	001ede93          	srli	t4,t4,0x1
80000df0:	01d4eeb3          	or	t4,s1,t4
80000df4:	002e9493          	slli	s1,t4,0x2
80000df8:	01d484b3          	add	s1,s1,t4
80000dfc:	00149493          	slli	s1,s1,0x1
80000e00:	409f84b3          	sub	s1,t6,s1
80000e04:	03048493          	addi	s1,s1,48
80000e08:	fe9a8fa3          	sb	s1,-1(s5)
80000e0c:	000e8f93          	mv	t6,t4
80000e10:	f80a16e3          	bnez	s4,80000d9c <vsnprintf+0xd08>
80000e14:	00012e83          	lw	t4,0(sp)
80000e18:	00900493          	li	s1,9
80000e1c:	f9d4e0e3          	bltu	s1,t4,80000d9c <vsnprintf+0xd08>
80000e20:	00412483          	lw	s1,4(sp)
80000e24:	05c12c03          	lw	s8,92(sp)
80000e28:	a49ff06f          	j	80000870 <vsnprintf+0x7dc>
80000e2c:	05812e23          	sw	s8,92(sp)
80000e30:	00000393          	li	t2,0
80000e34:	01010e13          	addi	t3,sp,16
80000e38:	00f2fa13          	andi	s4,t0,15
80000e3c:	014a8a33          	add	s4,s5,s4
80000e40:	000a4b83          	lbu	s7,0(s4)
80000e44:	01c91c13          	slli	s8,s2,0x1c
80000e48:	00138393          	addi	t2,t2,1
80000e4c:	0042d293          	srli	t0,t0,0x4
80000e50:	007e0a33          	add	s4,t3,t2
80000e54:	005c62b3          	or	t0,s8,t0
80000e58:	00495913          	srli	s2,s2,0x4
80000e5c:	ff7a0fa3          	sb	s7,-1(s4)
80000e60:	0122ea33          	or	s4,t0,s2
80000e64:	fc0a1ae3          	bnez	s4,80000e38 <vsnprintf+0xda4>
80000e68:	05c12c03          	lw	s8,92(sp)
80000e6c:	f113c863          	blt	t2,a7,8000057c <vsnprintf+0x4e8>
80000e70:	f3cff06f          	j	800005ac <vsnprintf+0x518>
80000e74:	02000e13          	li	t3,32
80000e78:	000b0863          	beqz	s6,80000e88 <vsnprintf+0xdf4>
80000e7c:	41f8de13          	srai	t3,a7,0x1f
80000e80:	010e7e13          	andi	t3,t3,16
80000e84:	020e0e13          	addi	t3,t3,32
80000e88:	ffff8713          	addi	a4,t6,-1
80000e8c:	1bf05263          	blez	t6,80001030 <vsnprintf+0xf9c>
80000e90:	00070f93          	mv	t6,a4
80000e94:	fff00713          	li	a4,-1
80000e98:	00078593          	mv	a1,a5
80000e9c:	0067fa63          	bgeu	a5,t1,80000eb0 <vsnprintf+0xe1c>
80000ea0:	00ff05b3          	add	a1,t5,a5
80000ea4:	00178793          	addi	a5,a5,1
80000ea8:	01c58023          	sb	t3,0(a1)
80000eac:	00078593          	mv	a1,a5
80000eb0:	ffff8f93          	addi	t6,t6,-1
80000eb4:	feef92e3          	bne	t6,a4,80000e98 <vsnprintf+0xe04>
80000eb8:	e00e9063          	bnez	t4,800004b8 <vsnprintf+0x424>
80000ebc:	00180813          	addi	a6,a6,1
80000ec0:	a6cff06f          	j	8000012c <vsnprintf+0x98>
80000ec4:	000a0693          	mv	a3,s4
80000ec8:	020a8063          	beqz	s5,80000ee8 <vsnprintf+0xe54>
80000ecc:	01010e93          	addi	t4,sp,16
80000ed0:	04028e13          	addi	t3,t0,64
80000ed4:	01de0e33          	add	t3,t3,t4
80000ed8:	02b00f93          	li	t6,43
80000edc:	00128e93          	addi	t4,t0,1
80000ee0:	fdfe0023          	sb	t6,-64(t3)
80000ee4:	dbcff06f          	j	800004a0 <vsnprintf+0x40c>
80000ee8:	00028e93          	mv	t4,t0
80000eec:	da090a63          	beqz	s2,800004a0 <vsnprintf+0x40c>
80000ef0:	04028e13          	addi	t3,t0,64
80000ef4:	01010f93          	addi	t6,sp,16
80000ef8:	01fe02b3          	add	t0,t3,t6
80000efc:	02000e13          	li	t3,32
80000f00:	001e8e93          	addi	t4,t4,1
80000f04:	fdc28023          	sb	t3,-64(t0)
80000f08:	d98ff06f          	j	800004a0 <vsnprintf+0x40c>
80000f0c:	0014b713          	seqz	a4,s1
80000f10:	00d50533          	add	a0,a0,a3
80000f14:	40ee0e33          	sub	t3,t3,a4
80000f18:	855ff06f          	j	8000076c <vsnprintf+0x6d8>
80000f1c:	080b1c63          	bnez	s6,80000fb4 <vsnprintf+0xf20>
80000f20:	000e8713          	mv	a4,t4
80000f24:	02000893          	li	a7,32
80000f28:	fff70e93          	addi	t4,a4,-1
80000f2c:	02e05463          	blez	a4,80000f54 <vsnprintf+0xec0>
80000f30:	fff00713          	li	a4,-1
80000f34:	00078593          	mv	a1,a5
80000f38:	0067fa63          	bgeu	a5,t1,80000f4c <vsnprintf+0xeb8>
80000f3c:	00ff05b3          	add	a1,t5,a5
80000f40:	00178793          	addi	a5,a5,1
80000f44:	01158023          	sb	a7,0(a1)
80000f48:	00078593          	mv	a1,a5
80000f4c:	fffe8e93          	addi	t4,t4,-1
80000f50:	feee92e3          	bne	t4,a4,80000f34 <vsnprintf+0xea0>
80000f54:	94039ae3          	bnez	t2,800008a8 <vsnprintf+0x814>
80000f58:	00180813          	addi	a6,a6,1
80000f5c:	9d0ff06f          	j	8000012c <vsnprintf+0x98>
80000f60:	00000293          	li	t0,0
80000f64:	000a0693          	mv	a3,s4
80000f68:	f61ff06f          	j	80000ec8 <vsnprintf+0xe34>
80000f6c:	06e05063          	blez	a4,80000fcc <vsnprintf+0xf38>
80000f70:	00e50533          	add	a0,a0,a4
80000f74:	04048e63          	beqz	s1,80000fd0 <vsnprintf+0xf3c>
80000f78:	fff70713          	addi	a4,a4,-1
80000f7c:	965ff06f          	j	800008e0 <vsnprintf+0x84c>
80000f80:	bce05263          	blez	a4,80000344 <vsnprintf+0x2b0>
80000f84:	00e50533          	add	a0,a0,a4
80000f88:	c20482e3          	beqz	s1,80000bac <vsnprintf+0xb18>
80000f8c:	fff70713          	addi	a4,a4,-1
80000f90:	ea4ff06f          	j	80000634 <vsnprintf+0x5a0>
80000f94:	01150533          	add	a0,a0,a7
80000f98:	08048463          	beqz	s1,80001020 <vsnprintf+0xf8c>
80000f9c:	fc089863          	bnez	a7,8000076c <vsnprintf+0x6d8>
80000fa0:	000f8693          	mv	a3,t6
80000fa4:	f80ff06f          	j	80000724 <vsnprintf+0x690>
80000fa8:	00088813          	mv	a6,a7
80000fac:	00000893          	li	a7,0
80000fb0:	a40ff06f          	j	800001f0 <vsnprintf+0x15c>
80000fb4:	f608d6e3          	bgez	a7,80000f20 <vsnprintf+0xe8c>
80000fb8:	000e8713          	mv	a4,t4
80000fbc:	03000893          	li	a7,48
80000fc0:	f69ff06f          	j	80000f28 <vsnprintf+0xe94>
80000fc4:	40770eb3          	sub	t4,a4,t2
80000fc8:	8d1ff06f          	j	80000898 <vsnprintf+0x804>
80000fcc:	b6049c63          	bnez	s1,80000344 <vsnprintf+0x2b0>
80000fd0:	00000393          	li	t2,0
80000fd4:	00070e93          	mv	t4,a4
80000fd8:	f40b04e3          	beqz	s6,80000f20 <vsnprintf+0xe8c>
80000fdc:	02000893          	li	a7,32
80000fe0:	f49ff06f          	j	80000f28 <vsnprintf+0xe94>
80000fe4:	00750533          	add	a0,a0,t2
80000fe8:	e0049c63          	bnez	s1,80000600 <vsnprintf+0x56c>
80000fec:	b20b14e3          	bnez	s6,80000b14 <vsnprintf+0xa80>
80000ff0:	fffe8e93          	addi	t4,t4,-1
80000ff4:	01010e13          	addi	t3,sp,16
80000ff8:	e08ff06f          	j	80000600 <vsnprintf+0x56c>
80000ffc:	05812e23          	sw	s8,92(sp)
80001000:	00000693          	li	a3,0
80001004:	bf5ff06f          	j	80000bf8 <vsnprintf+0xb64>
80001008:	fff70e93          	addi	t4,a4,-1
8000100c:	03d05863          	blez	t4,8000103c <vsnprintf+0xfa8>
80001010:	00e50533          	add	a0,a0,a4
80001014:	ba0480e3          	beqz	s1,80000bb4 <vsnprintf+0xb20>
80001018:	00048393          	mv	t2,s1
8000101c:	de4ff06f          	j	80000600 <vsnprintf+0x56c>
80001020:	fffe0e13          	addi	t3,t3,-1
80001024:	f4089463          	bnez	a7,8000076c <vsnprintf+0x6d8>
80001028:	000f8693          	mv	a3,t6
8000102c:	ef8ff06f          	j	80000724 <vsnprintf+0x690>
80001030:	00070f93          	mv	t6,a4
80001034:	c80e9263          	bnez	t4,800004b8 <vsnprintf+0x424>
80001038:	e85ff06f          	j	80000ebc <vsnprintf+0xe28>
8000103c:	00150513          	addi	a0,a0,1
80001040:	fa0486e3          	beqz	s1,80000fec <vsnprintf+0xf58>
80001044:	00048393          	mv	t2,s1
80001048:	db8ff06f          	j	80000600 <vsnprintf+0x56c>
8000104c:	00070e93          	mv	t4,a4
80001050:	921ff06f          	j	80000970 <vsnprintf+0x8dc>
80001054:	00058793          	mv	a5,a1
80001058:	00180813          	addi	a6,a6,1
8000105c:	8d0ff06f          	j	8000012c <vsnprintf+0x98>

80001060 <printf>:
80001060:	fb010113          	addi	sp,sp,-80
80001064:	00001e37          	lui	t3,0x1
80001068:	fffff2b7          	lui	t0,0xfffff
8000106c:	02912223          	sw	s1,36(sp)
80001070:	02112623          	sw	ra,44(sp)
80001074:	02812423          	sw	s0,40(sp)
80001078:	fffff337          	lui	t1,0xfffff
8000107c:	00510133          	add	sp,sp,t0
80001080:	010e0e93          	addi	t4,t3,16 # 1010 <_entry_offset+0x1010>
80001084:	006e8eb3          	add	t4,t4,t1
80001088:	01010313          	addi	t1,sp,16
8000108c:	01010f13          	addi	t5,sp,16
80001090:	006e8333          	add	t1,t4,t1
80001094:	024e0e93          	addi	t4,t3,36
80001098:	00612623          	sw	t1,12(sp)
8000109c:	01ee8eb3          	add	t4,t4,t5
800010a0:	00bea023          	sw	a1,0(t4)
800010a4:	028e0593          	addi	a1,t3,40
800010a8:	01e585b3          	add	a1,a1,t5
800010ac:	00c5a023          	sw	a2,0(a1)
800010b0:	02ce0613          	addi	a2,t3,44
800010b4:	01e60633          	add	a2,a2,t5
800010b8:	030e0e93          	addi	t4,t3,48
800010bc:	00d62023          	sw	a3,0(a2)
800010c0:	01ee8eb3          	add	t4,t4,t5
800010c4:	034e0313          	addi	t1,t3,52
800010c8:	00050613          	mv	a2,a0
800010cc:	00c12503          	lw	a0,12(sp)
800010d0:	00eea023          	sw	a4,0(t4)
800010d4:	000e0713          	mv	a4,t3
800010d8:	034e0e13          	addi	t3,t3,52
800010dc:	01ee0e33          	add	t3,t3,t5
800010e0:	00fe2023          	sw	a5,0(t3)
800010e4:	00070793          	mv	a5,a4
800010e8:	03870713          	addi	a4,a4,56
800010ec:	01e70733          	add	a4,a4,t5
800010f0:	03c78793          	addi	a5,a5,60
800010f4:	01072023          	sw	a6,0(a4)
800010f8:	01e787b3          	add	a5,a5,t5
800010fc:	0117a023          	sw	a7,0(a5)
80001100:	00c12783          	lw	a5,12(sp)
80001104:	00230333          	add	t1,t1,sp
80001108:	00030693          	mv	a3,t1
8000110c:	000015b7          	lui	a1,0x1
80001110:	fe67ae23          	sw	t1,-4(a5)
80001114:	f81fe0ef          	jal	80000094 <vsnprintf>
80001118:	00c12783          	lw	a5,12(sp)
8000111c:	00050493          	mv	s1,a0
80001120:	0007c503          	lbu	a0,0(a5)
80001124:	00050c63          	beqz	a0,8000113c <printf+0xdc>
80001128:	00178413          	addi	s0,a5,1
8000112c:	f3dfe0ef          	jal	80000068 <putch>
80001130:	00044503          	lbu	a0,0(s0)
80001134:	00140413          	addi	s0,s0,1
80001138:	fe051ae3          	bnez	a0,8000112c <printf+0xcc>
8000113c:	000012b7          	lui	t0,0x1
80001140:	00510133          	add	sp,sp,t0
80001144:	02c12083          	lw	ra,44(sp)
80001148:	00048513          	mv	a0,s1
8000114c:	02812403          	lw	s0,40(sp)
80001150:	02412483          	lw	s1,36(sp)
80001154:	05010113          	addi	sp,sp,80
80001158:	00008067          	ret

8000115c <snprintf>:
8000115c:	fc010113          	addi	sp,sp,-64
80001160:	02c10313          	addi	t1,sp,44
80001164:	02d12623          	sw	a3,44(sp)
80001168:	00030693          	mv	a3,t1
8000116c:	00112e23          	sw	ra,28(sp)
80001170:	02e12823          	sw	a4,48(sp)
80001174:	02f12a23          	sw	a5,52(sp)
80001178:	03012c23          	sw	a6,56(sp)
8000117c:	03112e23          	sw	a7,60(sp)
80001180:	00612623          	sw	t1,12(sp)
80001184:	f11fe0ef          	jal	80000094 <vsnprintf>
80001188:	01c12083          	lw	ra,28(sp)
8000118c:	04010113          	addi	sp,sp,64
80001190:	00008067          	ret
