
/home/mubai/ysyx-workbench/am-kernels/tests/cpu-tests/build/hello-str-riscv32-nemu.elf:     file format elf32-littleriscv


Disassembly of section .text:

80000000 <_start>:
80000000:	00000413          	li	s0,0
80000004:	0000a117          	auipc	sp,0xa
80000008:	ffc10113          	addi	sp,sp,-4 # 8000a000 <_end>
8000000c:	0f0000ef          	jal	800000fc <_trm_init>

80000010 <check>:
80000010:	00050463          	beqz	a0,80000018 <check+0x8>
80000014:	00008067          	ret
80000018:	ff010113          	addi	sp,sp,-16
8000001c:	00100513          	li	a0,1
80000020:	00112623          	sw	ra,12(sp)
80000024:	0cc000ef          	jal	800000f0 <halt>

80000028 <main>:
80000028:	ff010113          	addi	sp,sp,-16
8000002c:	00001617          	auipc	a2,0x1
80000030:	fe460613          	addi	a2,a2,-28 # 80001010 <_etext>
80000034:	00001597          	auipc	a1,0x1
80000038:	fec58593          	addi	a1,a1,-20 # 80001020 <_etext+0x10>
8000003c:	00001517          	auipc	a0,0x1
80000040:	15450513          	addi	a0,a0,340 # 80001190 <buf>
80000044:	00112623          	sw	ra,12(sp)
80000048:	78d000ef          	jal	80000fd4 <sprintf>
8000004c:	00001597          	auipc	a1,0x1
80000050:	fc458593          	addi	a1,a1,-60 # 80001010 <_etext>
80000054:	00001517          	auipc	a0,0x1
80000058:	13c50513          	addi	a0,a0,316 # 80001190 <buf>
8000005c:	0c0000ef          	jal	8000011c <strcmp>
80000060:	00153513          	seqz	a0,a0
80000064:	fadff0ef          	jal	80000010 <check>
80000068:	00200713          	li	a4,2
8000006c:	00100693          	li	a3,1
80000070:	00100613          	li	a2,1
80000074:	00001597          	auipc	a1,0x1
80000078:	fb058593          	addi	a1,a1,-80 # 80001024 <_etext+0x14>
8000007c:	00001517          	auipc	a0,0x1
80000080:	11450513          	addi	a0,a0,276 # 80001190 <buf>
80000084:	751000ef          	jal	80000fd4 <sprintf>
80000088:	00001597          	auipc	a1,0x1
8000008c:	fac58593          	addi	a1,a1,-84 # 80001034 <_etext+0x24>
80000090:	00001517          	auipc	a0,0x1
80000094:	10050513          	addi	a0,a0,256 # 80001190 <buf>
80000098:	084000ef          	jal	8000011c <strcmp>
8000009c:	00153513          	seqz	a0,a0
800000a0:	f71ff0ef          	jal	80000010 <check>
800000a4:	00c00713          	li	a4,12
800000a8:	00a00693          	li	a3,10
800000ac:	00200613          	li	a2,2
800000b0:	00001597          	auipc	a1,0x1
800000b4:	f7458593          	addi	a1,a1,-140 # 80001024 <_etext+0x14>
800000b8:	00001517          	auipc	a0,0x1
800000bc:	0d850513          	addi	a0,a0,216 # 80001190 <buf>
800000c0:	715000ef          	jal	80000fd4 <sprintf>
800000c4:	00001597          	auipc	a1,0x1
800000c8:	f7c58593          	addi	a1,a1,-132 # 80001040 <_etext+0x30>
800000cc:	00001517          	auipc	a0,0x1
800000d0:	0c450513          	addi	a0,a0,196 # 80001190 <buf>
800000d4:	048000ef          	jal	8000011c <strcmp>
800000d8:	00153513          	seqz	a0,a0
800000dc:	f35ff0ef          	jal	80000010 <check>
800000e0:	00c12083          	lw	ra,12(sp)
800000e4:	00000513          	li	a0,0
800000e8:	01010113          	addi	sp,sp,16
800000ec:	00008067          	ret

800000f0 <halt>:
800000f0:	00050513          	mv	a0,a0
800000f4:	00100073          	ebreak
800000f8:	0000006f          	j	800000f8 <halt+0x8>

800000fc <_trm_init>:
800000fc:	ff010113          	addi	sp,sp,-16
80000100:	00001517          	auipc	a0,0x1
80000104:	f8850513          	addi	a0,a0,-120 # 80001088 <mainargs>
80000108:	00112623          	sw	ra,12(sp)
8000010c:	f1dff0ef          	jal	80000028 <main>
80000110:	00050513          	mv	a0,a0
80000114:	00100073          	ebreak
80000118:	0000006f          	j	80000118 <_trm_init+0x1c>

8000011c <strcmp>:
8000011c:	00054783          	lbu	a5,0(a0)
80000120:	00079a63          	bnez	a5,80000134 <strcmp+0x18>
80000124:	0340006f          	j	80000158 <strcmp+0x3c>
80000128:	00054783          	lbu	a5,0(a0)
8000012c:	02078063          	beqz	a5,8000014c <strcmp+0x30>
80000130:	00068593          	mv	a1,a3
80000134:	0005c703          	lbu	a4,0(a1)
80000138:	00150513          	addi	a0,a0,1
8000013c:	00158693          	addi	a3,a1,1
80000140:	fef704e3          	beq	a4,a5,80000128 <strcmp+0xc>
80000144:	40e78533          	sub	a0,a5,a4
80000148:	00008067          	ret
8000014c:	0015c703          	lbu	a4,1(a1)
80000150:	40e78533          	sub	a0,a5,a4
80000154:	00008067          	ret
80000158:	0005c703          	lbu	a4,0(a1)
8000015c:	fe9ff06f          	j	80000144 <strcmp+0x28>

80000160 <vsprintf>:
80000160:	0005c783          	lbu	a5,0(a1)
80000164:	00050e93          	mv	t4,a0
80000168:	100782e3          	beqz	a5,80000a6c <vsprintf+0x90c>
8000016c:	f8010113          	addi	sp,sp,-128
80000170:	06912c23          	sw	s1,120(sp)
80000174:	05912c23          	sw	s9,88(sp)
80000178:	05a12a23          	sw	s10,84(sp)
8000017c:	05b12823          	sw	s11,80(sp)
80000180:	06812e23          	sw	s0,124(sp)
80000184:	07212a23          	sw	s2,116(sp)
80000188:	07312823          	sw	s3,112(sp)
8000018c:	07412623          	sw	s4,108(sp)
80000190:	07512423          	sw	s5,104(sp)
80000194:	07612223          	sw	s6,100(sp)
80000198:	00000713          	li	a4,0
8000019c:	00000513          	li	a0,0
800001a0:	000e8693          	mv	a3,t4
800001a4:	02500f93          	li	t6,37
800001a8:	01000493          	li	s1,16
800001ac:	00001397          	auipc	t2,0x1
800001b0:	f1c38393          	addi	t2,t2,-228 # 800010c8 <mainargs+0x40>
800001b4:	02e00d93          	li	s11,46
800001b8:	06800c93          	li	s9,104
800001bc:	00001d17          	auipc	s10,0x1
800001c0:	f50d0d13          	addi	s10,s10,-176 # 8000110c <mainargs+0x84>
800001c4:	0200006f          	j	800001e4 <vsprintf+0x84>
800001c8:	00080713          	mv	a4,a6
800001cc:	00f68023          	sb	a5,0(a3)
800001d0:	00e587b3          	add	a5,a1,a4
800001d4:	0007c783          	lbu	a5,0(a5)
800001d8:	00150513          	addi	a0,a0,1
800001dc:	00ae86b3          	add	a3,t4,a0
800001e0:	1a078263          	beqz	a5,80000384 <vsprintf+0x224>
800001e4:	00170813          	addi	a6,a4,1
800001e8:	fff790e3          	bne	a5,t6,800001c8 <vsprintf+0x68>
800001ec:	01058833          	add	a6,a1,a6
800001f0:	00270713          	addi	a4,a4,2
800001f4:	00000a13          	li	s4,0
800001f8:	00000f13          	li	t5,0
800001fc:	00000993          	li	s3,0
80000200:	00000a93          	li	s5,0
80000204:	00000413          	li	s0,0
80000208:	00084883          	lbu	a7,0(a6)
8000020c:	00080293          	mv	t0,a6
80000210:	fe088793          	addi	a5,a7,-32
80000214:	0ff7f793          	zext.b	a5,a5
80000218:	00f4ec63          	bltu	s1,a5,80000230 <vsprintf+0xd0>
8000021c:	00279793          	slli	a5,a5,0x2
80000220:	007787b3          	add	a5,a5,t2
80000224:	0007a783          	lw	a5,0(a5)
80000228:	007787b3          	add	a5,a5,t2
8000022c:	00078067          	jr	a5
80000230:	02a00793          	li	a5,42
80000234:	06f89e63          	bne	a7,a5,800002b0 <vsprintf+0x150>
80000238:	00062783          	lw	a5,0(a2)
8000023c:	00460613          	addi	a2,a2,4
80000240:	0007d663          	bgez	a5,8000024c <vsprintf+0xec>
80000244:	40f007b3          	neg	a5,a5
80000248:	00100413          	li	s0,1
8000024c:	00e582b3          	add	t0,a1,a4
80000250:	0002c883          	lbu	a7,0(t0)
80000254:	00070e13          	mv	t3,a4
80000258:	fff00813          	li	a6,-1
8000025c:	0bb88863          	beq	a7,s11,8000030c <vsprintf+0x1ac>
80000260:	001e0713          	addi	a4,t3,1
80000264:	00e58933          	add	s2,a1,a4
80000268:	0f988063          	beq	a7,s9,80000348 <vsprintf+0x1e8>
8000026c:	06c00313          	li	t1,108
80000270:	14688463          	beq	a7,t1,800003b8 <vsprintf+0x258>
80000274:	07a00313          	li	t1,122
80000278:	6a688863          	beq	a7,t1,80000928 <vsprintf+0x7c8>
8000027c:	00028913          	mv	s2,t0
80000280:	000e0713          	mv	a4,t3
80000284:	00000293          	li	t0,0
80000288:	0ff88063          	beq	a7,t6,80000368 <vsprintf+0x208>
8000028c:	fa888313          	addi	t1,a7,-88
80000290:	0ff37313          	zext.b	t1,t1
80000294:	02000e13          	li	t3,32
80000298:	146e6063          	bltu	t3,t1,800003d8 <vsprintf+0x278>
8000029c:	00231313          	slli	t1,t1,0x2
800002a0:	01a30333          	add	t1,t1,s10
800002a4:	00032303          	lw	t1,0(t1)
800002a8:	01a30333          	add	t1,t1,s10
800002ac:	00030067          	jr	t1
800002b0:	fd088313          	addi	t1,a7,-48
800002b4:	0ff37813          	zext.b	a6,t1
800002b8:	00900b13          	li	s6,9
800002bc:	fff70e13          	addi	t3,a4,-1
800002c0:	00000793          	li	a5,0
800002c4:	00e58733          	add	a4,a1,a4
800002c8:	00900913          	li	s2,9
800002cc:	f90b66e3          	bltu	s6,a6,80000258 <vsprintf+0xf8>
800002d0:	00078813          	mv	a6,a5
800002d4:	00074883          	lbu	a7,0(a4)
800002d8:	00281793          	slli	a5,a6,0x2
800002dc:	010787b3          	add	a5,a5,a6
800002e0:	00179793          	slli	a5,a5,0x1
800002e4:	00f30833          	add	a6,t1,a5
800002e8:	fd088313          	addi	t1,a7,-48
800002ec:	0ff37793          	zext.b	a5,t1
800002f0:	00070293          	mv	t0,a4
800002f4:	001e0e13          	addi	t3,t3,1
800002f8:	00170713          	addi	a4,a4,1
800002fc:	fcf97ce3          	bgeu	s2,a5,800002d4 <vsprintf+0x174>
80000300:	00080793          	mv	a5,a6
80000304:	fff00813          	li	a6,-1
80000308:	f5b89ce3          	bne	a7,s11,80000260 <vsprintf+0x100>
8000030c:	001e0713          	addi	a4,t3,1
80000310:	00e582b3          	add	t0,a1,a4
80000314:	0002c883          	lbu	a7,0(t0)
80000318:	02a00813          	li	a6,42
8000031c:	0f089263          	bne	a7,a6,80000400 <vsprintf+0x2a0>
80000320:	00062803          	lw	a6,0(a2)
80000324:	00460613          	addi	a2,a2,4
80000328:	00085463          	bgez	a6,80000330 <vsprintf+0x1d0>
8000032c:	fff00813          	li	a6,-1
80000330:	002e0e13          	addi	t3,t3,2
80000334:	01c582b3          	add	t0,a1,t3
80000338:	0002c883          	lbu	a7,0(t0)
8000033c:	001e0713          	addi	a4,t3,1
80000340:	00e58933          	add	s2,a1,a4
80000344:	f39894e3          	bne	a7,s9,8000026c <vsprintf+0x10c>
80000348:	00094883          	lbu	a7,0(s2)
8000034c:	00100293          	li	t0,1
80000350:	f3989ce3          	bne	a7,s9,80000288 <vsprintf+0x128>
80000354:	002e0713          	addi	a4,t3,2
80000358:	00e58933          	add	s2,a1,a4
8000035c:	00094883          	lbu	a7,0(s2)
80000360:	00200293          	li	t0,2
80000364:	f3f894e3          	bne	a7,t6,8000028c <vsprintf+0x12c>
80000368:	00150513          	addi	a0,a0,1
8000036c:	01f68023          	sb	t6,0(a3)
80000370:	00ae86b3          	add	a3,t4,a0
80000374:	00170713          	addi	a4,a4,1
80000378:	00e587b3          	add	a5,a1,a4
8000037c:	0007c783          	lbu	a5,0(a5)
80000380:	e60792e3          	bnez	a5,800001e4 <vsprintf+0x84>
80000384:	00068023          	sb	zero,0(a3)
80000388:	07c12403          	lw	s0,124(sp)
8000038c:	07812483          	lw	s1,120(sp)
80000390:	07412903          	lw	s2,116(sp)
80000394:	07012983          	lw	s3,112(sp)
80000398:	06c12a03          	lw	s4,108(sp)
8000039c:	06812a83          	lw	s5,104(sp)
800003a0:	06412b03          	lw	s6,100(sp)
800003a4:	05812c83          	lw	s9,88(sp)
800003a8:	05412d03          	lw	s10,84(sp)
800003ac:	05012d83          	lw	s11,80(sp)
800003b0:	08010113          	addi	sp,sp,128
800003b4:	00008067          	ret
800003b8:	00094883          	lbu	a7,0(s2)
800003bc:	00300293          	li	t0,3
800003c0:	ec6894e3          	bne	a7,t1,80000288 <vsprintf+0x128>
800003c4:	002e0713          	addi	a4,t3,2
800003c8:	00e58933          	add	s2,a1,a4
800003cc:	00094883          	lbu	a7,0(s2)
800003d0:	00400293          	li	t0,4
800003d4:	eb5ff06f          	j	80000288 <vsprintf+0x128>
800003d8:	02500793          	li	a5,37
800003dc:	00f68023          	sb	a5,0(a3)
800003e0:	00094683          	lbu	a3,0(s2)
800003e4:	00150793          	addi	a5,a0,1
800003e8:	00fe87b3          	add	a5,t4,a5
800003ec:	00250513          	addi	a0,a0,2
800003f0:	00d78023          	sb	a3,0(a5)
800003f4:	00170713          	addi	a4,a4,1
800003f8:	00ae86b3          	add	a3,t4,a0
800003fc:	f7dff06f          	j	80000378 <vsprintf+0x218>
80000400:	fd088313          	addi	t1,a7,-48
80000404:	0ff37913          	zext.b	s2,t1
80000408:	00900813          	li	a6,9
8000040c:	23286ce3          	bltu	a6,s2,80000e44 <vsprintf+0xce4>
80000410:	002e0913          	addi	s2,t3,2
80000414:	00000813          	li	a6,0
80000418:	00070e13          	mv	t3,a4
8000041c:	01258933          	add	s2,a1,s2
80000420:	00900b13          	li	s6,9
80000424:	00080713          	mv	a4,a6
80000428:	00094883          	lbu	a7,0(s2)
8000042c:	00271813          	slli	a6,a4,0x2
80000430:	00e80833          	add	a6,a6,a4
80000434:	00181813          	slli	a6,a6,0x1
80000438:	01030733          	add	a4,t1,a6
8000043c:	fd088313          	addi	t1,a7,-48
80000440:	0ff37813          	zext.b	a6,t1
80000444:	00090293          	mv	t0,s2
80000448:	001e0e13          	addi	t3,t3,1
8000044c:	00190913          	addi	s2,s2,1
80000450:	fd0b7ce3          	bgeu	s6,a6,80000428 <vsprintf+0x2c8>
80000454:	00070813          	mv	a6,a4
80000458:	e09ff06f          	j	80000260 <vsprintf+0x100>
8000045c:	00100a13          	li	s4,1
80000460:	00180813          	addi	a6,a6,1
80000464:	00170713          	addi	a4,a4,1
80000468:	da1ff06f          	j	80000208 <vsprintf+0xa8>
8000046c:	00100f13          	li	t5,1
80000470:	ff1ff06f          	j	80000460 <vsprintf+0x300>
80000474:	00100993          	li	s3,1
80000478:	fe9ff06f          	j	80000460 <vsprintf+0x300>
8000047c:	00100413          	li	s0,1
80000480:	fe1ff06f          	j	80000460 <vsprintf+0x300>
80000484:	00100a93          	li	s5,1
80000488:	fd9ff06f          	j	80000460 <vsprintf+0x300>
8000048c:	00100893          	li	a7,1
80000490:	4d128263          	beq	t0,a7,80000954 <vsprintf+0x7f4>
80000494:	00200893          	li	a7,2
80000498:	071286e3          	beq	t0,a7,80000d04 <vsprintf+0xba4>
8000049c:	00300893          	li	a7,3
800004a0:	01128663          	beq	t0,a7,800004ac <vsprintf+0x34c>
800004a4:	00400893          	li	a7,4
800004a8:	1b128ce3          	beq	t0,a7,80000e60 <vsprintf+0xd00>
800004ac:	00062303          	lw	t1,0(a2)
800004b0:	00460613          	addi	a2,a2,4
800004b4:	41f35f13          	srai	t5,t1,0x1f
800004b8:	5c0f4863          	bltz	t5,80000a88 <vsprintf+0x928>
800004bc:	01e368b3          	or	a7,t1,t5
800004c0:	280898e3          	bnez	a7,80000f50 <vsprintf+0xdf0>
800004c4:	58080263          	beqz	a6,80000a48 <vsprintf+0x8e8>
800004c8:	03000893          	li	a7,48
800004cc:	01110823          	sb	a7,16(sp)
800004d0:	00100293          	li	t0,1
800004d4:	00000893          	li	a7,0
800004d8:	01010e13          	addi	t3,sp,16
800004dc:	5702d863          	bge	t0,a6,80000a4c <vsprintf+0x8ec>
800004e0:	00028313          	mv	t1,t0
800004e4:	03000913          	li	s2,48
800004e8:	00130313          	addi	t1,t1,1
800004ec:	006e0f33          	add	t5,t3,t1
800004f0:	ff2f0fa3          	sb	s2,-1(t5)
800004f4:	ff034ae3          	blt	t1,a6,800004e8 <vsprintf+0x388>
800004f8:	00128e13          	addi	t3,t0,1
800004fc:	00000313          	li	t1,0
80000500:	0102d663          	bge	t0,a6,8000050c <vsprintf+0x3ac>
80000504:	fff80313          	addi	t1,a6,-1
80000508:	40530333          	sub	t1,t1,t0
8000050c:	01c302b3          	add	t0,t1,t3
80000510:	52088e63          	beqz	a7,80000a4c <vsprintf+0x8ec>
80000514:	04028893          	addi	a7,t0,64
80000518:	01010313          	addi	t1,sp,16
8000051c:	006888b3          	add	a7,a7,t1
80000520:	02d00313          	li	t1,45
80000524:	00128293          	addi	t0,t0,1
80000528:	fc688023          	sb	t1,-64(a7)
8000052c:	405787b3          	sub	a5,a5,t0
80000530:	76040263          	beqz	s0,80000c94 <vsprintf+0xb34>
80000534:	01010e13          	addi	t3,sp,16
80000538:	005e0833          	add	a6,t3,t0
8000053c:	fff84883          	lbu	a7,-1(a6)
80000540:	fff80813          	addi	a6,a6,-1
80000544:	00168693          	addi	a3,a3,1
80000548:	ff168fa3          	sb	a7,-1(a3)
8000054c:	ff0e18e3          	bne	t3,a6,8000053c <vsprintf+0x3dc>
80000550:	00a28533          	add	a0,t0,a0
80000554:	00ae86b3          	add	a3,t4,a0
80000558:	e0040ee3          	beqz	s0,80000374 <vsprintf+0x214>
8000055c:	fff78893          	addi	a7,a5,-1
80000560:	e0f05ae3          	blez	a5,80000374 <vsprintf+0x214>
80000564:	00a787b3          	add	a5,a5,a0
80000568:	00fe87b3          	add	a5,t4,a5
8000056c:	02000813          	li	a6,32
80000570:	01068023          	sb	a6,0(a3)
80000574:	00168693          	addi	a3,a3,1
80000578:	fef69ce3          	bne	a3,a5,80000570 <vsprintf+0x410>
8000057c:	00150513          	addi	a0,a0,1
80000580:	00a88533          	add	a0,a7,a0
80000584:	00ae86b3          	add	a3,t4,a0
80000588:	00170713          	addi	a4,a4,1
8000058c:	dedff06f          	j	80000378 <vsprintf+0x218>
80000590:	00100313          	li	t1,1
80000594:	3a628063          	beq	t0,t1,80000934 <vsprintf+0x7d4>
80000598:	00200313          	li	t1,2
8000059c:	74628c63          	beq	t0,t1,80000cf4 <vsprintf+0xb94>
800005a0:	00300313          	li	t1,3
800005a4:	00628663          	beq	t0,t1,800005b0 <vsprintf+0x450>
800005a8:	00400313          	li	t1,4
800005ac:	0e6282e3          	beq	t0,t1,80000e90 <vsprintf+0xd30>
800005b0:	00062303          	lw	t1,0(a2)
800005b4:	00000293          	li	t0,0
800005b8:	00460613          	addi	a2,a2,4
800005bc:	07800e13          	li	t3,120
800005c0:	00001b17          	auipc	s6,0x1
800005c4:	aa4b0b13          	addi	s6,s6,-1372 # 80001064 <_etext+0x54>
800005c8:	01c89663          	bne	a7,t3,800005d4 <vsprintf+0x474>
800005cc:	00001b17          	auipc	s6,0x1
800005d0:	a84b0b13          	addi	s6,s6,-1404 # 80001050 <_etext+0x40>
800005d4:	00536ab3          	or	s5,t1,t0
800005d8:	660a9863          	bnez	s5,80000c48 <vsprintf+0xae8>
800005dc:	74080863          	beqz	a6,80000d2c <vsprintf+0xbcc>
800005e0:	03000313          	li	t1,48
800005e4:	00610823          	sb	t1,16(sp)
800005e8:	00100993          	li	s3,1
800005ec:	01010e13          	addi	t3,sp,16
800005f0:	013e0333          	add	t1,t3,s3
800005f4:	010e0933          	add	s2,t3,a6
800005f8:	03000293          	li	t0,48
800005fc:	0b09dee3          	bge	s3,a6,80000eb8 <vsprintf+0xd58>
80000600:	00530023          	sb	t0,0(t1)
80000604:	00130313          	addi	t1,t1,1
80000608:	fe691ce3          	bne	s2,t1,80000600 <vsprintf+0x4a0>
8000060c:	410787b3          	sub	a5,a5,a6
80000610:	04041a63          	bnez	s0,80000664 <vsprintf+0x504>
80000614:	fff78293          	addi	t0,a5,-1
80000618:	7c0a0463          	beqz	s4,80000de0 <vsprintf+0xc80>
8000061c:	020f0ae3          	beqz	t5,80000e50 <vsprintf+0xcf0>
80000620:	01010e13          	addi	t3,sp,16
80000624:	7c0a8063          	beqz	s5,80000de4 <vsprintf+0xc84>
80000628:	07800313          	li	t1,120
8000062c:	00688463          	beq	a7,t1,80000634 <vsprintf+0x4d4>
80000630:	05800893          	li	a7,88
80000634:	04080f13          	addi	t5,a6,64
80000638:	01010913          	addi	s2,sp,16
8000063c:	012f0f33          	add	t5,t5,s2
80000640:	fd1f0023          	sb	a7,-64(t5)
80000644:	04180893          	addi	a7,a6,65
80000648:	012888b3          	add	a7,a7,s2
8000064c:	03000313          	li	t1,48
80000650:	fc688023          	sb	t1,-64(a7)
80000654:	00280813          	addi	a6,a6,2
80000658:	fff78993          	addi	s3,a5,-1
8000065c:	6ef04863          	bgtz	a5,80000d4c <vsprintf+0xbec>
80000660:	00028793          	mv	a5,t0
80000664:	010e08b3          	add	a7,t3,a6
80000668:	fff8c303          	lbu	t1,-1(a7)
8000066c:	fff88893          	addi	a7,a7,-1
80000670:	00168693          	addi	a3,a3,1
80000674:	fe668fa3          	sb	t1,-1(a3)
80000678:	ff1e18e3          	bne	t3,a7,80000668 <vsprintf+0x508>
8000067c:	00a80533          	add	a0,a6,a0
80000680:	00ae86b3          	add	a3,t4,a0
80000684:	ce0408e3          	beqz	s0,80000374 <vsprintf+0x214>
80000688:	fff78893          	addi	a7,a5,-1
8000068c:	cef054e3          	blez	a5,80000374 <vsprintf+0x214>
80000690:	00a787b3          	add	a5,a5,a0
80000694:	00fe87b3          	add	a5,t4,a5
80000698:	02000813          	li	a6,32
8000069c:	01068023          	sb	a6,0(a3)
800006a0:	00168693          	addi	a3,a3,1
800006a4:	fef69ce3          	bne	a3,a5,8000069c <vsprintf+0x53c>
800006a8:	ed5ff06f          	j	8000057c <vsprintf+0x41c>
800006ac:	00064883          	lbu	a7,0(a2)
800006b0:	fff78313          	addi	t1,a5,-1
800006b4:	00460613          	addi	a2,a2,4
800006b8:	ffe78f13          	addi	t5,a5,-2
800006bc:	48040e63          	beqz	s0,80000b58 <vsprintf+0x9f8>
800006c0:	00150e13          	addi	t3,a0,1
800006c4:	01168023          	sb	a7,0(a3)
800006c8:	00f687b3          	add	a5,a3,a5
800006cc:	01ce8833          	add	a6,t4,t3
800006d0:	02000693          	li	a3,32
800006d4:	72605063          	blez	t1,80000df4 <vsprintf+0xc94>
800006d8:	00d80023          	sb	a3,0(a6)
800006dc:	00180813          	addi	a6,a6,1
800006e0:	ff079ce3          	bne	a5,a6,800006d8 <vsprintf+0x578>
800006e4:	00250513          	addi	a0,a0,2
800006e8:	01e50533          	add	a0,a0,t5
800006ec:	00ae86b3          	add	a3,t4,a0
800006f0:	00170713          	addi	a4,a4,1
800006f4:	c85ff06f          	j	80000378 <vsprintf+0x218>
800006f8:	00062803          	lw	a6,0(a2)
800006fc:	00460f13          	addi	t5,a2,4
80000700:	26080a63          	beqz	a6,80000974 <vsprintf+0x814>
80000704:	00000893          	li	a7,0
80000708:	01010e13          	addi	t3,sp,16
8000070c:	00001917          	auipc	s2,0x1
80000710:	94490913          	addi	s2,s2,-1724 # 80001050 <_etext+0x40>
80000714:	00f87613          	andi	a2,a6,15
80000718:	00c90633          	add	a2,s2,a2
8000071c:	00064283          	lbu	t0,0(a2)
80000720:	00088613          	mv	a2,a7
80000724:	00188893          	addi	a7,a7,1
80000728:	011e0333          	add	t1,t3,a7
8000072c:	fe530fa3          	sb	t0,-1(t1)
80000730:	00485813          	srli	a6,a6,0x4
80000734:	fe0810e3          	bnez	a6,80000714 <vsprintf+0x5b4>
80000738:	04088813          	addi	a6,a7,64
8000073c:	01010893          	addi	a7,sp,16
80000740:	011808b3          	add	a7,a6,a7
80000744:	00260313          	addi	t1,a2,2
80000748:	07800813          	li	a6,120
8000074c:	fd088023          	sb	a6,-64(a7)
80000750:	04030813          	addi	a6,t1,64
80000754:	01010893          	addi	a7,sp,16
80000758:	011808b3          	add	a7,a6,a7
8000075c:	03000293          	li	t0,48
80000760:	00360813          	addi	a6,a2,3
80000764:	fc588023          	sb	t0,-64(a7)
80000768:	41078833          	sub	a6,a5,a6
8000076c:	60040863          	beqz	s0,80000d7c <vsprintf+0xc1c>
80000770:	00ce07b3          	add	a5,t3,a2
80000774:	00d10893          	addi	a7,sp,13
80000778:	0027c603          	lbu	a2,2(a5)
8000077c:	fff78793          	addi	a5,a5,-1
80000780:	00168693          	addi	a3,a3,1
80000784:	fec68fa3          	sb	a2,-1(a3)
80000788:	fef898e3          	bne	a7,a5,80000778 <vsprintf+0x618>
8000078c:	00150513          	addi	a0,a0,1
80000790:	00a30533          	add	a0,t1,a0
80000794:	000f0613          	mv	a2,t5
80000798:	00ae86b3          	add	a3,t4,a0
8000079c:	bc040ce3          	beqz	s0,80000374 <vsprintf+0x214>
800007a0:	fff80893          	addi	a7,a6,-1
800007a4:	bd0058e3          	blez	a6,80000374 <vsprintf+0x214>
800007a8:	010e87b3          	add	a5,t4,a6
800007ac:	00a787b3          	add	a5,a5,a0
800007b0:	02000613          	li	a2,32
800007b4:	00c68023          	sb	a2,0(a3)
800007b8:	00168693          	addi	a3,a3,1
800007bc:	fef69ce3          	bne	a3,a5,800007b4 <vsprintf+0x654>
800007c0:	00150513          	addi	a0,a0,1
800007c4:	01150533          	add	a0,a0,a7
800007c8:	000f0613          	mv	a2,t5
800007cc:	00ae86b3          	add	a3,t4,a0
800007d0:	00170713          	addi	a4,a4,1
800007d4:	ba5ff06f          	j	80000378 <vsprintf+0x218>
800007d8:	00100893          	li	a7,1
800007dc:	17128463          	beq	t0,a7,80000944 <vsprintf+0x7e4>
800007e0:	00200893          	li	a7,2
800007e4:	51128063          	beq	t0,a7,80000ce4 <vsprintf+0xb84>
800007e8:	00300893          	li	a7,3
800007ec:	01128663          	beq	t0,a7,800007f8 <vsprintf+0x698>
800007f0:	00400893          	li	a7,4
800007f4:	69128263          	beq	t0,a7,80000e78 <vsprintf+0xd18>
800007f8:	00062303          	lw	t1,0(a2)
800007fc:	00000f13          	li	t5,0
80000800:	00460613          	addi	a2,a2,4
80000804:	01e368b3          	or	a7,t1,t5
80000808:	38089863          	bnez	a7,80000b98 <vsprintf+0xa38>
8000080c:	50080463          	beqz	a6,80000d14 <vsprintf+0xbb4>
80000810:	03000893          	li	a7,48
80000814:	01110823          	sb	a7,16(sp)
80000818:	00100293          	li	t0,1
8000081c:	01010e13          	addi	t3,sp,16
80000820:	005e08b3          	add	a7,t3,t0
80000824:	010e0f33          	add	t5,t3,a6
80000828:	03000313          	li	t1,48
8000082c:	6702de63          	bge	t0,a6,80000ea8 <vsprintf+0xd48>
80000830:	00688023          	sb	t1,0(a7)
80000834:	00188893          	addi	a7,a7,1
80000838:	ffe89ce3          	bne	a7,t5,80000830 <vsprintf+0x6d0>
8000083c:	410787b3          	sub	a5,a5,a6
80000840:	18040863          	beqz	s0,800009d0 <vsprintf+0x870>
80000844:	010e08b3          	add	a7,t3,a6
80000848:	fff8c303          	lbu	t1,-1(a7)
8000084c:	fff88893          	addi	a7,a7,-1
80000850:	00168693          	addi	a3,a3,1
80000854:	fe668fa3          	sb	t1,-1(a3)
80000858:	ff1e18e3          	bne	t3,a7,80000848 <vsprintf+0x6e8>
8000085c:	00a80533          	add	a0,a6,a0
80000860:	00ae86b3          	add	a3,t4,a0
80000864:	b00408e3          	beqz	s0,80000374 <vsprintf+0x214>
80000868:	fff78893          	addi	a7,a5,-1
8000086c:	b0f054e3          	blez	a5,80000374 <vsprintf+0x214>
80000870:	00a787b3          	add	a5,a5,a0
80000874:	00fe87b3          	add	a5,t4,a5
80000878:	02000813          	li	a6,32
8000087c:	01068023          	sb	a6,0(a3)
80000880:	00168693          	addi	a3,a3,1
80000884:	fef69ce3          	bne	a3,a5,8000087c <vsprintf+0x71c>
80000888:	cf5ff06f          	j	8000057c <vsprintf+0x41c>
8000088c:	00062883          	lw	a7,0(a2)
80000890:	00460e13          	addi	t3,a2,4
80000894:	0c088863          	beqz	a7,80000964 <vsprintf+0x804>
80000898:	0008c603          	lbu	a2,0(a7)
8000089c:	56060463          	beqz	a2,80000e04 <vsprintf+0xca4>
800008a0:	00000613          	li	a2,0
800008a4:	1cc80a63          	beq	a6,a2,80000a78 <vsprintf+0x918>
800008a8:	00160613          	addi	a2,a2,1
800008ac:	00c88333          	add	t1,a7,a2
800008b0:	00034303          	lbu	t1,0(t1)
800008b4:	fe0318e3          	bnez	t1,800008a4 <vsprintf+0x744>
800008b8:	40c787b3          	sub	a5,a5,a2
800008bc:	14040863          	beqz	s0,80000a0c <vsprintf+0x8ac>
800008c0:	00000693          	li	a3,0
800008c4:	00d88833          	add	a6,a7,a3
800008c8:	00084303          	lbu	t1,0(a6)
800008cc:	00d50833          	add	a6,a0,a3
800008d0:	010e8833          	add	a6,t4,a6
800008d4:	00680023          	sb	t1,0(a6)
800008d8:	00168693          	addi	a3,a3,1
800008dc:	fec6c4e3          	blt	a3,a2,800008c4 <vsprintf+0x764>
800008e0:	00a60533          	add	a0,a2,a0
800008e4:	00ae86b3          	add	a3,t4,a0
800008e8:	000e0613          	mv	a2,t3
800008ec:	a80404e3          	beqz	s0,80000374 <vsprintf+0x214>
800008f0:	fff78813          	addi	a6,a5,-1
800008f4:	52f05063          	blez	a5,80000e14 <vsprintf+0xcb4>
800008f8:	00a787b3          	add	a5,a5,a0
800008fc:	00fe87b3          	add	a5,t4,a5
80000900:	02000613          	li	a2,32
80000904:	00c68023          	sb	a2,0(a3)
80000908:	00168693          	addi	a3,a3,1
8000090c:	fed79ce3          	bne	a5,a3,80000904 <vsprintf+0x7a4>
80000910:	00150513          	addi	a0,a0,1
80000914:	01050533          	add	a0,a0,a6
80000918:	000e0613          	mv	a2,t3
8000091c:	00ae86b3          	add	a3,t4,a0
80000920:	00170713          	addi	a4,a4,1
80000924:	a55ff06f          	j	80000378 <vsprintf+0x218>
80000928:	00094883          	lbu	a7,0(s2)
8000092c:	00500293          	li	t0,5
80000930:	959ff06f          	j	80000288 <vsprintf+0x128>
80000934:	00065303          	lhu	t1,0(a2)
80000938:	00000293          	li	t0,0
8000093c:	00460613          	addi	a2,a2,4
80000940:	c7dff06f          	j	800005bc <vsprintf+0x45c>
80000944:	00065303          	lhu	t1,0(a2)
80000948:	00000f13          	li	t5,0
8000094c:	00460613          	addi	a2,a2,4
80000950:	eb5ff06f          	j	80000804 <vsprintf+0x6a4>
80000954:	00061303          	lh	t1,0(a2)
80000958:	00460613          	addi	a2,a2,4
8000095c:	41f35f13          	srai	t5,t1,0x1f
80000960:	b59ff06f          	j	800004b8 <vsprintf+0x358>
80000964:	00000897          	auipc	a7,0x0
80000968:	71488893          	addi	a7,a7,1812 # 80001078 <_etext+0x68>
8000096c:	00000613          	li	a2,0
80000970:	f35ff06f          	j	800008a4 <vsprintf+0x744>
80000974:	00000897          	auipc	a7,0x0
80000978:	70d88893          	addi	a7,a7,1805 # 80001081 <_etext+0x71>
8000097c:	00088793          	mv	a5,a7
80000980:	0007c603          	lbu	a2,0(a5)
80000984:	00078813          	mv	a6,a5
80000988:	00178793          	addi	a5,a5,1
8000098c:	fe061ae3          	bnez	a2,80000980 <vsprintf+0x820>
80000990:	00000797          	auipc	a5,0x0
80000994:	6f078793          	addi	a5,a5,1776 # 80001080 <_etext+0x70>
80000998:	40f80833          	sub	a6,a6,a5
8000099c:	fff80813          	addi	a6,a6,-1
800009a0:	010888b3          	add	a7,a7,a6
800009a4:	0007c603          	lbu	a2,0(a5)
800009a8:	00178793          	addi	a5,a5,1
800009ac:	00168693          	addi	a3,a3,1
800009b0:	fec68fa3          	sb	a2,-1(a3)
800009b4:	ff1798e3          	bne	a5,a7,800009a4 <vsprintf+0x844>
800009b8:	00150513          	addi	a0,a0,1
800009bc:	00a80533          	add	a0,a6,a0
800009c0:	000f0613          	mv	a2,t5
800009c4:	00ae86b3          	add	a3,t4,a0
800009c8:	00170713          	addi	a4,a4,1
800009cc:	9adff06f          	j	80000378 <vsprintf+0x218>
800009d0:	fff78f13          	addi	t5,a5,-1
800009d4:	02000893          	li	a7,32
800009d8:	44f05e63          	blez	a5,80000e34 <vsprintf+0xcd4>
800009dc:	00f68333          	add	t1,a3,a5
800009e0:	01168023          	sb	a7,0(a3)
800009e4:	00168693          	addi	a3,a3,1
800009e8:	fe669ce3          	bne	a3,t1,800009e0 <vsprintf+0x880>
800009ec:	00150513          	addi	a0,a0,1
800009f0:	01e50533          	add	a0,a0,t5
800009f4:	40ff07b3          	sub	a5,t5,a5
800009f8:	00ae86b3          	add	a3,t4,a0
800009fc:	01010e13          	addi	t3,sp,16
80000a00:	e40812e3          	bnez	a6,80000844 <vsprintf+0x6e4>
80000a04:	00170713          	addi	a4,a4,1
80000a08:	971ff06f          	j	80000378 <vsprintf+0x218>
80000a0c:	fff78f13          	addi	t5,a5,-1
80000a10:	54f05e63          	blez	a5,80000f6c <vsprintf+0xe0c>
80000a14:	00f68333          	add	t1,a3,a5
80000a18:	02000813          	li	a6,32
80000a1c:	01068023          	sb	a6,0(a3)
80000a20:	00168693          	addi	a3,a3,1
80000a24:	fe669ce3          	bne	a3,t1,80000a1c <vsprintf+0x8bc>
80000a28:	00150513          	addi	a0,a0,1
80000a2c:	00af0533          	add	a0,t5,a0
80000a30:	40ff07b3          	sub	a5,t5,a5
80000a34:	e80616e3          	bnez	a2,800008c0 <vsprintf+0x760>
80000a38:	000e0613          	mv	a2,t3
80000a3c:	00ae86b3          	add	a3,t4,a0
80000a40:	00170713          	addi	a4,a4,1
80000a44:	935ff06f          	j	80000378 <vsprintf+0x218>
80000a48:	00000293          	li	t0,0
80000a4c:	280a8263          	beqz	s5,80000cd0 <vsprintf+0xb70>
80000a50:	04028893          	addi	a7,t0,64
80000a54:	01010313          	addi	t1,sp,16
80000a58:	006888b3          	add	a7,a7,t1
80000a5c:	02b00313          	li	t1,43
80000a60:	00128293          	addi	t0,t0,1
80000a64:	fc688023          	sb	t1,-64(a7)
80000a68:	ac5ff06f          	j	8000052c <vsprintf+0x3cc>
80000a6c:	00000513          	li	a0,0
80000a70:	000e8023          	sb	zero,0(t4)
80000a74:	00008067          	ret
80000a78:	40c787b3          	sub	a5,a5,a2
80000a7c:	f80408e3          	beqz	s0,80000a0c <vsprintf+0x8ac>
80000a80:	e40610e3          	bnez	a2,800008c0 <vsprintf+0x760>
80000a84:	e6dff06f          	j	800008f0 <vsprintf+0x790>
80000a88:	006038b3          	snez	a7,t1
80000a8c:	41e00f33          	neg	t5,t5
80000a90:	411f0f33          	sub	t5,t5,a7
80000a94:	07712023          	sw	s7,96(sp)
80000a98:	05812e23          	sw	s8,92(sp)
80000a9c:	40600333          	neg	t1,t1
80000aa0:	00100893          	li	a7,1
80000aa4:	ccccd937          	lui	s2,0xccccd
80000aa8:	ccccdbb7          	lui	s7,0xccccd
80000aac:	00000293          	li	t0,0
80000ab0:	01010e13          	addi	t3,sp,16
80000ab4:	00500c13          	li	s8,5
80000ab8:	ccd90913          	addi	s2,s2,-819 # cccccccd <_end+0x4ccc2ccd>
80000abc:	cccb8b93          	addi	s7,s7,-820 # cccccccc <_end+0x4ccc2ccc>
80000ac0:	00812223          	sw	s0,4(sp)
80000ac4:	01512423          	sw	s5,8(sp)
80000ac8:	01312623          	sw	s3,12(sp)
80000acc:	01e30433          	add	s0,t1,t5
80000ad0:	006439b3          	sltu	s3,s0,t1
80000ad4:	01340433          	add	s0,s0,s3
80000ad8:	03847433          	remu	s0,s0,s8
80000adc:	00128293          	addi	t0,t0,1
80000ae0:	005e0ab3          	add	s5,t3,t0
80000ae4:	40830433          	sub	s0,t1,s0
80000ae8:	008339b3          	sltu	s3,t1,s0
80000aec:	413f09b3          	sub	s3,t5,s3
80000af0:	032989b3          	mul	s3,s3,s2
80000af4:	03740f33          	mul	t5,s0,s7
80000af8:	03243b33          	mulhu	s6,s0,s2
80000afc:	01e98f33          	add	t5,s3,t5
80000b00:	03240433          	mul	s0,s0,s2
80000b04:	016f0f33          	add	t5,t5,s6
80000b08:	01ff1993          	slli	s3,t5,0x1f
80000b0c:	001f5f13          	srli	t5,t5,0x1
80000b10:	00145413          	srli	s0,s0,0x1
80000b14:	0089e433          	or	s0,s3,s0
80000b18:	00241993          	slli	s3,s0,0x2
80000b1c:	008989b3          	add	s3,s3,s0
80000b20:	00199993          	slli	s3,s3,0x1
80000b24:	413309b3          	sub	s3,t1,s3
80000b28:	03098993          	addi	s3,s3,48
80000b2c:	00040313          	mv	t1,s0
80000b30:	ff3a8fa3          	sb	s3,-1(s5)
80000b34:	01e46433          	or	s0,s0,t5
80000b38:	f8041ae3          	bnez	s0,80000acc <vsprintf+0x96c>
80000b3c:	00412403          	lw	s0,4(sp)
80000b40:	00812a83          	lw	s5,8(sp)
80000b44:	00c12983          	lw	s3,12(sp)
80000b48:	06012b83          	lw	s7,96(sp)
80000b4c:	05c12c03          	lw	s8,92(sp)
80000b50:	9902c8e3          	blt	t0,a6,800004e0 <vsprintf+0x380>
80000b54:	9bdff06f          	j	80000510 <vsprintf+0x3b0>
80000b58:	42605063          	blez	t1,80000f78 <vsprintf+0xe18>
80000b5c:	fffe8813          	addi	a6,t4,-1
80000b60:	00a80833          	add	a6,a6,a0
80000b64:	00f807b3          	add	a5,a6,a5
80000b68:	02000813          	li	a6,32
80000b6c:	01068023          	sb	a6,0(a3)
80000b70:	00168693          	addi	a3,a3,1
80000b74:	fed79ce3          	bne	a5,a3,80000b6c <vsprintf+0xa0c>
80000b78:	00150793          	addi	a5,a0,1
80000b7c:	01e787b3          	add	a5,a5,t5
80000b80:	00178513          	addi	a0,a5,1
80000b84:	00fe87b3          	add	a5,t4,a5
80000b88:	01178023          	sb	a7,0(a5)
80000b8c:	00ae86b3          	add	a3,t4,a0
80000b90:	00170713          	addi	a4,a4,1
80000b94:	fe4ff06f          	j	80000378 <vsprintf+0x218>
80000b98:	07712023          	sw	s7,96(sp)
80000b9c:	ccccd937          	lui	s2,0xccccd
80000ba0:	ccccdbb7          	lui	s7,0xccccd
80000ba4:	05812e23          	sw	s8,92(sp)
80000ba8:	00000293          	li	t0,0
80000bac:	01010e13          	addi	t3,sp,16
80000bb0:	ccd90913          	addi	s2,s2,-819 # cccccccd <_end+0x4ccc2ccd>
80000bb4:	cccb8b93          	addi	s7,s7,-820 # cccccccc <_end+0x4ccc2ccc>
80000bb8:	01e308b3          	add	a7,t1,t5
80000bbc:	0068b9b3          	sltu	s3,a7,t1
80000bc0:	013888b3          	add	a7,a7,s3
80000bc4:	00500993          	li	s3,5
80000bc8:	0338f8b3          	remu	a7,a7,s3
80000bcc:	000f0a93          	mv	s5,t5
80000bd0:	00128293          	addi	t0,t0,1
80000bd4:	00612223          	sw	t1,4(sp)
80000bd8:	005e0b33          	add	s6,t3,t0
80000bdc:	411308b3          	sub	a7,t1,a7
80000be0:	011339b3          	sltu	s3,t1,a7
80000be4:	413f09b3          	sub	s3,t5,s3
80000be8:	032989b3          	mul	s3,s3,s2
80000bec:	03788f33          	mul	t5,a7,s7
80000bf0:	0328bc33          	mulhu	s8,a7,s2
80000bf4:	01e98f33          	add	t5,s3,t5
80000bf8:	032888b3          	mul	a7,a7,s2
80000bfc:	018f0f33          	add	t5,t5,s8
80000c00:	01ff1993          	slli	s3,t5,0x1f
80000c04:	001f5f13          	srli	t5,t5,0x1
80000c08:	0018d893          	srli	a7,a7,0x1
80000c0c:	0119e8b3          	or	a7,s3,a7
80000c10:	00289993          	slli	s3,a7,0x2
80000c14:	011989b3          	add	s3,s3,a7
80000c18:	00199993          	slli	s3,s3,0x1
80000c1c:	41330333          	sub	t1,t1,s3
80000c20:	03030313          	addi	t1,t1,48
80000c24:	fe6b0fa3          	sb	t1,-1(s6)
80000c28:	00088313          	mv	t1,a7
80000c2c:	f80a96e3          	bnez	s5,80000bb8 <vsprintf+0xa58>
80000c30:	00412883          	lw	a7,4(sp)
80000c34:	00900993          	li	s3,9
80000c38:	f919e0e3          	bltu	s3,a7,80000bb8 <vsprintf+0xa58>
80000c3c:	06012b83          	lw	s7,96(sp)
80000c40:	05c12c03          	lw	s8,92(sp)
80000c44:	bd9ff06f          	j	8000081c <vsprintf+0x6bc>
80000c48:	07712023          	sw	s7,96(sp)
80000c4c:	05812e23          	sw	s8,92(sp)
80000c50:	00000993          	li	s3,0
80000c54:	01010e13          	addi	t3,sp,16
80000c58:	00f37913          	andi	s2,t1,15
80000c5c:	012b0933          	add	s2,s6,s2
80000c60:	00094b83          	lbu	s7,0(s2)
80000c64:	01c29c13          	slli	s8,t0,0x1c
80000c68:	00198993          	addi	s3,s3,1
80000c6c:	00435313          	srli	t1,t1,0x4
80000c70:	013e0933          	add	s2,t3,s3
80000c74:	006c6333          	or	t1,s8,t1
80000c78:	0042d293          	srli	t0,t0,0x4
80000c7c:	ff790fa3          	sb	s7,-1(s2)
80000c80:	00536933          	or	s2,t1,t0
80000c84:	fc091ae3          	bnez	s2,80000c58 <vsprintf+0xaf8>
80000c88:	06012b83          	lw	s7,96(sp)
80000c8c:	05c12c03          	lw	s8,92(sp)
80000c90:	95dff06f          	j	800005ec <vsprintf+0x48c>
80000c94:	02000893          	li	a7,32
80000c98:	100a1a63          	bnez	s4,80000dac <vsprintf+0xc4c>
80000c9c:	fff78813          	addi	a6,a5,-1
80000ca0:	2ef05063          	blez	a5,80000f80 <vsprintf+0xe20>
80000ca4:	00f687b3          	add	a5,a3,a5
80000ca8:	01168023          	sb	a7,0(a3)
80000cac:	00168693          	addi	a3,a3,1
80000cb0:	fed79ce3          	bne	a5,a3,80000ca8 <vsprintf+0xb48>
80000cb4:	00150513          	addi	a0,a0,1
80000cb8:	00a80533          	add	a0,a6,a0
80000cbc:	fff00793          	li	a5,-1
80000cc0:	00ae86b3          	add	a3,t4,a0
80000cc4:	860298e3          	bnez	t0,80000534 <vsprintf+0x3d4>
80000cc8:	00170713          	addi	a4,a4,1
80000ccc:	eacff06f          	j	80000378 <vsprintf+0x218>
80000cd0:	0e099663          	bnez	s3,80000dbc <vsprintf+0xc5c>
80000cd4:	405787b3          	sub	a5,a5,t0
80000cd8:	fa040ee3          	beqz	s0,80000c94 <vsprintf+0xb34>
80000cdc:	880280e3          	beqz	t0,8000055c <vsprintf+0x3fc>
80000ce0:	855ff06f          	j	80000534 <vsprintf+0x3d4>
80000ce4:	00064303          	lbu	t1,0(a2)
80000ce8:	00000f13          	li	t5,0
80000cec:	00460613          	addi	a2,a2,4
80000cf0:	b15ff06f          	j	80000804 <vsprintf+0x6a4>
80000cf4:	00064303          	lbu	t1,0(a2)
80000cf8:	00000293          	li	t0,0
80000cfc:	00460613          	addi	a2,a2,4
80000d00:	8bdff06f          	j	800005bc <vsprintf+0x45c>
80000d04:	00064303          	lbu	t1,0(a2)
80000d08:	00000f13          	li	t5,0
80000d0c:	00460613          	addi	a2,a2,4
80000d10:	facff06f          	j	800004bc <vsprintf+0x35c>
80000d14:	b4041ae3          	bnez	s0,80000868 <vsprintf+0x708>
80000d18:	fff78f13          	addi	t5,a5,-1
80000d1c:	02000893          	li	a7,32
80000d20:	caf04ee3          	bgtz	a5,800009dc <vsprintf+0x87c>
80000d24:	00170713          	addi	a4,a4,1
80000d28:	e50ff06f          	j	80000378 <vsprintf+0x218>
80000d2c:	94041ee3          	bnez	s0,80000688 <vsprintf+0x528>
80000d30:	fff78993          	addi	s3,a5,-1
80000d34:	00098293          	mv	t0,s3
80000d38:	240a0a63          	beqz	s4,80000f8c <vsprintf+0xe2c>
80000d3c:	100f0a63          	beqz	t5,80000e50 <vsprintf+0xcf0>
80000d40:	00000813          	li	a6,0
80000d44:	01010e13          	addi	t3,sp,16
80000d48:	e2f05663          	blez	a5,80000374 <vsprintf+0x214>
80000d4c:	00fe0f33          	add	t5,t3,a5
80000d50:	010e08b3          	add	a7,t3,a6
80000d54:	02000913          	li	s2,32
80000d58:	010f0f33          	add	t5,t5,a6
80000d5c:	01288023          	sb	s2,0(a7)
80000d60:	00188893          	addi	a7,a7,1
80000d64:	411f0333          	sub	t1,t5,a7
80000d68:	fe604ae3          	bgtz	t1,80000d5c <vsprintf+0xbfc>
80000d6c:	00180813          	addi	a6,a6,1
80000d70:	01098833          	add	a6,s3,a6
80000d74:	40f287b3          	sub	a5,t0,a5
80000d78:	8edff06f          	j	80000664 <vsprintf+0x504>
80000d7c:	fff80893          	addi	a7,a6,-1
80000d80:	0b005e63          	blez	a6,80000e3c <vsprintf+0xcdc>
80000d84:	01068833          	add	a6,a3,a6
80000d88:	02000793          	li	a5,32
80000d8c:	00f68023          	sb	a5,0(a3)
80000d90:	00168693          	addi	a3,a3,1
80000d94:	fed81ce3          	bne	a6,a3,80000d8c <vsprintf+0xc2c>
80000d98:	00150513          	addi	a0,a0,1
80000d9c:	01150533          	add	a0,a0,a7
80000da0:	fff00813          	li	a6,-1
80000da4:	00ae86b3          	add	a3,t4,a0
80000da8:	9c9ff06f          	j	80000770 <vsprintf+0x610>
80000dac:	41f85893          	srai	a7,a6,0x1f
80000db0:	0108f893          	andi	a7,a7,16
80000db4:	02088893          	addi	a7,a7,32
80000db8:	ee5ff06f          	j	80000c9c <vsprintf+0xb3c>
80000dbc:	04028893          	addi	a7,t0,64
80000dc0:	01010313          	addi	t1,sp,16
80000dc4:	006888b3          	add	a7,a7,t1
80000dc8:	02000313          	li	t1,32
80000dcc:	00128293          	addi	t0,t0,1
80000dd0:	fc688023          	sb	t1,-64(a7)
80000dd4:	f58ff06f          	j	8000052c <vsprintf+0x3cc>
80000dd8:	00098813          	mv	a6,s3
80000ddc:	00090793          	mv	a5,s2
80000de0:	840f12e3          	bnez	t5,80000624 <vsprintf+0x4c4>
80000de4:	fff78993          	addi	s3,a5,-1
80000de8:	f6f042e3          	bgtz	a5,80000d4c <vsprintf+0xbec>
80000dec:	00028793          	mv	a5,t0
80000df0:	875ff06f          	j	80000664 <vsprintf+0x504>
80000df4:	000e0513          	mv	a0,t3
80000df8:	00080693          	mv	a3,a6
80000dfc:	00170713          	addi	a4,a4,1
80000e00:	d78ff06f          	j	80000378 <vsprintf+0x218>
80000e04:	ae0416e3          	bnez	s0,800008f0 <vsprintf+0x790>
80000e08:	fff78f13          	addi	t5,a5,-1
80000e0c:	00000613          	li	a2,0
80000e10:	c0f042e3          	bgtz	a5,80000a14 <vsprintf+0x8b4>
80000e14:	000e0613          	mv	a2,t3
80000e18:	00170713          	addi	a4,a4,1
80000e1c:	d5cff06f          	j	80000378 <vsprintf+0x218>
80000e20:	18085e63          	bgez	a6,80000fbc <vsprintf+0xe5c>
80000e24:	fff78f13          	addi	t5,a5,-1
80000e28:	00028813          	mv	a6,t0
80000e2c:	03000893          	li	a7,48
80000e30:	baf046e3          	bgtz	a5,800009dc <vsprintf+0x87c>
80000e34:	000f0793          	mv	a5,t5
80000e38:	a0dff06f          	j	80000844 <vsprintf+0x6e4>
80000e3c:	00088813          	mv	a6,a7
80000e40:	931ff06f          	j	80000770 <vsprintf+0x610>
80000e44:	00070e13          	mv	t3,a4
80000e48:	00000813          	li	a6,0
80000e4c:	c14ff06f          	j	80000260 <vsprintf+0x100>
80000e50:	16f05063          	blez	a5,80000fb0 <vsprintf+0xe50>
80000e54:	01010e13          	addi	t3,sp,16
80000e58:	fff78993          	addi	s3,a5,-1
80000e5c:	ef1ff06f          	j	80000d4c <vsprintf+0xbec>
80000e60:	00760613          	addi	a2,a2,7
80000e64:	ff867613          	andi	a2,a2,-8
80000e68:	00062303          	lw	t1,0(a2)
80000e6c:	00462f03          	lw	t5,4(a2)
80000e70:	00860613          	addi	a2,a2,8
80000e74:	e44ff06f          	j	800004b8 <vsprintf+0x358>
80000e78:	00760613          	addi	a2,a2,7
80000e7c:	ff867613          	andi	a2,a2,-8
80000e80:	00062303          	lw	t1,0(a2)
80000e84:	00462f03          	lw	t5,4(a2)
80000e88:	00860613          	addi	a2,a2,8
80000e8c:	979ff06f          	j	80000804 <vsprintf+0x6a4>
80000e90:	00760613          	addi	a2,a2,7
80000e94:	ff867613          	andi	a2,a2,-8
80000e98:	00062303          	lw	t1,0(a2)
80000e9c:	00462283          	lw	t0,4(a2)
80000ea0:	00860613          	addi	a2,a2,8
80000ea4:	f18ff06f          	j	800005bc <vsprintf+0x45c>
80000ea8:	405787b3          	sub	a5,a5,t0
80000eac:	10040663          	beqz	s0,80000fb8 <vsprintf+0xe58>
80000eb0:	00028813          	mv	a6,t0
80000eb4:	991ff06f          	j	80000844 <vsprintf+0x6e4>
80000eb8:	41378933          	sub	s2,a5,s3
80000ebc:	0a041263          	bnez	s0,80000f60 <vsprintf+0xe00>
80000ec0:	fff90293          	addi	t0,s2,-1
80000ec4:	f00a0ae3          	beqz	s4,80000dd8 <vsprintf+0xc78>
80000ec8:	00084863          	bltz	a6,80000ed8 <vsprintf+0xd78>
80000ecc:	00098813          	mv	a6,s3
80000ed0:	00090793          	mv	a5,s2
80000ed4:	f48ff06f          	j	8000061c <vsprintf+0x4bc>
80000ed8:	00fe07b3          	add	a5,t3,a5
80000edc:	03000813          	li	a6,48
80000ee0:	0d205063          	blez	s2,80000fa0 <vsprintf+0xe40>
80000ee4:	01030023          	sb	a6,0(t1)
80000ee8:	00130313          	addi	t1,t1,1
80000eec:	fe679ce3          	bne	a5,t1,80000ee4 <vsprintf+0xd84>
80000ef0:	00198993          	addi	s3,s3,1
80000ef4:	00598833          	add	a6,s3,t0
80000ef8:	040f0263          	beqz	t5,80000f3c <vsprintf+0xddc>
80000efc:	c6080c63          	beqz	a6,80000374 <vsprintf+0x214>
80000f00:	fff00793          	li	a5,-1
80000f04:	f60a8063          	beqz	s5,80000664 <vsprintf+0x504>
80000f08:	07800313          	li	t1,120
80000f0c:	00688463          	beq	a7,t1,80000f14 <vsprintf+0xdb4>
80000f10:	05800893          	li	a7,88
80000f14:	04080f13          	addi	t5,a6,64
80000f18:	01010293          	addi	t0,sp,16
80000f1c:	005f0f33          	add	t5,t5,t0
80000f20:	fd1f0023          	sb	a7,-64(t5)
80000f24:	04180893          	addi	a7,a6,65
80000f28:	005888b3          	add	a7,a7,t0
80000f2c:	03000313          	li	t1,48
80000f30:	00280813          	addi	a6,a6,2
80000f34:	fc688023          	sb	t1,-64(a7)
80000f38:	f2cff06f          	j	80000664 <vsprintf+0x504>
80000f3c:	fff00793          	li	a5,-1
80000f40:	01010e13          	addi	t3,sp,16
80000f44:	f2081063          	bnez	a6,80000664 <vsprintf+0x504>
80000f48:	00170713          	addi	a4,a4,1
80000f4c:	c2cff06f          	j	80000378 <vsprintf+0x218>
80000f50:	07712023          	sw	s7,96(sp)
80000f54:	05812e23          	sw	s8,92(sp)
80000f58:	00000893          	li	a7,0
80000f5c:	b49ff06f          	j	80000aa4 <vsprintf+0x944>
80000f60:	00090793          	mv	a5,s2
80000f64:	00098813          	mv	a6,s3
80000f68:	efcff06f          	j	80000664 <vsprintf+0x504>
80000f6c:	000f0793          	mv	a5,t5
80000f70:	940618e3          	bnez	a2,800008c0 <vsprintf+0x760>
80000f74:	ac5ff06f          	j	80000a38 <vsprintf+0x8d8>
80000f78:	00050793          	mv	a5,a0
80000f7c:	c05ff06f          	j	80000b80 <vsprintf+0xa20>
80000f80:	00080793          	mv	a5,a6
80000f84:	da029863          	bnez	t0,80000534 <vsprintf+0x3d4>
80000f88:	d41ff06f          	j	80000cc8 <vsprintf+0xb68>
80000f8c:	da0f1ae3          	bnez	t5,80000d40 <vsprintf+0xbe0>
80000f90:	01010e13          	addi	t3,sp,16
80000f94:	daf04ce3          	bgtz	a5,80000d4c <vsprintf+0xbec>
80000f98:	00170713          	addi	a4,a4,1
80000f9c:	bdcff06f          	j	80000378 <vsprintf+0x218>
80000fa0:	00028793          	mv	a5,t0
80000fa4:	00098813          	mv	a6,s3
80000fa8:	f40f1ee3          	bnez	t5,80000f04 <vsprintf+0xda4>
80000fac:	eb8ff06f          	j	80000664 <vsprintf+0x504>
80000fb0:	00028793          	mv	a5,t0
80000fb4:	f8dff06f          	j	80000f40 <vsprintf+0xde0>
80000fb8:	e60a14e3          	bnez	s4,80000e20 <vsprintf+0xcc0>
80000fbc:	fff78f13          	addi	t5,a5,-1
80000fc0:	00028813          	mv	a6,t0
80000fc4:	02000893          	li	a7,32
80000fc8:	a0f04ae3          	bgtz	a5,800009dc <vsprintf+0x87c>
80000fcc:	000f0793          	mv	a5,t5
80000fd0:	875ff06f          	j	80000844 <vsprintf+0x6e4>

80000fd4 <sprintf>:
80000fd4:	fc010113          	addi	sp,sp,-64
80000fd8:	02810313          	addi	t1,sp,40
80000fdc:	02c12423          	sw	a2,40(sp)
80000fe0:	00030613          	mv	a2,t1
80000fe4:	00112e23          	sw	ra,28(sp)
80000fe8:	02d12623          	sw	a3,44(sp)
80000fec:	02e12823          	sw	a4,48(sp)
80000ff0:	02f12a23          	sw	a5,52(sp)
80000ff4:	03012c23          	sw	a6,56(sp)
80000ff8:	03112e23          	sw	a7,60(sp)
80000ffc:	00612623          	sw	t1,12(sp)
80001000:	960ff0ef          	jal	80000160 <vsprintf>
80001004:	01c12083          	lw	ra,28(sp)
80001008:	04010113          	addi	sp,sp,64
8000100c:	00008067          	ret
