
/home/mubai/ysyx-workbench/am-kernels/tests/cpu-tests/build/hello-str-riscv32e-npc.elf:     file format elf32-littleriscv


Disassembly of section .text:

80000000 <_start>:
80000000:	00000413          	li	s0,0
80000004:	00009117          	auipc	sp,0x9
80000008:	ffc10113          	addi	sp,sp,-4 # 80009000 <_end>
8000000c:	0ec000ef          	jal	800000f8 <_trm_init>

80000010 <check>:
80000010:	00050463          	beqz	a0,80000018 <check+0x8>
80000014:	00008067          	ret
80000018:	ff410113          	addi	sp,sp,-12
8000001c:	00100513          	li	a0,1
80000020:	00112423          	sw	ra,8(sp)
80000024:	0cc000ef          	jal	800000f0 <halt>

80000028 <main>:
80000028:	ff410113          	addi	sp,sp,-12
8000002c:	00000617          	auipc	a2,0x0
80000030:	58c60613          	addi	a2,a2,1420 # 800005b8 <_etext>
80000034:	00000597          	auipc	a1,0x0
80000038:	59458593          	addi	a1,a1,1428 # 800005c8 <_etext+0x10>
8000003c:	00000517          	auipc	a0,0x0
80000040:	5fc50513          	addi	a0,a0,1532 # 80000638 <buf>
80000044:	00112423          	sw	ra,8(sp)
80000048:	488000ef          	jal	800004d0 <sprintf>
8000004c:	00000597          	auipc	a1,0x0
80000050:	56c58593          	addi	a1,a1,1388 # 800005b8 <_etext>
80000054:	00000517          	auipc	a0,0x0
80000058:	5e450513          	addi	a0,a0,1508 # 80000638 <buf>
8000005c:	0b8000ef          	jal	80000114 <strcmp>
80000060:	00153513          	seqz	a0,a0
80000064:	fadff0ef          	jal	80000010 <check>
80000068:	00200713          	li	a4,2
8000006c:	00100693          	li	a3,1
80000070:	00100613          	li	a2,1
80000074:	00000597          	auipc	a1,0x0
80000078:	55858593          	addi	a1,a1,1368 # 800005cc <_etext+0x14>
8000007c:	00000517          	auipc	a0,0x0
80000080:	5bc50513          	addi	a0,a0,1468 # 80000638 <buf>
80000084:	44c000ef          	jal	800004d0 <sprintf>
80000088:	00000597          	auipc	a1,0x0
8000008c:	55458593          	addi	a1,a1,1364 # 800005dc <_etext+0x24>
80000090:	00000517          	auipc	a0,0x0
80000094:	5a850513          	addi	a0,a0,1448 # 80000638 <buf>
80000098:	07c000ef          	jal	80000114 <strcmp>
8000009c:	00153513          	seqz	a0,a0
800000a0:	f71ff0ef          	jal	80000010 <check>
800000a4:	00c00713          	li	a4,12
800000a8:	00a00693          	li	a3,10
800000ac:	00200613          	li	a2,2
800000b0:	00000597          	auipc	a1,0x0
800000b4:	51c58593          	addi	a1,a1,1308 # 800005cc <_etext+0x14>
800000b8:	00000517          	auipc	a0,0x0
800000bc:	58050513          	addi	a0,a0,1408 # 80000638 <buf>
800000c0:	410000ef          	jal	800004d0 <sprintf>
800000c4:	00000597          	auipc	a1,0x0
800000c8:	52458593          	addi	a1,a1,1316 # 800005e8 <_etext+0x30>
800000cc:	00000517          	auipc	a0,0x0
800000d0:	56c50513          	addi	a0,a0,1388 # 80000638 <buf>
800000d4:	040000ef          	jal	80000114 <strcmp>
800000d8:	00153513          	seqz	a0,a0
800000dc:	f35ff0ef          	jal	80000010 <check>
800000e0:	00812083          	lw	ra,8(sp)
800000e4:	00000513          	li	a0,0
800000e8:	00c10113          	addi	sp,sp,12
800000ec:	00008067          	ret

800000f0 <halt>:
800000f0:	00100073          	ebreak
800000f4:	0000006f          	j	800000f4 <halt+0x4>

800000f8 <_trm_init>:
800000f8:	ff410113          	addi	sp,sp,-12
800000fc:	00000517          	auipc	a0,0x0
80000100:	4fc50513          	addi	a0,a0,1276 # 800005f8 <mainargs>
80000104:	00112423          	sw	ra,8(sp)
80000108:	f21ff0ef          	jal	80000028 <main>
8000010c:	00100073          	ebreak
80000110:	0000006f          	j	80000110 <_trm_init+0x18>

80000114 <strcmp>:
80000114:	00054783          	lbu	a5,0(a0)
80000118:	00079a63          	bnez	a5,8000012c <strcmp+0x18>
8000011c:	0340006f          	j	80000150 <strcmp+0x3c>
80000120:	00054783          	lbu	a5,0(a0)
80000124:	02078063          	beqz	a5,80000144 <strcmp+0x30>
80000128:	00068593          	mv	a1,a3
8000012c:	0005c703          	lbu	a4,0(a1)
80000130:	00150513          	addi	a0,a0,1
80000134:	00158693          	addi	a3,a1,1
80000138:	fef704e3          	beq	a4,a5,80000120 <strcmp+0xc>
8000013c:	40e78533          	sub	a0,a5,a4
80000140:	00008067          	ret
80000144:	0015c703          	lbu	a4,1(a1)
80000148:	40e78533          	sub	a0,a5,a4
8000014c:	00008067          	ret
80000150:	0005c703          	lbu	a4,0(a1)
80000154:	fe9ff06f          	j	8000013c <strcmp+0x28>

80000158 <vsprintf>:
80000158:	fa410113          	addi	sp,sp,-92
8000015c:	04112c23          	sw	ra,88(sp)
80000160:	0005c683          	lbu	a3,0(a1)
80000164:	00b12023          	sw	a1,0(sp)
80000168:	00c12423          	sw	a2,8(sp)
8000016c:	00050393          	mv	t2,a0
80000170:	34068063          	beqz	a3,800004b0 <vsprintf+0x358>
80000174:	04912823          	sw	s1,80(sp)
80000178:	04812a23          	sw	s0,84(sp)
8000017c:	00000713          	li	a4,0
80000180:	00000493          	li	s1,0
80000184:	00050313          	mv	t1,a0
80000188:	00a12223          	sw	a0,4(sp)
8000018c:	0280006f          	j	800001b4 <vsprintf+0x5c>
80000190:	00412783          	lw	a5,4(sp)
80000194:	00148493          	addi	s1,s1,1
80000198:	00d30023          	sb	a3,0(t1)
8000019c:	00978333          	add	t1,a5,s1
800001a0:	00012783          	lw	a5,0(sp)
800001a4:	00060713          	mv	a4,a2
800001a8:	00e787b3          	add	a5,a5,a4
800001ac:	0007c683          	lbu	a3,0(a5)
800001b0:	10068a63          	beqz	a3,800002c4 <vsprintf+0x16c>
800001b4:	02500793          	li	a5,37
800001b8:	00170613          	addi	a2,a4,1
800001bc:	00048393          	mv	t2,s1
800001c0:	fcf698e3          	bne	a3,a5,80000190 <vsprintf+0x38>
800001c4:	00012783          	lw	a5,0(sp)
800001c8:	00012823          	sw	zero,16(sp)
800001cc:	00c782b3          	add	t0,a5,a2
800001d0:	0002c583          	lbu	a1,0(t0)
800001d4:	03000793          	li	a5,48
800001d8:	00f59e63          	bne	a1,a5,800001f4 <vsprintf+0x9c>
800001dc:	00012783          	lw	a5,0(sp)
800001e0:	00270613          	addi	a2,a4,2
800001e4:	00c782b3          	add	t0,a5,a2
800001e8:	0002c583          	lbu	a1,0(t0)
800001ec:	00100793          	li	a5,1
800001f0:	00f12823          	sw	a5,16(sp)
800001f4:	00012783          	lw	a5,0(sp)
800001f8:	00160693          	addi	a3,a2,1
800001fc:	fd058713          	addi	a4,a1,-48
80000200:	00d787b3          	add	a5,a5,a3
80000204:	00f12623          	sw	a5,12(sp)
80000208:	0ff77513          	zext.b	a0,a4
8000020c:	00900793          	li	a5,9
80000210:	00000413          	li	s0,0
80000214:	04a7e863          	bltu	a5,a0,80000264 <vsprintf+0x10c>
80000218:	00c12783          	lw	a5,12(sp)
8000021c:	00040513          	mv	a0,s0
80000220:	00612623          	sw	t1,12(sp)
80000224:	0080006f          	j	8000022c <vsprintf+0xd4>
80000228:	00168693          	addi	a3,a3,1
8000022c:	0007c583          	lbu	a1,0(a5)
80000230:	00251413          	slli	s0,a0,0x2
80000234:	00a40433          	add	s0,s0,a0
80000238:	00141413          	slli	s0,s0,0x1
8000023c:	00870533          	add	a0,a4,s0
80000240:	fd058713          	addi	a4,a1,-48
80000244:	0ff77413          	zext.b	s0,a4
80000248:	00900313          	li	t1,9
8000024c:	00078293          	mv	t0,a5
80000250:	00068613          	mv	a2,a3
80000254:	00178793          	addi	a5,a5,1
80000258:	fc8378e3          	bgeu	t1,s0,80000228 <vsprintf+0xd0>
8000025c:	00c12303          	lw	t1,12(sp)
80000260:	00050413          	mv	s0,a0
80000264:	06400793          	li	a5,100
80000268:	0af58663          	beq	a1,a5,80000314 <vsprintf+0x1bc>
8000026c:	07300793          	li	a5,115
80000270:	06f59c63          	bne	a1,a5,800002e8 <vsprintf+0x190>
80000274:	00812783          	lw	a5,8(sp)
80000278:	0007a683          	lw	a3,0(a5)
8000027c:	00478593          	addi	a1,a5,4
80000280:	02068663          	beqz	a3,800002ac <vsprintf+0x154>
80000284:	0006c703          	lbu	a4,0(a3)
80000288:	02070263          	beqz	a4,800002ac <vsprintf+0x154>
8000028c:	00412503          	lw	a0,4(sp)
80000290:	00148493          	addi	s1,s1,1
80000294:	00950333          	add	t1,a0,s1
80000298:	407487b3          	sub	a5,s1,t2
8000029c:	fee30fa3          	sb	a4,-1(t1)
800002a0:	00f687b3          	add	a5,a3,a5
800002a4:	0007c703          	lbu	a4,0(a5)
800002a8:	fe0714e3          	bnez	a4,80000290 <vsprintf+0x138>
800002ac:	00b12423          	sw	a1,8(sp)
800002b0:	00160713          	addi	a4,a2,1
800002b4:	00012783          	lw	a5,0(sp)
800002b8:	00e787b3          	add	a5,a5,a4
800002bc:	0007c683          	lbu	a3,0(a5)
800002c0:	ee069ae3          	bnez	a3,800001b4 <vsprintf+0x5c>
800002c4:	00030393          	mv	t2,t1
800002c8:	05412403          	lw	s0,84(sp)
800002cc:	00048793          	mv	a5,s1
800002d0:	05012483          	lw	s1,80(sp)
800002d4:	00038023          	sb	zero,0(t2)
800002d8:	05812083          	lw	ra,88(sp)
800002dc:	00078513          	mv	a0,a5
800002e0:	05c10113          	addi	sp,sp,92
800002e4:	00008067          	ret
800002e8:	02500793          	li	a5,37
800002ec:	00f30023          	sb	a5,0(t1)
800002f0:	00412683          	lw	a3,4(sp)
800002f4:	0002c703          	lbu	a4,0(t0)
800002f8:	00148793          	addi	a5,s1,1
800002fc:	00f687b3          	add	a5,a3,a5
80000300:	00248493          	addi	s1,s1,2
80000304:	00e78023          	sb	a4,0(a5)
80000308:	00968333          	add	t1,a3,s1
8000030c:	00160713          	addi	a4,a2,1
80000310:	fa5ff06f          	j	800002b4 <vsprintf+0x15c>
80000314:	00812703          	lw	a4,8(sp)
80000318:	00072783          	lw	a5,0(a4)
8000031c:	00470293          	addi	t0,a4,4
80000320:	08079a63          	bnez	a5,800003b4 <vsprintf+0x25c>
80000324:	03000793          	li	a5,48
80000328:	02f10823          	sb	a5,48(sp)
8000032c:	fff40413          	addi	s0,s0,-1
80000330:	06805c63          	blez	s0,800003a8 <vsprintf+0x250>
80000334:	01012783          	lw	a5,16(sp)
80000338:	03010693          	addi	a3,sp,48
8000033c:	06078663          	beqz	a5,800003a8 <vsprintf+0x250>
80000340:	01012783          	lw	a5,16(sp)
80000344:	fff40593          	addi	a1,s0,-1
80000348:	00412703          	lw	a4,4(sp)
8000034c:	03000513          	li	a0,48
80000350:	00170713          	addi	a4,a4,1
80000354:	00970733          	add	a4,a4,s1
80000358:	00b70733          	add	a4,a4,a1
8000035c:	00a30023          	sb	a0,0(t1)
80000360:	00130313          	addi	t1,t1,1
80000364:	fe671ce3          	bne	a4,t1,8000035c <vsprintf+0x204>
80000368:	00412703          	lw	a4,4(sp)
8000036c:	00148493          	addi	s1,s1,1
80000370:	00b484b3          	add	s1,s1,a1
80000374:	00970333          	add	t1,a4,s1
80000378:	00f68733          	add	a4,a3,a5
8000037c:	fff74583          	lbu	a1,-1(a4)
80000380:	fff70713          	addi	a4,a4,-1
80000384:	00130313          	addi	t1,t1,1
80000388:	feb30fa3          	sb	a1,-1(t1)
8000038c:	fee698e3          	bne	a3,a4,8000037c <vsprintf+0x224>
80000390:	009784b3          	add	s1,a5,s1
80000394:	00412783          	lw	a5,4(sp)
80000398:	00512423          	sw	t0,8(sp)
8000039c:	00160713          	addi	a4,a2,1
800003a0:	00978333          	add	t1,a5,s1
800003a4:	f11ff06f          	j	800002b4 <vsprintf+0x15c>
800003a8:	00100793          	li	a5,1
800003ac:	03010693          	addi	a3,sp,48
800003b0:	fc9ff06f          	j	80000378 <vsprintf+0x220>
800003b4:	00000593          	li	a1,0
800003b8:	0007d663          	bgez	a5,800003c4 <vsprintf+0x26c>
800003bc:	40f007b3          	neg	a5,a5
800003c0:	00100593          	li	a1,1
800003c4:	00000713          	li	a4,0
800003c8:	03010693          	addi	a3,sp,48
800003cc:	00812c23          	sw	s0,24(sp)
800003d0:	02912423          	sw	s1,40(sp)
800003d4:	00078413          	mv	s0,a5
800003d8:	00c12e23          	sw	a2,28(sp)
800003dc:	02512023          	sw	t0,32(sp)
800003e0:	02b12223          	sw	a1,36(sp)
800003e4:	00070493          	mv	s1,a4
800003e8:	02612623          	sw	t1,44(sp)
800003ec:	00d12623          	sw	a3,12(sp)
800003f0:	00c12783          	lw	a5,12(sp)
800003f4:	00912a23          	sw	s1,20(sp)
800003f8:	00148493          	addi	s1,s1,1
800003fc:	00978633          	add	a2,a5,s1
80000400:	00a00593          	li	a1,10
80000404:	00040513          	mv	a0,s0
80000408:	00c12423          	sw	a2,8(sp)
8000040c:	17c000ef          	jal	80000588 <__modsi3>
80000410:	00812603          	lw	a2,8(sp)
80000414:	03050693          	addi	a3,a0,48
80000418:	00a00593          	li	a1,10
8000041c:	00040513          	mv	a0,s0
80000420:	fed60fa3          	sb	a3,-1(a2)
80000424:	0e0000ef          	jal	80000504 <__divsi3>
80000428:	00050413          	mv	s0,a0
8000042c:	fc0512e3          	bnez	a0,800003f0 <vsprintf+0x298>
80000430:	02412583          	lw	a1,36(sp)
80000434:	00048713          	mv	a4,s1
80000438:	01812403          	lw	s0,24(sp)
8000043c:	01c12603          	lw	a2,28(sp)
80000440:	02012283          	lw	t0,32(sp)
80000444:	02812483          	lw	s1,40(sp)
80000448:	02c12303          	lw	t1,44(sp)
8000044c:	00c12683          	lw	a3,12(sp)
80000450:	00059e63          	bnez	a1,8000046c <vsprintf+0x314>
80000454:	40e40433          	sub	s0,s0,a4
80000458:	00805663          	blez	s0,80000464 <vsprintf+0x30c>
8000045c:	01012783          	lw	a5,16(sp)
80000460:	06079463          	bnez	a5,800004c8 <vsprintf+0x370>
80000464:	00070793          	mv	a5,a4
80000468:	f11ff06f          	j	80000378 <vsprintf+0x220>
8000046c:	01412783          	lw	a5,20(sp)
80000470:	02070593          	addi	a1,a4,32
80000474:	03010393          	addi	t2,sp,48
80000478:	007585b3          	add	a1,a1,t2
8000047c:	00278793          	addi	a5,a5,2
80000480:	02d00513          	li	a0,45
80000484:	fea58023          	sb	a0,-32(a1)
80000488:	40f405b3          	sub	a1,s0,a5
8000048c:	eeb056e3          	blez	a1,80000378 <vsprintf+0x220>
80000490:	01012383          	lw	t2,16(sp)
80000494:	ee0382e3          	beqz	t2,80000378 <vsprintf+0x220>
80000498:	00070793          	mv	a5,a4
8000049c:	00412703          	lw	a4,4(sp)
800004a0:	00148493          	addi	s1,s1,1
800004a4:	00a30023          	sb	a0,0(t1)
800004a8:	00970333          	add	t1,a4,s1
800004ac:	e9dff06f          	j	80000348 <vsprintf+0x1f0>
800004b0:	00038023          	sb	zero,0(t2)
800004b4:	05812083          	lw	ra,88(sp)
800004b8:	00000793          	li	a5,0
800004bc:	00078513          	mv	a0,a5
800004c0:	05c10113          	addi	sp,sp,92
800004c4:	00008067          	ret
800004c8:	00e12823          	sw	a4,16(sp)
800004cc:	e75ff06f          	j	80000340 <vsprintf+0x1e8>

800004d0 <sprintf>:
800004d0:	fe010113          	addi	sp,sp,-32
800004d4:	01010313          	addi	t1,sp,16
800004d8:	00c12823          	sw	a2,16(sp)
800004dc:	00030613          	mv	a2,t1
800004e0:	00112623          	sw	ra,12(sp)
800004e4:	00d12a23          	sw	a3,20(sp)
800004e8:	00e12c23          	sw	a4,24(sp)
800004ec:	00f12e23          	sw	a5,28(sp)
800004f0:	00612023          	sw	t1,0(sp)
800004f4:	c65ff0ef          	jal	80000158 <vsprintf>
800004f8:	00c12083          	lw	ra,12(sp)
800004fc:	02010113          	addi	sp,sp,32
80000500:	00008067          	ret

80000504 <__divsi3>:
80000504:	06054063          	bltz	a0,80000564 <__umodsi3+0x10>
80000508:	0605c663          	bltz	a1,80000574 <__umodsi3+0x20>

8000050c <__hidden___udivsi3>:
8000050c:	00058613          	mv	a2,a1
80000510:	00050593          	mv	a1,a0
80000514:	fff00513          	li	a0,-1
80000518:	02060c63          	beqz	a2,80000550 <__hidden___udivsi3+0x44>
8000051c:	00100693          	li	a3,1
80000520:	00b67a63          	bgeu	a2,a1,80000534 <__hidden___udivsi3+0x28>
80000524:	00c05863          	blez	a2,80000534 <__hidden___udivsi3+0x28>
80000528:	00161613          	slli	a2,a2,0x1
8000052c:	00169693          	slli	a3,a3,0x1
80000530:	feb66ae3          	bltu	a2,a1,80000524 <__hidden___udivsi3+0x18>
80000534:	00000513          	li	a0,0
80000538:	00c5e663          	bltu	a1,a2,80000544 <__hidden___udivsi3+0x38>
8000053c:	40c585b3          	sub	a1,a1,a2
80000540:	00d56533          	or	a0,a0,a3
80000544:	0016d693          	srli	a3,a3,0x1
80000548:	00165613          	srli	a2,a2,0x1
8000054c:	fe0696e3          	bnez	a3,80000538 <__hidden___udivsi3+0x2c>
80000550:	00008067          	ret

80000554 <__umodsi3>:
80000554:	00008293          	mv	t0,ra
80000558:	fb5ff0ef          	jal	8000050c <__hidden___udivsi3>
8000055c:	00058513          	mv	a0,a1
80000560:	00028067          	jr	t0
80000564:	40a00533          	neg	a0,a0
80000568:	00b04863          	bgtz	a1,80000578 <__umodsi3+0x24>
8000056c:	40b005b3          	neg	a1,a1
80000570:	f9dff06f          	j	8000050c <__hidden___udivsi3>
80000574:	40b005b3          	neg	a1,a1
80000578:	00008293          	mv	t0,ra
8000057c:	f91ff0ef          	jal	8000050c <__hidden___udivsi3>
80000580:	40a00533          	neg	a0,a0
80000584:	00028067          	jr	t0

80000588 <__modsi3>:
80000588:	00008293          	mv	t0,ra
8000058c:	0005ca63          	bltz	a1,800005a0 <__modsi3+0x18>
80000590:	00054c63          	bltz	a0,800005a8 <__modsi3+0x20>
80000594:	f79ff0ef          	jal	8000050c <__hidden___udivsi3>
80000598:	00058513          	mv	a0,a1
8000059c:	00028067          	jr	t0
800005a0:	40b005b3          	neg	a1,a1
800005a4:	fe0558e3          	bgez	a0,80000594 <__modsi3+0xc>
800005a8:	40a00533          	neg	a0,a0
800005ac:	f61ff0ef          	jal	8000050c <__hidden___udivsi3>
800005b0:	40b00533          	neg	a0,a1
800005b4:	00028067          	jr	t0
