
/home/mubai/ysyx-workbench/am-kernels/tests/cpu-tests/build/hello-riscv32-nemu.elf:     file format elf32-littleriscv


Disassembly of section .text:

80000000 <_start>:
80000000:	00000413          	li	s0,0
80000004:	0000a117          	auipc	sp,0xa
80000008:	ffc10113          	addi	sp,sp,-4 # 8000a000 <_end>
8000000c:	068000ef          	jal	80000074 <_trm_init>

80000010 <main>:
80000010:	00001797          	auipc	a5,0x1
80000014:	73078793          	addi	a5,a5,1840 # 80001740 <mainargs+0x1d8>
80000018:	0007a803          	lw	a6,0(a5)
8000001c:	0047a883          	lw	a7,4(a5)
80000020:	fb010113          	addi	sp,sp,-80
80000024:	02a00713          	li	a4,42
80000028:	00001697          	auipc	a3,0x1
8000002c:	4c868693          	addi	a3,a3,1224 # 800014f0 <_etext>
80000030:	00001617          	auipc	a2,0x1
80000034:	4c860613          	addi	a2,a2,1224 # 800014f8 <_etext+0x8>
80000038:	03200593          	li	a1,50
8000003c:	00c10513          	addi	a0,sp,12
80000040:	04112623          	sw	ra,76(sp)
80000044:	474010ef          	jal	800014b8 <snprintf>
80000048:	00c10593          	addi	a1,sp,12
8000004c:	00001517          	auipc	a0,0x1
80000050:	4cc50513          	addi	a0,a0,1228 # 80001518 <_etext+0x28>
80000054:	368010ef          	jal	800013bc <printf>
80000058:	04c12083          	lw	ra,76(sp)
8000005c:	00000513          	li	a0,0
80000060:	05010113          	addi	sp,sp,80
80000064:	00008067          	ret

80000068 <putch>:
80000068:	a00007b7          	lui	a5,0xa0000
8000006c:	3ea78c23          	sb	a0,1016(a5) # a00003f8 <_end+0x1fff63f8>
80000070:	00008067          	ret

80000074 <_trm_init>:
80000074:	ff010113          	addi	sp,sp,-16
80000078:	00001517          	auipc	a0,0x1
8000007c:	4f050513          	addi	a0,a0,1264 # 80001568 <mainargs>
80000080:	00112623          	sw	ra,12(sp)
80000084:	f8dff0ef          	jal	80000010 <main>
80000088:	00050513          	mv	a0,a0
8000008c:	00100073          	ebreak
80000090:	0000006f          	j	80000090 <_trm_init+0x1c>

80000094 <vsnprintf>:
80000094:	220582e3          	beqz	a1,80000ab8 <vsnprintf+0xa24>
80000098:	00100793          	li	a5,1
8000009c:	00050e13          	mv	t3,a0
800000a0:	20f58ae3          	beq	a1,a5,80000ab4 <vsnprintf+0xa20>
800000a4:	00064303          	lbu	t1,0(a2)
800000a8:	fff58893          	addi	a7,a1,-1
800000ac:	00000513          	li	a0,0
800000b0:	00000813          	li	a6,0
800000b4:	00000793          	li	a5,0
800000b8:	44030663          	beqz	t1,80000504 <vsnprintf+0x470>
800000bc:	f6010113          	addi	sp,sp,-160
800000c0:	08812e23          	sw	s0,156(sp)
800000c4:	09212a23          	sw	s2,148(sp)
800000c8:	07912c23          	sw	s9,120(sp)
800000cc:	07a12a23          	sw	s10,116(sp)
800000d0:	07b12823          	sw	s11,112(sp)
800000d4:	08912c23          	sw	s1,152(sp)
800000d8:	09312823          	sw	s3,144(sp)
800000dc:	09412623          	sw	s4,140(sp)
800000e0:	09512423          	sw	s5,136(sp)
800000e4:	09612223          	sw	s6,132(sp)
800000e8:	09712023          	sw	s7,128(sp)
800000ec:	02500413          	li	s0,37
800000f0:	01000d93          	li	s11,16
800000f4:	00001c97          	auipc	s9,0x1
800000f8:	4b4c8c93          	addi	s9,s9,1204 # 800015a8 <mainargs+0x40>
800000fc:	06800913          	li	s2,104
80000100:	00001d17          	auipc	s10,0x1
80000104:	4ecd0d13          	addi	s10,s10,1260 # 800015ec <mainargs+0x84>
80000108:	00078593          	mv	a1,a5
8000010c:	00180713          	addi	a4,a6,1
80000110:	06830863          	beq	t1,s0,80000180 <vsnprintf+0xec>
80000114:	00150513          	addi	a0,a0,1
80000118:	0117fa63          	bgeu	a5,a7,8000012c <vsnprintf+0x98>
8000011c:	00fe05b3          	add	a1,t3,a5
80000120:	00178793          	addi	a5,a5,1
80000124:	00658023          	sb	t1,0(a1)
80000128:	00078593          	mv	a1,a5
8000012c:	00070813          	mv	a6,a4
80000130:	01060733          	add	a4,a2,a6
80000134:	00074303          	lbu	t1,0(a4)
80000138:	fc0318e3          	bnez	t1,80000108 <vsnprintf+0x74>
8000013c:	00b8f463          	bgeu	a7,a1,80000144 <vsnprintf+0xb0>
80000140:	00088593          	mv	a1,a7
80000144:	00be0e33          	add	t3,t3,a1
80000148:	000e0023          	sb	zero,0(t3)
8000014c:	09c12403          	lw	s0,156(sp)
80000150:	09812483          	lw	s1,152(sp)
80000154:	09412903          	lw	s2,148(sp)
80000158:	09012983          	lw	s3,144(sp)
8000015c:	08c12a03          	lw	s4,140(sp)
80000160:	08812a83          	lw	s5,136(sp)
80000164:	08412b03          	lw	s6,132(sp)
80000168:	08012b83          	lw	s7,128(sp)
8000016c:	07812c83          	lw	s9,120(sp)
80000170:	07412d03          	lw	s10,116(sp)
80000174:	07012d83          	lw	s11,112(sp)
80000178:	0a010113          	addi	sp,sp,160
8000017c:	00008067          	ret
80000180:	00e60733          	add	a4,a2,a4
80000184:	00280813          	addi	a6,a6,2
80000188:	00000b13          	li	s6,0
8000018c:	00000f93          	li	t6,0
80000190:	00000a93          	li	s5,0
80000194:	00000993          	li	s3,0
80000198:	00000a13          	li	s4,0
8000019c:	00074f03          	lbu	t5,0(a4)
800001a0:	00070393          	mv	t2,a4
800001a4:	fe0f0313          	addi	t1,t5,-32
800001a8:	0ff37313          	zext.b	t1,t1
800001ac:	006dec63          	bltu	s11,t1,800001c4 <vsnprintf+0x130>
800001b0:	00231313          	slli	t1,t1,0x2
800001b4:	01930333          	add	t1,t1,s9
800001b8:	00032303          	lw	t1,0(t1)
800001bc:	01930333          	add	t1,t1,s9
800001c0:	00030067          	jr	t1
800001c4:	02a00713          	li	a4,42
800001c8:	06ef1e63          	bne	t5,a4,80000244 <vsnprintf+0x1b0>
800001cc:	0006a703          	lw	a4,0(a3)
800001d0:	00468693          	addi	a3,a3,4
800001d4:	00075663          	bgez	a4,800001e0 <vsnprintf+0x14c>
800001d8:	40e00733          	neg	a4,a4
800001dc:	00100a13          	li	s4,1
800001e0:	010603b3          	add	t2,a2,a6
800001e4:	0003cf03          	lbu	t5,0(t2)
800001e8:	00080e93          	mv	t4,a6
800001ec:	02e00813          	li	a6,46
800001f0:	fff00313          	li	t1,-1
800001f4:	0b0f0863          	beq	t5,a6,800002a4 <vsnprintf+0x210>
800001f8:	001e8813          	addi	a6,t4,1
800001fc:	010602b3          	add	t0,a2,a6
80000200:	0d2f0e63          	beq	t5,s2,800002dc <vsnprintf+0x248>
80000204:	06c00493          	li	s1,108
80000208:	129f0e63          	beq	t5,s1,80000344 <vsnprintf+0x2b0>
8000020c:	07a00493          	li	s1,122
80000210:	029f0ee3          	beq	t5,s1,80000a4c <vsnprintf+0x9b8>
80000214:	00038293          	mv	t0,t2
80000218:	000e8813          	mv	a6,t4
8000021c:	00000393          	li	t2,0
80000220:	fdbf0e93          	addi	t4,t5,-37
80000224:	0ffefe93          	zext.b	t4,t4
80000228:	05300493          	li	s1,83
8000022c:	0dd4ee63          	bltu	s1,t4,80000308 <vsnprintf+0x274>
80000230:	002e9e93          	slli	t4,t4,0x2
80000234:	01ae8eb3          	add	t4,t4,s10
80000238:	000eae83          	lw	t4,0(t4)
8000023c:	01ae8eb3          	add	t4,t4,s10
80000240:	000e8067          	jr	t4
80000244:	fd0f0293          	addi	t0,t5,-48
80000248:	0ff2f313          	zext.b	t1,t0
8000024c:	00900b93          	li	s7,9
80000250:	fff80e93          	addi	t4,a6,-1
80000254:	00000713          	li	a4,0
80000258:	01060833          	add	a6,a2,a6
8000025c:	00900493          	li	s1,9
80000260:	f86be6e3          	bltu	s7,t1,800001ec <vsnprintf+0x158>
80000264:	00070313          	mv	t1,a4
80000268:	00084f03          	lbu	t5,0(a6)
8000026c:	00231713          	slli	a4,t1,0x2
80000270:	00670733          	add	a4,a4,t1
80000274:	00171713          	slli	a4,a4,0x1
80000278:	00e28333          	add	t1,t0,a4
8000027c:	fd0f0293          	addi	t0,t5,-48
80000280:	0ff2f713          	zext.b	a4,t0
80000284:	00080393          	mv	t2,a6
80000288:	001e8e93          	addi	t4,t4,1
8000028c:	00180813          	addi	a6,a6,1
80000290:	fce4fce3          	bgeu	s1,a4,80000268 <vsnprintf+0x1d4>
80000294:	02e00813          	li	a6,46
80000298:	00030713          	mv	a4,t1
8000029c:	fff00313          	li	t1,-1
800002a0:	f50f1ce3          	bne	t5,a6,800001f8 <vsnprintf+0x164>
800002a4:	001e8313          	addi	t1,t4,1
800002a8:	006603b3          	add	t2,a2,t1
800002ac:	0003cf03          	lbu	t5,0(t2)
800002b0:	02a00813          	li	a6,42
800002b4:	7b0f1263          	bne	t5,a6,80000a58 <vsnprintf+0x9c4>
800002b8:	0006a303          	lw	t1,0(a3)
800002bc:	00468693          	addi	a3,a3,4
800002c0:	22034e63          	bltz	t1,800004fc <vsnprintf+0x468>
800002c4:	002e8e93          	addi	t4,t4,2
800002c8:	01d603b3          	add	t2,a2,t4
800002cc:	0003cf03          	lbu	t5,0(t2)
800002d0:	001e8813          	addi	a6,t4,1
800002d4:	010602b3          	add	t0,a2,a6
800002d8:	f32f16e3          	bne	t5,s2,80000204 <vsnprintf+0x170>
800002dc:	0002cf03          	lbu	t5,0(t0)
800002e0:	00100393          	li	t2,1
800002e4:	f32f1ee3          	bne	t5,s2,80000220 <vsnprintf+0x18c>
800002e8:	002e8813          	addi	a6,t4,2
800002ec:	010602b3          	add	t0,a2,a6
800002f0:	0002cf03          	lbu	t5,0(t0)
800002f4:	05300493          	li	s1,83
800002f8:	00200393          	li	t2,2
800002fc:	fdbf0e93          	addi	t4,t5,-37
80000300:	0ffefe93          	zext.b	t4,t4
80000304:	f3d4f6e3          	bgeu	s1,t4,80000230 <vsnprintf+0x19c>
80000308:	00250513          	addi	a0,a0,2
8000030c:	0317f863          	bgeu	a5,a7,8000033c <vsnprintf+0x2a8>
80000310:	02500593          	li	a1,37
80000314:	00fe0733          	add	a4,t3,a5
80000318:	00b70023          	sb	a1,0(a4)
8000031c:	00178593          	addi	a1,a5,1
80000320:	0115e463          	bltu	a1,a7,80000328 <vsnprintf+0x294>
80000324:	08c0106f          	j	800013b0 <vsnprintf+0x131c>
80000328:	0002c703          	lbu	a4,0(t0)
8000032c:	00be05b3          	add	a1,t3,a1
80000330:	00278793          	addi	a5,a5,2
80000334:	00e58023          	sb	a4,0(a1)
80000338:	00078593          	mv	a1,a5
8000033c:	00180813          	addi	a6,a6,1
80000340:	df1ff06f          	j	80000130 <vsnprintf+0x9c>
80000344:	0002cf03          	lbu	t5,0(t0)
80000348:	00300393          	li	t2,3
8000034c:	ec9f1ae3          	bne	t5,s1,80000220 <vsnprintf+0x18c>
80000350:	002e8813          	addi	a6,t4,2
80000354:	010602b3          	add	t0,a2,a6
80000358:	0002cf03          	lbu	t5,0(t0)
8000035c:	00400393          	li	t2,4
80000360:	ec1ff06f          	j	80000220 <vsnprintf+0x18c>
80000364:	00100b13          	li	s6,1
80000368:	00170713          	addi	a4,a4,1
8000036c:	00180813          	addi	a6,a6,1
80000370:	e2dff06f          	j	8000019c <vsnprintf+0x108>
80000374:	00100f93          	li	t6,1
80000378:	ff1ff06f          	j	80000368 <vsnprintf+0x2d4>
8000037c:	00100a93          	li	s5,1
80000380:	fe9ff06f          	j	80000368 <vsnprintf+0x2d4>
80000384:	00100a13          	li	s4,1
80000388:	fe1ff06f          	j	80000368 <vsnprintf+0x2d4>
8000038c:	00100993          	li	s3,1
80000390:	fd9ff06f          	j	80000368 <vsnprintf+0x2d4>
80000394:	00768693          	addi	a3,a3,7
80000398:	ff86f693          	andi	a3,a3,-8
8000039c:	0046ae83          	lw	t4,4(a3)
800003a0:	7ff00293          	li	t0,2047
800003a4:	0006af83          	lw	t6,0(a3)
800003a8:	014edf13          	srli	t5,t4,0x14
800003ac:	7fff7f13          	andi	t5,t5,2047
800003b0:	00868693          	addi	a3,a3,8
800003b4:	01fedb93          	srli	s7,t4,0x1f
800003b8:	1a5f00e3          	beq	t5,t0,80000d58 <vsnprintf+0xcc4>
800003bc:	07812e23          	sw	s8,124(sp)
800003c0:	3a0344e3          	bltz	t1,80000f68 <vsnprintf+0xed4>
800003c4:	020f0ce3          	beqz	t5,80000bfc <vsnprintf+0xb68>
800003c8:	c01f0f13          	addi	t5,t5,-1023
800003cc:	760f4ae3          	bltz	t5,80001340 <vsnprintf+0x12ac>
800003d0:	01300e93          	li	t4,19
800003d4:	63eec6e3          	blt	t4,t5,80001200 <vsnprintf+0x116c>
800003d8:	00100e93          	li	t4,1
800003dc:	01ee9f33          	sll	t5,t4,t5
800003e0:	01010c13          	addi	s8,sp,16
800003e4:	00000e93          	li	t4,0
800003e8:	00a00393          	li	t2,10
800003ec:	01612023          	sw	s6,0(sp)
800003f0:	027f7fb3          	remu	t6,t5,t2
800003f4:	000e8293          	mv	t0,t4
800003f8:	001e8e93          	addi	t4,t4,1
800003fc:	01dc0b33          	add	s6,s8,t4
80000400:	000f0493          	mv	s1,t5
80000404:	030f8f93          	addi	t6,t6,48
80000408:	fffb0fa3          	sb	t6,-1(s6)
8000040c:	00900f93          	li	t6,9
80000410:	027f5f33          	divu	t5,t5,t2
80000414:	fc9feee3          	bltu	t6,s1,800003f0 <vsnprintf+0x35c>
80000418:	00012b03          	lw	s6,0(sp)
8000041c:	02028c63          	beqz	t0,80000454 <vsnprintf+0x3c0>
80000420:	000c0393          	mv	t2,s8
80000424:	005c0fb3          	add	t6,s8,t0
80000428:	00000f13          	li	t5,0
8000042c:	000fcb03          	lbu	s6,0(t6)
80000430:	0003c483          	lbu	s1,0(t2)
80000434:	001f0f13          	addi	t5,t5,1
80000438:	01638023          	sb	s6,0(t2)
8000043c:	009f8023          	sb	s1,0(t6)
80000440:	41e284b3          	sub	s1,t0,t5
80000444:	00138393          	addi	t2,t2,1
80000448:	ffff8f93          	addi	t6,t6,-1
8000044c:	fe9f40e3          	blt	t5,s1,8000042c <vsnprintf+0x398>
80000450:	00012b03          	lw	s6,0(sp)
80000454:	740302e3          	beqz	t1,80001398 <vsnprintf+0x1304>
80000458:	03010293          	addi	t0,sp,48
8000045c:	00000f13          	li	t5,0
80000460:	00900393          	li	t2,9
80000464:	00128293          	addi	t0,t0,1
80000468:	027f6fb3          	rem	t6,t5,t2
8000046c:	001f0f13          	addi	t5,t5,1
80000470:	030f8f93          	addi	t6,t6,48
80000474:	fff28fa3          	sb	t6,-1(t0)
80000478:	fe6f16e3          	bne	t5,t1,80000464 <vsnprintf+0x3d0>
8000047c:	00130293          	addi	t0,t1,1
80000480:	01d282b3          	add	t0,t0,t4
80000484:	0159efb3          	or	t6,s3,s5
80000488:	017fefb3          	or	t6,t6,s7
8000048c:	005f8fb3          	add	t6,t6,t0
80000490:	41f70f33          	sub	t5,a4,t6
80000494:	01e05463          	blez	t5,8000049c <vsnprintf+0x408>
80000498:	00070f93          	mv	t6,a4
8000049c:	01f50533          	add	a0,a0,t6
800004a0:	6e0a0a63          	beqz	s4,80000b94 <vsnprintf+0xb00>
800004a4:	140b8ce3          	beqz	s7,80000dfc <vsnprintf+0xd68>
800004a8:	0117fa63          	bgeu	a5,a7,800004bc <vsnprintf+0x428>
800004ac:	00be05b3          	add	a1,t3,a1
800004b0:	02d00713          	li	a4,45
800004b4:	00178793          	addi	a5,a5,1
800004b8:	00e58023          	sb	a4,0(a1)
800004bc:	000c0713          	mv	a4,s8
800004c0:	018e8eb3          	add	t4,t4,s8
800004c4:	00078593          	mv	a1,a5
800004c8:	0117fc63          	bgeu	a5,a7,800004e0 <vsnprintf+0x44c>
800004cc:	00074f83          	lbu	t6,0(a4)
800004d0:	00fe05b3          	add	a1,t3,a5
800004d4:	00178793          	addi	a5,a5,1
800004d8:	01f58023          	sb	t6,0(a1)
800004dc:	00078593          	mv	a1,a5
800004e0:	00170713          	addi	a4,a4,1
800004e4:	feee90e3          	bne	t4,a4,800004c4 <vsnprintf+0x430>
800004e8:	66031263          	bnez	t1,80000b4c <vsnprintf+0xab8>
800004ec:	620a1463          	bnez	s4,80000b14 <vsnprintf+0xa80>
800004f0:	07c12c03          	lw	s8,124(sp)
800004f4:	00180813          	addi	a6,a6,1
800004f8:	c39ff06f          	j	80000130 <vsnprintf+0x9c>
800004fc:	fff00313          	li	t1,-1
80000500:	dc5ff06f          	j	800002c4 <vsnprintf+0x230>
80000504:	000e0023          	sb	zero,0(t3)
80000508:	00008067          	ret
8000050c:	00100e93          	li	t4,1
80000510:	03d38ce3          	beq	t2,t4,80000d48 <vsnprintf+0xcb4>
80000514:	00200e93          	li	t4,2
80000518:	45d38ee3          	beq	t2,t4,80001174 <vsnprintf+0x10e0>
8000051c:	00300e93          	li	t4,3
80000520:	01d38663          	beq	t2,t4,8000052c <vsnprintf+0x498>
80000524:	00400e93          	li	t4,4
80000528:	57d38ce3          	beq	t2,t4,800012a0 <vsnprintf+0x120c>
8000052c:	0006af83          	lw	t6,0(a3)
80000530:	00468693          	addi	a3,a3,4
80000534:	41ffd293          	srai	t0,t6,0x1f
80000538:	0e02c0e3          	bltz	t0,80000e18 <vsnprintf+0xd84>
8000053c:	005feeb3          	or	t4,t6,t0
80000540:	620e92e3          	bnez	t4,80001364 <vsnprintf+0x12d0>
80000544:	7e030063          	beqz	t1,80000d24 <vsnprintf+0xc90>
80000548:	03000e93          	li	t4,48
8000054c:	03d10823          	sb	t4,48(sp)
80000550:	00100393          	li	t2,1
80000554:	00000f13          	li	t5,0
80000558:	03010e93          	addi	t4,sp,48
8000055c:	7c63d663          	bge	t2,t1,80000d28 <vsnprintf+0xc94>
80000560:	00038f93          	mv	t6,t2
80000564:	03000493          	li	s1,48
80000568:	001f8f93          	addi	t6,t6,1
8000056c:	01fe82b3          	add	t0,t4,t6
80000570:	fe928fa3          	sb	s1,-1(t0)
80000574:	fe6fcae3          	blt	t6,t1,80000568 <vsnprintf+0x4d4>
80000578:	00138f93          	addi	t6,t2,1
8000057c:	00000e93          	li	t4,0
80000580:	0063d663          	bge	t2,t1,8000058c <vsnprintf+0x4f8>
80000584:	fff30e93          	addi	t4,t1,-1
80000588:	407e8eb3          	sub	t4,t4,t2
8000058c:	01fe83b3          	add	t2,t4,t6
80000590:	780f0c63          	beqz	t5,80000d28 <vsnprintf+0xc94>
80000594:	01010f13          	addi	t5,sp,16
80000598:	06038e93          	addi	t4,t2,96
8000059c:	01ee8eb3          	add	t4,t4,t5
800005a0:	02d00f93          	li	t6,45
800005a4:	00138f13          	addi	t5,t2,1
800005a8:	fdfe8023          	sb	t6,-64(t4)
800005ac:	41e70fb3          	sub	t6,a4,t5
800005b0:	01f04463          	bgtz	t6,800005b8 <vsnprintf+0x524>
800005b4:	000f0713          	mv	a4,t5
800005b8:	00e50533          	add	a0,a0,a4
800005bc:	1e0a08e3          	beqz	s4,80000fac <vsnprintf+0xf18>
800005c0:	020f0a63          	beqz	t5,800005f4 <vsnprintf+0x560>
800005c4:	03010e93          	addi	t4,sp,48
800005c8:	01ee8733          	add	a4,t4,t5
800005cc:	00078593          	mv	a1,a5
800005d0:	0117fc63          	bgeu	a5,a7,800005e8 <vsnprintf+0x554>
800005d4:	fff74303          	lbu	t1,-1(a4)
800005d8:	00fe05b3          	add	a1,t3,a5
800005dc:	00178793          	addi	a5,a5,1
800005e0:	00658023          	sb	t1,0(a1)
800005e4:	00078593          	mv	a1,a5
800005e8:	fff70713          	addi	a4,a4,-1
800005ec:	feee90e3          	bne	t4,a4,800005cc <vsnprintf+0x538>
800005f0:	d40a06e3          	beqz	s4,8000033c <vsnprintf+0x2a8>
800005f4:	ffff8713          	addi	a4,t6,-1
800005f8:	d5f052e3          	blez	t6,8000033c <vsnprintf+0x2a8>
800005fc:	02000e93          	li	t4,32
80000600:	fff00313          	li	t1,-1
80000604:	00078593          	mv	a1,a5
80000608:	0117fa63          	bgeu	a5,a7,8000061c <vsnprintf+0x588>
8000060c:	00fe05b3          	add	a1,t3,a5
80000610:	00178793          	addi	a5,a5,1
80000614:	01d58023          	sb	t4,0(a1)
80000618:	00078593          	mv	a1,a5
8000061c:	fff70713          	addi	a4,a4,-1
80000620:	fe6712e3          	bne	a4,t1,80000604 <vsnprintf+0x570>
80000624:	00180813          	addi	a6,a6,1
80000628:	b09ff06f          	j	80000130 <vsnprintf+0x9c>
8000062c:	00100e93          	li	t4,1
80000630:	7bd38663          	beq	t2,t4,80000ddc <vsnprintf+0xd48>
80000634:	00200e93          	li	t4,2
80000638:	33d386e3          	beq	t2,t4,80001164 <vsnprintf+0x10d0>
8000063c:	00300e93          	li	t4,3
80000640:	01d38663          	beq	t2,t4,8000064c <vsnprintf+0x5b8>
80000644:	00400e93          	li	t4,4
80000648:	47d388e3          	beq	t2,t4,800012b8 <vsnprintf+0x1224>
8000064c:	0006a283          	lw	t0,0(a3)
80000650:	00000493          	li	s1,0
80000654:	00468693          	addi	a3,a3,4
80000658:	07800e93          	li	t4,120
8000065c:	00001a97          	auipc	s5,0x1
80000660:	ed8a8a93          	addi	s5,s5,-296 # 80001534 <_etext+0x44>
80000664:	01df1663          	bne	t5,t4,80000670 <vsnprintf+0x5dc>
80000668:	00001a97          	auipc	s5,0x1
8000066c:	eb8a8a93          	addi	s5,s5,-328 # 80001520 <_etext+0x30>
80000670:	0092eeb3          	or	t4,t0,s1
80000674:	180e94e3          	bnez	t4,80000ffc <vsnprintf+0xf68>
80000678:	36030ae3          	beqz	t1,800011ec <vsnprintf+0x1158>
8000067c:	03000e93          	li	t4,48
80000680:	03d10823          	sb	t4,48(sp)
80000684:	00100393          	li	t2,1
80000688:	03010e93          	addi	t4,sp,48
8000068c:	5e63de63          	bge	t2,t1,80000c88 <vsnprintf+0xbf4>
80000690:	00038293          	mv	t0,t2
80000694:	03000993          	li	s3,48
80000698:	00128293          	addi	t0,t0,1
8000069c:	005e84b3          	add	s1,t4,t0
800006a0:	ff348fa3          	sb	s3,-1(s1)
800006a4:	fe62cae3          	blt	t0,t1,80000698 <vsnprintf+0x604>
800006a8:	00138493          	addi	s1,t2,1
800006ac:	00000293          	li	t0,0
800006b0:	0063d663          	bge	t2,t1,800006bc <vsnprintf+0x628>
800006b4:	fff30293          	addi	t0,t1,-1
800006b8:	407282b3          	sub	t0,t0,t2
800006bc:	009283b3          	add	t2,t0,s1
800006c0:	620f8063          	beqz	t6,80000ce0 <vsnprintf+0xc4c>
800006c4:	03014283          	lbu	t0,48(sp)
800006c8:	03000f93          	li	t6,48
800006cc:	61f28a63          	beq	t0,t6,80000ce0 <vsnprintf+0xc4c>
800006d0:	07800f93          	li	t6,120
800006d4:	01ff0463          	beq	t5,t6,800006dc <vsnprintf+0x648>
800006d8:	05800f13          	li	t5,88
800006dc:	06038293          	addi	t0,t2,96
800006e0:	01010493          	addi	s1,sp,16
800006e4:	00138f93          	addi	t6,t2,1
800006e8:	009282b3          	add	t0,t0,s1
800006ec:	fde28023          	sb	t5,-64(t0)
800006f0:	060f8f13          	addi	t5,t6,96
800006f4:	009f0f33          	add	t5,t5,s1
800006f8:	00238393          	addi	t2,t2,2
800006fc:	03000f93          	li	t6,48
80000700:	fdff0023          	sb	t6,-64(t5)
80000704:	40770f33          	sub	t5,a4,t2
80000708:	41e058e3          	blez	t5,80001318 <vsnprintf+0x1284>
8000070c:	00e50533          	add	a0,a0,a4
80000710:	580a0463          	beqz	s4,80000c98 <vsnprintf+0xc04>
80000714:	007e8733          	add	a4,t4,t2
80000718:	00078593          	mv	a1,a5
8000071c:	0117fc63          	bgeu	a5,a7,80000734 <vsnprintf+0x6a0>
80000720:	fff74303          	lbu	t1,-1(a4)
80000724:	00fe05b3          	add	a1,t3,a5
80000728:	00178793          	addi	a5,a5,1
8000072c:	00658023          	sb	t1,0(a1)
80000730:	00078593          	mv	a1,a5
80000734:	fff70713          	addi	a4,a4,-1
80000738:	feee90e3          	bne	t4,a4,80000718 <vsnprintf+0x684>
8000073c:	c00a00e3          	beqz	s4,8000033c <vsnprintf+0x2a8>
80000740:	ffff0713          	addi	a4,t5,-1
80000744:	bfe05ce3          	blez	t5,8000033c <vsnprintf+0x2a8>
80000748:	02000e93          	li	t4,32
8000074c:	fff00313          	li	t1,-1
80000750:	00078593          	mv	a1,a5
80000754:	0117fa63          	bgeu	a5,a7,80000768 <vsnprintf+0x6d4>
80000758:	00fe05b3          	add	a1,t3,a5
8000075c:	00178793          	addi	a5,a5,1
80000760:	01d58023          	sb	t4,0(a1)
80000764:	00078593          	mv	a1,a5
80000768:	fff70713          	addi	a4,a4,-1
8000076c:	fe6712e3          	bne	a4,t1,80000750 <vsnprintf+0x6bc>
80000770:	00180813          	addi	a6,a6,1
80000774:	9bdff06f          	j	80000130 <vsnprintf+0x9c>
80000778:	00150513          	addi	a0,a0,1
8000077c:	bd17f0e3          	bgeu	a5,a7,8000033c <vsnprintf+0x2a8>
80000780:	00be05b3          	add	a1,t3,a1
80000784:	02500713          	li	a4,37
80000788:	00178793          	addi	a5,a5,1
8000078c:	00e58023          	sb	a4,0(a1)
80000790:	00078593          	mv	a1,a5
80000794:	00180813          	addi	a6,a6,1
80000798:	999ff06f          	j	80000130 <vsnprintf+0x9c>
8000079c:	00100e93          	li	t4,1
800007a0:	65d38663          	beq	t2,t4,80000dec <vsnprintf+0xd58>
800007a4:	00200e93          	li	t4,2
800007a8:	1dd38ee3          	beq	t2,t4,80001184 <vsnprintf+0x10f0>
800007ac:	00300e93          	li	t4,3
800007b0:	01d38663          	beq	t2,t4,800007bc <vsnprintf+0x728>
800007b4:	00400e93          	li	t4,4
800007b8:	31d38ce3          	beq	t2,t4,800012d0 <vsnprintf+0x123c>
800007bc:	0006af83          	lw	t6,0(a3)
800007c0:	00000293          	li	t0,0
800007c4:	00468693          	addi	a3,a3,4
800007c8:	005feeb3          	or	t4,t6,t0
800007cc:	060e9ce3          	bnez	t4,80001044 <vsnprintf+0xfb0>
800007d0:	200304e3          	beqz	t1,800011d8 <vsnprintf+0x1144>
800007d4:	03000e93          	li	t4,48
800007d8:	03d10823          	sb	t4,48(sp)
800007dc:	00100393          	li	t2,1
800007e0:	03010e93          	addi	t4,sp,48
800007e4:	007e8f33          	add	t5,t4,t2
800007e8:	03000f93          	li	t6,48
800007ec:	006e8eb3          	add	t4,t4,t1
800007f0:	2e63dce3          	bge	t2,t1,800012e8 <vsnprintf+0x1254>
800007f4:	01ff0023          	sb	t6,0(t5)
800007f8:	001f0f13          	addi	t5,t5,1
800007fc:	ffee9ce3          	bne	t4,t5,800007f4 <vsnprintf+0x760>
80000800:	40670f33          	sub	t5,a4,t1
80000804:	00030393          	mv	t2,t1
80000808:	01e04463          	bgtz	t5,80000810 <vsnprintf+0x77c>
8000080c:	00038713          	mv	a4,t2
80000810:	00e50533          	add	a0,a0,a4
80000814:	180a00e3          	beqz	s4,80001194 <vsnprintf+0x1100>
80000818:	03010e93          	addi	t4,sp,48
8000081c:	007e83b3          	add	t2,t4,t2
80000820:	00078593          	mv	a1,a5
80000824:	0117fc63          	bgeu	a5,a7,8000083c <vsnprintf+0x7a8>
80000828:	fff3c703          	lbu	a4,-1(t2)
8000082c:	00fe05b3          	add	a1,t3,a5
80000830:	00178793          	addi	a5,a5,1
80000834:	00e58023          	sb	a4,0(a1)
80000838:	00078593          	mv	a1,a5
8000083c:	fff38393          	addi	t2,t2,-1
80000840:	fe7e90e3          	bne	t4,t2,80000820 <vsnprintf+0x78c>
80000844:	ae0a0ce3          	beqz	s4,8000033c <vsnprintf+0x2a8>
80000848:	ffff0713          	addi	a4,t5,-1
8000084c:	afe058e3          	blez	t5,8000033c <vsnprintf+0x2a8>
80000850:	02000e93          	li	t4,32
80000854:	fff00313          	li	t1,-1
80000858:	00078593          	mv	a1,a5
8000085c:	0117fa63          	bgeu	a5,a7,80000870 <vsnprintf+0x7dc>
80000860:	00fe05b3          	add	a1,t3,a5
80000864:	00178793          	addi	a5,a5,1
80000868:	01d58023          	sb	t4,0(a1)
8000086c:	00078593          	mv	a1,a5
80000870:	fff70713          	addi	a4,a4,-1
80000874:	fe6712e3          	bne	a4,t1,80000858 <vsnprintf+0x7c4>
80000878:	00180813          	addi	a6,a6,1
8000087c:	8b5ff06f          	j	80000130 <vsnprintf+0x9c>
80000880:	40e00333          	neg	t1,a4
80000884:	fff70e93          	addi	t4,a4,-1
80000888:	41f35313          	srai	t1,t1,0x1f
8000088c:	006ef333          	and	t1,t4,t1
80000890:	00130313          	addi	t1,t1,1
80000894:	0006af83          	lw	t6,0(a3)
80000898:	00650533          	add	a0,a0,t1
8000089c:	00468693          	addi	a3,a3,4
800008a0:	040a0ae3          	beqz	s4,800010f4 <vsnprintf+0x1060>
800008a4:	2317ec63          	bltu	a5,a7,80000adc <vsnprintf+0xa48>
800008a8:	ffe70713          	addi	a4,a4,-2
800008ac:	a9d058e3          	blez	t4,8000033c <vsnprintf+0x2a8>
800008b0:	02000e93          	li	t4,32
800008b4:	fff00313          	li	t1,-1
800008b8:	00078593          	mv	a1,a5
800008bc:	0117fa63          	bgeu	a5,a7,800008d0 <vsnprintf+0x83c>
800008c0:	00fe05b3          	add	a1,t3,a5
800008c4:	00178793          	addi	a5,a5,1
800008c8:	01d58023          	sb	t4,0(a1)
800008cc:	00078593          	mv	a1,a5
800008d0:	fff70713          	addi	a4,a4,-1
800008d4:	fe6712e3          	bne	a4,t1,800008b8 <vsnprintf+0x824>
800008d8:	00180813          	addi	a6,a6,1
800008dc:	855ff06f          	j	80000130 <vsnprintf+0x9c>
800008e0:	0006af03          	lw	t5,0(a3)
800008e4:	00468f93          	addi	t6,a3,4
800008e8:	600f0063          	beqz	t5,80000ee8 <vsnprintf+0xe54>
800008ec:	000f4683          	lbu	a3,0(t5)
800008f0:	38068063          	beqz	a3,80000c70 <vsnprintf+0xbdc>
800008f4:	00000693          	li	a3,0
800008f8:	1cd30463          	beq	t1,a3,80000ac0 <vsnprintf+0xa2c>
800008fc:	00168693          	addi	a3,a3,1
80000900:	00df0eb3          	add	t4,t5,a3
80000904:	000ece83          	lbu	t4,0(t4)
80000908:	fe0e98e3          	bnez	t4,800008f8 <vsnprintf+0x864>
8000090c:	40d70eb3          	sub	t4,a4,a3
80000910:	1fd05a63          	blez	t4,80000b04 <vsnprintf+0xa70>
80000914:	00e50533          	add	a0,a0,a4
80000918:	320a0063          	beqz	s4,80000c38 <vsnprintf+0xba4>
8000091c:	00000713          	li	a4,0
80000920:	00078593          	mv	a1,a5
80000924:	0117fe63          	bgeu	a5,a7,80000940 <vsnprintf+0x8ac>
80000928:	00ef0333          	add	t1,t5,a4
8000092c:	00034303          	lbu	t1,0(t1)
80000930:	00fe05b3          	add	a1,t3,a5
80000934:	00178793          	addi	a5,a5,1
80000938:	00658023          	sb	t1,0(a1)
8000093c:	00078593          	mv	a1,a5
80000940:	00170713          	addi	a4,a4,1
80000944:	fcd74ee3          	blt	a4,a3,80000920 <vsnprintf+0x88c>
80000948:	000f8693          	mv	a3,t6
8000094c:	9e0a08e3          	beqz	s4,8000033c <vsnprintf+0x2a8>
80000950:	fffe8713          	addi	a4,t4,-1
80000954:	9fd054e3          	blez	t4,8000033c <vsnprintf+0x2a8>
80000958:	02000313          	li	t1,32
8000095c:	fff00693          	li	a3,-1
80000960:	00078593          	mv	a1,a5
80000964:	0117fa63          	bgeu	a5,a7,80000978 <vsnprintf+0x8e4>
80000968:	00fe05b3          	add	a1,t3,a5
8000096c:	00178793          	addi	a5,a5,1
80000970:	00658023          	sb	t1,0(a1)
80000974:	00078593          	mv	a1,a5
80000978:	fff70713          	addi	a4,a4,-1
8000097c:	fed712e3          	bne	a4,a3,80000960 <vsnprintf+0x8cc>
80000980:	000f8693          	mv	a3,t6
80000984:	00180813          	addi	a6,a6,1
80000988:	fa8ff06f          	j	80000130 <vsnprintf+0x9c>
8000098c:	0006a583          	lw	a1,0(a3)
80000990:	00468f93          	addi	t6,a3,4
80000994:	56058263          	beqz	a1,80000ef8 <vsnprintf+0xe64>
80000998:	000036b7          	lui	a3,0x3
8000099c:	07868693          	addi	a3,a3,120 # 3078 <_entry_offset+0x3078>
800009a0:	02d11823          	sh	a3,48(sp)
800009a4:	00200313          	li	t1,2
800009a8:	03010e93          	addi	t4,sp,48
800009ac:	00001297          	auipc	t0,0x1
800009b0:	b7428293          	addi	t0,t0,-1164 # 80001520 <_etext+0x30>
800009b4:	00f5f693          	andi	a3,a1,15
800009b8:	00d286b3          	add	a3,t0,a3
800009bc:	0006cf03          	lbu	t5,0(a3)
800009c0:	00130313          	addi	t1,t1,1
800009c4:	006e86b3          	add	a3,t4,t1
800009c8:	ffe68fa3          	sb	t5,-1(a3)
800009cc:	0045d593          	srli	a1,a1,0x4
800009d0:	fe0592e3          	bnez	a1,800009b4 <vsnprintf+0x920>
800009d4:	40670f33          	sub	t5,a4,t1
800009d8:	59e05063          	blez	t5,80000f58 <vsnprintf+0xec4>
800009dc:	00e50533          	add	a0,a0,a4
800009e0:	1e0a0a63          	beqz	s4,80000bd4 <vsnprintf+0xb40>
800009e4:	00068713          	mv	a4,a3
800009e8:	00078593          	mv	a1,a5
800009ec:	0117fc63          	bgeu	a5,a7,80000a04 <vsnprintf+0x970>
800009f0:	fff74683          	lbu	a3,-1(a4)
800009f4:	00fe05b3          	add	a1,t3,a5
800009f8:	00178793          	addi	a5,a5,1
800009fc:	00d58023          	sb	a3,0(a1)
80000a00:	00078593          	mv	a1,a5
80000a04:	fff70713          	addi	a4,a4,-1
80000a08:	feee90e3          	bne	t4,a4,800009e8 <vsnprintf+0x954>
80000a0c:	000f8693          	mv	a3,t6
80000a10:	920a06e3          	beqz	s4,8000033c <vsnprintf+0x2a8>
80000a14:	ffff0713          	addi	a4,t5,-1
80000a18:	93e052e3          	blez	t5,8000033c <vsnprintf+0x2a8>
80000a1c:	02000313          	li	t1,32
80000a20:	fff00693          	li	a3,-1
80000a24:	00078593          	mv	a1,a5
80000a28:	0117fa63          	bgeu	a5,a7,80000a3c <vsnprintf+0x9a8>
80000a2c:	00fe05b3          	add	a1,t3,a5
80000a30:	00178793          	addi	a5,a5,1
80000a34:	00658023          	sb	t1,0(a1)
80000a38:	00078593          	mv	a1,a5
80000a3c:	fff70713          	addi	a4,a4,-1
80000a40:	fed712e3          	bne	a4,a3,80000a24 <vsnprintf+0x990>
80000a44:	000f8693          	mv	a3,t6
80000a48:	f3dff06f          	j	80000984 <vsnprintf+0x8f0>
80000a4c:	0002cf03          	lbu	t5,0(t0)
80000a50:	00500393          	li	t2,5
80000a54:	fccff06f          	j	80000220 <vsnprintf+0x18c>
80000a58:	fd0f0293          	addi	t0,t5,-48
80000a5c:	0ff2f493          	zext.b	s1,t0
80000a60:	00900813          	li	a6,9
80000a64:	029860e3          	bltu	a6,s1,80001284 <vsnprintf+0x11f0>
80000a68:	002e8813          	addi	a6,t4,2
80000a6c:	00030e93          	mv	t4,t1
80000a70:	00000313          	li	t1,0
80000a74:	01060833          	add	a6,a2,a6
80000a78:	00900493          	li	s1,9
80000a7c:	00030b93          	mv	s7,t1
80000a80:	00084f03          	lbu	t5,0(a6)
80000a84:	002b9313          	slli	t1,s7,0x2
80000a88:	01730333          	add	t1,t1,s7
80000a8c:	00131313          	slli	t1,t1,0x1
80000a90:	00628bb3          	add	s7,t0,t1
80000a94:	fd0f0293          	addi	t0,t5,-48
80000a98:	0ff2f313          	zext.b	t1,t0
80000a9c:	00080393          	mv	t2,a6
80000aa0:	001e8e93          	addi	t4,t4,1
80000aa4:	00180813          	addi	a6,a6,1
80000aa8:	fc64fce3          	bgeu	s1,t1,80000a80 <vsnprintf+0x9ec>
80000aac:	000b8313          	mv	t1,s7
80000ab0:	f48ff06f          	j	800001f8 <vsnprintf+0x164>
80000ab4:	00050023          	sb	zero,0(a0)
80000ab8:	00000513          	li	a0,0
80000abc:	00008067          	ret
80000ac0:	40670eb3          	sub	t4,a4,t1
80000ac4:	03d05663          	blez	t4,80000af0 <vsnprintf+0xa5c>
80000ac8:	00e50533          	add	a0,a0,a4
80000acc:	160a0663          	beqz	s4,80000c38 <vsnprintf+0xba4>
80000ad0:	e40316e3          	bnez	t1,8000091c <vsnprintf+0x888>
80000ad4:	fffe8713          	addi	a4,t4,-1
80000ad8:	e81ff06f          	j	80000958 <vsnprintf+0x8c4>
80000adc:	00be05b3          	add	a1,t3,a1
80000ae0:	00178793          	addi	a5,a5,1
80000ae4:	01f58023          	sb	t6,0(a1)
80000ae8:	00078593          	mv	a1,a5
80000aec:	dbdff06f          	j	800008a8 <vsnprintf+0x814>
80000af0:	00650533          	add	a0,a0,t1
80000af4:	060a0ee3          	beqz	s4,80001370 <vsnprintf+0x12dc>
80000af8:	e20312e3          	bnez	t1,8000091c <vsnprintf+0x888>
80000afc:	000f8693          	mv	a3,t6
80000b00:	e85ff06f          	j	80000984 <vsnprintf+0x8f0>
80000b04:	001a3713          	seqz	a4,s4
80000b08:	00d50533          	add	a0,a0,a3
80000b0c:	40ee8eb3          	sub	t4,t4,a4
80000b10:	e0dff06f          	j	8000091c <vsnprintf+0x888>
80000b14:	ffff0713          	addi	a4,t5,-1
80000b18:	9de05ce3          	blez	t5,800004f0 <vsnprintf+0x45c>
80000b1c:	02000e93          	li	t4,32
80000b20:	fff00313          	li	t1,-1
80000b24:	00078593          	mv	a1,a5
80000b28:	0117fa63          	bgeu	a5,a7,80000b3c <vsnprintf+0xaa8>
80000b2c:	00fe05b3          	add	a1,t3,a5
80000b30:	00178793          	addi	a5,a5,1
80000b34:	01d58023          	sb	t4,0(a1)
80000b38:	00078593          	mv	a1,a5
80000b3c:	fff70713          	addi	a4,a4,-1
80000b40:	fe6712e3          	bne	a4,t1,80000b24 <vsnprintf+0xa90>
80000b44:	07c12c03          	lw	s8,124(sp)
80000b48:	9adff06f          	j	800004f4 <vsnprintf+0x460>
80000b4c:	0117fa63          	bgeu	a5,a7,80000b60 <vsnprintf+0xacc>
80000b50:	00be05b3          	add	a1,t3,a1
80000b54:	02e00713          	li	a4,46
80000b58:	00178793          	addi	a5,a5,1
80000b5c:	00e58023          	sb	a4,0(a1)
80000b60:	03010713          	addi	a4,sp,48
80000b64:	00670333          	add	t1,a4,t1
80000b68:	00078593          	mv	a1,a5
80000b6c:	0117fc63          	bgeu	a5,a7,80000b84 <vsnprintf+0xaf0>
80000b70:	00074e83          	lbu	t4,0(a4)
80000b74:	00fe05b3          	add	a1,t3,a5
80000b78:	00178793          	addi	a5,a5,1
80000b7c:	01d58023          	sb	t4,0(a1)
80000b80:	00078593          	mv	a1,a5
80000b84:	00170713          	addi	a4,a4,1
80000b88:	fee310e3          	bne	t1,a4,80000b68 <vsnprintf+0xad4>
80000b8c:	960a02e3          	beqz	s4,800004f0 <vsnprintf+0x45c>
80000b90:	f85ff06f          	j	80000b14 <vsnprintf+0xa80>
80000b94:	fffb0f93          	addi	t6,s6,-1
80000b98:	ff0fff93          	andi	t6,t6,-16
80000b9c:	030f8f93          	addi	t6,t6,48
80000ba0:	ffff0713          	addi	a4,t5,-1
80000ba4:	01e052e3          	blez	t5,800013a8 <vsnprintf+0x1314>
80000ba8:	00070f13          	mv	t5,a4
80000bac:	fff00713          	li	a4,-1
80000bb0:	00078593          	mv	a1,a5
80000bb4:	0117fa63          	bgeu	a5,a7,80000bc8 <vsnprintf+0xb34>
80000bb8:	00fe05b3          	add	a1,t3,a5
80000bbc:	00178793          	addi	a5,a5,1
80000bc0:	01f58023          	sb	t6,0(a1)
80000bc4:	00078593          	mv	a1,a5
80000bc8:	ffff0f13          	addi	t5,t5,-1
80000bcc:	feef12e3          	bne	t5,a4,80000bb0 <vsnprintf+0xb1c>
80000bd0:	8d5ff06f          	j	800004a4 <vsnprintf+0x410>
80000bd4:	ffff0f13          	addi	t5,t5,-1
80000bd8:	02000313          	li	t1,32
80000bdc:	fff00593          	li	a1,-1
80000be0:	0117f863          	bgeu	a5,a7,80000bf0 <vsnprintf+0xb5c>
80000be4:	00fe0733          	add	a4,t3,a5
80000be8:	00670023          	sb	t1,0(a4)
80000bec:	00178793          	addi	a5,a5,1
80000bf0:	ffff0f13          	addi	t5,t5,-1
80000bf4:	febf16e3          	bne	t5,a1,80000be0 <vsnprintf+0xb4c>
80000bf8:	dedff06f          	j	800009e4 <vsnprintf+0x950>
80000bfc:	03000e93          	li	t4,48
80000c00:	01d10823          	sb	t4,16(sp)
80000c04:	74030663          	beqz	t1,80001350 <vsnprintf+0x12bc>
80000c08:	00230293          	addi	t0,t1,2
80000c0c:	03010e93          	addi	t4,sp,48
80000c10:	006e8fb3          	add	t6,t4,t1
80000c14:	03000f13          	li	t5,48
80000c18:	01ee8023          	sb	t5,0(t4)
80000c1c:	001e8e93          	addi	t4,t4,1
80000c20:	ffdf9ce3          	bne	t6,t4,80000c18 <vsnprintf+0xb84>
80000c24:	00100e93          	li	t4,1
80000c28:	01010c13          	addi	s8,sp,16
80000c2c:	859ff06f          	j	80000484 <vsnprintf+0x3f0>
80000c30:	00070e93          	mv	t4,a4
80000c34:	00000693          	li	a3,0
80000c38:	fffe8e93          	addi	t4,t4,-1
80000c3c:	02000313          	li	t1,32
80000c40:	fff00713          	li	a4,-1
80000c44:	00078593          	mv	a1,a5
80000c48:	0117fa63          	bgeu	a5,a7,80000c5c <vsnprintf+0xbc8>
80000c4c:	00fe05b3          	add	a1,t3,a5
80000c50:	00178793          	addi	a5,a5,1
80000c54:	00658023          	sb	t1,0(a1)
80000c58:	00078593          	mv	a1,a5
80000c5c:	fffe8e93          	addi	t4,t4,-1
80000c60:	feee92e3          	bne	t4,a4,80000c44 <vsnprintf+0xbb0>
80000c64:	ca069ce3          	bnez	a3,8000091c <vsnprintf+0x888>
80000c68:	000f8693          	mv	a3,t6
80000c6c:	d19ff06f          	j	80000984 <vsnprintf+0x8f0>
80000c70:	000f8693          	mv	a3,t6
80000c74:	ece05463          	blez	a4,8000033c <vsnprintf+0x2a8>
80000c78:	00e50533          	add	a0,a0,a4
80000c7c:	fa0a0ae3          	beqz	s4,80000c30 <vsnprintf+0xb9c>
80000c80:	fff70713          	addi	a4,a4,-1
80000c84:	cd5ff06f          	j	80000958 <vsnprintf+0x8c4>
80000c88:	fff70f13          	addi	t5,a4,-1
80000c8c:	6be05263          	blez	t5,80001330 <vsnprintf+0x129c>
80000c90:	00e50533          	add	a0,a0,a4
80000c94:	6a0a1263          	bnez	s4,80001338 <vsnprintf+0x12a4>
80000c98:	060b1063          	bnez	s6,80000cf8 <vsnprintf+0xc64>
80000c9c:	ffff0713          	addi	a4,t5,-1
80000ca0:	00070f93          	mv	t6,a4
80000ca4:	02000e93          	li	t4,32
80000ca8:	fff00313          	li	t1,-1
80000cac:	00078593          	mv	a1,a5
80000cb0:	0117fa63          	bgeu	a5,a7,80000cc4 <vsnprintf+0xc30>
80000cb4:	00fe05b3          	add	a1,t3,a5
80000cb8:	00178793          	addi	a5,a5,1
80000cbc:	01d58023          	sb	t4,0(a1)
80000cc0:	00078593          	mv	a1,a5
80000cc4:	fff70713          	addi	a4,a4,-1
80000cc8:	fe6712e3          	bne	a4,t1,80000cac <vsnprintf+0xc18>
80000ccc:	41ef8f33          	sub	t5,t6,t5
80000cd0:	03010e93          	addi	t4,sp,48
80000cd4:	a40390e3          	bnez	t2,80000714 <vsnprintf+0x680>
80000cd8:	00180813          	addi	a6,a6,1
80000cdc:	c54ff06f          	j	80000130 <vsnprintf+0x9c>
80000ce0:	40770f33          	sub	t5,a4,t2
80000ce4:	01e04463          	bgtz	t5,80000cec <vsnprintf+0xc58>
80000ce8:	00038713          	mv	a4,t2
80000cec:	00e50533          	add	a0,a0,a4
80000cf0:	a20a12e3          	bnez	s4,80000714 <vsnprintf+0x680>
80000cf4:	020b0463          	beqz	s6,80000d1c <vsnprintf+0xc88>
80000cf8:	03000e93          	li	t4,48
80000cfc:	02035063          	bgez	t1,80000d1c <vsnprintf+0xc88>
80000d00:	ffff0713          	addi	a4,t5,-1
80000d04:	69e05e63          	blez	t5,800013a0 <vsnprintf+0x130c>
80000d08:	00070f93          	mv	t6,a4
80000d0c:	f9dff06f          	j	80000ca8 <vsnprintf+0xc14>
80000d10:	e20a1663          	bnez	s4,8000033c <vsnprintf+0x2a8>
80000d14:	00070f13          	mv	t5,a4
80000d18:	00000393          	li	t2,0
80000d1c:	02000e93          	li	t4,32
80000d20:	fe1ff06f          	j	80000d00 <vsnprintf+0xc6c>
80000d24:	00000393          	li	t2,0
80000d28:	40098c63          	beqz	s3,80001140 <vsnprintf+0x10ac>
80000d2c:	01010f13          	addi	t5,sp,16
80000d30:	06038e93          	addi	t4,t2,96
80000d34:	01ee8eb3          	add	t4,t4,t5
80000d38:	02b00f93          	li	t6,43
80000d3c:	00138f13          	addi	t5,t2,1
80000d40:	fdfe8023          	sb	t6,-64(t4)
80000d44:	869ff06f          	j	800005ac <vsnprintf+0x518>
80000d48:	00069f83          	lh	t6,0(a3)
80000d4c:	00468693          	addi	a3,a3,4
80000d50:	41ffd293          	srai	t0,t6,0x1f
80000d54:	fe4ff06f          	j	80000538 <vsnprintf+0x4a4>
80000d58:	00ce9713          	slli	a4,t4,0xc
80000d5c:	00c75713          	srli	a4,a4,0xc
80000d60:	01f76733          	or	a4,a4,t6
80000d64:	00001f17          	auipc	t5,0x1
80000d68:	800f0f13          	addi	t5,t5,-2048 # 80001564 <_etext+0x74>
80000d6c:	00071c63          	bnez	a4,80000d84 <vsnprintf+0xcf0>
80000d70:	00000f17          	auipc	t5,0x0
80000d74:	7ecf0f13          	addi	t5,t5,2028 # 8000155c <_etext+0x6c>
80000d78:	000b9663          	bnez	s7,80000d84 <vsnprintf+0xcf0>
80000d7c:	00000f17          	auipc	t5,0x0
80000d80:	7dcf0f13          	addi	t5,t5,2012 # 80001558 <_etext+0x68>
80000d84:	00000713          	li	a4,0
80000d88:	00070e93          	mv	t4,a4
80000d8c:	00170713          	addi	a4,a4,1
80000d90:	00ef0333          	add	t1,t5,a4
80000d94:	00034303          	lbu	t1,0(t1)
80000d98:	fe0318e3          	bnez	t1,80000d88 <vsnprintf+0xcf4>
80000d9c:	00e50533          	add	a0,a0,a4
80000da0:	d917fe63          	bgeu	a5,a7,8000033c <vsnprintf+0x2a8>
80000da4:	00178313          	addi	t1,a5,1
80000da8:	01d30eb3          	add	t4,t1,t4
80000dac:	00c0006f          	j	80000db8 <vsnprintf+0xd24>
80000db0:	9f1370e3          	bgeu	t1,a7,80000790 <vsnprintf+0x6fc>
80000db4:	00130313          	addi	t1,t1,1
80000db8:	40b30733          	sub	a4,t1,a1
80000dbc:	00ef0733          	add	a4,t5,a4
80000dc0:	fff74f83          	lbu	t6,-1(a4)
80000dc4:	006e0733          	add	a4,t3,t1
80000dc8:	00030793          	mv	a5,t1
80000dcc:	fff70fa3          	sb	t6,-1(a4)
80000dd0:	fe6e90e3          	bne	t4,t1,80000db0 <vsnprintf+0xd1c>
80000dd4:	00078593          	mv	a1,a5
80000dd8:	9bdff06f          	j	80000794 <vsnprintf+0x700>
80000ddc:	0006d283          	lhu	t0,0(a3)
80000de0:	00000493          	li	s1,0
80000de4:	00468693          	addi	a3,a3,4
80000de8:	871ff06f          	j	80000658 <vsnprintf+0x5c4>
80000dec:	0006df83          	lhu	t6,0(a3)
80000df0:	00000293          	li	t0,0
80000df4:	00468693          	addi	a3,a3,4
80000df8:	9d1ff06f          	j	800007c8 <vsnprintf+0x734>
80000dfc:	44098e63          	beqz	s3,80001258 <vsnprintf+0x11c4>
80000e00:	eb17fe63          	bgeu	a5,a7,800004bc <vsnprintf+0x428>
80000e04:	00be05b3          	add	a1,t3,a1
80000e08:	02b00713          	li	a4,43
80000e0c:	00178793          	addi	a5,a5,1
80000e10:	00e58023          	sb	a4,0(a1)
80000e14:	ea8ff06f          	j	800004bc <vsnprintf+0x428>
80000e18:	01f03eb3          	snez	t4,t6
80000e1c:	405002b3          	neg	t0,t0
80000e20:	07812e23          	sw	s8,124(sp)
80000e24:	41d282b3          	sub	t0,t0,t4
80000e28:	41f00fb3          	neg	t6,t6
80000e2c:	00100f13          	li	t5,1
80000e30:	ccccd4b7          	lui	s1,0xccccd
80000e34:	ccccdbb7          	lui	s7,0xccccd
80000e38:	00000393          	li	t2,0
80000e3c:	03010e93          	addi	t4,sp,48
80000e40:	00500c13          	li	s8,5
80000e44:	ccd48493          	addi	s1,s1,-819 # cccccccd <_end+0x4ccc2ccd>
80000e48:	cccb8b93          	addi	s7,s7,-820 # cccccccc <_end+0x4ccc2ccc>
80000e4c:	01612023          	sw	s6,0(sp)
80000e50:	00f12223          	sw	a5,4(sp)
80000e54:	01412423          	sw	s4,8(sp)
80000e58:	01312623          	sw	s3,12(sp)
80000e5c:	005f87b3          	add	a5,t6,t0
80000e60:	01f7b9b3          	sltu	s3,a5,t6
80000e64:	013787b3          	add	a5,a5,s3
80000e68:	0387f7b3          	remu	a5,a5,s8
80000e6c:	00138393          	addi	t2,t2,1
80000e70:	007e8a33          	add	s4,t4,t2
80000e74:	40ff87b3          	sub	a5,t6,a5
80000e78:	00ffb9b3          	sltu	s3,t6,a5
80000e7c:	413289b3          	sub	s3,t0,s3
80000e80:	029989b3          	mul	s3,s3,s1
80000e84:	037782b3          	mul	t0,a5,s7
80000e88:	0297bb33          	mulhu	s6,a5,s1
80000e8c:	005982b3          	add	t0,s3,t0
80000e90:	029787b3          	mul	a5,a5,s1
80000e94:	016282b3          	add	t0,t0,s6
80000e98:	01f29993          	slli	s3,t0,0x1f
80000e9c:	0012d293          	srli	t0,t0,0x1
80000ea0:	0017d793          	srli	a5,a5,0x1
80000ea4:	00f9e7b3          	or	a5,s3,a5
80000ea8:	00279993          	slli	s3,a5,0x2
80000eac:	00f989b3          	add	s3,s3,a5
80000eb0:	00199993          	slli	s3,s3,0x1
80000eb4:	413f89b3          	sub	s3,t6,s3
80000eb8:	03098993          	addi	s3,s3,48
80000ebc:	00078f93          	mv	t6,a5
80000ec0:	ff3a0fa3          	sb	s3,-1(s4)
80000ec4:	0057e7b3          	or	a5,a5,t0
80000ec8:	f8079ae3          	bnez	a5,80000e5c <vsnprintf+0xdc8>
80000ecc:	00012b03          	lw	s6,0(sp)
80000ed0:	00412783          	lw	a5,4(sp)
80000ed4:	00812a03          	lw	s4,8(sp)
80000ed8:	00c12983          	lw	s3,12(sp)
80000edc:	07c12c03          	lw	s8,124(sp)
80000ee0:	e863c063          	blt	t2,t1,80000560 <vsnprintf+0x4cc>
80000ee4:	eacff06f          	j	80000590 <vsnprintf+0x4fc>
80000ee8:	00000f17          	auipc	t5,0x0
80000eec:	660f0f13          	addi	t5,t5,1632 # 80001548 <_etext+0x58>
80000ef0:	00000693          	li	a3,0
80000ef4:	a05ff06f          	j	800008f8 <vsnprintf+0x864>
80000ef8:	00000317          	auipc	t1,0x0
80000efc:	65930313          	addi	t1,t1,1625 # 80001551 <_etext+0x61>
80000f00:	00030693          	mv	a3,t1
80000f04:	00000713          	li	a4,0
80000f08:	0006c583          	lbu	a1,0(a3)
80000f0c:	00070e93          	mv	t4,a4
80000f10:	00168693          	addi	a3,a3,1
80000f14:	00170713          	addi	a4,a4,1
80000f18:	fe0598e3          	bnez	a1,80000f08 <vsnprintf+0xe74>
80000f1c:	00e50533          	add	a0,a0,a4
80000f20:	01d306b3          	add	a3,t1,t4
80000f24:	00000717          	auipc	a4,0x0
80000f28:	62c70713          	addi	a4,a4,1580 # 80001550 <_etext+0x60>
80000f2c:	00078593          	mv	a1,a5
80000f30:	0117fc63          	bgeu	a5,a7,80000f48 <vsnprintf+0xeb4>
80000f34:	00074303          	lbu	t1,0(a4)
80000f38:	00fe05b3          	add	a1,t3,a5
80000f3c:	00178793          	addi	a5,a5,1
80000f40:	00658023          	sb	t1,0(a1)
80000f44:	00078593          	mv	a1,a5
80000f48:	00170713          	addi	a4,a4,1
80000f4c:	fee690e3          	bne	a3,a4,80000f2c <vsnprintf+0xe98>
80000f50:	000f8693          	mv	a3,t6
80000f54:	a31ff06f          	j	80000984 <vsnprintf+0x8f0>
80000f58:	001a3713          	seqz	a4,s4
80000f5c:	00650533          	add	a0,a0,t1
80000f60:	40ef0f33          	sub	t5,t5,a4
80000f64:	a81ff06f          	j	800009e4 <vsnprintf+0x950>
80000f68:	380f0e63          	beqz	t5,80001304 <vsnprintf+0x1270>
80000f6c:	c01f0f13          	addi	t5,t5,-1023
80000f70:	00600313          	li	t1,6
80000f74:	c40f5e63          	bgez	t5,800003d0 <vsnprintf+0x33c>
80000f78:	03000e93          	li	t4,48
80000f7c:	01d10823          	sb	t4,16(sp)
80000f80:	00800293          	li	t0,8
80000f84:	ffc00e93          	li	t4,-4
80000f88:	03010f93          	addi	t6,sp,48
80000f8c:	2fdf5463          	bge	t5,t4,80001274 <vsnprintf+0x11e0>
80000f90:	00000e93          	li	t4,0
80000f94:	03000f13          	li	t5,48
80000f98:	01ef8023          	sb	t5,0(t6)
80000f9c:	001e8e93          	addi	t4,t4,1
80000fa0:	001f8f93          	addi	t6,t6,1
80000fa4:	fe6e98e3          	bne	t4,t1,80000f94 <vsnprintf+0xf00>
80000fa8:	c7dff06f          	j	80000c24 <vsnprintf+0xb90>
80000fac:	02000e93          	li	t4,32
80000fb0:	000b0863          	beqz	s6,80000fc0 <vsnprintf+0xf2c>
80000fb4:	41f35e93          	srai	t4,t1,0x1f
80000fb8:	010efe93          	andi	t4,t4,16
80000fbc:	020e8e93          	addi	t4,t4,32
80000fc0:	ffff8713          	addi	a4,t6,-1
80000fc4:	3bf05e63          	blez	t6,80001380 <vsnprintf+0x12ec>
80000fc8:	00070f93          	mv	t6,a4
80000fcc:	fff00713          	li	a4,-1
80000fd0:	00078593          	mv	a1,a5
80000fd4:	0117fa63          	bgeu	a5,a7,80000fe8 <vsnprintf+0xf54>
80000fd8:	00fe05b3          	add	a1,t3,a5
80000fdc:	00178793          	addi	a5,a5,1
80000fe0:	01d58023          	sb	t4,0(a1)
80000fe4:	00078593          	mv	a1,a5
80000fe8:	ffff8f93          	addi	t6,t6,-1
80000fec:	feef92e3          	bne	t6,a4,80000fd0 <vsnprintf+0xf3c>
80000ff0:	dc0f1a63          	bnez	t5,800005c4 <vsnprintf+0x530>
80000ff4:	00180813          	addi	a6,a6,1
80000ff8:	938ff06f          	j	80000130 <vsnprintf+0x9c>
80000ffc:	07812e23          	sw	s8,124(sp)
80001000:	00000393          	li	t2,0
80001004:	03010e93          	addi	t4,sp,48
80001008:	00f2f993          	andi	s3,t0,15
8000100c:	013a89b3          	add	s3,s5,s3
80001010:	0009cb83          	lbu	s7,0(s3)
80001014:	01c49c13          	slli	s8,s1,0x1c
80001018:	00138393          	addi	t2,t2,1
8000101c:	0042d293          	srli	t0,t0,0x4
80001020:	007e89b3          	add	s3,t4,t2
80001024:	005c62b3          	or	t0,s8,t0
80001028:	0044d493          	srli	s1,s1,0x4
8000102c:	ff798fa3          	sb	s7,-1(s3)
80001030:	0092e9b3          	or	s3,t0,s1
80001034:	fc099ae3          	bnez	s3,80001008 <vsnprintf+0xf74>
80001038:	07c12c03          	lw	s8,124(sp)
8000103c:	e463ca63          	blt	t2,t1,80000690 <vsnprintf+0x5fc>
80001040:	e80ff06f          	j	800006c0 <vsnprintf+0x62c>
80001044:	ccccd4b7          	lui	s1,0xccccd
80001048:	ccccdbb7          	lui	s7,0xccccd
8000104c:	07812e23          	sw	s8,124(sp)
80001050:	00000393          	li	t2,0
80001054:	03010e93          	addi	t4,sp,48
80001058:	ccd48493          	addi	s1,s1,-819 # cccccccd <_end+0x4ccc2ccd>
8000105c:	cccb8b93          	addi	s7,s7,-820 # cccccccc <_end+0x4ccc2ccc>
80001060:	01612223          	sw	s6,4(sp)
80001064:	005f8f33          	add	t5,t6,t0
80001068:	01ff39b3          	sltu	s3,t5,t6
8000106c:	013f0f33          	add	t5,t5,s3
80001070:	00500993          	li	s3,5
80001074:	033f7f33          	remu	t5,t5,s3
80001078:	00028a93          	mv	s5,t0
8000107c:	00138393          	addi	t2,t2,1
80001080:	007e8b33          	add	s6,t4,t2
80001084:	01f12023          	sw	t6,0(sp)
80001088:	41ef8f33          	sub	t5,t6,t5
8000108c:	01efb9b3          	sltu	s3,t6,t5
80001090:	413289b3          	sub	s3,t0,s3
80001094:	029989b3          	mul	s3,s3,s1
80001098:	037f02b3          	mul	t0,t5,s7
8000109c:	029f3c33          	mulhu	s8,t5,s1
800010a0:	005982b3          	add	t0,s3,t0
800010a4:	029f0f33          	mul	t5,t5,s1
800010a8:	018282b3          	add	t0,t0,s8
800010ac:	01f29993          	slli	s3,t0,0x1f
800010b0:	0012d293          	srli	t0,t0,0x1
800010b4:	001f5f13          	srli	t5,t5,0x1
800010b8:	01e9ef33          	or	t5,s3,t5
800010bc:	002f1993          	slli	s3,t5,0x2
800010c0:	01e989b3          	add	s3,s3,t5
800010c4:	00199993          	slli	s3,s3,0x1
800010c8:	413f89b3          	sub	s3,t6,s3
800010cc:	03098993          	addi	s3,s3,48
800010d0:	ff3b0fa3          	sb	s3,-1(s6)
800010d4:	000f0f93          	mv	t6,t5
800010d8:	f80a96e3          	bnez	s5,80001064 <vsnprintf+0xfd0>
800010dc:	00012f03          	lw	t5,0(sp)
800010e0:	00900993          	li	s3,9
800010e4:	f9e9e0e3          	bltu	s3,t5,80001064 <vsnprintf+0xfd0>
800010e8:	00412b03          	lw	s6,4(sp)
800010ec:	07c12c03          	lw	s8,124(sp)
800010f0:	ef0ff06f          	j	800007e0 <vsnprintf+0x74c>
800010f4:	ffe70713          	addi	a4,a4,-2
800010f8:	02000f13          	li	t5,32
800010fc:	fff00313          	li	t1,-1
80001100:	03d05263          	blez	t4,80001124 <vsnprintf+0x1090>
80001104:	00078593          	mv	a1,a5
80001108:	0117fa63          	bgeu	a5,a7,8000111c <vsnprintf+0x1088>
8000110c:	00fe05b3          	add	a1,t3,a5
80001110:	00178793          	addi	a5,a5,1
80001114:	01e58023          	sb	t5,0(a1)
80001118:	00078593          	mv	a1,a5
8000111c:	fff70713          	addi	a4,a4,-1
80001120:	fe6712e3          	bne	a4,t1,80001104 <vsnprintf+0x1070>
80001124:	a117fc63          	bgeu	a5,a7,8000033c <vsnprintf+0x2a8>
80001128:	00be05b3          	add	a1,t3,a1
8000112c:	00178793          	addi	a5,a5,1
80001130:	01f58023          	sb	t6,0(a1)
80001134:	00180813          	addi	a6,a6,1
80001138:	00078593          	mv	a1,a5
8000113c:	ff5fe06f          	j	80000130 <vsnprintf+0x9c>
80001140:	00038f13          	mv	t5,t2
80001144:	c60a8463          	beqz	s5,800005ac <vsnprintf+0x518>
80001148:	06038e93          	addi	t4,t2,96
8000114c:	01010f93          	addi	t6,sp,16
80001150:	01fe83b3          	add	t2,t4,t6
80001154:	02000e93          	li	t4,32
80001158:	001f0f13          	addi	t5,t5,1
8000115c:	fdd38023          	sb	t4,-64(t2)
80001160:	c4cff06f          	j	800005ac <vsnprintf+0x518>
80001164:	0006c283          	lbu	t0,0(a3)
80001168:	00000493          	li	s1,0
8000116c:	00468693          	addi	a3,a3,4
80001170:	ce8ff06f          	j	80000658 <vsnprintf+0x5c4>
80001174:	0006cf83          	lbu	t6,0(a3)
80001178:	00000293          	li	t0,0
8000117c:	00468693          	addi	a3,a3,4
80001180:	bbcff06f          	j	8000053c <vsnprintf+0x4a8>
80001184:	0006cf83          	lbu	t6,0(a3)
80001188:	00000293          	li	t0,0
8000118c:	00468693          	addi	a3,a3,4
80001190:	e38ff06f          	j	800007c8 <vsnprintf+0x734>
80001194:	0e0b1e63          	bnez	s6,80001290 <vsnprintf+0x11fc>
80001198:	000f0713          	mv	a4,t5
8000119c:	02000313          	li	t1,32
800011a0:	fff70f13          	addi	t5,a4,-1
800011a4:	02e05463          	blez	a4,800011cc <vsnprintf+0x1138>
800011a8:	fff00713          	li	a4,-1
800011ac:	00078593          	mv	a1,a5
800011b0:	0117fa63          	bgeu	a5,a7,800011c4 <vsnprintf+0x1130>
800011b4:	00fe05b3          	add	a1,t3,a5
800011b8:	00178793          	addi	a5,a5,1
800011bc:	00658023          	sb	t1,0(a1)
800011c0:	00078593          	mv	a1,a5
800011c4:	ffff0f13          	addi	t5,t5,-1
800011c8:	feef12e3          	bne	t5,a4,800011ac <vsnprintf+0x1118>
800011cc:	e4039663          	bnez	t2,80000818 <vsnprintf+0x784>
800011d0:	00180813          	addi	a6,a6,1
800011d4:	f5dfe06f          	j	80000130 <vsnprintf+0x9c>
800011d8:	10e05c63          	blez	a4,800012f0 <vsnprintf+0x125c>
800011dc:	00e50533          	add	a0,a0,a4
800011e0:	100a0a63          	beqz	s4,800012f4 <vsnprintf+0x1260>
800011e4:	fff70713          	addi	a4,a4,-1
800011e8:	e68ff06f          	j	80000850 <vsnprintf+0x7bc>
800011ec:	b2e052e3          	blez	a4,80000d10 <vsnprintf+0xc7c>
800011f0:	00e50533          	add	a0,a0,a4
800011f4:	b20a00e3          	beqz	s4,80000d14 <vsnprintf+0xc80>
800011f8:	fff70713          	addi	a4,a4,-1
800011fc:	d4cff06f          	j	80000748 <vsnprintf+0x6b4>
80001200:	01010c13          	addi	s8,sp,16
80001204:	03100e93          	li	t4,49
80001208:	01d10823          	sb	t4,16(sp)
8000120c:	018f02b3          	add	t0,t5,s8
80001210:	000c0e93          	mv	t4,s8
80001214:	03000f93          	li	t6,48
80001218:	01fe80a3          	sb	t6,1(t4)
8000121c:	001e8e93          	addi	t4,t4,1
80001220:	ffd29ce3          	bne	t0,t4,80001218 <vsnprintf+0x1184>
80001224:	001f0293          	addi	t0,t5,1
80001228:	00028e93          	mv	t4,t0
8000122c:	a4030c63          	beqz	t1,80000484 <vsnprintf+0x3f0>
80001230:	03010e93          	addi	t4,sp,48
80001234:	006e8fb3          	add	t6,t4,t1
80001238:	03000f13          	li	t5,48
8000123c:	01ee8023          	sb	t5,0(t4)
80001240:	001e8e93          	addi	t4,t4,1
80001244:	ffdf9ce3          	bne	t6,t4,8000123c <vsnprintf+0x11a8>
80001248:	00130f13          	addi	t5,t1,1
8000124c:	00028e93          	mv	t4,t0
80001250:	005f02b3          	add	t0,t5,t0
80001254:	a30ff06f          	j	80000484 <vsnprintf+0x3f0>
80001258:	a60a8263          	beqz	s5,800004bc <vsnprintf+0x428>
8000125c:	a717f063          	bgeu	a5,a7,800004bc <vsnprintf+0x428>
80001260:	00be05b3          	add	a1,t3,a1
80001264:	02000713          	li	a4,32
80001268:	00178793          	addi	a5,a5,1
8000126c:	00e58023          	sb	a4,0(a1)
80001270:	a4cff06f          	j	800004bc <vsnprintf+0x428>
80001274:	03500e93          	li	t4,53
80001278:	03d10823          	sb	t4,48(sp)
8000127c:	00000e93          	li	t4,0
80001280:	d1dff06f          	j	80000f9c <vsnprintf+0xf08>
80001284:	00030e93          	mv	t4,t1
80001288:	00000313          	li	t1,0
8000128c:	f6dfe06f          	j	800001f8 <vsnprintf+0x164>
80001290:	f00354e3          	bgez	t1,80001198 <vsnprintf+0x1104>
80001294:	000f0713          	mv	a4,t5
80001298:	03000313          	li	t1,48
8000129c:	f05ff06f          	j	800011a0 <vsnprintf+0x110c>
800012a0:	00768693          	addi	a3,a3,7
800012a4:	ff86f693          	andi	a3,a3,-8
800012a8:	0006af83          	lw	t6,0(a3)
800012ac:	0046a283          	lw	t0,4(a3)
800012b0:	00868693          	addi	a3,a3,8
800012b4:	a84ff06f          	j	80000538 <vsnprintf+0x4a4>
800012b8:	00768693          	addi	a3,a3,7
800012bc:	ff86f693          	andi	a3,a3,-8
800012c0:	0006a283          	lw	t0,0(a3)
800012c4:	0046a483          	lw	s1,4(a3)
800012c8:	00868693          	addi	a3,a3,8
800012cc:	b8cff06f          	j	80000658 <vsnprintf+0x5c4>
800012d0:	00768693          	addi	a3,a3,7
800012d4:	ff86f693          	andi	a3,a3,-8
800012d8:	0006af83          	lw	t6,0(a3)
800012dc:	0046a283          	lw	t0,4(a3)
800012e0:	00868693          	addi	a3,a3,8
800012e4:	ce4ff06f          	j	800007c8 <vsnprintf+0x734>
800012e8:	40770f33          	sub	t5,a4,t2
800012ec:	d1cff06f          	j	80000808 <vsnprintf+0x774>
800012f0:	840a1663          	bnez	s4,8000033c <vsnprintf+0x2a8>
800012f4:	080b1c63          	bnez	s6,8000138c <vsnprintf+0x12f8>
800012f8:	00070f13          	mv	t5,a4
800012fc:	00000393          	li	t2,0
80001300:	e99ff06f          	j	80001198 <vsnprintf+0x1104>
80001304:	03000313          	li	t1,48
80001308:	00610823          	sb	t1,16(sp)
8000130c:	00800293          	li	t0,8
80001310:	00600313          	li	t1,6
80001314:	8f9ff06f          	j	80000c0c <vsnprintf+0xb78>
80001318:	00750533          	add	a0,a0,t2
8000131c:	be0a1c63          	bnez	s4,80000714 <vsnprintf+0x680>
80001320:	9c0b1ce3          	bnez	s6,80000cf8 <vsnprintf+0xc64>
80001324:	ffff0f13          	addi	t5,t5,-1
80001328:	03010e93          	addi	t4,sp,48
8000132c:	be8ff06f          	j	80000714 <vsnprintf+0x680>
80001330:	00150513          	addi	a0,a0,1
80001334:	fe0a06e3          	beqz	s4,80001320 <vsnprintf+0x128c>
80001338:	000a0393          	mv	t2,s4
8000133c:	bd8ff06f          	j	80000714 <vsnprintf+0x680>
80001340:	03000e93          	li	t4,48
80001344:	01d10823          	sb	t4,16(sp)
80001348:	00230293          	addi	t0,t1,2
8000134c:	c2031ce3          	bnez	t1,80000f84 <vsnprintf+0xef0>
80001350:	00100293          	li	t0,1
80001354:	00000313          	li	t1,0
80001358:	00100e93          	li	t4,1
8000135c:	01010c13          	addi	s8,sp,16
80001360:	924ff06f          	j	80000484 <vsnprintf+0x3f0>
80001364:	07812e23          	sw	s8,124(sp)
80001368:	00000f13          	li	t5,0
8000136c:	ac5ff06f          	j	80000e30 <vsnprintf+0xd9c>
80001370:	fffe8e93          	addi	t4,t4,-1
80001374:	da031463          	bnez	t1,8000091c <vsnprintf+0x888>
80001378:	000f8693          	mv	a3,t6
8000137c:	e08ff06f          	j	80000984 <vsnprintf+0x8f0>
80001380:	00070f93          	mv	t6,a4
80001384:	a40f1063          	bnez	t5,800005c4 <vsnprintf+0x530>
80001388:	c6dff06f          	j	80000ff4 <vsnprintf+0xf60>
8000138c:	00000393          	li	t2,0
80001390:	02000313          	li	t1,32
80001394:	e0dff06f          	j	800011a0 <vsnprintf+0x110c>
80001398:	000e8293          	mv	t0,t4
8000139c:	8e8ff06f          	j	80000484 <vsnprintf+0x3f0>
800013a0:	00070f13          	mv	t5,a4
800013a4:	92dff06f          	j	80000cd0 <vsnprintf+0xc3c>
800013a8:	00070f13          	mv	t5,a4
800013ac:	8f8ff06f          	j	800004a4 <vsnprintf+0x410>
800013b0:	00058793          	mv	a5,a1
800013b4:	00180813          	addi	a6,a6,1
800013b8:	d79fe06f          	j	80000130 <vsnprintf+0x9c>

800013bc <printf>:
800013bc:	fb010113          	addi	sp,sp,-80
800013c0:	00001e37          	lui	t3,0x1
800013c4:	fffff2b7          	lui	t0,0xfffff
800013c8:	02912223          	sw	s1,36(sp)
800013cc:	02112623          	sw	ra,44(sp)
800013d0:	02812423          	sw	s0,40(sp)
800013d4:	fffff337          	lui	t1,0xfffff
800013d8:	00510133          	add	sp,sp,t0
800013dc:	010e0e93          	addi	t4,t3,16 # 1010 <_entry_offset+0x1010>
800013e0:	006e8eb3          	add	t4,t4,t1
800013e4:	01010313          	addi	t1,sp,16
800013e8:	01010f13          	addi	t5,sp,16
800013ec:	006e8333          	add	t1,t4,t1
800013f0:	024e0e93          	addi	t4,t3,36
800013f4:	00612623          	sw	t1,12(sp)
800013f8:	01ee8eb3          	add	t4,t4,t5
800013fc:	00bea023          	sw	a1,0(t4)
80001400:	028e0593          	addi	a1,t3,40
80001404:	01e585b3          	add	a1,a1,t5
80001408:	00c5a023          	sw	a2,0(a1)
8000140c:	02ce0613          	addi	a2,t3,44
80001410:	01e60633          	add	a2,a2,t5
80001414:	030e0e93          	addi	t4,t3,48
80001418:	00d62023          	sw	a3,0(a2)
8000141c:	01ee8eb3          	add	t4,t4,t5
80001420:	034e0313          	addi	t1,t3,52
80001424:	00050613          	mv	a2,a0
80001428:	00c12503          	lw	a0,12(sp)
8000142c:	00eea023          	sw	a4,0(t4)
80001430:	000e0713          	mv	a4,t3
80001434:	034e0e13          	addi	t3,t3,52
80001438:	01ee0e33          	add	t3,t3,t5
8000143c:	00fe2023          	sw	a5,0(t3)
80001440:	00070793          	mv	a5,a4
80001444:	03870713          	addi	a4,a4,56
80001448:	01e70733          	add	a4,a4,t5
8000144c:	03c78793          	addi	a5,a5,60
80001450:	01072023          	sw	a6,0(a4)
80001454:	01e787b3          	add	a5,a5,t5
80001458:	0117a023          	sw	a7,0(a5)
8000145c:	00c12783          	lw	a5,12(sp)
80001460:	00230333          	add	t1,t1,sp
80001464:	00030693          	mv	a3,t1
80001468:	000015b7          	lui	a1,0x1
8000146c:	fe67ae23          	sw	t1,-4(a5)
80001470:	c25fe0ef          	jal	80000094 <vsnprintf>
80001474:	00c12783          	lw	a5,12(sp)
80001478:	00050493          	mv	s1,a0
8000147c:	0007c503          	lbu	a0,0(a5)
80001480:	00050c63          	beqz	a0,80001498 <printf+0xdc>
80001484:	00178413          	addi	s0,a5,1
80001488:	be1fe0ef          	jal	80000068 <putch>
8000148c:	00044503          	lbu	a0,0(s0)
80001490:	00140413          	addi	s0,s0,1
80001494:	fe051ae3          	bnez	a0,80001488 <printf+0xcc>
80001498:	000012b7          	lui	t0,0x1
8000149c:	00510133          	add	sp,sp,t0
800014a0:	02c12083          	lw	ra,44(sp)
800014a4:	00048513          	mv	a0,s1
800014a8:	02812403          	lw	s0,40(sp)
800014ac:	02412483          	lw	s1,36(sp)
800014b0:	05010113          	addi	sp,sp,80
800014b4:	00008067          	ret

800014b8 <snprintf>:
800014b8:	fc010113          	addi	sp,sp,-64
800014bc:	02c10313          	addi	t1,sp,44
800014c0:	02d12623          	sw	a3,44(sp)
800014c4:	00030693          	mv	a3,t1
800014c8:	00112e23          	sw	ra,28(sp)
800014cc:	02e12823          	sw	a4,48(sp)
800014d0:	02f12a23          	sw	a5,52(sp)
800014d4:	03012c23          	sw	a6,56(sp)
800014d8:	03112e23          	sw	a7,60(sp)
800014dc:	00612623          	sw	t1,12(sp)
800014e0:	bb5fe0ef          	jal	80000094 <vsnprintf>
800014e4:	01c12083          	lw	ra,28(sp)
800014e8:	04010113          	addi	sp,sp,64
800014ec:	00008067          	ret
