
/home/mubai/ysyx-workbench/am-kernels/kernels/typing-game/build/typing-game-riscv32-nemu.elf:     file format elf32-littleriscv


Disassembly of section .text:

80000000 <_start>:
80000000:	00000413          	li	s0,0
80000004:	00016117          	auipc	sp,0x16
80000008:	ffc10113          	addi	sp,sp,-4 # 80016000 <_end>
8000000c:	0a9000ef          	jal	800008b4 <_trm_init>

80000010 <new_char>:
80000010:	ff010113          	addi	sp,sp,-16
80000014:	00912223          	sw	s1,4(sp)
80000018:	0000d497          	auipc	s1,0xd
8000001c:	c3448493          	addi	s1,s1,-972 # 8000cc4c <chars>
80000020:	00812423          	sw	s0,8(sp)
80000024:	00112623          	sw	ra,12(sp)
80000028:	00048793          	mv	a5,s1
8000002c:	00000413          	li	s0,0
80000030:	08000693          	li	a3,128
80000034:	00c0006f          	j	80000040 <new_char+0x30>
80000038:	00140413          	addi	s0,s0,1
8000003c:	08d40663          	beq	s0,a3,800000c8 <new_char+0xb8>
80000040:	0007c703          	lbu	a4,0(a5)
80000044:	01478793          	addi	a5,a5,20
80000048:	fe0718e3          	bnez	a4,80000038 <new_char+0x28>
8000004c:	01212023          	sw	s2,0(sp)
80000050:	80000937          	lui	s2,0x80000
80000054:	79d000ef          	jal	80000ff0 <rand>
80000058:	fff90913          	addi	s2,s2,-1 # 7fffffff <_entry_offset+0x7fffffff>
8000005c:	012577b3          	and	a5,a0,s2
80000060:	01a00713          	li	a4,26
80000064:	02e7e7b3          	rem	a5,a5,a4
80000068:	00241713          	slli	a4,s0,0x2
8000006c:	00870733          	add	a4,a4,s0
80000070:	00271713          	slli	a4,a4,0x2
80000074:	00e48433          	add	s0,s1,a4
80000078:	0000d497          	auipc	s1,0xd
8000007c:	5e84a483          	lw	s1,1512(s1) # 8000d660 <screen_w>
80000080:	ff948493          	addi	s1,s1,-7
80000084:	04178793          	addi	a5,a5,65
80000088:	00f40023          	sb	a5,0(s0)
8000008c:	765000ef          	jal	80000ff0 <rand>
80000090:	012577b3          	and	a5,a0,s2
80000094:	0297e7b3          	rem	a5,a5,s1
80000098:	00042423          	sw	zero,8(s0)
8000009c:	0000d497          	auipc	s1,0xd
800000a0:	5c04a483          	lw	s1,1472(s1) # 8000d65c <screen_h>
800000a4:	ff148493          	addi	s1,s1,-15
800000a8:	00f42223          	sw	a5,4(s0)
800000ac:	745000ef          	jal	80000ff0 <rand>
800000b0:	00f57793          	andi	a5,a0,15
800000b4:	02d78793          	addi	a5,a5,45
800000b8:	02f4c4b3          	div	s1,s1,a5
800000bc:	00012903          	lw	s2,0(sp)
800000c0:	00042823          	sw	zero,16(s0)
800000c4:	00942623          	sw	s1,12(s0)
800000c8:	00c12083          	lw	ra,12(sp)
800000cc:	00812403          	lw	s0,8(sp)
800000d0:	00412483          	lw	s1,4(sp)
800000d4:	01010113          	addi	sp,sp,16
800000d8:	00008067          	ret

800000dc <game_logic_update>:
800000dc:	00600793          	li	a5,6
800000e0:	02f567b3          	rem	a5,a0,a5
800000e4:	ff010113          	addi	sp,sp,-16
800000e8:	00112623          	sw	ra,12(sp)
800000ec:	0a078a63          	beqz	a5,800001a0 <game_logic_update+0xc4>
800000f0:	0000de17          	auipc	t3,0xd
800000f4:	564e0e13          	addi	t3,t3,1380 # 8000d654 <miss>
800000f8:	0000d597          	auipc	a1,0xd
800000fc:	5645a583          	lw	a1,1380(a1) # 8000d65c <screen_h>
80000100:	000e2503          	lw	a0,0(t3)
80000104:	ff058313          	addi	t1,a1,-16
80000108:	0000d797          	auipc	a5,0xd
8000010c:	b4478793          	addi	a5,a5,-1212 # 8000cc4c <chars>
80000110:	0000d617          	auipc	a2,0xd
80000114:	53c60613          	addi	a2,a2,1340 # 8000d64c <n.0>
80000118:	00000813          	li	a6,0
8000011c:	01e00893          	li	a7,30
80000120:	0180006f          	j	80000138 <game_logic_update+0x5c>
80000124:	00d7a823          	sw	a3,16(a5)
80000128:	00069463          	bnez	a3,80000130 <game_logic_update+0x54>
8000012c:	00078023          	sb	zero,0(a5)
80000130:	01478793          	addi	a5,a5,20
80000134:	04f60863          	beq	a2,a5,80000184 <game_logic_update+0xa8>
80000138:	0007c703          	lbu	a4,0(a5)
8000013c:	fe070ae3          	beqz	a4,80000130 <game_logic_update+0x54>
80000140:	0107a703          	lw	a4,16(a5)
80000144:	fff70693          	addi	a3,a4,-1
80000148:	fce04ee3          	bgtz	a4,80000124 <game_logic_update+0x48>
8000014c:	0087a703          	lw	a4,8(a5)
80000150:	00c7a683          	lw	a3,12(a5)
80000154:	00d70733          	add	a4,a4,a3
80000158:	00e7a423          	sw	a4,8(a5)
8000015c:	01070693          	addi	a3,a4,16
80000160:	02074c63          	bltz	a4,80000198 <game_logic_update+0xbc>
80000164:	fcb6c6e3          	blt	a3,a1,80000130 <game_logic_update+0x54>
80000168:	0007a623          	sw	zero,12(a5)
8000016c:	0067a423          	sw	t1,8(a5)
80000170:	0117a823          	sw	a7,16(a5)
80000174:	01478793          	addi	a5,a5,20
80000178:	00150513          	addi	a0,a0,1
8000017c:	00100813          	li	a6,1
80000180:	faf61ce3          	bne	a2,a5,80000138 <game_logic_update+0x5c>
80000184:	00080463          	beqz	a6,8000018c <game_logic_update+0xb0>
80000188:	00ae2023          	sw	a0,0(t3)
8000018c:	00c12083          	lw	ra,12(sp)
80000190:	01010113          	addi	sp,sp,16
80000194:	00008067          	ret
80000198:	00078023          	sb	zero,0(a5)
8000019c:	fc9ff06f          	j	80000164 <game_logic_update+0x88>
800001a0:	e71ff0ef          	jal	80000010 <new_char>
800001a4:	f4dff06f          	j	800000f0 <game_logic_update+0x14>

800001a8 <render>:
800001a8:	fb010113          	addi	sp,sp,-80
800001ac:	03712623          	sw	s7,44(sp)
800001b0:	0000db97          	auipc	s7,0xd
800001b4:	49cb8b93          	addi	s7,s7,1180 # 8000d64c <n.0>
800001b8:	000ba783          	lw	a5,0(s7)
800001bc:	04112623          	sw	ra,76(sp)
800001c0:	04812423          	sw	s0,72(sp)
800001c4:	04912223          	sw	s1,68(sp)
800001c8:	05212023          	sw	s2,64(sp)
800001cc:	03312e23          	sw	s3,60(sp)
800001d0:	03412c23          	sw	s4,56(sp)
800001d4:	03512a23          	sw	s5,52(sp)
800001d8:	03612823          	sw	s6,48(sp)
800001dc:	03812423          	sw	s8,40(sp)
800001e0:	1af05c63          	blez	a5,80000398 <render+0x1f0>
800001e4:	00003997          	auipc	s3,0x3
800001e8:	a6898993          	addi	s3,s3,-1432 # 80002c4c <x.2>
800001ec:	00003917          	auipc	s2,0x3
800001f0:	86090913          	addi	s2,s2,-1952 # 80002a4c <y.1>
800001f4:	00000413          	li	s0,0
800001f8:	00003b17          	auipc	s6,0x3
800001fc:	c54b0b13          	addi	s6,s6,-940 # 80002e4c <blank>
80000200:	00810493          	addi	s1,sp,8
80000204:	00800a93          	li	s5,8
80000208:	01000a13          	li	s4,16
8000020c:	00092783          	lw	a5,0(s2)
80000210:	0009a703          	lw	a4,0(s3)
80000214:	00048593          	mv	a1,s1
80000218:	00b00513          	li	a0,11
8000021c:	00f12623          	sw	a5,12(sp)
80000220:	00e12423          	sw	a4,8(sp)
80000224:	01612823          	sw	s6,16(sp)
80000228:	01512a23          	sw	s5,20(sp)
8000022c:	01412c23          	sw	s4,24(sp)
80000230:	00010e23          	sb	zero,28(sp)
80000234:	7ac000ef          	jal	800009e0 <ioe_write>
80000238:	000ba783          	lw	a5,0(s7)
8000023c:	00140413          	addi	s0,s0,1
80000240:	00498993          	addi	s3,s3,4
80000244:	00490913          	addi	s2,s2,4
80000248:	fcf442e3          	blt	s0,a5,8000020c <render+0x64>
8000024c:	0000d797          	auipc	a5,0xd
80000250:	4007a023          	sw	zero,1024(a5) # 8000d64c <n.0>
80000254:	0000d417          	auipc	s0,0xd
80000258:	9f840413          	addi	s0,s0,-1544 # 8000cc4c <chars>
8000025c:	0000dc17          	auipc	s8,0xd
80000260:	3f0c0c13          	addi	s8,s8,1008 # 8000d64c <n.0>
80000264:	00003b17          	auipc	s6,0x3
80000268:	9e8b0b13          	addi	s6,s6,-1560 # 80002c4c <x.2>
8000026c:	00002a97          	auipc	s5,0x2
80000270:	7e0a8a93          	addi	s5,s5,2016 # 80002a4c <y.1>
80000274:	00003a17          	auipc	s4,0x3
80000278:	dd8a0a13          	addi	s4,s4,-552 # 8000304c <texture>
8000027c:	00800993          	li	s3,8
80000280:	01000913          	li	s2,16
80000284:	00044703          	lbu	a4,0(s0)
80000288:	00048593          	mv	a1,s1
8000028c:	00b00513          	li	a0,11
80000290:	fbf70793          	addi	a5,a4,-65
80000294:	06070863          	beqz	a4,80000304 <render+0x15c>
80000298:	000ba703          	lw	a4,0(s7)
8000029c:	00442883          	lw	a7,4(s0)
800002a0:	00842803          	lw	a6,8(s0)
800002a4:	00c42303          	lw	t1,12(s0)
800002a8:	00271693          	slli	a3,a4,0x2
800002ac:	00db0e33          	add	t3,s6,a3
800002b0:	00170713          	addi	a4,a4,1
800002b4:	00da86b3          	add	a3,s5,a3
800002b8:	00133613          	seqz	a2,t1
800002bc:	00eba023          	sw	a4,0(s7)
800002c0:	011e2023          	sw	a7,0(t3)
800002c4:	0106a023          	sw	a6,0(a3)
800002c8:	40c00633          	neg	a2,a2
800002cc:	00000713          	li	a4,0
800002d0:	00604663          	bgtz	t1,800002dc <render+0x134>
800002d4:	fe667713          	andi	a4,a2,-26
800002d8:	03470713          	addi	a4,a4,52
800002dc:	00e787b3          	add	a5,a5,a4
800002e0:	00979793          	slli	a5,a5,0x9
800002e4:	014787b3          	add	a5,a5,s4
800002e8:	01112423          	sw	a7,8(sp)
800002ec:	01012623          	sw	a6,12(sp)
800002f0:	00f12823          	sw	a5,16(sp)
800002f4:	01312a23          	sw	s3,20(sp)
800002f8:	01212c23          	sw	s2,24(sp)
800002fc:	00010e23          	sb	zero,28(sp)
80000300:	6e0000ef          	jal	800009e0 <ioe_write>
80000304:	01440413          	addi	s0,s0,20
80000308:	f7841ee3          	bne	s0,s8,80000284 <render+0xdc>
8000030c:	00100793          	li	a5,1
80000310:	00048593          	mv	a1,s1
80000314:	00b00513          	li	a0,11
80000318:	00012423          	sw	zero,8(sp)
8000031c:	00012623          	sw	zero,12(sp)
80000320:	00012823          	sw	zero,16(sp)
80000324:	00012a23          	sw	zero,20(sp)
80000328:	00012c23          	sw	zero,24(sp)
8000032c:	00f10e23          	sb	a5,28(sp)
80000330:	02800413          	li	s0,40
80000334:	6ac000ef          	jal	800009e0 <ioe_write>
80000338:	00800513          	li	a0,8
8000033c:	fff40413          	addi	s0,s0,-1
80000340:	55c000ef          	jal	8000089c <putch>
80000344:	fe041ae3          	bnez	s0,80000338 <render+0x190>
80000348:	04812403          	lw	s0,72(sp)
8000034c:	04c12083          	lw	ra,76(sp)
80000350:	04412483          	lw	s1,68(sp)
80000354:	04012903          	lw	s2,64(sp)
80000358:	03c12983          	lw	s3,60(sp)
8000035c:	03812a03          	lw	s4,56(sp)
80000360:	03412a83          	lw	s5,52(sp)
80000364:	03012b03          	lw	s6,48(sp)
80000368:	02c12b83          	lw	s7,44(sp)
8000036c:	02812c03          	lw	s8,40(sp)
80000370:	0000d697          	auipc	a3,0xd
80000374:	2e06a683          	lw	a3,736(a3) # 8000d650 <wrong>
80000378:	0000d617          	auipc	a2,0xd
8000037c:	2dc62603          	lw	a2,732(a2) # 8000d654 <miss>
80000380:	0000d597          	auipc	a1,0xd
80000384:	2d85a583          	lw	a1,728(a1) # 8000d658 <hit>
80000388:	00002517          	auipc	a0,0x2
8000038c:	d6450513          	addi	a0,a0,-668 # 800020ec <_etext>
80000390:	05010113          	addi	sp,sp,80
80000394:	45d0106f          	j	80001ff0 <printf>
80000398:	00810493          	addi	s1,sp,8
8000039c:	eb1ff06f          	j	8000024c <render+0xa4>

800003a0 <check_hit>:
800003a0:	0000d817          	auipc	a6,0xd
800003a4:	8ac80813          	addi	a6,a6,-1876 # 8000cc4c <chars>
800003a8:	00080793          	mv	a5,a6
800003ac:	00000713          	li	a4,0
800003b0:	fff00593          	li	a1,-1
800003b4:	08000613          	li	a2,128
800003b8:	0100006f          	j	800003c8 <check_hit+0x28>
800003bc:	00170713          	addi	a4,a4,1
800003c0:	01478793          	addi	a5,a5,20
800003c4:	04c70263          	beq	a4,a2,80000408 <check_hit+0x68>
800003c8:	0007c683          	lbu	a3,0(a5)
800003cc:	fea698e3          	bne	a3,a0,800003bc <check_hit+0x1c>
800003d0:	00c7a683          	lw	a3,12(a5)
800003d4:	fed054e3          	blez	a3,800003bc <check_hit+0x1c>
800003d8:	00259693          	slli	a3,a1,0x2
800003dc:	00b686b3          	add	a3,a3,a1
800003e0:	00269693          	slli	a3,a3,0x2
800003e4:	00d806b3          	add	a3,a6,a3
800003e8:	0005c863          	bltz	a1,800003f8 <check_hit+0x58>
800003ec:	0087a883          	lw	a7,8(a5)
800003f0:	0086a683          	lw	a3,8(a3)
800003f4:	fd16d4e3          	bge	a3,a7,800003bc <check_hit+0x1c>
800003f8:	00070593          	mv	a1,a4
800003fc:	00170713          	addi	a4,a4,1
80000400:	01478793          	addi	a5,a5,20
80000404:	fcc712e3          	bne	a4,a2,800003c8 <check_hit+0x28>
80000408:	fff00793          	li	a5,-1
8000040c:	04f58463          	beq	a1,a5,80000454 <check_hit+0xb4>
80000410:	0000d717          	auipc	a4,0xd
80000414:	24c72703          	lw	a4,588(a4) # 8000d65c <screen_h>
80000418:	00f00793          	li	a5,15
8000041c:	40e787b3          	sub	a5,a5,a4
80000420:	01e00713          	li	a4,30
80000424:	02e7c7b3          	div	a5,a5,a4
80000428:	0000d617          	auipc	a2,0xd
8000042c:	23060613          	addi	a2,a2,560 # 8000d658 <hit>
80000430:	00062683          	lw	a3,0(a2)
80000434:	00259713          	slli	a4,a1,0x2
80000438:	00b70733          	add	a4,a4,a1
8000043c:	00271713          	slli	a4,a4,0x2
80000440:	00168693          	addi	a3,a3,1
80000444:	00e80833          	add	a6,a6,a4
80000448:	00d62023          	sw	a3,0(a2)
8000044c:	00f82623          	sw	a5,12(a6)
80000450:	00008067          	ret
80000454:	0000d717          	auipc	a4,0xd
80000458:	1fc70713          	addi	a4,a4,508 # 8000d650 <wrong>
8000045c:	00072783          	lw	a5,0(a4)
80000460:	00178793          	addi	a5,a5,1
80000464:	00f72023          	sw	a5,0(a4)
80000468:	00008067          	ret

8000046c <video_init>:
8000046c:	fb010113          	addi	sp,sp,-80
80000470:	04112623          	sw	ra,76(sp)
80000474:	04812423          	sw	s0,72(sp)
80000478:	05212023          	sw	s2,64(sp)
8000047c:	05010413          	addi	s0,sp,80
80000480:	03412c23          	sw	s4,56(sp)
80000484:	04912223          	sw	s1,68(sp)
80000488:	03312e23          	sw	s3,60(sp)
8000048c:	03512a23          	sw	s5,52(sp)
80000490:	03612823          	sw	s6,48(sp)
80000494:	03712623          	sw	s7,44(sp)
80000498:	fb840593          	addi	a1,s0,-72
8000049c:	00900513          	li	a0,9
800004a0:	524000ef          	jal	800009c4 <ioe_read>
800004a4:	fbc42783          	lw	a5,-68(s0)
800004a8:	fb840593          	addi	a1,s0,-72
800004ac:	0000d917          	auipc	s2,0xd
800004b0:	1b490913          	addi	s2,s2,436 # 8000d660 <screen_w>
800004b4:	00900513          	li	a0,9
800004b8:	00f92023          	sw	a5,0(s2)
800004bc:	508000ef          	jal	800009c4 <ioe_read>
800004c0:	fc042583          	lw	a1,-64(s0)
800004c4:	0000da17          	auipc	s4,0xd
800004c8:	198a0a13          	addi	s4,s4,408 # 8000d65c <screen_h>
800004cc:	002a1737          	lui	a4,0x2a1
800004d0:	00ba2023          	sw	a1,0(s4)
800004d4:	00003797          	auipc	a5,0x3
800004d8:	97878793          	addi	a5,a5,-1672 # 80002e4c <blank>
800004dc:	00003697          	auipc	a3,0x3
800004e0:	b7068693          	addi	a3,a3,-1168 # 8000304c <texture>
800004e4:	a2970713          	addi	a4,a4,-1495 # 2a0a29 <_entry_offset+0x2a0a29>
800004e8:	00e7a023          	sw	a4,0(a5)
800004ec:	00478793          	addi	a5,a5,4
800004f0:	fed79ce3          	bne	a5,a3,800004e8 <video_init+0x7c>
800004f4:	00092783          	lw	a5,0(s2)
800004f8:	002a1637          	lui	a2,0x2a1
800004fc:	00000693          	li	a3,0
80000500:	00279713          	slli	a4,a5,0x2
80000504:	00f70713          	addi	a4,a4,15
80000508:	ff077713          	andi	a4,a4,-16
8000050c:	40e10133          	sub	sp,sp,a4
80000510:	00010993          	mv	s3,sp
80000514:	00098713          	mv	a4,s3
80000518:	a2960613          	addi	a2,a2,-1495 # 2a0a29 <_entry_offset+0x2a0a29>
8000051c:	00f05a63          	blez	a5,80000530 <video_init+0xc4>
80000520:	00c72023          	sw	a2,0(a4)
80000524:	00168693          	addi	a3,a3,1
80000528:	00470713          	addi	a4,a4,4
8000052c:	fed79ae3          	bne	a5,a3,80000520 <video_init+0xb4>
80000530:	00000493          	li	s1,0
80000534:	00100a93          	li	s5,1
80000538:	00b04663          	bgtz	a1,80000544 <video_init+0xd8>
8000053c:	0380006f          	j	80000574 <video_init+0x108>
80000540:	00092783          	lw	a5,0(s2)
80000544:	fb840593          	addi	a1,s0,-72
80000548:	00b00513          	li	a0,11
8000054c:	fa942e23          	sw	s1,-68(s0)
80000550:	fcf42223          	sw	a5,-60(s0)
80000554:	fa042c23          	sw	zero,-72(s0)
80000558:	fd342023          	sw	s3,-64(s0)
8000055c:	fd542423          	sw	s5,-56(s0)
80000560:	fc040623          	sb	zero,-52(s0)
80000564:	47c000ef          	jal	800009e0 <ioe_write>
80000568:	000a2783          	lw	a5,0(s4)
8000056c:	00148493          	addi	s1,s1,1
80000570:	fcf4c8e3          	blt	s1,a5,80000540 <video_init+0xd4>
80000574:	002a1837          	lui	a6,0x2a1
80000578:	0000d2b7          	lui	t0,0xd
8000057c:	00eeffb7          	lui	t6,0xeef
80000580:	00ff0f37          	lui	t5,0xff0
80000584:	00007e37          	lui	t3,0x7
80000588:	00003337          	lui	t1,0x3
8000058c:	00001bb7          	lui	s7,0x1
80000590:	00002b17          	auipc	s6,0x2
80000594:	118b0b13          	addi	s6,s6,280 # 800026a8 <font>
80000598:	00003a97          	auipc	s5,0x3
8000059c:	ab4a8a93          	addi	s5,s5,-1356 # 8000304c <texture>
800005a0:	00000a13          	li	s4,0
800005a4:	a2980813          	addi	a6,a6,-1495 # 2a0a29 <_entry_offset+0x2a0a29>
800005a8:	c3328293          	addi	t0,t0,-973 # cc33 <_entry_offset+0xcc33>
800005ac:	eeef8f93          	addi	t6,t6,-274 # eeeeee <_entry_offset+0xeeeeee>
800005b0:	033f0f13          	addi	t5,t5,51 # ff0033 <_entry_offset+0xff0033>
800005b4:	800e0e13          	addi	t3,t3,-2048 # 6800 <_entry_offset+0x6800>
800005b8:	40030313          	addi	t1,t1,1024 # 3400 <_entry_offset+0x3400>
800005bc:	fff00e93          	li	t4,-1
800005c0:	08000993          	li	s3,128
800005c4:	d00b8b93          	addi	s7,s7,-768 # d00 <_entry_offset+0xd00>
800005c8:	000a8913          	mv	s2,s5
800005cc:	000b0493          	mv	s1,s6
800005d0:	00000393          	li	t2,0
800005d4:	0004c883          	lbu	a7,0(s1)
800005d8:	00090793          	mv	a5,s2
800005dc:	00700713          	li	a4,7
800005e0:	0300006f          	j	80000610 <video_init+0x1a4>
800005e4:	01c785b3          	add	a1,a5,t3
800005e8:	00028513          	mv	a0,t0
800005ec:	000f8693          	mv	a3,t6
800005f0:	00a5a023          	sw	a0,0(a1)
800005f4:	00d7a023          	sw	a3,0(a5)
800005f8:	000f0613          	mv	a2,t5
800005fc:	006786b3          	add	a3,a5,t1
80000600:	00c6a023          	sw	a2,0(a3)
80000604:	fff70713          	addi	a4,a4,-1
80000608:	00478793          	addi	a5,a5,4
8000060c:	03d70e63          	beq	a4,t4,80000648 <video_init+0x1dc>
80000610:	40e8d6b3          	sra	a3,a7,a4
80000614:	0016f693          	andi	a3,a3,1
80000618:	fc0696e3          	bnez	a3,800005e4 <video_init+0x178>
8000061c:	01c785b3          	add	a1,a5,t3
80000620:	00080513          	mv	a0,a6
80000624:	00080693          	mv	a3,a6
80000628:	00a5a023          	sw	a0,0(a1)
8000062c:	00d7a023          	sw	a3,0(a5)
80000630:	00080613          	mv	a2,a6
80000634:	006786b3          	add	a3,a5,t1
80000638:	00c6a023          	sw	a2,0(a3)
8000063c:	fff70713          	addi	a4,a4,-1
80000640:	00478793          	addi	a5,a5,4
80000644:	fdd716e3          	bne	a4,t4,80000610 <video_init+0x1a4>
80000648:	00838393          	addi	t2,t2,8
8000064c:	00148493          	addi	s1,s1,1
80000650:	02090913          	addi	s2,s2,32
80000654:	f93390e3          	bne	t2,s3,800005d4 <video_init+0x168>
80000658:	080a0a13          	addi	s4,s4,128
8000065c:	010b0b13          	addi	s6,s6,16
80000660:	200a8a93          	addi	s5,s5,512
80000664:	f77a12e3          	bne	s4,s7,800005c8 <video_init+0x15c>
80000668:	fb040113          	addi	sp,s0,-80
8000066c:	04c12083          	lw	ra,76(sp)
80000670:	04812403          	lw	s0,72(sp)
80000674:	04412483          	lw	s1,68(sp)
80000678:	04012903          	lw	s2,64(sp)
8000067c:	03c12983          	lw	s3,60(sp)
80000680:	03812a03          	lw	s4,56(sp)
80000684:	03412a83          	lw	s5,52(sp)
80000688:	03012b03          	lw	s6,48(sp)
8000068c:	02c12b83          	lw	s7,44(sp)
80000690:	05010113          	addi	sp,sp,80
80000694:	00008067          	ret

80000698 <main>:
80000698:	fc010113          	addi	sp,sp,-64
8000069c:	02112e23          	sw	ra,60(sp)
800006a0:	02812c23          	sw	s0,56(sp)
800006a4:	2c4000ef          	jal	80000968 <ioe_init>
800006a8:	dc5ff0ef          	jal	8000046c <video_init>
800006ac:	00810593          	addi	a1,sp,8
800006b0:	00400513          	li	a0,4
800006b4:	310000ef          	jal	800009c4 <ioe_read>
800006b8:	00814783          	lbu	a5,8(sp)
800006bc:	08079063          	bnez	a5,8000073c <main+0xa4>
800006c0:	00002417          	auipc	s0,0x2
800006c4:	a4c40413          	addi	s0,s0,-1460 # 8000210c <_etext+0x20>
800006c8:	04100513          	li	a0,65
800006cc:	1d0000ef          	jal	8000089c <putch>
800006d0:	00144503          	lbu	a0,1(s0)
800006d4:	00140413          	addi	s0,s0,1
800006d8:	fe051ae3          	bnez	a0,800006cc <main+0x34>
800006dc:	00002417          	auipc	s0,0x2
800006e0:	a3c40413          	addi	s0,s0,-1476 # 80002118 <_etext+0x2c>
800006e4:	07200513          	li	a0,114
800006e8:	1b4000ef          	jal	8000089c <putch>
800006ec:	00144503          	lbu	a0,1(s0)
800006f0:	00140413          	addi	s0,s0,1
800006f4:	fe051ae3          	bnez	a0,800006e8 <main+0x50>
800006f8:	00002417          	auipc	s0,0x2
800006fc:	a3040413          	addi	s0,s0,-1488 # 80002128 <_etext+0x3c>
80000700:	02000513          	li	a0,32
80000704:	198000ef          	jal	8000089c <putch>
80000708:	00144503          	lbu	a0,1(s0)
8000070c:	00140413          	addi	s0,s0,1
80000710:	fe051ae3          	bnez	a0,80000704 <main+0x6c>
80000714:	00100513          	li	a0,1
80000718:	02912a23          	sw	s1,52(sp)
8000071c:	03212823          	sw	s2,48(sp)
80000720:	03312623          	sw	s3,44(sp)
80000724:	03412423          	sw	s4,40(sp)
80000728:	03512223          	sw	s5,36(sp)
8000072c:	03612023          	sw	s6,32(sp)
80000730:	01712e23          	sw	s7,28(sp)
80000734:	01812c23          	sw	s8,24(sp)
80000738:	170000ef          	jal	800008a8 <halt>
8000073c:	00810593          	addi	a1,sp,8
80000740:	00700513          	li	a0,7
80000744:	280000ef          	jal	800009c4 <ioe_read>
80000748:	00814783          	lbu	a5,8(sp)
8000074c:	04079e63          	bnez	a5,800007a8 <main+0x110>
80000750:	00002417          	auipc	s0,0x2
80000754:	9bc40413          	addi	s0,s0,-1604 # 8000210c <_etext+0x20>
80000758:	04100513          	li	a0,65
8000075c:	140000ef          	jal	8000089c <putch>
80000760:	00144503          	lbu	a0,1(s0)
80000764:	00140413          	addi	s0,s0,1
80000768:	fe051ae3          	bnez	a0,8000075c <main+0xc4>
8000076c:	00002417          	auipc	s0,0x2
80000770:	a0840413          	addi	s0,s0,-1528 # 80002174 <_etext+0x88>
80000774:	07200513          	li	a0,114
80000778:	124000ef          	jal	8000089c <putch>
8000077c:	00144503          	lbu	a0,1(s0)
80000780:	00140413          	addi	s0,s0,1
80000784:	fe051ae3          	bnez	a0,80000778 <main+0xe0>
80000788:	00002417          	auipc	s0,0x2
8000078c:	a0040413          	addi	s0,s0,-1536 # 80002188 <_etext+0x9c>
80000790:	02000513          	li	a0,32
80000794:	108000ef          	jal	8000089c <putch>
80000798:	00144503          	lbu	a0,1(s0)
8000079c:	00140413          	addi	s0,s0,1
800007a0:	fe051ae3          	bnez	a0,80000794 <main+0xfc>
800007a4:	f71ff06f          	j	80000714 <main+0x7c>
800007a8:	00002517          	auipc	a0,0x2
800007ac:	a2c50513          	addi	a0,a0,-1492 # 800021d4 <_etext+0xe8>
800007b0:	02912a23          	sw	s1,52(sp)
800007b4:	03212823          	sw	s2,48(sp)
800007b8:	03312623          	sw	s3,44(sp)
800007bc:	03412423          	sw	s4,40(sp)
800007c0:	03512223          	sw	s5,36(sp)
800007c4:	03612023          	sw	s6,32(sp)
800007c8:	01712e23          	sw	s7,28(sp)
800007cc:	01812c23          	sw	s8,24(sp)
800007d0:	021010ef          	jal	80001ff0 <printf>
800007d4:	00810593          	addi	a1,sp,8
800007d8:	00600513          	li	a0,6
800007dc:	1e8000ef          	jal	800009c4 <ioe_read>
800007e0:	00812b03          	lw	s6,8(sp)
800007e4:	00c12a83          	lw	s5,12(sp)
800007e8:	00008937          	lui	s2,0x8
800007ec:	00000b93          	li	s7,0
800007f0:	00000413          	li	s0,0
800007f4:	23590913          	addi	s2,s2,565 # 8235 <_entry_offset+0x8235>
800007f8:	00000993          	li	s3,0
800007fc:	00100493          	li	s1,1
80000800:	00002a17          	auipc	s4,0x2
80000804:	da8a0a13          	addi	s4,s4,-600 # 800025a8 <lut>
80000808:	00810593          	addi	a1,sp,8
8000080c:	00600513          	li	a0,6
80000810:	1b4000ef          	jal	800009c4 <ioe_read>
80000814:	00812583          	lw	a1,8(sp)
80000818:	00c12783          	lw	a5,12(sp)
8000081c:	00090613          	mv	a2,s2
80000820:	41658533          	sub	a0,a1,s6
80000824:	00a5b5b3          	sltu	a1,a1,a0
80000828:	415787b3          	sub	a5,a5,s5
8000082c:	00098693          	mv	a3,s3
80000830:	40b785b3          	sub	a1,a5,a1
80000834:	6ac000ef          	jal	80000ee0 <__udivdi3>
80000838:	00050c13          	mv	s8,a0
8000083c:	00a45a63          	bge	s0,a0,80000850 <main+0x1b8>
80000840:	00040513          	mv	a0,s0
80000844:	00140413          	addi	s0,s0,1
80000848:	895ff0ef          	jal	800000dc <game_logic_update>
8000084c:	fe8c1ae3          	bne	s8,s0,80000840 <main+0x1a8>
80000850:	00810593          	addi	a1,sp,8
80000854:	00800513          	li	a0,8
80000858:	16c000ef          	jal	800009c4 <ioe_read>
8000085c:	00c12783          	lw	a5,12(sp)
80000860:	00814703          	lbu	a4,8(sp)
80000864:	02078063          	beqz	a5,80000884 <main+0x1ec>
80000868:	fe0704e3          	beqz	a4,80000850 <main+0x1b8>
8000086c:	02978463          	beq	a5,s1,80000894 <main+0x1fc>
80000870:	00fa07b3          	add	a5,s4,a5
80000874:	0007c503          	lbu	a0,0(a5)
80000878:	fc050ce3          	beqz	a0,80000850 <main+0x1b8>
8000087c:	b25ff0ef          	jal	800003a0 <check_hit>
80000880:	fd1ff06f          	j	80000850 <main+0x1b8>
80000884:	f88bd2e3          	bge	s7,s0,80000808 <main+0x170>
80000888:	921ff0ef          	jal	800001a8 <render>
8000088c:	00040b93          	mv	s7,s0
80000890:	f79ff06f          	j	80000808 <main+0x170>
80000894:	00000513          	li	a0,0
80000898:	010000ef          	jal	800008a8 <halt>

8000089c <putch>:
8000089c:	a00007b7          	lui	a5,0xa0000
800008a0:	3ea78c23          	sb	a0,1016(a5) # a00003f8 <_end+0x1ffea3f8>
800008a4:	00008067          	ret

800008a8 <halt>:
800008a8:	00050513          	mv	a0,a0
800008ac:	00100073          	ebreak
800008b0:	0000006f          	j	800008b0 <halt+0x8>

800008b4 <_trm_init>:
800008b4:	ff010113          	addi	sp,sp,-16
800008b8:	00002517          	auipc	a0,0x2
800008bc:	9d850513          	addi	a0,a0,-1576 # 80002290 <mainargs>
800008c0:	00112623          	sw	ra,12(sp)
800008c4:	dd5ff0ef          	jal	80000698 <main>
800008c8:	00050513          	mv	a0,a0
800008cc:	00100073          	ebreak
800008d0:	0000006f          	j	800008d0 <_trm_init+0x1c>

800008d4 <__am_timer_config>:
800008d4:	00100793          	li	a5,1
800008d8:	00f50023          	sb	a5,0(a0)
800008dc:	00f500a3          	sb	a5,1(a0)
800008e0:	00008067          	ret

800008e4 <__am_input_config>:
800008e4:	00100793          	li	a5,1
800008e8:	00f50023          	sb	a5,0(a0)
800008ec:	00008067          	ret

800008f0 <__am_uart_config>:
800008f0:	00050023          	sb	zero,0(a0)
800008f4:	00008067          	ret

800008f8 <__am_net_config>:
800008f8:	00050023          	sb	zero,0(a0)
800008fc:	00008067          	ret

80000900 <fail>:
80000900:	ff010113          	addi	sp,sp,-16
80000904:	00812423          	sw	s0,8(sp)
80000908:	00112623          	sw	ra,12(sp)
8000090c:	00002417          	auipc	s0,0x2
80000910:	80040413          	addi	s0,s0,-2048 # 8000210c <_etext+0x20>
80000914:	04100513          	li	a0,65
80000918:	f85ff0ef          	jal	8000089c <putch>
8000091c:	00144503          	lbu	a0,1(s0)
80000920:	00140413          	addi	s0,s0,1
80000924:	fe051ae3          	bnez	a0,80000918 <fail+0x18>
80000928:	00002417          	auipc	s0,0x2
8000092c:	8c040413          	addi	s0,s0,-1856 # 800021e8 <_etext+0xfc>
80000930:	06100513          	li	a0,97
80000934:	f69ff0ef          	jal	8000089c <putch>
80000938:	00144503          	lbu	a0,1(s0)
8000093c:	00140413          	addi	s0,s0,1
80000940:	fe051ae3          	bnez	a0,80000934 <fail+0x34>
80000944:	00002417          	auipc	s0,0x2
80000948:	8c040413          	addi	s0,s0,-1856 # 80002204 <_etext+0x118>
8000094c:	02000513          	li	a0,32
80000950:	f4dff0ef          	jal	8000089c <putch>
80000954:	00144503          	lbu	a0,1(s0)
80000958:	00140413          	addi	s0,s0,1
8000095c:	fe051ae3          	bnez	a0,80000950 <fail+0x50>
80000960:	00100513          	li	a0,1
80000964:	f45ff0ef          	jal	800008a8 <halt>

80000968 <ioe_init>:
80000968:	ff010113          	addi	sp,sp,-16
8000096c:	00112623          	sw	ra,12(sp)
80000970:	00002797          	auipc	a5,0x2
80000974:	ed878793          	addi	a5,a5,-296 # 80002848 <lut>
80000978:	00002697          	auipc	a3,0x2
8000097c:	0d068693          	addi	a3,a3,208 # 80002a48 <next>
80000980:	00000617          	auipc	a2,0x0
80000984:	f8060613          	addi	a2,a2,-128 # 80000900 <fail>
80000988:	00c0006f          	j	80000994 <ioe_init+0x2c>
8000098c:	00478793          	addi	a5,a5,4
80000990:	00d78c63          	beq	a5,a3,800009a8 <ioe_init+0x40>
80000994:	0007a703          	lw	a4,0(a5)
80000998:	fe071ae3          	bnez	a4,8000098c <ioe_init+0x24>
8000099c:	00c7a023          	sw	a2,0(a5)
800009a0:	00478793          	addi	a5,a5,4
800009a4:	fed798e3          	bne	a5,a3,80000994 <ioe_init+0x2c>
800009a8:	0c0000ef          	jal	80000a68 <__am_gpu_init>
800009ac:	050000ef          	jal	800009fc <__am_timer_init>
800009b0:	19c000ef          	jal	80000b4c <__am_audio_init>
800009b4:	00c12083          	lw	ra,12(sp)
800009b8:	00100513          	li	a0,1
800009bc:	01010113          	addi	sp,sp,16
800009c0:	00008067          	ret

800009c4 <ioe_read>:
800009c4:	00251513          	slli	a0,a0,0x2
800009c8:	00002797          	auipc	a5,0x2
800009cc:	e8078793          	addi	a5,a5,-384 # 80002848 <lut>
800009d0:	00a787b3          	add	a5,a5,a0
800009d4:	0007a783          	lw	a5,0(a5)
800009d8:	00058513          	mv	a0,a1
800009dc:	00078067          	jr	a5

800009e0 <ioe_write>:
800009e0:	00251513          	slli	a0,a0,0x2
800009e4:	00002797          	auipc	a5,0x2
800009e8:	e6478793          	addi	a5,a5,-412 # 80002848 <lut>
800009ec:	00a787b3          	add	a5,a5,a0
800009f0:	0007a783          	lw	a5,0(a5)
800009f4:	00058513          	mv	a0,a1
800009f8:	00078067          	jr	a5

800009fc <__am_timer_init>:
800009fc:	00008067          	ret

80000a00 <__am_timer_uptime>:
80000a00:	a0000737          	lui	a4,0xa0000
80000a04:	a00007b7          	lui	a5,0xa0000
80000a08:	04870713          	addi	a4,a4,72 # a0000048 <_end+0x1ffea048>
80000a0c:	04c7a683          	lw	a3,76(a5) # a000004c <_end+0x1ffea04c>
80000a10:	00072703          	lw	a4,0(a4)
80000a14:	00d52223          	sw	a3,4(a0)
80000a18:	00e52023          	sw	a4,0(a0)
80000a1c:	00008067          	ret

80000a20 <__am_timer_rtc>:
80000a20:	76c00793          	li	a5,1900
80000a24:	00052a23          	sw	zero,20(a0)
80000a28:	00052823          	sw	zero,16(a0)
80000a2c:	00052623          	sw	zero,12(a0)
80000a30:	00052423          	sw	zero,8(a0)
80000a34:	00052223          	sw	zero,4(a0)
80000a38:	00f52023          	sw	a5,0(a0)
80000a3c:	00008067          	ret

80000a40 <__am_input_keybrd>:
80000a40:	a00006b7          	lui	a3,0xa0000
80000a44:	0606a783          	lw	a5,96(a3) # a0000060 <_end+0x1ffea060>
80000a48:	ffff8637          	lui	a2,0xffff8
80000a4c:	fff60613          	addi	a2,a2,-1 # ffff7fff <_end+0x7ffe1fff>
80000a50:	00f7d713          	srli	a4,a5,0xf
80000a54:	00177713          	andi	a4,a4,1
80000a58:	00c7f7b3          	and	a5,a5,a2
80000a5c:	00e50023          	sb	a4,0(a0)
80000a60:	00f52223          	sw	a5,4(a0)
80000a64:	00008067          	ret

80000a68 <__am_gpu_init>:
80000a68:	00008067          	ret

80000a6c <__am_gpu_config>:
80000a6c:	a00006b7          	lui	a3,0xa0000
80000a70:	1006a783          	lw	a5,256(a3) # a0000100 <_end+0x1ffea100>
80000a74:	00100693          	li	a3,1
80000a78:	00d51023          	sh	a3,0(a0)
80000a7c:	0107d613          	srli	a2,a5,0x10
80000a80:	01079793          	slli	a5,a5,0x10
80000a84:	0107d793          	srli	a5,a5,0x10
80000a88:	02f60733          	mul	a4,a2,a5
80000a8c:	00f52423          	sw	a5,8(a0)
80000a90:	00c52223          	sw	a2,4(a0)
80000a94:	00271793          	slli	a5,a4,0x2
80000a98:	00f52623          	sw	a5,12(a0)
80000a9c:	00008067          	ret

80000aa0 <__am_gpu_fbdraw>:
80000aa0:	00c52783          	lw	a5,12(a0)
80000aa4:	08f05263          	blez	a5,80000b28 <__am_gpu_fbdraw+0x88>
80000aa8:	01052f03          	lw	t5,16(a0)
80000aac:	07e05e63          	blez	t5,80000b28 <__am_gpu_fbdraw+0x88>
80000ab0:	a00006b7          	lui	a3,0xa0000
80000ab4:	1006a703          	lw	a4,256(a3) # a0000100 <_end+0x1ffea100>
80000ab8:	00452603          	lw	a2,4(a0)
80000abc:	00052e03          	lw	t3,0(a0)
80000ac0:	01075713          	srli	a4,a4,0x10
80000ac4:	02c70633          	mul	a2,a4,a2
80000ac8:	00852303          	lw	t1,8(a0)
80000acc:	40f70733          	sub	a4,a4,a5
80000ad0:	00279f93          	slli	t6,a5,0x2
80000ad4:	40f007b3          	neg	a5,a5
80000ad8:	00271e93          	slli	t4,a4,0x2
80000adc:	01f305b3          	add	a1,t1,t6
80000ae0:	00000893          	li	a7,0
80000ae4:	a1000837          	lui	a6,0xa1000
80000ae8:	01c60633          	add	a2,a2,t3
80000aec:	00261613          	slli	a2,a2,0x2
80000af0:	40660633          	sub	a2,a2,t1
80000af4:	00379e13          	slli	t3,a5,0x3
80000af8:	41f58333          	sub	t1,a1,t6
80000afc:	00030793          	mv	a5,t1
80000b00:	0007a683          	lw	a3,0(a5)
80000b04:	00c78733          	add	a4,a5,a2
80000b08:	00e80733          	add	a4,a6,a4
80000b0c:	00d72023          	sw	a3,0(a4)
80000b10:	00478793          	addi	a5,a5,4
80000b14:	feb796e3          	bne	a5,a1,80000b00 <__am_gpu_fbdraw+0x60>
80000b18:	00188893          	addi	a7,a7,1
80000b1c:	01d60633          	add	a2,a2,t4
80000b20:	41c305b3          	sub	a1,t1,t3
80000b24:	fd1f1ae3          	bne	t5,a7,80000af8 <__am_gpu_fbdraw+0x58>
80000b28:	01454783          	lbu	a5,20(a0)
80000b2c:	00078863          	beqz	a5,80000b3c <__am_gpu_fbdraw+0x9c>
80000b30:	a00007b7          	lui	a5,0xa0000
80000b34:	00100713          	li	a4,1
80000b38:	10e7a223          	sw	a4,260(a5) # a0000104 <_end+0x1ffea104>
80000b3c:	00008067          	ret

80000b40 <__am_gpu_status>:
80000b40:	00100793          	li	a5,1
80000b44:	00f50023          	sb	a5,0(a0)
80000b48:	00008067          	ret

80000b4c <__am_audio_init>:
80000b4c:	00008067          	ret

80000b50 <__am_audio_config>:
80000b50:	00050023          	sb	zero,0(a0)
80000b54:	00008067          	ret

80000b58 <__am_audio_ctrl>:
80000b58:	00008067          	ret

80000b5c <__am_audio_status>:
80000b5c:	00052023          	sw	zero,0(a0)
80000b60:	00008067          	ret

80000b64 <__am_audio_play>:
80000b64:	00008067          	ret

80000b68 <__am_disk_config>:
80000b68:	00050023          	sb	zero,0(a0)
80000b6c:	00008067          	ret

80000b70 <__am_disk_status>:
80000b70:	00008067          	ret

80000b74 <__am_disk_blkio>:
80000b74:	00008067          	ret

80000b78 <__udivmoddi4>:
80000b78:	fd010113          	addi	sp,sp,-48
80000b7c:	01312e23          	sw	s3,28(sp)
80000b80:	01412c23          	sw	s4,24(sp)
80000b84:	01612823          	sw	s6,16(sp)
80000b88:	01712623          	sw	s7,12(sp)
80000b8c:	02112623          	sw	ra,44(sp)
80000b90:	00068b13          	mv	s6,a3
80000b94:	00050993          	mv	s3,a0
80000b98:	00060a13          	mv	s4,a2
80000b9c:	00070b93          	mv	s7,a4
80000ba0:	02059e63          	bnez	a1,80000bdc <__udivmoddi4+0x64>
80000ba4:	1a069263          	bnez	a3,80000d48 <__udivmoddi4+0x1d0>
80000ba8:	00070863          	beqz	a4,80000bb8 <__udivmoddi4+0x40>
80000bac:	02c577b3          	remu	a5,a0,a2
80000bb0:	00072223          	sw	zero,4(a4)
80000bb4:	00f72023          	sw	a5,0(a4)
80000bb8:	0349d533          	divu	a0,s3,s4
80000bbc:	00000593          	li	a1,0
80000bc0:	02c12083          	lw	ra,44(sp)
80000bc4:	01c12983          	lw	s3,28(sp)
80000bc8:	01812a03          	lw	s4,24(sp)
80000bcc:	01012b03          	lw	s6,16(sp)
80000bd0:	00c12b83          	lw	s7,12(sp)
80000bd4:	03010113          	addi	sp,sp,48
80000bd8:	00008067          	ret
80000bdc:	02912223          	sw	s1,36(sp)
80000be0:	03212023          	sw	s2,32(sp)
80000be4:	01512a23          	sw	s5,20(sp)
80000be8:	02812423          	sw	s0,40(sp)
80000bec:	00058913          	mv	s2,a1
80000bf0:	00058493          	mv	s1,a1
80000bf4:	00060a93          	mv	s5,a2
80000bf8:	0e061e63          	bnez	a2,80000cf4 <__udivmoddi4+0x17c>
80000bfc:	1c068063          	beqz	a3,80000dbc <__udivmoddi4+0x244>
80000c00:	22050a63          	beqz	a0,80000e34 <__udivmoddi4+0x2bc>
80000c04:	fff68793          	addi	a5,a3,-1
80000c08:	00d7f733          	and	a4,a5,a3
80000c0c:	28070263          	beqz	a4,80000e90 <__udivmoddi4+0x318>
80000c10:	00068513          	mv	a0,a3
80000c14:	2d4000ef          	jal	80000ee8 <__clzsi2>
80000c18:	00050413          	mv	s0,a0
80000c1c:	00090513          	mv	a0,s2
80000c20:	2c8000ef          	jal	80000ee8 <__clzsi2>
80000c24:	40a406b3          	sub	a3,s0,a0
80000c28:	01e00793          	li	a5,30
80000c2c:	18d7ea63          	bltu	a5,a3,80000dc0 <__udivmoddi4+0x248>
80000c30:	00168693          	addi	a3,a3,1
80000c34:	02000793          	li	a5,32
80000c38:	40d787b3          	sub	a5,a5,a3
80000c3c:	00f91633          	sll	a2,s2,a5
80000c40:	00d9d733          	srl	a4,s3,a3
80000c44:	00d95433          	srl	s0,s2,a3
80000c48:	00f99833          	sll	a6,s3,a5
80000c4c:	00e664b3          	or	s1,a2,a4
80000c50:	00000713          	li	a4,0
80000c54:	01f85793          	srli	a5,a6,0x1f
80000c58:	00149593          	slli	a1,s1,0x1
80000c5c:	00f5e5b3          	or	a1,a1,a5
80000c60:	01f4d493          	srli	s1,s1,0x1f
80000c64:	00141793          	slli	a5,s0,0x1
80000c68:	0097e7b3          	or	a5,a5,s1
80000c6c:	40ba0333          	sub	t1,s4,a1
80000c70:	006a3633          	sltu	a2,s4,t1
80000c74:	40fb08b3          	sub	a7,s6,a5
80000c78:	40c888b3          	sub	a7,a7,a2
80000c7c:	00133313          	seqz	t1,t1
80000c80:	406888b3          	sub	a7,a7,t1
80000c84:	41f8d313          	srai	t1,a7,0x1f
80000c88:	014374b3          	and	s1,t1,s4
80000c8c:	409584b3          	sub	s1,a1,s1
80000c90:	01637333          	and	t1,t1,s6
80000c94:	01fad613          	srli	a2,s5,0x1f
80000c98:	00181813          	slli	a6,a6,0x1
80000c9c:	001a9a93          	slli	s5,s5,0x1
80000ca0:	0095b5b3          	sltu	a1,a1,s1
80000ca4:	406787b3          	sub	a5,a5,t1
80000ca8:	fff68693          	addi	a3,a3,-1
80000cac:	00eaeab3          	or	s5,s5,a4
80000cb0:	00c86833          	or	a6,a6,a2
80000cb4:	01f8d713          	srli	a4,a7,0x1f
80000cb8:	40b78433          	sub	s0,a5,a1
80000cbc:	f8069ce3          	bnez	a3,80000c54 <__udivmoddi4+0xdc>
80000cc0:	000b8663          	beqz	s7,80000ccc <__udivmoddi4+0x154>
80000cc4:	009ba023          	sw	s1,0(s7)
80000cc8:	008ba223          	sw	s0,4(s7)
80000ccc:	01fad913          	srli	s2,s5,0x1f
80000cd0:	001a9993          	slli	s3,s5,0x1
80000cd4:	00181793          	slli	a5,a6,0x1
80000cd8:	00f965b3          	or	a1,s2,a5
80000cdc:	02812403          	lw	s0,40(sp)
80000ce0:	02412483          	lw	s1,36(sp)
80000ce4:	02012903          	lw	s2,32(sp)
80000ce8:	01412a83          	lw	s5,20(sp)
80000cec:	00e9e533          	or	a0,s3,a4
80000cf0:	ed1ff06f          	j	80000bc0 <__udivmoddi4+0x48>
80000cf4:	06068663          	beqz	a3,80000d60 <__udivmoddi4+0x1e8>
80000cf8:	00068513          	mv	a0,a3
80000cfc:	1ec000ef          	jal	80000ee8 <__clzsi2>
80000d00:	00050413          	mv	s0,a0
80000d04:	00090513          	mv	a0,s2
80000d08:	1e0000ef          	jal	80000ee8 <__clzsi2>
80000d0c:	40a406b3          	sub	a3,s0,a0
80000d10:	01f00793          	li	a5,31
80000d14:	0ad7e663          	bltu	a5,a3,80000dc0 <__udivmoddi4+0x248>
80000d18:	00168693          	addi	a3,a3,1
80000d1c:	02000793          	li	a5,32
80000d20:	00098813          	mv	a6,s3
80000d24:	18f68663          	beq	a3,a5,80000eb0 <__udivmoddi4+0x338>
80000d28:	40d787b3          	sub	a5,a5,a3
80000d2c:	00d9d733          	srl	a4,s3,a3
80000d30:	00f91633          	sll	a2,s2,a5
80000d34:	00d95433          	srl	s0,s2,a3
80000d38:	00f99833          	sll	a6,s3,a5
80000d3c:	00e664b3          	or	s1,a2,a4
80000d40:	00000a93          	li	s5,0
80000d44:	f0dff06f          	j	80000c50 <__udivmoddi4+0xd8>
80000d48:	00070663          	beqz	a4,80000d54 <__udivmoddi4+0x1dc>
80000d4c:	00aba023          	sw	a0,0(s7)
80000d50:	00072223          	sw	zero,4(a4)
80000d54:	00000513          	li	a0,0
80000d58:	00000593          	li	a1,0
80000d5c:	e65ff06f          	j	80000bc0 <__udivmoddi4+0x48>
80000d60:	fff60793          	addi	a5,a2,-1
80000d64:	00c7f733          	and	a4,a5,a2
80000d68:	06071c63          	bnez	a4,80000de0 <__udivmoddi4+0x268>
80000d6c:	000b8863          	beqz	s7,80000d7c <__udivmoddi4+0x204>
80000d70:	00a7f7b3          	and	a5,a5,a0
80000d74:	00fba023          	sw	a5,0(s7)
80000d78:	000ba223          	sw	zero,4(s7)
80000d7c:	00100793          	li	a5,1
80000d80:	0efa0063          	beq	s4,a5,80000e60 <__udivmoddi4+0x2e8>
80000d84:	000a0513          	mv	a0,s4
80000d88:	1f0000ef          	jal	80000f78 <__ctzsi2>
80000d8c:	02000713          	li	a4,32
80000d90:	40a70733          	sub	a4,a4,a0
80000d94:	00050793          	mv	a5,a0
80000d98:	00e91733          	sll	a4,s2,a4
80000d9c:	00a9d833          	srl	a6,s3,a0
80000da0:	00f955b3          	srl	a1,s2,a5
80000da4:	02812403          	lw	s0,40(sp)
80000da8:	02412483          	lw	s1,36(sp)
80000dac:	02012903          	lw	s2,32(sp)
80000db0:	01412a83          	lw	s5,20(sp)
80000db4:	01076533          	or	a0,a4,a6
80000db8:	e09ff06f          	j	80000bc0 <__udivmoddi4+0x48>
80000dbc:	00100073          	ebreak
80000dc0:	0a0b8e63          	beqz	s7,80000e7c <__udivmoddi4+0x304>
80000dc4:	012ba223          	sw	s2,4(s7)
80000dc8:	02812403          	lw	s0,40(sp)
80000dcc:	02412483          	lw	s1,36(sp)
80000dd0:	02012903          	lw	s2,32(sp)
80000dd4:	01412a83          	lw	s5,20(sp)
80000dd8:	013ba023          	sw	s3,0(s7)
80000ddc:	f79ff06f          	j	80000d54 <__udivmoddi4+0x1dc>
80000de0:	00060513          	mv	a0,a2
80000de4:	00068413          	mv	s0,a3
80000de8:	100000ef          	jal	80000ee8 <__clzsi2>
80000dec:	00050913          	mv	s2,a0
80000df0:	00048513          	mv	a0,s1
80000df4:	0f4000ef          	jal	80000ee8 <__clzsi2>
80000df8:	40a90533          	sub	a0,s2,a0
80000dfc:	02150693          	addi	a3,a0,33
80000e00:	02000793          	li	a5,32
80000e04:	00098813          	mv	a6,s3
80000e08:	00000a93          	li	s5,0
80000e0c:	e4f682e3          	beq	a3,a5,80000c50 <__udivmoddi4+0xd8>
80000e10:	01f00713          	li	a4,31
80000e14:	0ad76463          	bltu	a4,a3,80000ebc <__udivmoddi4+0x344>
80000e18:	40d78733          	sub	a4,a5,a3
80000e1c:	00d4d433          	srl	s0,s1,a3
80000e20:	00d9d7b3          	srl	a5,s3,a3
80000e24:	00e494b3          	sll	s1,s1,a4
80000e28:	00f4e4b3          	or	s1,s1,a5
80000e2c:	00e99833          	sll	a6,s3,a4
80000e30:	e21ff06f          	j	80000c50 <__udivmoddi4+0xd8>
80000e34:	00070863          	beqz	a4,80000e44 <__udivmoddi4+0x2cc>
80000e38:	02d5f7b3          	remu	a5,a1,a3
80000e3c:	00072023          	sw	zero,0(a4)
80000e40:	00f72223          	sw	a5,4(a4)
80000e44:	03695533          	divu	a0,s2,s6
80000e48:	02812403          	lw	s0,40(sp)
80000e4c:	02412483          	lw	s1,36(sp)
80000e50:	02012903          	lw	s2,32(sp)
80000e54:	01412a83          	lw	s5,20(sp)
80000e58:	00000593          	li	a1,0
80000e5c:	d65ff06f          	j	80000bc0 <__udivmoddi4+0x48>
80000e60:	00090593          	mv	a1,s2
80000e64:	02812403          	lw	s0,40(sp)
80000e68:	02412483          	lw	s1,36(sp)
80000e6c:	02012903          	lw	s2,32(sp)
80000e70:	01412a83          	lw	s5,20(sp)
80000e74:	00098513          	mv	a0,s3
80000e78:	d49ff06f          	j	80000bc0 <__udivmoddi4+0x48>
80000e7c:	02812403          	lw	s0,40(sp)
80000e80:	02412483          	lw	s1,36(sp)
80000e84:	02012903          	lw	s2,32(sp)
80000e88:	01412a83          	lw	s5,20(sp)
80000e8c:	ec9ff06f          	j	80000d54 <__udivmoddi4+0x1dc>
80000e90:	000b8863          	beqz	s7,80000ea0 <__udivmoddi4+0x328>
80000e94:	00b7f7b3          	and	a5,a5,a1
80000e98:	00aba023          	sw	a0,0(s7)
80000e9c:	00fba223          	sw	a5,4(s7)
80000ea0:	000b0513          	mv	a0,s6
80000ea4:	0d4000ef          	jal	80000f78 <__ctzsi2>
80000ea8:	00a95533          	srl	a0,s2,a0
80000eac:	f9dff06f          	j	80000e48 <__udivmoddi4+0x2d0>
80000eb0:	00000413          	li	s0,0
80000eb4:	00000a93          	li	s5,0
80000eb8:	d99ff06f          	j	80000c50 <__udivmoddi4+0xd8>
80000ebc:	04000a93          	li	s5,64
80000ec0:	40da8ab3          	sub	s5,s5,a3
80000ec4:	00150513          	addi	a0,a0,1
80000ec8:	01549733          	sll	a4,s1,s5
80000ecc:	00a9d7b3          	srl	a5,s3,a0
80000ed0:	01599ab3          	sll	s5,s3,s5
80000ed4:	00a4d4b3          	srl	s1,s1,a0
80000ed8:	00f76833          	or	a6,a4,a5
80000edc:	d75ff06f          	j	80000c50 <__udivmoddi4+0xd8>

80000ee0 <__udivdi3>:
80000ee0:	00000713          	li	a4,0
80000ee4:	c95ff06f          	j	80000b78 <__udivmoddi4>

80000ee8 <__clzsi2>:
80000ee8:	000105b7          	lui	a1,0x10
80000eec:	00b535b3          	sltu	a1,a0,a1
80000ef0:	00459593          	slli	a1,a1,0x4
80000ef4:	01000793          	li	a5,16
80000ef8:	40b787b3          	sub	a5,a5,a1
80000efc:	00010737          	lui	a4,0x10
80000f00:	00f557b3          	srl	a5,a0,a5
80000f04:	f0070713          	addi	a4,a4,-256 # ff00 <_entry_offset+0xff00>
80000f08:	00e7f733          	and	a4,a5,a4
80000f0c:	00173713          	seqz	a4,a4
80000f10:	00371713          	slli	a4,a4,0x3
80000f14:	00800693          	li	a3,8
80000f18:	40e686b3          	sub	a3,a3,a4
80000f1c:	00d7d7b3          	srl	a5,a5,a3
80000f20:	0f07f613          	andi	a2,a5,240
80000f24:	00163613          	seqz	a2,a2
80000f28:	00261613          	slli	a2,a2,0x2
80000f2c:	00400693          	li	a3,4
80000f30:	40c686b3          	sub	a3,a3,a2
80000f34:	00d7d7b3          	srl	a5,a5,a3
80000f38:	00c7f693          	andi	a3,a5,12
80000f3c:	0016b693          	seqz	a3,a3
80000f40:	00200513          	li	a0,2
80000f44:	00169693          	slli	a3,a3,0x1
80000f48:	40d50833          	sub	a6,a0,a3
80000f4c:	0107d7b3          	srl	a5,a5,a6
80000f50:	0017d813          	srli	a6,a5,0x1
80000f54:	00b70733          	add	a4,a4,a1
80000f58:	00187593          	andi	a1,a6,1
80000f5c:	00e60633          	add	a2,a2,a4
80000f60:	40f50533          	sub	a0,a0,a5
80000f64:	00058463          	beqz	a1,80000f6c <__clzsi2+0x84>
80000f68:	00000513          	li	a0,0
80000f6c:	00c686b3          	add	a3,a3,a2
80000f70:	00d50533          	add	a0,a0,a3
80000f74:	00008067          	ret

80000f78 <__ctzsi2>:
80000f78:	01051593          	slli	a1,a0,0x10
80000f7c:	0105d593          	srli	a1,a1,0x10
80000f80:	0015b593          	seqz	a1,a1
80000f84:	00459593          	slli	a1,a1,0x4
80000f88:	00b557b3          	srl	a5,a0,a1
80000f8c:	0ff7f613          	zext.b	a2,a5
80000f90:	00163613          	seqz	a2,a2
80000f94:	00361613          	slli	a2,a2,0x3
80000f98:	00c7d7b3          	srl	a5,a5,a2
80000f9c:	00f7f693          	andi	a3,a5,15
80000fa0:	0016b693          	seqz	a3,a3
80000fa4:	00269693          	slli	a3,a3,0x2
80000fa8:	00d7d7b3          	srl	a5,a5,a3
80000fac:	0037f713          	andi	a4,a5,3
80000fb0:	00173713          	seqz	a4,a4
80000fb4:	00171713          	slli	a4,a4,0x1
80000fb8:	00e7d7b3          	srl	a5,a5,a4
80000fbc:	0017d513          	srli	a0,a5,0x1
80000fc0:	fff7c793          	not	a5,a5
80000fc4:	00b60633          	add	a2,a2,a1
80000fc8:	0017f793          	andi	a5,a5,1
80000fcc:	00157593          	andi	a1,a0,1
80000fd0:	00200513          	li	a0,2
80000fd4:	00c686b3          	add	a3,a3,a2
80000fd8:	40b50533          	sub	a0,a0,a1
80000fdc:	40f007b3          	neg	a5,a5
80000fe0:	00f57533          	and	a0,a0,a5
80000fe4:	00d70733          	add	a4,a4,a3
80000fe8:	00e50533          	add	a0,a0,a4
80000fec:	00008067          	ret

80000ff0 <rand>:
80000ff0:	00002697          	auipc	a3,0x2
80000ff4:	a5868693          	addi	a3,a3,-1448 # 80002a48 <next>
80000ff8:	0006a783          	lw	a5,0(a3)
80000ffc:	41c65737          	lui	a4,0x41c65
80001000:	e6d70713          	addi	a4,a4,-403 # 41c64e6d <_entry_offset+0x41c64e6d>
80001004:	02e787b3          	mul	a5,a5,a4
80001008:	00003737          	lui	a4,0x3
8000100c:	03970713          	addi	a4,a4,57 # 3039 <_entry_offset+0x3039>
80001010:	00e787b3          	add	a5,a5,a4
80001014:	00179513          	slli	a0,a5,0x1
80001018:	00f6a023          	sw	a5,0(a3)
8000101c:	01155513          	srli	a0,a0,0x11
80001020:	00008067          	ret

80001024 <vsnprintf>:
80001024:	16058ae3          	beqz	a1,80001998 <vsnprintf+0x974>
80001028:	00100793          	li	a5,1
8000102c:	00050f13          	mv	t5,a0
80001030:	16f582e3          	beq	a1,a5,80001994 <vsnprintf+0x970>
80001034:	00064883          	lbu	a7,0(a2)
80001038:	fff58313          	addi	t1,a1,-1 # ffff <_entry_offset+0xffff>
8000103c:	00000513          	li	a0,0
80001040:	00000813          	li	a6,0
80001044:	00000793          	li	a5,0
80001048:	34088e63          	beqz	a7,800013a4 <vsnprintf+0x380>
8000104c:	f8010113          	addi	sp,sp,-128
80001050:	06812e23          	sw	s0,124(sp)
80001054:	07312823          	sw	s3,112(sp)
80001058:	05912c23          	sw	s9,88(sp)
8000105c:	05a12a23          	sw	s10,84(sp)
80001060:	05b12823          	sw	s11,80(sp)
80001064:	06912c23          	sw	s1,120(sp)
80001068:	07212a23          	sw	s2,116(sp)
8000106c:	07412623          	sw	s4,108(sp)
80001070:	07512423          	sw	s5,104(sp)
80001074:	07612223          	sw	s6,100(sp)
80001078:	07712023          	sw	s7,96(sp)
8000107c:	02500413          	li	s0,37
80001080:	01000993          	li	s3,16
80001084:	00001d97          	auipc	s11,0x1
80001088:	24cd8d93          	addi	s11,s11,588 # 800022d0 <mainargs+0x40>
8000108c:	02e00c93          	li	s9,46
80001090:	06800d13          	li	s10,104
80001094:	00078593          	mv	a1,a5
80001098:	00180713          	addi	a4,a6,1 # a1000001 <_end+0x20fea001>
8000109c:	06888863          	beq	a7,s0,8000110c <vsnprintf+0xe8>
800010a0:	00150513          	addi	a0,a0,1
800010a4:	0067fa63          	bgeu	a5,t1,800010b8 <vsnprintf+0x94>
800010a8:	00ff05b3          	add	a1,t5,a5
800010ac:	00178793          	addi	a5,a5,1
800010b0:	01158023          	sb	a7,0(a1)
800010b4:	00078593          	mv	a1,a5
800010b8:	00070813          	mv	a6,a4
800010bc:	01060733          	add	a4,a2,a6
800010c0:	00074883          	lbu	a7,0(a4)
800010c4:	fc0898e3          	bnez	a7,80001094 <vsnprintf+0x70>
800010c8:	00b37463          	bgeu	t1,a1,800010d0 <vsnprintf+0xac>
800010cc:	00030593          	mv	a1,t1
800010d0:	00bf0f33          	add	t5,t5,a1
800010d4:	000f0023          	sb	zero,0(t5)
800010d8:	07c12403          	lw	s0,124(sp)
800010dc:	07812483          	lw	s1,120(sp)
800010e0:	07412903          	lw	s2,116(sp)
800010e4:	07012983          	lw	s3,112(sp)
800010e8:	06c12a03          	lw	s4,108(sp)
800010ec:	06812a83          	lw	s5,104(sp)
800010f0:	06412b03          	lw	s6,100(sp)
800010f4:	06012b83          	lw	s7,96(sp)
800010f8:	05812c83          	lw	s9,88(sp)
800010fc:	05412d03          	lw	s10,84(sp)
80001100:	05012d83          	lw	s11,80(sp)
80001104:	08010113          	addi	sp,sp,128
80001108:	00008067          	ret
8000110c:	00e60733          	add	a4,a2,a4
80001110:	00280e13          	addi	t3,a6,2
80001114:	00000b13          	li	s6,0
80001118:	00000f93          	li	t6,0
8000111c:	00000913          	li	s2,0
80001120:	00000a93          	li	s5,0
80001124:	00000493          	li	s1,0
80001128:	00074e83          	lbu	t4,0(a4)
8000112c:	00070393          	mv	t2,a4
80001130:	fe0e8813          	addi	a6,t4,-32
80001134:	0ff87813          	zext.b	a6,a6
80001138:	0109ec63          	bltu	s3,a6,80001150 <vsnprintf+0x12c>
8000113c:	00281813          	slli	a6,a6,0x2
80001140:	01b80833          	add	a6,a6,s11
80001144:	00082803          	lw	a6,0(a6)
80001148:	01b80833          	add	a6,a6,s11
8000114c:	00080067          	jr	a6
80001150:	02a00713          	li	a4,42
80001154:	06ee9c63          	bne	t4,a4,800011cc <vsnprintf+0x1a8>
80001158:	0006a703          	lw	a4,0(a3)
8000115c:	00468693          	addi	a3,a3,4
80001160:	00075663          	bgez	a4,8000116c <vsnprintf+0x148>
80001164:	40e00733          	neg	a4,a4
80001168:	00100493          	li	s1,1
8000116c:	01c603b3          	add	t2,a2,t3
80001170:	0003ce83          	lbu	t4,0(t2)
80001174:	000e0813          	mv	a6,t3
80001178:	fff00893          	li	a7,-1
8000117c:	0b9e8663          	beq	t4,s9,80001228 <vsnprintf+0x204>
80001180:	00180e13          	addi	t3,a6,1
80001184:	01c602b3          	add	t0,a2,t3
80001188:	0dae8c63          	beq	t4,s10,80001260 <vsnprintf+0x23c>
8000118c:	06c00a13          	li	s4,108
80001190:	154e8663          	beq	t4,s4,800012dc <vsnprintf+0x2b8>
80001194:	07a00a13          	li	s4,122
80001198:	194e8263          	beq	t4,s4,8000131c <vsnprintf+0x2f8>
8000119c:	7c8e8a63          	beq	t4,s0,80001970 <vsnprintf+0x94c>
800011a0:	fa8e8e13          	addi	t3,t4,-88
800011a4:	0ffe7e13          	zext.b	t3,t3
800011a8:	02000293          	li	t0,32
800011ac:	0fc2ec63          	bltu	t0,t3,800012a4 <vsnprintf+0x280>
800011b0:	00001297          	auipc	t0,0x1
800011b4:	16428293          	addi	t0,t0,356 # 80002314 <mainargs+0x84>
800011b8:	002e1e13          	slli	t3,t3,0x2
800011bc:	005e0e33          	add	t3,t3,t0
800011c0:	000e2e03          	lw	t3,0(t3)
800011c4:	005e0e33          	add	t3,t3,t0
800011c8:	000e0067          	jr	t3
800011cc:	fd0e8293          	addi	t0,t4,-48
800011d0:	0ff2f893          	zext.b	a7,t0
800011d4:	00900b93          	li	s7,9
800011d8:	fffe0813          	addi	a6,t3,-1
800011dc:	00000713          	li	a4,0
800011e0:	01c60e33          	add	t3,a2,t3
800011e4:	00900a13          	li	s4,9
800011e8:	f91be8e3          	bltu	s7,a7,80001178 <vsnprintf+0x154>
800011ec:	00070893          	mv	a7,a4
800011f0:	000e4e83          	lbu	t4,0(t3)
800011f4:	00289713          	slli	a4,a7,0x2
800011f8:	01170733          	add	a4,a4,a7
800011fc:	00171713          	slli	a4,a4,0x1
80001200:	00e288b3          	add	a7,t0,a4
80001204:	fd0e8293          	addi	t0,t4,-48
80001208:	0ff2f713          	zext.b	a4,t0
8000120c:	000e0393          	mv	t2,t3
80001210:	00180813          	addi	a6,a6,1
80001214:	001e0e13          	addi	t3,t3,1
80001218:	fcea7ce3          	bgeu	s4,a4,800011f0 <vsnprintf+0x1cc>
8000121c:	00088713          	mv	a4,a7
80001220:	fff00893          	li	a7,-1
80001224:	f59e9ee3          	bne	t4,s9,80001180 <vsnprintf+0x15c>
80001228:	00180893          	addi	a7,a6,1
8000122c:	011603b3          	add	t2,a2,a7
80001230:	0003ce83          	lbu	t4,0(t2)
80001234:	02a00e13          	li	t3,42
80001238:	6dce9c63          	bne	t4,t3,80001910 <vsnprintf+0x8ec>
8000123c:	0006a883          	lw	a7,0(a3)
80001240:	00468693          	addi	a3,a3,4
80001244:	1008cc63          	bltz	a7,8000135c <vsnprintf+0x338>
80001248:	00280813          	addi	a6,a6,2
8000124c:	010603b3          	add	t2,a2,a6
80001250:	0003ce83          	lbu	t4,0(t2)
80001254:	00180e13          	addi	t3,a6,1
80001258:	01c602b3          	add	t0,a2,t3
8000125c:	f3ae98e3          	bne	t4,s10,8000118c <vsnprintf+0x168>
80001260:	0002ce83          	lbu	t4,0(t0)
80001264:	73ae8e63          	beq	t4,s10,800019a0 <vsnprintf+0x97c>
80001268:	02500813          	li	a6,37
8000126c:	710e8063          	beq	t4,a6,8000196c <vsnprintf+0x948>
80001270:	fa8e8813          	addi	a6,t4,-88
80001274:	0ff87813          	zext.b	a6,a6
80001278:	02000393          	li	t2,32
8000127c:	0303e063          	bltu	t2,a6,8000129c <vsnprintf+0x278>
80001280:	00001397          	auipc	t2,0x1
80001284:	11838393          	addi	t2,t2,280 # 80002398 <mainargs+0x108>
80001288:	00281813          	slli	a6,a6,0x2
8000128c:	00780833          	add	a6,a6,t2
80001290:	00082803          	lw	a6,0(a6)
80001294:	00780833          	add	a6,a6,t2
80001298:	00080067          	jr	a6
8000129c:	000e0813          	mv	a6,t3
800012a0:	00028393          	mv	t2,t0
800012a4:	00250513          	addi	a0,a0,2
800012a8:	0267f663          	bgeu	a5,t1,800012d4 <vsnprintf+0x2b0>
800012ac:	02500593          	li	a1,37
800012b0:	00ff0733          	add	a4,t5,a5
800012b4:	00b70023          	sb	a1,0(a4)
800012b8:	00178593          	addi	a1,a5,1
800012bc:	5265f4e3          	bgeu	a1,t1,80001fe4 <vsnprintf+0xfc0>
800012c0:	0003c703          	lbu	a4,0(t2)
800012c4:	00bf05b3          	add	a1,t5,a1
800012c8:	00278793          	addi	a5,a5,2
800012cc:	00e58023          	sb	a4,0(a1)
800012d0:	00078593          	mv	a1,a5
800012d4:	00180813          	addi	a6,a6,1
800012d8:	de5ff06f          	j	800010bc <vsnprintf+0x98>
800012dc:	0002ce83          	lbu	t4,0(t0)
800012e0:	06c00393          	li	t2,108
800012e4:	087e8063          	beq	t4,t2,80001364 <vsnprintf+0x340>
800012e8:	02500813          	li	a6,37
800012ec:	690e8063          	beq	t4,a6,8000196c <vsnprintf+0x948>
800012f0:	fa8e8813          	addi	a6,t4,-88
800012f4:	0ff87813          	zext.b	a6,a6
800012f8:	02000393          	li	t2,32
800012fc:	fb03e0e3          	bltu	t2,a6,8000129c <vsnprintf+0x278>
80001300:	00001397          	auipc	t2,0x1
80001304:	11c38393          	addi	t2,t2,284 # 8000241c <mainargs+0x18c>
80001308:	00281813          	slli	a6,a6,0x2
8000130c:	00780833          	add	a6,a6,t2
80001310:	00082803          	lw	a6,0(a6)
80001314:	00780833          	add	a6,a6,t2
80001318:	00080067          	jr	a6
8000131c:	0002ce83          	lbu	t4,0(t0)
80001320:	00028393          	mv	t2,t0
80001324:	000e0813          	mv	a6,t3
80001328:	e75ff06f          	j	8000119c <vsnprintf+0x178>
8000132c:	00100b13          	li	s6,1
80001330:	00170713          	addi	a4,a4,1
80001334:	001e0e13          	addi	t3,t3,1
80001338:	df1ff06f          	j	80001128 <vsnprintf+0x104>
8000133c:	00100f93          	li	t6,1
80001340:	ff1ff06f          	j	80001330 <vsnprintf+0x30c>
80001344:	00100913          	li	s2,1
80001348:	fe9ff06f          	j	80001330 <vsnprintf+0x30c>
8000134c:	00100a93          	li	s5,1
80001350:	fe1ff06f          	j	80001330 <vsnprintf+0x30c>
80001354:	00100493          	li	s1,1
80001358:	fd9ff06f          	j	80001330 <vsnprintf+0x30c>
8000135c:	fff00893          	li	a7,-1
80001360:	ee9ff06f          	j	80001248 <vsnprintf+0x224>
80001364:	00280813          	addi	a6,a6,2
80001368:	010603b3          	add	t2,a2,a6
8000136c:	0003ce83          	lbu	t4,0(t2)
80001370:	02500e13          	li	t3,37
80001374:	5fce8e63          	beq	t4,t3,80001970 <vsnprintf+0x94c>
80001378:	fa8e8e13          	addi	t3,t4,-88
8000137c:	0ffe7e13          	zext.b	t3,t3
80001380:	02000293          	li	t0,32
80001384:	f3c2e0e3          	bltu	t0,t3,800012a4 <vsnprintf+0x280>
80001388:	00001297          	auipc	t0,0x1
8000138c:	11828293          	addi	t0,t0,280 # 800024a0 <mainargs+0x210>
80001390:	002e1e13          	slli	t3,t3,0x2
80001394:	005e0e33          	add	t3,t3,t0
80001398:	000e2e03          	lw	t3,0(t3)
8000139c:	005e0e33          	add	t3,t3,t0
800013a0:	000e0067          	jr	t3
800013a4:	000f0023          	sb	zero,0(t5)
800013a8:	00008067          	ret
800013ac:	0006ae83          	lw	t4,0(a3)
800013b0:	00468a13          	addi	s4,a3,4
800013b4:	41fedf93          	srai	t6,t4,0x1f
800013b8:	7a0fcc63          	bltz	t6,80001b70 <vsnprintf+0xb4c>
800013bc:	01fee6b3          	or	a3,t4,t6
800013c0:	3c0696e3          	bnez	a3,80001f8c <vsnprintf+0xf68>
800013c4:	320886e3          	beqz	a7,80001ef0 <vsnprintf+0xecc>
800013c8:	03000693          	li	a3,48
800013cc:	00d10823          	sb	a3,16(sp)
800013d0:	00100293          	li	t0,1
800013d4:	00000693          	li	a3,0
800013d8:	01010e13          	addi	t3,sp,16
800013dc:	2712dce3          	bge	t0,a7,80001e54 <vsnprintf+0xe30>
800013e0:	00028e93          	mv	t4,t0
800013e4:	03000393          	li	t2,48
800013e8:	001e8e93          	addi	t4,t4,1
800013ec:	01de0fb3          	add	t6,t3,t4
800013f0:	fe7f8fa3          	sb	t2,-1(t6)
800013f4:	ff1ecae3          	blt	t4,a7,800013e8 <vsnprintf+0x3c4>
800013f8:	00128e93          	addi	t4,t0,1
800013fc:	00000e13          	li	t3,0
80001400:	0112d663          	bge	t0,a7,8000140c <vsnprintf+0x3e8>
80001404:	fff88e13          	addi	t3,a7,-1
80001408:	405e0e33          	sub	t3,t3,t0
8000140c:	01de02b3          	add	t0,t3,t4
80001410:	240682e3          	beqz	a3,80001e54 <vsnprintf+0xe30>
80001414:	01010e13          	addi	t3,sp,16
80001418:	04028693          	addi	a3,t0,64
8000141c:	01c686b3          	add	a3,a3,t3
80001420:	02d00e13          	li	t3,45
80001424:	fdc68023          	sb	t3,-64(a3)
80001428:	00128e93          	addi	t4,t0,1
8000142c:	000a0693          	mv	a3,s4
80001430:	41d70fb3          	sub	t6,a4,t4
80001434:	01f04463          	bgtz	t6,8000143c <vsnprintf+0x418>
80001438:	000e8713          	mv	a4,t4
8000143c:	00e50533          	add	a0,a0,a4
80001440:	1c0482e3          	beqz	s1,80001e04 <vsnprintf+0xde0>
80001444:	020e8a63          	beqz	t4,80001478 <vsnprintf+0x454>
80001448:	01010e13          	addi	t3,sp,16
8000144c:	01de0733          	add	a4,t3,t4
80001450:	00078593          	mv	a1,a5
80001454:	0067fc63          	bgeu	a5,t1,8000146c <vsnprintf+0x448>
80001458:	fff74883          	lbu	a7,-1(a4)
8000145c:	00ff05b3          	add	a1,t5,a5
80001460:	00178793          	addi	a5,a5,1
80001464:	01158023          	sb	a7,0(a1)
80001468:	00078593          	mv	a1,a5
8000146c:	fff70713          	addi	a4,a4,-1
80001470:	feee10e3          	bne	t3,a4,80001450 <vsnprintf+0x42c>
80001474:	e60480e3          	beqz	s1,800012d4 <vsnprintf+0x2b0>
80001478:	ffff8713          	addi	a4,t6,-1
8000147c:	e5f05ce3          	blez	t6,800012d4 <vsnprintf+0x2b0>
80001480:	02000e13          	li	t3,32
80001484:	fff00893          	li	a7,-1
80001488:	00078593          	mv	a1,a5
8000148c:	0067fa63          	bgeu	a5,t1,800014a0 <vsnprintf+0x47c>
80001490:	00ff05b3          	add	a1,t5,a5
80001494:	00178793          	addi	a5,a5,1
80001498:	01c58023          	sb	t3,0(a1)
8000149c:	00078593          	mv	a1,a5
800014a0:	fff70713          	addi	a4,a4,-1
800014a4:	ff1712e3          	bne	a4,a7,80001488 <vsnprintf+0x464>
800014a8:	00180813          	addi	a6,a6,1
800014ac:	c11ff06f          	j	800010bc <vsnprintf+0x98>
800014b0:	00069e83          	lh	t4,0(a3)
800014b4:	00468a13          	addi	s4,a3,4
800014b8:	000e0813          	mv	a6,t3
800014bc:	41fedf93          	srai	t6,t4,0x1f
800014c0:	ef9ff06f          	j	800013b8 <vsnprintf+0x394>
800014c4:	0006d283          	lhu	t0,0(a3)
800014c8:	00000913          	li	s2,0
800014cc:	000e0813          	mv	a6,t3
800014d0:	00468693          	addi	a3,a3,4
800014d4:	07800e13          	li	t3,120
800014d8:	00001a97          	auipc	s5,0x1
800014dc:	d94a8a93          	addi	s5,s5,-620 # 8000226c <_etext+0x180>
800014e0:	01ce9663          	bne	t4,t3,800014ec <vsnprintf+0x4c8>
800014e4:	00001a97          	auipc	s5,0x1
800014e8:	d74a8a93          	addi	s5,s5,-652 # 80002258 <_etext+0x16c>
800014ec:	0122ee33          	or	t3,t0,s2
800014f0:	0c0e16e3          	bnez	t3,80001dbc <vsnprintf+0xd98>
800014f4:	20088ee3          	beqz	a7,80001f10 <vsnprintf+0xeec>
800014f8:	03000e13          	li	t3,48
800014fc:	01c10823          	sb	t3,16(sp)
80001500:	00100393          	li	t2,1
80001504:	01010e13          	addi	t3,sp,16
80001508:	2913d8e3          	bge	t2,a7,80001f98 <vsnprintf+0xf74>
8000150c:	00038293          	mv	t0,t2
80001510:	03000a13          	li	s4,48
80001514:	00128293          	addi	t0,t0,1
80001518:	005e0933          	add	s2,t3,t0
8000151c:	ff490fa3          	sb	s4,-1(s2)
80001520:	ff12cae3          	blt	t0,a7,80001514 <vsnprintf+0x4f0>
80001524:	00138913          	addi	s2,t2,1
80001528:	00000293          	li	t0,0
8000152c:	0113d663          	bge	t2,a7,80001538 <vsnprintf+0x514>
80001530:	fff88293          	addi	t0,a7,-1
80001534:	407282b3          	sub	t0,t0,t2
80001538:	012283b3          	add	t2,t0,s2
8000153c:	360f8c63          	beqz	t6,800018b4 <vsnprintf+0x890>
80001540:	01014283          	lbu	t0,16(sp)
80001544:	03000f93          	li	t6,48
80001548:	37f28663          	beq	t0,t6,800018b4 <vsnprintf+0x890>
8000154c:	07800f93          	li	t6,120
80001550:	01fe8463          	beq	t4,t6,80001558 <vsnprintf+0x534>
80001554:	05800e93          	li	t4,88
80001558:	04038293          	addi	t0,t2,64
8000155c:	01010913          	addi	s2,sp,16
80001560:	00138f93          	addi	t6,t2,1
80001564:	012282b3          	add	t0,t0,s2
80001568:	fdd28023          	sb	t4,-64(t0)
8000156c:	040f8e93          	addi	t4,t6,64
80001570:	012e8eb3          	add	t4,t4,s2
80001574:	00238393          	addi	t2,t2,2
80001578:	03000f93          	li	t6,48
8000157c:	fdfe8023          	sb	t6,-64(t4)
80001580:	40770eb3          	sub	t4,a4,t2
80001584:	1fd058e3          	blez	t4,80001f74 <vsnprintf+0xf50>
80001588:	00e50533          	add	a0,a0,a4
8000158c:	5a048c63          	beqz	s1,80001b44 <vsnprintf+0xb20>
80001590:	007e0733          	add	a4,t3,t2
80001594:	00078593          	mv	a1,a5
80001598:	0067fc63          	bgeu	a5,t1,800015b0 <vsnprintf+0x58c>
8000159c:	fff74883          	lbu	a7,-1(a4)
800015a0:	00ff05b3          	add	a1,t5,a5
800015a4:	00178793          	addi	a5,a5,1
800015a8:	01158023          	sb	a7,0(a1)
800015ac:	00078593          	mv	a1,a5
800015b0:	fff70713          	addi	a4,a4,-1
800015b4:	feee10e3          	bne	t3,a4,80001594 <vsnprintf+0x570>
800015b8:	d0048ee3          	beqz	s1,800012d4 <vsnprintf+0x2b0>
800015bc:	fffe8713          	addi	a4,t4,-1
800015c0:	d1d05ae3          	blez	t4,800012d4 <vsnprintf+0x2b0>
800015c4:	02000e13          	li	t3,32
800015c8:	fff00893          	li	a7,-1
800015cc:	00078593          	mv	a1,a5
800015d0:	0067fa63          	bgeu	a5,t1,800015e4 <vsnprintf+0x5c0>
800015d4:	00ff05b3          	add	a1,t5,a5
800015d8:	00178793          	addi	a5,a5,1
800015dc:	01c58023          	sb	t3,0(a1)
800015e0:	00078593          	mv	a1,a5
800015e4:	fff70713          	addi	a4,a4,-1
800015e8:	ff1712e3          	bne	a4,a7,800015cc <vsnprintf+0x5a8>
800015ec:	00180813          	addi	a6,a6,1
800015f0:	acdff06f          	j	800010bc <vsnprintf+0x98>
800015f4:	000e0813          	mv	a6,t3
800015f8:	0006a583          	lw	a1,0(a3)
800015fc:	00468f93          	addi	t6,a3,4
80001600:	64058863          	beqz	a1,80001c50 <vsnprintf+0xc2c>
80001604:	000036b7          	lui	a3,0x3
80001608:	07868693          	addi	a3,a3,120 # 3078 <_entry_offset+0x3078>
8000160c:	00d11823          	sh	a3,16(sp)
80001610:	00200893          	li	a7,2
80001614:	01010e13          	addi	t3,sp,16
80001618:	00001297          	auipc	t0,0x1
8000161c:	c4028293          	addi	t0,t0,-960 # 80002258 <_etext+0x16c>
80001620:	00f5f693          	andi	a3,a1,15
80001624:	00d286b3          	add	a3,t0,a3
80001628:	0006ce83          	lbu	t4,0(a3)
8000162c:	00188893          	addi	a7,a7,1
80001630:	011e06b3          	add	a3,t3,a7
80001634:	ffd68fa3          	sb	t4,-1(a3)
80001638:	0045d593          	srli	a1,a1,0x4
8000163c:	fe0592e3          	bnez	a1,80001620 <vsnprintf+0x5fc>
80001640:	41170eb3          	sub	t4,a4,a7
80001644:	67d05663          	blez	t4,80001cb0 <vsnprintf+0xc8c>
80001648:	00e50533          	add	a0,a0,a4
8000164c:	3c048463          	beqz	s1,80001a14 <vsnprintf+0x9f0>
80001650:	00068713          	mv	a4,a3
80001654:	00078593          	mv	a1,a5
80001658:	0067fc63          	bgeu	a5,t1,80001670 <vsnprintf+0x64c>
8000165c:	fff74683          	lbu	a3,-1(a4)
80001660:	00ff05b3          	add	a1,t5,a5
80001664:	00178793          	addi	a5,a5,1
80001668:	00d58023          	sb	a3,0(a1)
8000166c:	00078593          	mv	a1,a5
80001670:	fff70713          	addi	a4,a4,-1
80001674:	feee10e3          	bne	t3,a4,80001654 <vsnprintf+0x630>
80001678:	000f8693          	mv	a3,t6
8000167c:	c4048ce3          	beqz	s1,800012d4 <vsnprintf+0x2b0>
80001680:	fffe8713          	addi	a4,t4,-1
80001684:	c5d058e3          	blez	t4,800012d4 <vsnprintf+0x2b0>
80001688:	02000893          	li	a7,32
8000168c:	fff00693          	li	a3,-1
80001690:	00078593          	mv	a1,a5
80001694:	0067fa63          	bgeu	a5,t1,800016a8 <vsnprintf+0x684>
80001698:	00ff05b3          	add	a1,t5,a5
8000169c:	00178793          	addi	a5,a5,1
800016a0:	01158023          	sb	a7,0(a1)
800016a4:	00078593          	mv	a1,a5
800016a8:	fff70713          	addi	a4,a4,-1
800016ac:	fed712e3          	bne	a4,a3,80001690 <vsnprintf+0x66c>
800016b0:	000f8693          	mv	a3,t6
800016b4:	00180813          	addi	a6,a6,1
800016b8:	a05ff06f          	j	800010bc <vsnprintf+0x98>
800016bc:	000e0813          	mv	a6,t3
800016c0:	0006ae83          	lw	t4,0(a3)
800016c4:	00468f93          	addi	t6,a3,4
800016c8:	560e8c63          	beqz	t4,80001c40 <vsnprintf+0xc1c>
800016cc:	000ec683          	lbu	a3,0(t4)
800016d0:	40068063          	beqz	a3,80001ad0 <vsnprintf+0xaac>
800016d4:	00000693          	li	a3,0
800016d8:	30d88463          	beq	a7,a3,800019e0 <vsnprintf+0x9bc>
800016dc:	00168693          	addi	a3,a3,1
800016e0:	00de8e33          	add	t3,t4,a3
800016e4:	000e4e03          	lbu	t3,0(t3)
800016e8:	fe0e18e3          	bnez	t3,800016d8 <vsnprintf+0x6b4>
800016ec:	40d70e33          	sub	t3,a4,a3
800016f0:	7bc05663          	blez	t3,80001e9c <vsnprintf+0xe78>
800016f4:	00e50533          	add	a0,a0,a4
800016f8:	34048663          	beqz	s1,80001a44 <vsnprintf+0xa20>
800016fc:	00000713          	li	a4,0
80001700:	00078593          	mv	a1,a5
80001704:	0067fe63          	bgeu	a5,t1,80001720 <vsnprintf+0x6fc>
80001708:	00ee88b3          	add	a7,t4,a4
8000170c:	0008c883          	lbu	a7,0(a7)
80001710:	00ff05b3          	add	a1,t5,a5
80001714:	00178793          	addi	a5,a5,1
80001718:	01158023          	sb	a7,0(a1)
8000171c:	00078593          	mv	a1,a5
80001720:	00170713          	addi	a4,a4,1
80001724:	fcd74ee3          	blt	a4,a3,80001700 <vsnprintf+0x6dc>
80001728:	000f8693          	mv	a3,t6
8000172c:	ba0484e3          	beqz	s1,800012d4 <vsnprintf+0x2b0>
80001730:	fffe0713          	addi	a4,t3,-1
80001734:	bbc050e3          	blez	t3,800012d4 <vsnprintf+0x2b0>
80001738:	02000893          	li	a7,32
8000173c:	fff00693          	li	a3,-1
80001740:	00078593          	mv	a1,a5
80001744:	0067fa63          	bgeu	a5,t1,80001758 <vsnprintf+0x734>
80001748:	00ff05b3          	add	a1,t5,a5
8000174c:	00178793          	addi	a5,a5,1
80001750:	01158023          	sb	a7,0(a1)
80001754:	00078593          	mv	a1,a5
80001758:	fff70713          	addi	a4,a4,-1
8000175c:	fed712e3          	bne	a4,a3,80001740 <vsnprintf+0x71c>
80001760:	000f8693          	mv	a3,t6
80001764:	f51ff06f          	j	800016b4 <vsnprintf+0x690>
80001768:	000e0813          	mv	a6,t3
8000176c:	40e008b3          	neg	a7,a4
80001770:	fff70e13          	addi	t3,a4,-1
80001774:	41f8d893          	srai	a7,a7,0x1f
80001778:	011e78b3          	and	a7,t3,a7
8000177c:	00188893          	addi	a7,a7,1
80001780:	0006af83          	lw	t6,0(a3)
80001784:	01150533          	add	a0,a0,a7
80001788:	00468693          	addi	a3,a3,4
8000178c:	52048a63          	beqz	s1,80001cc0 <vsnprintf+0xc9c>
80001790:	0067fa63          	bgeu	a5,t1,800017a4 <vsnprintf+0x780>
80001794:	00bf05b3          	add	a1,t5,a1
80001798:	00178793          	addi	a5,a5,1
8000179c:	01f58023          	sb	t6,0(a1)
800017a0:	00078593          	mv	a1,a5
800017a4:	ffe70713          	addi	a4,a4,-2
800017a8:	b3c056e3          	blez	t3,800012d4 <vsnprintf+0x2b0>
800017ac:	02000e13          	li	t3,32
800017b0:	fff00893          	li	a7,-1
800017b4:	00078593          	mv	a1,a5
800017b8:	0067fa63          	bgeu	a5,t1,800017cc <vsnprintf+0x7a8>
800017bc:	00ff05b3          	add	a1,t5,a5
800017c0:	00178793          	addi	a5,a5,1
800017c4:	01c58023          	sb	t3,0(a1)
800017c8:	00078593          	mv	a1,a5
800017cc:	fff70713          	addi	a4,a4,-1
800017d0:	ff1712e3          	bne	a4,a7,800017b4 <vsnprintf+0x790>
800017d4:	00180813          	addi	a6,a6,1
800017d8:	8e5ff06f          	j	800010bc <vsnprintf+0x98>
800017dc:	0006af83          	lw	t6,0(a3)
800017e0:	00000293          	li	t0,0
800017e4:	00468693          	addi	a3,a3,4
800017e8:	005fee33          	or	t3,t6,t0
800017ec:	520e1063          	bnez	t3,80001d0c <vsnprintf+0xce8>
800017f0:	70088663          	beqz	a7,80001efc <vsnprintf+0xed8>
800017f4:	03000e13          	li	t3,48
800017f8:	01c10823          	sb	t3,16(sp)
800017fc:	00100393          	li	t2,1
80001800:	01010e13          	addi	t3,sp,16
80001804:	007e0eb3          	add	t4,t3,t2
80001808:	03000f93          	li	t6,48
8000180c:	011e0e33          	add	t3,t3,a7
80001810:	7513d263          	bge	t2,a7,80001f54 <vsnprintf+0xf30>
80001814:	01fe8023          	sb	t6,0(t4)
80001818:	001e8e93          	addi	t4,t4,1
8000181c:	ffde1ce3          	bne	t3,t4,80001814 <vsnprintf+0x7f0>
80001820:	41170eb3          	sub	t4,a4,a7
80001824:	00088393          	mv	t2,a7
80001828:	01d04463          	bgtz	t4,80001830 <vsnprintf+0x80c>
8000182c:	00038713          	mv	a4,t2
80001830:	00e50533          	add	a0,a0,a4
80001834:	66048c63          	beqz	s1,80001eac <vsnprintf+0xe88>
80001838:	01010e13          	addi	t3,sp,16
8000183c:	007e03b3          	add	t2,t3,t2
80001840:	00078593          	mv	a1,a5
80001844:	0067fc63          	bgeu	a5,t1,8000185c <vsnprintf+0x838>
80001848:	fff3c703          	lbu	a4,-1(t2)
8000184c:	00ff05b3          	add	a1,t5,a5
80001850:	00178793          	addi	a5,a5,1
80001854:	00e58023          	sb	a4,0(a1)
80001858:	00078593          	mv	a1,a5
8000185c:	fff38393          	addi	t2,t2,-1
80001860:	fe7e10e3          	bne	t3,t2,80001840 <vsnprintf+0x81c>
80001864:	a60488e3          	beqz	s1,800012d4 <vsnprintf+0x2b0>
80001868:	fffe8713          	addi	a4,t4,-1
8000186c:	a7d054e3          	blez	t4,800012d4 <vsnprintf+0x2b0>
80001870:	02000e13          	li	t3,32
80001874:	fff00893          	li	a7,-1
80001878:	00078593          	mv	a1,a5
8000187c:	0067fa63          	bgeu	a5,t1,80001890 <vsnprintf+0x86c>
80001880:	00ff05b3          	add	a1,t5,a5
80001884:	00178793          	addi	a5,a5,1
80001888:	01c58023          	sb	t3,0(a1)
8000188c:	00078593          	mv	a1,a5
80001890:	fff70713          	addi	a4,a4,-1
80001894:	ff1712e3          	bne	a4,a7,80001878 <vsnprintf+0x854>
80001898:	00180813          	addi	a6,a6,1
8000189c:	821ff06f          	j	800010bc <vsnprintf+0x98>
800018a0:	0006df83          	lhu	t6,0(a3)
800018a4:	00000293          	li	t0,0
800018a8:	000e0813          	mv	a6,t3
800018ac:	00468693          	addi	a3,a3,4
800018b0:	f39ff06f          	j	800017e8 <vsnprintf+0x7c4>
800018b4:	40770eb3          	sub	t4,a4,t2
800018b8:	15d05a63          	blez	t4,80001a0c <vsnprintf+0x9e8>
800018bc:	00e50533          	add	a0,a0,a4
800018c0:	cc0498e3          	bnez	s1,80001590 <vsnprintf+0x56c>
800018c4:	1e0b1063          	bnez	s6,80001aa4 <vsnprintf+0xa80>
800018c8:	02000e13          	li	t3,32
800018cc:	fffe8713          	addi	a4,t4,-1
800018d0:	71d05663          	blez	t4,80001fdc <vsnprintf+0xfb8>
800018d4:	00070f93          	mv	t6,a4
800018d8:	fff00893          	li	a7,-1
800018dc:	00078593          	mv	a1,a5
800018e0:	0067fa63          	bgeu	a5,t1,800018f4 <vsnprintf+0x8d0>
800018e4:	00ff05b3          	add	a1,t5,a5
800018e8:	00178793          	addi	a5,a5,1
800018ec:	01c58023          	sb	t3,0(a1)
800018f0:	00078593          	mv	a1,a5
800018f4:	fff70713          	addi	a4,a4,-1
800018f8:	ff1712e3          	bne	a4,a7,800018dc <vsnprintf+0x8b8>
800018fc:	41df8eb3          	sub	t4,t6,t4
80001900:	01010e13          	addi	t3,sp,16
80001904:	c80396e3          	bnez	t2,80001590 <vsnprintf+0x56c>
80001908:	00180813          	addi	a6,a6,1
8000190c:	fb0ff06f          	j	800010bc <vsnprintf+0x98>
80001910:	fd0e8293          	addi	t0,t4,-48
80001914:	0ff2fa13          	zext.b	s4,t0
80001918:	00900e13          	li	t3,9
8000191c:	614e6e63          	bltu	t3,s4,80001f38 <vsnprintf+0xf14>
80001920:	00280e13          	addi	t3,a6,2
80001924:	00088813          	mv	a6,a7
80001928:	00000893          	li	a7,0
8000192c:	01c60e33          	add	t3,a2,t3
80001930:	00900a13          	li	s4,9
80001934:	00088b93          	mv	s7,a7
80001938:	000e4e83          	lbu	t4,0(t3)
8000193c:	002b9893          	slli	a7,s7,0x2
80001940:	017888b3          	add	a7,a7,s7
80001944:	00189893          	slli	a7,a7,0x1
80001948:	01128bb3          	add	s7,t0,a7
8000194c:	fd0e8293          	addi	t0,t4,-48
80001950:	0ff2f893          	zext.b	a7,t0
80001954:	000e0393          	mv	t2,t3
80001958:	00180813          	addi	a6,a6,1
8000195c:	001e0e13          	addi	t3,t3,1
80001960:	fd1a7ce3          	bgeu	s4,a7,80001938 <vsnprintf+0x914>
80001964:	000b8893          	mv	a7,s7
80001968:	819ff06f          	j	80001180 <vsnprintf+0x15c>
8000196c:	000e0813          	mv	a6,t3
80001970:	00150513          	addi	a0,a0,1
80001974:	9667f0e3          	bgeu	a5,t1,800012d4 <vsnprintf+0x2b0>
80001978:	00bf05b3          	add	a1,t5,a1
8000197c:	00178793          	addi	a5,a5,1
80001980:	02500713          	li	a4,37
80001984:	00e58023          	sb	a4,0(a1)
80001988:	00180813          	addi	a6,a6,1
8000198c:	00078593          	mv	a1,a5
80001990:	f2cff06f          	j	800010bc <vsnprintf+0x98>
80001994:	00050023          	sb	zero,0(a0)
80001998:	00000513          	li	a0,0
8000199c:	00008067          	ret
800019a0:	00280813          	addi	a6,a6,2
800019a4:	010603b3          	add	t2,a2,a6
800019a8:	0003ce83          	lbu	t4,0(t2)
800019ac:	02500e13          	li	t3,37
800019b0:	fdce80e3          	beq	t4,t3,80001970 <vsnprintf+0x94c>
800019b4:	fa8e8e13          	addi	t3,t4,-88
800019b8:	0ffe7e13          	zext.b	t3,t3
800019bc:	02000293          	li	t0,32
800019c0:	8fc2e2e3          	bltu	t0,t3,800012a4 <vsnprintf+0x280>
800019c4:	00001297          	auipc	t0,0x1
800019c8:	b6028293          	addi	t0,t0,-1184 # 80002524 <mainargs+0x294>
800019cc:	002e1e13          	slli	t3,t3,0x2
800019d0:	005e0e33          	add	t3,t3,t0
800019d4:	000e2e03          	lw	t3,0(t3)
800019d8:	005e0e33          	add	t3,t3,t0
800019dc:	000e0067          	jr	t3
800019e0:	41170e33          	sub	t3,a4,a7
800019e4:	55c05063          	blez	t3,80001f24 <vsnprintf+0xf00>
800019e8:	00e50533          	add	a0,a0,a4
800019ec:	04048c63          	beqz	s1,80001a44 <vsnprintf+0xa20>
800019f0:	d00896e3          	bnez	a7,800016fc <vsnprintf+0x6d8>
800019f4:	fffe0713          	addi	a4,t3,-1
800019f8:	d41ff06f          	j	80001738 <vsnprintf+0x714>
800019fc:	0006a283          	lw	t0,0(a3)
80001a00:	00000913          	li	s2,0
80001a04:	00468693          	addi	a3,a3,4
80001a08:	acdff06f          	j	800014d4 <vsnprintf+0x4b0>
80001a0c:	00038713          	mv	a4,t2
80001a10:	eadff06f          	j	800018bc <vsnprintf+0x898>
80001a14:	fffe8e93          	addi	t4,t4,-1
80001a18:	02000893          	li	a7,32
80001a1c:	fff00593          	li	a1,-1
80001a20:	0067f863          	bgeu	a5,t1,80001a30 <vsnprintf+0xa0c>
80001a24:	00ff0733          	add	a4,t5,a5
80001a28:	01170023          	sb	a7,0(a4)
80001a2c:	00178793          	addi	a5,a5,1
80001a30:	fffe8e93          	addi	t4,t4,-1
80001a34:	febe96e3          	bne	t4,a1,80001a20 <vsnprintf+0x9fc>
80001a38:	c19ff06f          	j	80001650 <vsnprintf+0x62c>
80001a3c:	00070e13          	mv	t3,a4
80001a40:	00000693          	li	a3,0
80001a44:	fffe0e13          	addi	t3,t3,-1
80001a48:	02000893          	li	a7,32
80001a4c:	fff00713          	li	a4,-1
80001a50:	00078593          	mv	a1,a5
80001a54:	0067fa63          	bgeu	a5,t1,80001a68 <vsnprintf+0xa44>
80001a58:	00ff05b3          	add	a1,t5,a5
80001a5c:	00178793          	addi	a5,a5,1
80001a60:	01158023          	sb	a7,0(a1)
80001a64:	00078593          	mv	a1,a5
80001a68:	fffe0e13          	addi	t3,t3,-1
80001a6c:	feee12e3          	bne	t3,a4,80001a50 <vsnprintf+0xa2c>
80001a70:	c80696e3          	bnez	a3,800016fc <vsnprintf+0x6d8>
80001a74:	000f8693          	mv	a3,t6
80001a78:	c3dff06f          	j	800016b4 <vsnprintf+0x690>
80001a7c:	0006ae83          	lw	t4,0(a3)
80001a80:	00468a13          	addi	s4,a3,4
80001a84:	000e0813          	mv	a6,t3
80001a88:	41fedf93          	srai	t6,t4,0x1f
80001a8c:	92dff06f          	j	800013b8 <vsnprintf+0x394>
80001a90:	0006a283          	lw	t0,0(a3)
80001a94:	00000913          	li	s2,0
80001a98:	000e0813          	mv	a6,t3
80001a9c:	00468693          	addi	a3,a3,4
80001aa0:	a35ff06f          	j	800014d4 <vsnprintf+0x4b0>
80001aa4:	e208d2e3          	bgez	a7,800018c8 <vsnprintf+0x8a4>
80001aa8:	03000e13          	li	t3,48
80001aac:	e21ff06f          	j	800018cc <vsnprintf+0x8a8>
80001ab0:	0006ce83          	lbu	t4,0(a3)
80001ab4:	00468a13          	addi	s4,a3,4
80001ab8:	00000f93          	li	t6,0
80001abc:	901ff06f          	j	800013bc <vsnprintf+0x398>
80001ac0:	0006c283          	lbu	t0,0(a3)
80001ac4:	00000913          	li	s2,0
80001ac8:	00468693          	addi	a3,a3,4
80001acc:	a09ff06f          	j	800014d4 <vsnprintf+0x4b0>
80001ad0:	000f8693          	mv	a3,t6
80001ad4:	80e050e3          	blez	a4,800012d4 <vsnprintf+0x2b0>
80001ad8:	00e50533          	add	a0,a0,a4
80001adc:	f60480e3          	beqz	s1,80001a3c <vsnprintf+0xa18>
80001ae0:	fff70713          	addi	a4,a4,-1
80001ae4:	c55ff06f          	j	80001738 <vsnprintf+0x714>
80001ae8:	00768693          	addi	a3,a3,7
80001aec:	ff86f693          	andi	a3,a3,-8
80001af0:	0006a283          	lw	t0,0(a3)
80001af4:	0046a903          	lw	s2,4(a3)
80001af8:	00868693          	addi	a3,a3,8
80001afc:	9d9ff06f          	j	800014d4 <vsnprintf+0x4b0>
80001b00:	00768693          	addi	a3,a3,7
80001b04:	ff86f693          	andi	a3,a3,-8
80001b08:	0006ae83          	lw	t4,0(a3)
80001b0c:	0046af83          	lw	t6,4(a3)
80001b10:	00868a13          	addi	s4,a3,8
80001b14:	8a5ff06f          	j	800013b8 <vsnprintf+0x394>
80001b18:	0006af83          	lw	t6,0(a3)
80001b1c:	00000293          	li	t0,0
80001b20:	000e0813          	mv	a6,t3
80001b24:	00468693          	addi	a3,a3,4
80001b28:	cc1ff06f          	j	800017e8 <vsnprintf+0x7c4>
80001b2c:	0006cf83          	lbu	t6,0(a3)
80001b30:	00000293          	li	t0,0
80001b34:	00468693          	addi	a3,a3,4
80001b38:	cb1ff06f          	j	800017e8 <vsnprintf+0x7c4>
80001b3c:	00070e93          	mv	t4,a4
80001b40:	00000393          	li	t2,0
80001b44:	f60b10e3          	bnez	s6,80001aa4 <vsnprintf+0xa80>
80001b48:	fffe8713          	addi	a4,t4,-1
80001b4c:	00070f93          	mv	t6,a4
80001b50:	02000e13          	li	t3,32
80001b54:	d85ff06f          	j	800018d8 <vsnprintf+0x8b4>
80001b58:	00768693          	addi	a3,a3,7
80001b5c:	ff86f693          	andi	a3,a3,-8
80001b60:	0006af83          	lw	t6,0(a3)
80001b64:	0046a283          	lw	t0,4(a3)
80001b68:	00868693          	addi	a3,a3,8
80001b6c:	c7dff06f          	j	800017e8 <vsnprintf+0x7c4>
80001b70:	01d036b3          	snez	a3,t4
80001b74:	41f00fb3          	neg	t6,t6
80001b78:	40df8fb3          	sub	t6,t6,a3
80001b7c:	05812e23          	sw	s8,92(sp)
80001b80:	41d00eb3          	neg	t4,t4
80001b84:	00100693          	li	a3,1
80001b88:	ccccd3b7          	lui	t2,0xccccd
80001b8c:	ccccdbb7          	lui	s7,0xccccd
80001b90:	00000293          	li	t0,0
80001b94:	01010e13          	addi	t3,sp,16
80001b98:	00500c13          	li	s8,5
80001b9c:	ccd38393          	addi	t2,t2,-819 # cccccccd <_end+0x4ccb6ccd>
80001ba0:	cccb8b93          	addi	s7,s7,-820 # cccccccc <_end+0x4ccb6ccc>
80001ba4:	01512023          	sw	s5,0(sp)
80001ba8:	00912223          	sw	s1,4(sp)
80001bac:	01212423          	sw	s2,8(sp)
80001bb0:	01612623          	sw	s6,12(sp)
80001bb4:	01fe84b3          	add	s1,t4,t6
80001bb8:	01d4b933          	sltu	s2,s1,t4
80001bbc:	012484b3          	add	s1,s1,s2
80001bc0:	0384f4b3          	remu	s1,s1,s8
80001bc4:	00128293          	addi	t0,t0,1
80001bc8:	005e0ab3          	add	s5,t3,t0
80001bcc:	409e84b3          	sub	s1,t4,s1
80001bd0:	009eb933          	sltu	s2,t4,s1
80001bd4:	412f8933          	sub	s2,t6,s2
80001bd8:	02790933          	mul	s2,s2,t2
80001bdc:	03748fb3          	mul	t6,s1,s7
80001be0:	0274bb33          	mulhu	s6,s1,t2
80001be4:	01f90fb3          	add	t6,s2,t6
80001be8:	027484b3          	mul	s1,s1,t2
80001bec:	016f8fb3          	add	t6,t6,s6
80001bf0:	01ff9913          	slli	s2,t6,0x1f
80001bf4:	001fdf93          	srli	t6,t6,0x1
80001bf8:	0014d493          	srli	s1,s1,0x1
80001bfc:	009964b3          	or	s1,s2,s1
80001c00:	00249913          	slli	s2,s1,0x2
80001c04:	00990933          	add	s2,s2,s1
80001c08:	00191913          	slli	s2,s2,0x1
80001c0c:	412e8933          	sub	s2,t4,s2
80001c10:	03090913          	addi	s2,s2,48
80001c14:	00048e93          	mv	t4,s1
80001c18:	ff2a8fa3          	sb	s2,-1(s5)
80001c1c:	01f4e4b3          	or	s1,s1,t6
80001c20:	f8049ae3          	bnez	s1,80001bb4 <vsnprintf+0xb90>
80001c24:	00012a83          	lw	s5,0(sp)
80001c28:	00412483          	lw	s1,4(sp)
80001c2c:	00812903          	lw	s2,8(sp)
80001c30:	00c12b03          	lw	s6,12(sp)
80001c34:	05c12c03          	lw	s8,92(sp)
80001c38:	fb12c463          	blt	t0,a7,800013e0 <vsnprintf+0x3bc>
80001c3c:	fd4ff06f          	j	80001410 <vsnprintf+0x3ec>
80001c40:	00000e97          	auipc	t4,0x0
80001c44:	640e8e93          	addi	t4,t4,1600 # 80002280 <_etext+0x194>
80001c48:	00000693          	li	a3,0
80001c4c:	a8dff06f          	j	800016d8 <vsnprintf+0x6b4>
80001c50:	00000897          	auipc	a7,0x0
80001c54:	63988893          	addi	a7,a7,1593 # 80002289 <_etext+0x19d>
80001c58:	00088693          	mv	a3,a7
80001c5c:	00000713          	li	a4,0
80001c60:	0006c583          	lbu	a1,0(a3)
80001c64:	00070e13          	mv	t3,a4
80001c68:	00168693          	addi	a3,a3,1
80001c6c:	00170713          	addi	a4,a4,1
80001c70:	fe0598e3          	bnez	a1,80001c60 <vsnprintf+0xc3c>
80001c74:	00e50533          	add	a0,a0,a4
80001c78:	01c886b3          	add	a3,a7,t3
80001c7c:	00000717          	auipc	a4,0x0
80001c80:	60c70713          	addi	a4,a4,1548 # 80002288 <_etext+0x19c>
80001c84:	00078593          	mv	a1,a5
80001c88:	0067fc63          	bgeu	a5,t1,80001ca0 <vsnprintf+0xc7c>
80001c8c:	00074883          	lbu	a7,0(a4)
80001c90:	00ff05b3          	add	a1,t5,a5
80001c94:	00178793          	addi	a5,a5,1
80001c98:	01158023          	sb	a7,0(a1)
80001c9c:	00078593          	mv	a1,a5
80001ca0:	00170713          	addi	a4,a4,1
80001ca4:	fee690e3          	bne	a3,a4,80001c84 <vsnprintf+0xc60>
80001ca8:	000f8693          	mv	a3,t6
80001cac:	a09ff06f          	j	800016b4 <vsnprintf+0x690>
80001cb0:	0014b713          	seqz	a4,s1
80001cb4:	01150533          	add	a0,a0,a7
80001cb8:	40ee8eb3          	sub	t4,t4,a4
80001cbc:	995ff06f          	j	80001650 <vsnprintf+0x62c>
80001cc0:	ffe70713          	addi	a4,a4,-2
80001cc4:	02000e93          	li	t4,32
80001cc8:	fff00893          	li	a7,-1
80001ccc:	03c05263          	blez	t3,80001cf0 <vsnprintf+0xccc>
80001cd0:	00078593          	mv	a1,a5
80001cd4:	0067fa63          	bgeu	a5,t1,80001ce8 <vsnprintf+0xcc4>
80001cd8:	00ff05b3          	add	a1,t5,a5
80001cdc:	00178793          	addi	a5,a5,1
80001ce0:	01d58023          	sb	t4,0(a1)
80001ce4:	00078593          	mv	a1,a5
80001ce8:	fff70713          	addi	a4,a4,-1
80001cec:	ff1712e3          	bne	a4,a7,80001cd0 <vsnprintf+0xcac>
80001cf0:	de67f263          	bgeu	a5,t1,800012d4 <vsnprintf+0x2b0>
80001cf4:	00bf05b3          	add	a1,t5,a1
80001cf8:	00178793          	addi	a5,a5,1
80001cfc:	01f58023          	sb	t6,0(a1)
80001d00:	00180813          	addi	a6,a6,1
80001d04:	00078593          	mv	a1,a5
80001d08:	bb4ff06f          	j	800010bc <vsnprintf+0x98>
80001d0c:	05812e23          	sw	s8,92(sp)
80001d10:	ccccd937          	lui	s2,0xccccd
80001d14:	ccccdc37          	lui	s8,0xccccd
80001d18:	00000393          	li	t2,0
80001d1c:	01010e13          	addi	t3,sp,16
80001d20:	ccd90913          	addi	s2,s2,-819 # cccccccd <_end+0x4ccb6ccd>
80001d24:	cccc0c13          	addi	s8,s8,-820 # cccccccc <_end+0x4ccb6ccc>
80001d28:	00912223          	sw	s1,4(sp)
80001d2c:	005f8eb3          	add	t4,t6,t0
80001d30:	01feb4b3          	sltu	s1,t4,t6
80001d34:	009e8eb3          	add	t4,t4,s1
80001d38:	00500493          	li	s1,5
80001d3c:	029efeb3          	remu	t4,t4,s1
80001d40:	00028a13          	mv	s4,t0
80001d44:	00138393          	addi	t2,t2,1
80001d48:	007e0ab3          	add	s5,t3,t2
80001d4c:	01f12023          	sw	t6,0(sp)
80001d50:	41df8eb3          	sub	t4,t6,t4
80001d54:	01dfb4b3          	sltu	s1,t6,t4
80001d58:	409284b3          	sub	s1,t0,s1
80001d5c:	032484b3          	mul	s1,s1,s2
80001d60:	038e82b3          	mul	t0,t4,s8
80001d64:	032ebbb3          	mulhu	s7,t4,s2
80001d68:	005482b3          	add	t0,s1,t0
80001d6c:	032e8eb3          	mul	t4,t4,s2
80001d70:	017282b3          	add	t0,t0,s7
80001d74:	01f29493          	slli	s1,t0,0x1f
80001d78:	0012d293          	srli	t0,t0,0x1
80001d7c:	001ede93          	srli	t4,t4,0x1
80001d80:	01d4eeb3          	or	t4,s1,t4
80001d84:	002e9493          	slli	s1,t4,0x2
80001d88:	01d484b3          	add	s1,s1,t4
80001d8c:	00149493          	slli	s1,s1,0x1
80001d90:	409f84b3          	sub	s1,t6,s1
80001d94:	03048493          	addi	s1,s1,48
80001d98:	fe9a8fa3          	sb	s1,-1(s5)
80001d9c:	000e8f93          	mv	t6,t4
80001da0:	f80a16e3          	bnez	s4,80001d2c <vsnprintf+0xd08>
80001da4:	00012e83          	lw	t4,0(sp)
80001da8:	00900493          	li	s1,9
80001dac:	f9d4e0e3          	bltu	s1,t4,80001d2c <vsnprintf+0xd08>
80001db0:	00412483          	lw	s1,4(sp)
80001db4:	05c12c03          	lw	s8,92(sp)
80001db8:	a49ff06f          	j	80001800 <vsnprintf+0x7dc>
80001dbc:	05812e23          	sw	s8,92(sp)
80001dc0:	00000393          	li	t2,0
80001dc4:	01010e13          	addi	t3,sp,16
80001dc8:	00f2fa13          	andi	s4,t0,15
80001dcc:	014a8a33          	add	s4,s5,s4
80001dd0:	000a4b83          	lbu	s7,0(s4)
80001dd4:	01c91c13          	slli	s8,s2,0x1c
80001dd8:	00138393          	addi	t2,t2,1
80001ddc:	0042d293          	srli	t0,t0,0x4
80001de0:	007e0a33          	add	s4,t3,t2
80001de4:	005c62b3          	or	t0,s8,t0
80001de8:	00495913          	srli	s2,s2,0x4
80001dec:	ff7a0fa3          	sb	s7,-1(s4)
80001df0:	0122ea33          	or	s4,t0,s2
80001df4:	fc0a1ae3          	bnez	s4,80001dc8 <vsnprintf+0xda4>
80001df8:	05c12c03          	lw	s8,92(sp)
80001dfc:	f113c863          	blt	t2,a7,8000150c <vsnprintf+0x4e8>
80001e00:	f3cff06f          	j	8000153c <vsnprintf+0x518>
80001e04:	02000e13          	li	t3,32
80001e08:	000b0863          	beqz	s6,80001e18 <vsnprintf+0xdf4>
80001e0c:	41f8de13          	srai	t3,a7,0x1f
80001e10:	010e7e13          	andi	t3,t3,16
80001e14:	020e0e13          	addi	t3,t3,32
80001e18:	ffff8713          	addi	a4,t6,-1
80001e1c:	1bf05263          	blez	t6,80001fc0 <vsnprintf+0xf9c>
80001e20:	00070f93          	mv	t6,a4
80001e24:	fff00713          	li	a4,-1
80001e28:	00078593          	mv	a1,a5
80001e2c:	0067fa63          	bgeu	a5,t1,80001e40 <vsnprintf+0xe1c>
80001e30:	00ff05b3          	add	a1,t5,a5
80001e34:	00178793          	addi	a5,a5,1
80001e38:	01c58023          	sb	t3,0(a1)
80001e3c:	00078593          	mv	a1,a5
80001e40:	ffff8f93          	addi	t6,t6,-1
80001e44:	feef92e3          	bne	t6,a4,80001e28 <vsnprintf+0xe04>
80001e48:	e00e9063          	bnez	t4,80001448 <vsnprintf+0x424>
80001e4c:	00180813          	addi	a6,a6,1
80001e50:	a6cff06f          	j	800010bc <vsnprintf+0x98>
80001e54:	000a0693          	mv	a3,s4
80001e58:	020a8063          	beqz	s5,80001e78 <vsnprintf+0xe54>
80001e5c:	01010e93          	addi	t4,sp,16
80001e60:	04028e13          	addi	t3,t0,64
80001e64:	01de0e33          	add	t3,t3,t4
80001e68:	02b00f93          	li	t6,43
80001e6c:	00128e93          	addi	t4,t0,1
80001e70:	fdfe0023          	sb	t6,-64(t3)
80001e74:	dbcff06f          	j	80001430 <vsnprintf+0x40c>
80001e78:	00028e93          	mv	t4,t0
80001e7c:	da090a63          	beqz	s2,80001430 <vsnprintf+0x40c>
80001e80:	04028e13          	addi	t3,t0,64
80001e84:	01010f93          	addi	t6,sp,16
80001e88:	01fe02b3          	add	t0,t3,t6
80001e8c:	02000e13          	li	t3,32
80001e90:	001e8e93          	addi	t4,t4,1
80001e94:	fdc28023          	sb	t3,-64(t0)
80001e98:	d98ff06f          	j	80001430 <vsnprintf+0x40c>
80001e9c:	0014b713          	seqz	a4,s1
80001ea0:	00d50533          	add	a0,a0,a3
80001ea4:	40ee0e33          	sub	t3,t3,a4
80001ea8:	855ff06f          	j	800016fc <vsnprintf+0x6d8>
80001eac:	080b1c63          	bnez	s6,80001f44 <vsnprintf+0xf20>
80001eb0:	000e8713          	mv	a4,t4
80001eb4:	02000893          	li	a7,32
80001eb8:	fff70e93          	addi	t4,a4,-1
80001ebc:	02e05463          	blez	a4,80001ee4 <vsnprintf+0xec0>
80001ec0:	fff00713          	li	a4,-1
80001ec4:	00078593          	mv	a1,a5
80001ec8:	0067fa63          	bgeu	a5,t1,80001edc <vsnprintf+0xeb8>
80001ecc:	00ff05b3          	add	a1,t5,a5
80001ed0:	00178793          	addi	a5,a5,1
80001ed4:	01158023          	sb	a7,0(a1)
80001ed8:	00078593          	mv	a1,a5
80001edc:	fffe8e93          	addi	t4,t4,-1
80001ee0:	feee92e3          	bne	t4,a4,80001ec4 <vsnprintf+0xea0>
80001ee4:	94039ae3          	bnez	t2,80001838 <vsnprintf+0x814>
80001ee8:	00180813          	addi	a6,a6,1
80001eec:	9d0ff06f          	j	800010bc <vsnprintf+0x98>
80001ef0:	00000293          	li	t0,0
80001ef4:	000a0693          	mv	a3,s4
80001ef8:	f61ff06f          	j	80001e58 <vsnprintf+0xe34>
80001efc:	06e05063          	blez	a4,80001f5c <vsnprintf+0xf38>
80001f00:	00e50533          	add	a0,a0,a4
80001f04:	04048e63          	beqz	s1,80001f60 <vsnprintf+0xf3c>
80001f08:	fff70713          	addi	a4,a4,-1
80001f0c:	965ff06f          	j	80001870 <vsnprintf+0x84c>
80001f10:	bce05263          	blez	a4,800012d4 <vsnprintf+0x2b0>
80001f14:	00e50533          	add	a0,a0,a4
80001f18:	c20482e3          	beqz	s1,80001b3c <vsnprintf+0xb18>
80001f1c:	fff70713          	addi	a4,a4,-1
80001f20:	ea4ff06f          	j	800015c4 <vsnprintf+0x5a0>
80001f24:	01150533          	add	a0,a0,a7
80001f28:	08048463          	beqz	s1,80001fb0 <vsnprintf+0xf8c>
80001f2c:	fc089863          	bnez	a7,800016fc <vsnprintf+0x6d8>
80001f30:	000f8693          	mv	a3,t6
80001f34:	f80ff06f          	j	800016b4 <vsnprintf+0x690>
80001f38:	00088813          	mv	a6,a7
80001f3c:	00000893          	li	a7,0
80001f40:	a40ff06f          	j	80001180 <vsnprintf+0x15c>
80001f44:	f608d6e3          	bgez	a7,80001eb0 <vsnprintf+0xe8c>
80001f48:	000e8713          	mv	a4,t4
80001f4c:	03000893          	li	a7,48
80001f50:	f69ff06f          	j	80001eb8 <vsnprintf+0xe94>
80001f54:	40770eb3          	sub	t4,a4,t2
80001f58:	8d1ff06f          	j	80001828 <vsnprintf+0x804>
80001f5c:	b6049c63          	bnez	s1,800012d4 <vsnprintf+0x2b0>
80001f60:	00000393          	li	t2,0
80001f64:	00070e93          	mv	t4,a4
80001f68:	f40b04e3          	beqz	s6,80001eb0 <vsnprintf+0xe8c>
80001f6c:	02000893          	li	a7,32
80001f70:	f49ff06f          	j	80001eb8 <vsnprintf+0xe94>
80001f74:	00750533          	add	a0,a0,t2
80001f78:	e0049c63          	bnez	s1,80001590 <vsnprintf+0x56c>
80001f7c:	b20b14e3          	bnez	s6,80001aa4 <vsnprintf+0xa80>
80001f80:	fffe8e93          	addi	t4,t4,-1
80001f84:	01010e13          	addi	t3,sp,16
80001f88:	e08ff06f          	j	80001590 <vsnprintf+0x56c>
80001f8c:	05812e23          	sw	s8,92(sp)
80001f90:	00000693          	li	a3,0
80001f94:	bf5ff06f          	j	80001b88 <vsnprintf+0xb64>
80001f98:	fff70e93          	addi	t4,a4,-1
80001f9c:	03d05863          	blez	t4,80001fcc <vsnprintf+0xfa8>
80001fa0:	00e50533          	add	a0,a0,a4
80001fa4:	ba0480e3          	beqz	s1,80001b44 <vsnprintf+0xb20>
80001fa8:	00048393          	mv	t2,s1
80001fac:	de4ff06f          	j	80001590 <vsnprintf+0x56c>
80001fb0:	fffe0e13          	addi	t3,t3,-1
80001fb4:	f4089463          	bnez	a7,800016fc <vsnprintf+0x6d8>
80001fb8:	000f8693          	mv	a3,t6
80001fbc:	ef8ff06f          	j	800016b4 <vsnprintf+0x690>
80001fc0:	00070f93          	mv	t6,a4
80001fc4:	c80e9263          	bnez	t4,80001448 <vsnprintf+0x424>
80001fc8:	e85ff06f          	j	80001e4c <vsnprintf+0xe28>
80001fcc:	00150513          	addi	a0,a0,1
80001fd0:	fa0486e3          	beqz	s1,80001f7c <vsnprintf+0xf58>
80001fd4:	00048393          	mv	t2,s1
80001fd8:	db8ff06f          	j	80001590 <vsnprintf+0x56c>
80001fdc:	00070e93          	mv	t4,a4
80001fe0:	921ff06f          	j	80001900 <vsnprintf+0x8dc>
80001fe4:	00058793          	mv	a5,a1
80001fe8:	00180813          	addi	a6,a6,1
80001fec:	8d0ff06f          	j	800010bc <vsnprintf+0x98>

80001ff0 <printf>:
80001ff0:	fb010113          	addi	sp,sp,-80
80001ff4:	00001e37          	lui	t3,0x1
80001ff8:	fffff2b7          	lui	t0,0xfffff
80001ffc:	02912223          	sw	s1,36(sp)
80002000:	02112623          	sw	ra,44(sp)
80002004:	02812423          	sw	s0,40(sp)
80002008:	fffff337          	lui	t1,0xfffff
8000200c:	00510133          	add	sp,sp,t0
80002010:	010e0e93          	addi	t4,t3,16 # 1010 <_entry_offset+0x1010>
80002014:	006e8eb3          	add	t4,t4,t1
80002018:	01010313          	addi	t1,sp,16
8000201c:	01010f13          	addi	t5,sp,16
80002020:	006e8333          	add	t1,t4,t1
80002024:	024e0e93          	addi	t4,t3,36
80002028:	00612623          	sw	t1,12(sp)
8000202c:	01ee8eb3          	add	t4,t4,t5
80002030:	00bea023          	sw	a1,0(t4)
80002034:	028e0593          	addi	a1,t3,40
80002038:	01e585b3          	add	a1,a1,t5
8000203c:	00c5a023          	sw	a2,0(a1)
80002040:	02ce0613          	addi	a2,t3,44
80002044:	01e60633          	add	a2,a2,t5
80002048:	030e0e93          	addi	t4,t3,48
8000204c:	00d62023          	sw	a3,0(a2)
80002050:	01ee8eb3          	add	t4,t4,t5
80002054:	034e0313          	addi	t1,t3,52
80002058:	00050613          	mv	a2,a0
8000205c:	00c12503          	lw	a0,12(sp)
80002060:	00eea023          	sw	a4,0(t4)
80002064:	000e0713          	mv	a4,t3
80002068:	034e0e13          	addi	t3,t3,52
8000206c:	01ee0e33          	add	t3,t3,t5
80002070:	00fe2023          	sw	a5,0(t3)
80002074:	00070793          	mv	a5,a4
80002078:	03870713          	addi	a4,a4,56
8000207c:	01e70733          	add	a4,a4,t5
80002080:	03c78793          	addi	a5,a5,60
80002084:	01072023          	sw	a6,0(a4)
80002088:	01e787b3          	add	a5,a5,t5
8000208c:	0117a023          	sw	a7,0(a5)
80002090:	00c12783          	lw	a5,12(sp)
80002094:	00230333          	add	t1,t1,sp
80002098:	00030693          	mv	a3,t1
8000209c:	000015b7          	lui	a1,0x1
800020a0:	fe67ae23          	sw	t1,-4(a5)
800020a4:	f81fe0ef          	jal	80001024 <vsnprintf>
800020a8:	00c12783          	lw	a5,12(sp)
800020ac:	00050493          	mv	s1,a0
800020b0:	0007c503          	lbu	a0,0(a5)
800020b4:	00050c63          	beqz	a0,800020cc <printf+0xdc>
800020b8:	00178413          	addi	s0,a5,1
800020bc:	fe0fe0ef          	jal	8000089c <putch>
800020c0:	00044503          	lbu	a0,0(s0)
800020c4:	00140413          	addi	s0,s0,1
800020c8:	fe051ae3          	bnez	a0,800020bc <printf+0xcc>
800020cc:	000012b7          	lui	t0,0x1
800020d0:	00510133          	add	sp,sp,t0
800020d4:	02c12083          	lw	ra,44(sp)
800020d8:	00048513          	mv	a0,s1
800020dc:	02812403          	lw	s0,40(sp)
800020e0:	02412483          	lw	s1,36(sp)
800020e4:	05010113          	addi	sp,sp,80
800020e8:	00008067          	ret
