
/home/mubai/ysyx-workbench/am-kernels/kernels/slider/build/slider-riscv32-nemu.elf:     file format elf32-littleriscv


Disassembly of section .text:

80000000 <_start>:
80000000:	00000413          	li	s0,0
80000004:	000f4117          	auipc	sp,0xf4
80000008:	ffc10113          	addi	sp,sp,-4 # 800f4000 <_end>
8000000c:	408000ef          	jal	80000414 <_trm_init>

80000010 <display_image>:
80000010:	000757b7          	lui	a5,0x75
80000014:	30078793          	addi	a5,a5,768 # 75300 <_entry_offset+0x75300>
80000018:	02f507b3          	mul	a5,a0,a5
8000001c:	fd010113          	addi	sp,sp,-48
80000020:	19000713          	li	a4,400
80000024:	00e12a23          	sw	a4,20(sp)
80000028:	00001717          	auipc	a4,0x1
8000002c:	94870713          	addi	a4,a4,-1720 # 80000970 <image>
80000030:	00810593          	addi	a1,sp,8
80000034:	00b00513          	li	a0,11
80000038:	02112623          	sw	ra,44(sp)
8000003c:	00012423          	sw	zero,8(sp)
80000040:	00012623          	sw	zero,12(sp)
80000044:	00e787b3          	add	a5,a5,a4
80000048:	00f12823          	sw	a5,16(sp)
8000004c:	12c00793          	li	a5,300
80000050:	00f12c23          	sw	a5,24(sp)
80000054:	00100793          	li	a5,1
80000058:	00f10e23          	sb	a5,28(sp)
8000005c:	208000ef          	jal	80000264 <ioe_write>
80000060:	02c12083          	lw	ra,44(sp)
80000064:	03010113          	addi	sp,sp,48
80000068:	00008067          	ret

8000006c <main>:
8000006c:	fb010113          	addi	sp,sp,-80
80000070:	04112623          	sw	ra,76(sp)
80000074:	04912223          	sw	s1,68(sp)
80000078:	05212023          	sw	s2,64(sp)
8000007c:	03312e23          	sw	s3,60(sp)
80000080:	03412c23          	sw	s4,56(sp)
80000084:	03512a23          	sw	s5,52(sp)
80000088:	03612823          	sw	s6,48(sp)
8000008c:	03712623          	sw	s7,44(sp)
80000090:	03812423          	sw	s8,40(sp)
80000094:	03912223          	sw	s9,36(sp)
80000098:	04812423          	sw	s0,72(sp)
8000009c:	150000ef          	jal	800001ec <ioe_init>
800000a0:	00000513          	li	a0,0
800000a4:	f6dff0ef          	jal	80000010 <display_image>
800000a8:	00001b17          	auipc	s6,0x1
800000ac:	8c8b0b13          	addi	s6,s6,-1848 # 80000970 <image>
800000b0:	000eba17          	auipc	s4,0xeb
800000b4:	ec8a0a13          	addi	s4,s4,-312 # 800eaf78 <lut>
800000b8:	416a0a33          	sub	s4,s4,s6
800000bc:	be53d7b7          	lui	a5,0xbe53d
800000c0:	408a5a13          	srai	s4,s4,0x8
800000c4:	4db78793          	addi	a5,a5,1243 # be53d4db <_end+0x3e4494db>
800000c8:	02fa0a33          	mul	s4,s4,a5
800000cc:	000019b7          	lui	s3,0x1
800000d0:	00075ab7          	lui	s5,0x75
800000d4:	00000913          	li	s2,0
800000d8:	00000493          	li	s1,0
800000dc:	38898993          	addi	s3,s3,904 # 1388 <_entry_offset+0x1388>
800000e0:	300a8a93          	addi	s5,s5,768 # 75300 <_entry_offset+0x75300>
800000e4:	19000c93          	li	s9,400
800000e8:	12c00c13          	li	s8,300
800000ec:	00100b93          	li	s7,1
800000f0:	00810593          	addi	a1,sp,8
800000f4:	00600513          	li	a0,6
800000f8:	150000ef          	jal	80000248 <ioe_read>
800000fc:	00812503          	lw	a0,8(sp)
80000100:	00c12583          	lw	a1,12(sp)
80000104:	3e800613          	li	a2,1000
80000108:	00000693          	li	a3,0
8000010c:	690000ef          	jal	8000079c <__udivdi3>
80000110:	412507b3          	sub	a5,a0,s2
80000114:	00050413          	mv	s0,a0
80000118:	fcf9fce3          	bgeu	s3,a5,800000f0 <main+0x84>
8000011c:	00148493          	addi	s1,s1,1
80000120:	0344e4b3          	rem	s1,s1,s4
80000124:	00810593          	addi	a1,sp,8
80000128:	00b00513          	li	a0,11
8000012c:	00012423          	sw	zero,8(sp)
80000130:	00012623          	sw	zero,12(sp)
80000134:	01912a23          	sw	s9,20(sp)
80000138:	01812c23          	sw	s8,24(sp)
8000013c:	01710e23          	sb	s7,28(sp)
80000140:	00040913          	mv	s2,s0
80000144:	035487b3          	mul	a5,s1,s5
80000148:	00fb07b3          	add	a5,s6,a5
8000014c:	00f12823          	sw	a5,16(sp)
80000150:	114000ef          	jal	80000264 <ioe_write>
80000154:	f9dff06f          	j	800000f0 <main+0x84>

80000158 <__am_timer_config>:
80000158:	00100793          	li	a5,1
8000015c:	00f50023          	sb	a5,0(a0)
80000160:	00f500a3          	sb	a5,1(a0)
80000164:	00008067          	ret

80000168 <__am_input_config>:
80000168:	00100793          	li	a5,1
8000016c:	00f50023          	sb	a5,0(a0)
80000170:	00008067          	ret

80000174 <__am_uart_config>:
80000174:	00050023          	sb	zero,0(a0)
80000178:	00008067          	ret

8000017c <__am_net_config>:
8000017c:	00050023          	sb	zero,0(a0)
80000180:	00008067          	ret

80000184 <fail>:
80000184:	ff010113          	addi	sp,sp,-16
80000188:	00812423          	sw	s0,8(sp)
8000018c:	00112623          	sw	ra,12(sp)
80000190:	00000417          	auipc	s0,0x0
80000194:	71c40413          	addi	s0,s0,1820 # 800008ac <_etext>
80000198:	04100513          	li	a0,65
8000019c:	260000ef          	jal	800003fc <putch>
800001a0:	00144503          	lbu	a0,1(s0)
800001a4:	00140413          	addi	s0,s0,1
800001a8:	fe051ae3          	bnez	a0,8000019c <fail+0x18>
800001ac:	00000417          	auipc	s0,0x0
800001b0:	71040413          	addi	s0,s0,1808 # 800008bc <_etext+0x10>
800001b4:	06100513          	li	a0,97
800001b8:	244000ef          	jal	800003fc <putch>
800001bc:	00144503          	lbu	a0,1(s0)
800001c0:	00140413          	addi	s0,s0,1
800001c4:	fe051ae3          	bnez	a0,800001b8 <fail+0x34>
800001c8:	00000417          	auipc	s0,0x0
800001cc:	71040413          	addi	s0,s0,1808 # 800008d8 <_etext+0x2c>
800001d0:	02000513          	li	a0,32
800001d4:	228000ef          	jal	800003fc <putch>
800001d8:	00144503          	lbu	a0,1(s0)
800001dc:	00140413          	addi	s0,s0,1
800001e0:	fe051ae3          	bnez	a0,800001d4 <fail+0x50>
800001e4:	00100513          	li	a0,1
800001e8:	220000ef          	jal	80000408 <halt>

800001ec <ioe_init>:
800001ec:	ff010113          	addi	sp,sp,-16
800001f0:	00112623          	sw	ra,12(sp)
800001f4:	000eb797          	auipc	a5,0xeb
800001f8:	d8478793          	addi	a5,a5,-636 # 800eaf78 <lut>
800001fc:	000eb697          	auipc	a3,0xeb
80000200:	f7c68693          	addi	a3,a3,-132 # 800eb178 <_bss_start>
80000204:	00000617          	auipc	a2,0x0
80000208:	f8060613          	addi	a2,a2,-128 # 80000184 <fail>
8000020c:	00c0006f          	j	80000218 <ioe_init+0x2c>
80000210:	00478793          	addi	a5,a5,4
80000214:	00d78c63          	beq	a5,a3,8000022c <ioe_init+0x40>
80000218:	0007a703          	lw	a4,0(a5)
8000021c:	fe071ae3          	bnez	a4,80000210 <ioe_init+0x24>
80000220:	00c7a023          	sw	a2,0(a5)
80000224:	00478793          	addi	a5,a5,4
80000228:	fed798e3          	bne	a5,a3,80000218 <ioe_init+0x2c>
8000022c:	0c0000ef          	jal	800002ec <__am_gpu_init>
80000230:	050000ef          	jal	80000280 <__am_timer_init>
80000234:	19c000ef          	jal	800003d0 <__am_audio_init>
80000238:	00c12083          	lw	ra,12(sp)
8000023c:	00100513          	li	a0,1
80000240:	01010113          	addi	sp,sp,16
80000244:	00008067          	ret

80000248 <ioe_read>:
80000248:	00251513          	slli	a0,a0,0x2
8000024c:	000eb797          	auipc	a5,0xeb
80000250:	d2c78793          	addi	a5,a5,-724 # 800eaf78 <lut>
80000254:	00a787b3          	add	a5,a5,a0
80000258:	0007a783          	lw	a5,0(a5)
8000025c:	00058513          	mv	a0,a1
80000260:	00078067          	jr	a5

80000264 <ioe_write>:
80000264:	00251513          	slli	a0,a0,0x2
80000268:	000eb797          	auipc	a5,0xeb
8000026c:	d1078793          	addi	a5,a5,-752 # 800eaf78 <lut>
80000270:	00a787b3          	add	a5,a5,a0
80000274:	0007a783          	lw	a5,0(a5)
80000278:	00058513          	mv	a0,a1
8000027c:	00078067          	jr	a5

80000280 <__am_timer_init>:
80000280:	00008067          	ret

80000284 <__am_timer_uptime>:
80000284:	a0000737          	lui	a4,0xa0000
80000288:	a00007b7          	lui	a5,0xa0000
8000028c:	04870713          	addi	a4,a4,72 # a0000048 <_end+0x1ff0c048>
80000290:	04c7a683          	lw	a3,76(a5) # a000004c <_end+0x1ff0c04c>
80000294:	00072703          	lw	a4,0(a4)
80000298:	00d52223          	sw	a3,4(a0)
8000029c:	00e52023          	sw	a4,0(a0)
800002a0:	00008067          	ret

800002a4 <__am_timer_rtc>:
800002a4:	76c00793          	li	a5,1900
800002a8:	00052a23          	sw	zero,20(a0)
800002ac:	00052823          	sw	zero,16(a0)
800002b0:	00052623          	sw	zero,12(a0)
800002b4:	00052423          	sw	zero,8(a0)
800002b8:	00052223          	sw	zero,4(a0)
800002bc:	00f52023          	sw	a5,0(a0)
800002c0:	00008067          	ret

800002c4 <__am_input_keybrd>:
800002c4:	a00006b7          	lui	a3,0xa0000
800002c8:	0606a783          	lw	a5,96(a3) # a0000060 <_end+0x1ff0c060>
800002cc:	ffff8637          	lui	a2,0xffff8
800002d0:	fff60613          	addi	a2,a2,-1 # ffff7fff <_end+0x7ff03fff>
800002d4:	00f7d713          	srli	a4,a5,0xf
800002d8:	00177713          	andi	a4,a4,1
800002dc:	00c7f7b3          	and	a5,a5,a2
800002e0:	00e50023          	sb	a4,0(a0)
800002e4:	00f52223          	sw	a5,4(a0)
800002e8:	00008067          	ret

800002ec <__am_gpu_init>:
800002ec:	00008067          	ret

800002f0 <__am_gpu_config>:
800002f0:	a00006b7          	lui	a3,0xa0000
800002f4:	1006a783          	lw	a5,256(a3) # a0000100 <_end+0x1ff0c100>
800002f8:	00100693          	li	a3,1
800002fc:	00d51023          	sh	a3,0(a0)
80000300:	0107d613          	srli	a2,a5,0x10
80000304:	01079793          	slli	a5,a5,0x10
80000308:	0107d793          	srli	a5,a5,0x10
8000030c:	02f60733          	mul	a4,a2,a5
80000310:	00f52423          	sw	a5,8(a0)
80000314:	00c52223          	sw	a2,4(a0)
80000318:	00271793          	slli	a5,a4,0x2
8000031c:	00f52623          	sw	a5,12(a0)
80000320:	00008067          	ret

80000324 <__am_gpu_fbdraw>:
80000324:	00c52783          	lw	a5,12(a0)
80000328:	08f05263          	blez	a5,800003ac <__am_gpu_fbdraw+0x88>
8000032c:	01052f03          	lw	t5,16(a0)
80000330:	07e05e63          	blez	t5,800003ac <__am_gpu_fbdraw+0x88>
80000334:	a00006b7          	lui	a3,0xa0000
80000338:	1006a703          	lw	a4,256(a3) # a0000100 <_end+0x1ff0c100>
8000033c:	00452603          	lw	a2,4(a0)
80000340:	00052e03          	lw	t3,0(a0)
80000344:	01075713          	srli	a4,a4,0x10
80000348:	02c70633          	mul	a2,a4,a2
8000034c:	00852303          	lw	t1,8(a0)
80000350:	40f70733          	sub	a4,a4,a5
80000354:	00279f93          	slli	t6,a5,0x2
80000358:	40f007b3          	neg	a5,a5
8000035c:	00271e93          	slli	t4,a4,0x2
80000360:	01f305b3          	add	a1,t1,t6
80000364:	00000893          	li	a7,0
80000368:	a1000837          	lui	a6,0xa1000
8000036c:	01c60633          	add	a2,a2,t3
80000370:	00261613          	slli	a2,a2,0x2
80000374:	40660633          	sub	a2,a2,t1
80000378:	00379e13          	slli	t3,a5,0x3
8000037c:	41f58333          	sub	t1,a1,t6
80000380:	00030793          	mv	a5,t1
80000384:	0007a683          	lw	a3,0(a5)
80000388:	00c78733          	add	a4,a5,a2
8000038c:	00e80733          	add	a4,a6,a4
80000390:	00d72023          	sw	a3,0(a4)
80000394:	00478793          	addi	a5,a5,4
80000398:	feb796e3          	bne	a5,a1,80000384 <__am_gpu_fbdraw+0x60>
8000039c:	00188893          	addi	a7,a7,1
800003a0:	01d60633          	add	a2,a2,t4
800003a4:	41c305b3          	sub	a1,t1,t3
800003a8:	fd1f1ae3          	bne	t5,a7,8000037c <__am_gpu_fbdraw+0x58>
800003ac:	01454783          	lbu	a5,20(a0)
800003b0:	00078863          	beqz	a5,800003c0 <__am_gpu_fbdraw+0x9c>
800003b4:	a00007b7          	lui	a5,0xa0000
800003b8:	00100713          	li	a4,1
800003bc:	10e7a223          	sw	a4,260(a5) # a0000104 <_end+0x1ff0c104>
800003c0:	00008067          	ret

800003c4 <__am_gpu_status>:
800003c4:	00100793          	li	a5,1
800003c8:	00f50023          	sb	a5,0(a0)
800003cc:	00008067          	ret

800003d0 <__am_audio_init>:
800003d0:	00008067          	ret

800003d4 <__am_audio_config>:
800003d4:	00050023          	sb	zero,0(a0)
800003d8:	00008067          	ret

800003dc <__am_audio_ctrl>:
800003dc:	00008067          	ret

800003e0 <__am_audio_status>:
800003e0:	00052023          	sw	zero,0(a0)
800003e4:	00008067          	ret

800003e8 <__am_audio_play>:
800003e8:	00008067          	ret

800003ec <__am_disk_config>:
800003ec:	00050023          	sb	zero,0(a0)
800003f0:	00008067          	ret

800003f4 <__am_disk_status>:
800003f4:	00008067          	ret

800003f8 <__am_disk_blkio>:
800003f8:	00008067          	ret

800003fc <putch>:
800003fc:	a00007b7          	lui	a5,0xa0000
80000400:	3ea78c23          	sb	a0,1016(a5) # a00003f8 <_end+0x1ff0c3f8>
80000404:	00008067          	ret

80000408 <halt>:
80000408:	00050513          	mv	a0,a0
8000040c:	00100073          	ebreak
80000410:	0000006f          	j	80000410 <halt+0x8>

80000414 <_trm_init>:
80000414:	ff010113          	addi	sp,sp,-16
80000418:	00000517          	auipc	a0,0x0
8000041c:	51450513          	addi	a0,a0,1300 # 8000092c <mainargs>
80000420:	00112623          	sw	ra,12(sp)
80000424:	c49ff0ef          	jal	8000006c <main>
80000428:	00050513          	mv	a0,a0
8000042c:	00100073          	ebreak
80000430:	0000006f          	j	80000430 <_trm_init+0x1c>

80000434 <__udivmoddi4>:
80000434:	fd010113          	addi	sp,sp,-48
80000438:	01312e23          	sw	s3,28(sp)
8000043c:	01412c23          	sw	s4,24(sp)
80000440:	01612823          	sw	s6,16(sp)
80000444:	01712623          	sw	s7,12(sp)
80000448:	02112623          	sw	ra,44(sp)
8000044c:	00068b13          	mv	s6,a3
80000450:	00050993          	mv	s3,a0
80000454:	00060a13          	mv	s4,a2
80000458:	00070b93          	mv	s7,a4
8000045c:	02059e63          	bnez	a1,80000498 <__udivmoddi4+0x64>
80000460:	1a069263          	bnez	a3,80000604 <__udivmoddi4+0x1d0>
80000464:	00070863          	beqz	a4,80000474 <__udivmoddi4+0x40>
80000468:	02c577b3          	remu	a5,a0,a2
8000046c:	00072223          	sw	zero,4(a4)
80000470:	00f72023          	sw	a5,0(a4)
80000474:	0349d533          	divu	a0,s3,s4
80000478:	00000593          	li	a1,0
8000047c:	02c12083          	lw	ra,44(sp)
80000480:	01c12983          	lw	s3,28(sp)
80000484:	01812a03          	lw	s4,24(sp)
80000488:	01012b03          	lw	s6,16(sp)
8000048c:	00c12b83          	lw	s7,12(sp)
80000490:	03010113          	addi	sp,sp,48
80000494:	00008067          	ret
80000498:	02912223          	sw	s1,36(sp)
8000049c:	03212023          	sw	s2,32(sp)
800004a0:	01512a23          	sw	s5,20(sp)
800004a4:	02812423          	sw	s0,40(sp)
800004a8:	00058913          	mv	s2,a1
800004ac:	00058493          	mv	s1,a1
800004b0:	00060a93          	mv	s5,a2
800004b4:	0e061e63          	bnez	a2,800005b0 <__udivmoddi4+0x17c>
800004b8:	1c068063          	beqz	a3,80000678 <__udivmoddi4+0x244>
800004bc:	22050a63          	beqz	a0,800006f0 <__udivmoddi4+0x2bc>
800004c0:	fff68793          	addi	a5,a3,-1
800004c4:	00d7f733          	and	a4,a5,a3
800004c8:	28070263          	beqz	a4,8000074c <__udivmoddi4+0x318>
800004cc:	00068513          	mv	a0,a3
800004d0:	2d4000ef          	jal	800007a4 <__clzsi2>
800004d4:	00050413          	mv	s0,a0
800004d8:	00090513          	mv	a0,s2
800004dc:	2c8000ef          	jal	800007a4 <__clzsi2>
800004e0:	40a406b3          	sub	a3,s0,a0
800004e4:	01e00793          	li	a5,30
800004e8:	18d7ea63          	bltu	a5,a3,8000067c <__udivmoddi4+0x248>
800004ec:	00168693          	addi	a3,a3,1
800004f0:	02000793          	li	a5,32
800004f4:	40d787b3          	sub	a5,a5,a3
800004f8:	00f91633          	sll	a2,s2,a5
800004fc:	00d9d733          	srl	a4,s3,a3
80000500:	00d95433          	srl	s0,s2,a3
80000504:	00f99833          	sll	a6,s3,a5
80000508:	00e664b3          	or	s1,a2,a4
8000050c:	00000713          	li	a4,0
80000510:	01f85793          	srli	a5,a6,0x1f
80000514:	00149593          	slli	a1,s1,0x1
80000518:	00f5e5b3          	or	a1,a1,a5
8000051c:	01f4d493          	srli	s1,s1,0x1f
80000520:	00141793          	slli	a5,s0,0x1
80000524:	0097e7b3          	or	a5,a5,s1
80000528:	40ba0333          	sub	t1,s4,a1
8000052c:	006a3633          	sltu	a2,s4,t1
80000530:	40fb08b3          	sub	a7,s6,a5
80000534:	40c888b3          	sub	a7,a7,a2
80000538:	00133313          	seqz	t1,t1
8000053c:	406888b3          	sub	a7,a7,t1
80000540:	41f8d313          	srai	t1,a7,0x1f
80000544:	014374b3          	and	s1,t1,s4
80000548:	409584b3          	sub	s1,a1,s1
8000054c:	01637333          	and	t1,t1,s6
80000550:	01fad613          	srli	a2,s5,0x1f
80000554:	00181813          	slli	a6,a6,0x1
80000558:	001a9a93          	slli	s5,s5,0x1
8000055c:	0095b5b3          	sltu	a1,a1,s1
80000560:	406787b3          	sub	a5,a5,t1
80000564:	fff68693          	addi	a3,a3,-1
80000568:	00eaeab3          	or	s5,s5,a4
8000056c:	00c86833          	or	a6,a6,a2
80000570:	01f8d713          	srli	a4,a7,0x1f
80000574:	40b78433          	sub	s0,a5,a1
80000578:	f8069ce3          	bnez	a3,80000510 <__udivmoddi4+0xdc>
8000057c:	000b8663          	beqz	s7,80000588 <__udivmoddi4+0x154>
80000580:	009ba023          	sw	s1,0(s7)
80000584:	008ba223          	sw	s0,4(s7)
80000588:	01fad913          	srli	s2,s5,0x1f
8000058c:	001a9993          	slli	s3,s5,0x1
80000590:	00181793          	slli	a5,a6,0x1
80000594:	00f965b3          	or	a1,s2,a5
80000598:	02812403          	lw	s0,40(sp)
8000059c:	02412483          	lw	s1,36(sp)
800005a0:	02012903          	lw	s2,32(sp)
800005a4:	01412a83          	lw	s5,20(sp)
800005a8:	00e9e533          	or	a0,s3,a4
800005ac:	ed1ff06f          	j	8000047c <__udivmoddi4+0x48>
800005b0:	06068663          	beqz	a3,8000061c <__udivmoddi4+0x1e8>
800005b4:	00068513          	mv	a0,a3
800005b8:	1ec000ef          	jal	800007a4 <__clzsi2>
800005bc:	00050413          	mv	s0,a0
800005c0:	00090513          	mv	a0,s2
800005c4:	1e0000ef          	jal	800007a4 <__clzsi2>
800005c8:	40a406b3          	sub	a3,s0,a0
800005cc:	01f00793          	li	a5,31
800005d0:	0ad7e663          	bltu	a5,a3,8000067c <__udivmoddi4+0x248>
800005d4:	00168693          	addi	a3,a3,1
800005d8:	02000793          	li	a5,32
800005dc:	00098813          	mv	a6,s3
800005e0:	18f68663          	beq	a3,a5,8000076c <__udivmoddi4+0x338>
800005e4:	40d787b3          	sub	a5,a5,a3
800005e8:	00d9d733          	srl	a4,s3,a3
800005ec:	00f91633          	sll	a2,s2,a5
800005f0:	00d95433          	srl	s0,s2,a3
800005f4:	00f99833          	sll	a6,s3,a5
800005f8:	00e664b3          	or	s1,a2,a4
800005fc:	00000a93          	li	s5,0
80000600:	f0dff06f          	j	8000050c <__udivmoddi4+0xd8>
80000604:	00070663          	beqz	a4,80000610 <__udivmoddi4+0x1dc>
80000608:	00aba023          	sw	a0,0(s7)
8000060c:	00072223          	sw	zero,4(a4)
80000610:	00000513          	li	a0,0
80000614:	00000593          	li	a1,0
80000618:	e65ff06f          	j	8000047c <__udivmoddi4+0x48>
8000061c:	fff60793          	addi	a5,a2,-1
80000620:	00c7f733          	and	a4,a5,a2
80000624:	06071c63          	bnez	a4,8000069c <__udivmoddi4+0x268>
80000628:	000b8863          	beqz	s7,80000638 <__udivmoddi4+0x204>
8000062c:	00a7f7b3          	and	a5,a5,a0
80000630:	00fba023          	sw	a5,0(s7)
80000634:	000ba223          	sw	zero,4(s7)
80000638:	00100793          	li	a5,1
8000063c:	0efa0063          	beq	s4,a5,8000071c <__udivmoddi4+0x2e8>
80000640:	000a0513          	mv	a0,s4
80000644:	1f0000ef          	jal	80000834 <__ctzsi2>
80000648:	02000713          	li	a4,32
8000064c:	40a70733          	sub	a4,a4,a0
80000650:	00050793          	mv	a5,a0
80000654:	00e91733          	sll	a4,s2,a4
80000658:	00a9d833          	srl	a6,s3,a0
8000065c:	00f955b3          	srl	a1,s2,a5
80000660:	02812403          	lw	s0,40(sp)
80000664:	02412483          	lw	s1,36(sp)
80000668:	02012903          	lw	s2,32(sp)
8000066c:	01412a83          	lw	s5,20(sp)
80000670:	01076533          	or	a0,a4,a6
80000674:	e09ff06f          	j	8000047c <__udivmoddi4+0x48>
80000678:	00100073          	ebreak
8000067c:	0a0b8e63          	beqz	s7,80000738 <__udivmoddi4+0x304>
80000680:	012ba223          	sw	s2,4(s7)
80000684:	02812403          	lw	s0,40(sp)
80000688:	02412483          	lw	s1,36(sp)
8000068c:	02012903          	lw	s2,32(sp)
80000690:	01412a83          	lw	s5,20(sp)
80000694:	013ba023          	sw	s3,0(s7)
80000698:	f79ff06f          	j	80000610 <__udivmoddi4+0x1dc>
8000069c:	00060513          	mv	a0,a2
800006a0:	00068413          	mv	s0,a3
800006a4:	100000ef          	jal	800007a4 <__clzsi2>
800006a8:	00050913          	mv	s2,a0
800006ac:	00048513          	mv	a0,s1
800006b0:	0f4000ef          	jal	800007a4 <__clzsi2>
800006b4:	40a90533          	sub	a0,s2,a0
800006b8:	02150693          	addi	a3,a0,33
800006bc:	02000793          	li	a5,32
800006c0:	00098813          	mv	a6,s3
800006c4:	00000a93          	li	s5,0
800006c8:	e4f682e3          	beq	a3,a5,8000050c <__udivmoddi4+0xd8>
800006cc:	01f00713          	li	a4,31
800006d0:	0ad76463          	bltu	a4,a3,80000778 <__udivmoddi4+0x344>
800006d4:	40d78733          	sub	a4,a5,a3
800006d8:	00d4d433          	srl	s0,s1,a3
800006dc:	00d9d7b3          	srl	a5,s3,a3
800006e0:	00e494b3          	sll	s1,s1,a4
800006e4:	00f4e4b3          	or	s1,s1,a5
800006e8:	00e99833          	sll	a6,s3,a4
800006ec:	e21ff06f          	j	8000050c <__udivmoddi4+0xd8>
800006f0:	00070863          	beqz	a4,80000700 <__udivmoddi4+0x2cc>
800006f4:	02d5f7b3          	remu	a5,a1,a3
800006f8:	00072023          	sw	zero,0(a4)
800006fc:	00f72223          	sw	a5,4(a4)
80000700:	03695533          	divu	a0,s2,s6
80000704:	02812403          	lw	s0,40(sp)
80000708:	02412483          	lw	s1,36(sp)
8000070c:	02012903          	lw	s2,32(sp)
80000710:	01412a83          	lw	s5,20(sp)
80000714:	00000593          	li	a1,0
80000718:	d65ff06f          	j	8000047c <__udivmoddi4+0x48>
8000071c:	00090593          	mv	a1,s2
80000720:	02812403          	lw	s0,40(sp)
80000724:	02412483          	lw	s1,36(sp)
80000728:	02012903          	lw	s2,32(sp)
8000072c:	01412a83          	lw	s5,20(sp)
80000730:	00098513          	mv	a0,s3
80000734:	d49ff06f          	j	8000047c <__udivmoddi4+0x48>
80000738:	02812403          	lw	s0,40(sp)
8000073c:	02412483          	lw	s1,36(sp)
80000740:	02012903          	lw	s2,32(sp)
80000744:	01412a83          	lw	s5,20(sp)
80000748:	ec9ff06f          	j	80000610 <__udivmoddi4+0x1dc>
8000074c:	000b8863          	beqz	s7,8000075c <__udivmoddi4+0x328>
80000750:	00b7f7b3          	and	a5,a5,a1
80000754:	00aba023          	sw	a0,0(s7)
80000758:	00fba223          	sw	a5,4(s7)
8000075c:	000b0513          	mv	a0,s6
80000760:	0d4000ef          	jal	80000834 <__ctzsi2>
80000764:	00a95533          	srl	a0,s2,a0
80000768:	f9dff06f          	j	80000704 <__udivmoddi4+0x2d0>
8000076c:	00000413          	li	s0,0
80000770:	00000a93          	li	s5,0
80000774:	d99ff06f          	j	8000050c <__udivmoddi4+0xd8>
80000778:	04000a93          	li	s5,64
8000077c:	40da8ab3          	sub	s5,s5,a3
80000780:	00150513          	addi	a0,a0,1
80000784:	01549733          	sll	a4,s1,s5
80000788:	00a9d7b3          	srl	a5,s3,a0
8000078c:	01599ab3          	sll	s5,s3,s5
80000790:	00a4d4b3          	srl	s1,s1,a0
80000794:	00f76833          	or	a6,a4,a5
80000798:	d75ff06f          	j	8000050c <__udivmoddi4+0xd8>

8000079c <__udivdi3>:
8000079c:	00000713          	li	a4,0
800007a0:	c95ff06f          	j	80000434 <__udivmoddi4>

800007a4 <__clzsi2>:
800007a4:	000105b7          	lui	a1,0x10
800007a8:	00b535b3          	sltu	a1,a0,a1
800007ac:	00459593          	slli	a1,a1,0x4
800007b0:	01000793          	li	a5,16
800007b4:	40b787b3          	sub	a5,a5,a1
800007b8:	00010737          	lui	a4,0x10
800007bc:	00f557b3          	srl	a5,a0,a5
800007c0:	f0070713          	addi	a4,a4,-256 # ff00 <_entry_offset+0xff00>
800007c4:	00e7f733          	and	a4,a5,a4
800007c8:	00173713          	seqz	a4,a4
800007cc:	00371713          	slli	a4,a4,0x3
800007d0:	00800693          	li	a3,8
800007d4:	40e686b3          	sub	a3,a3,a4
800007d8:	00d7d7b3          	srl	a5,a5,a3
800007dc:	0f07f613          	andi	a2,a5,240
800007e0:	00163613          	seqz	a2,a2
800007e4:	00261613          	slli	a2,a2,0x2
800007e8:	00400693          	li	a3,4
800007ec:	40c686b3          	sub	a3,a3,a2
800007f0:	00d7d7b3          	srl	a5,a5,a3
800007f4:	00c7f693          	andi	a3,a5,12
800007f8:	0016b693          	seqz	a3,a3
800007fc:	00200513          	li	a0,2
80000800:	00169693          	slli	a3,a3,0x1
80000804:	40d50833          	sub	a6,a0,a3
80000808:	0107d7b3          	srl	a5,a5,a6
8000080c:	0017d813          	srli	a6,a5,0x1
80000810:	00b70733          	add	a4,a4,a1
80000814:	00187593          	andi	a1,a6,1
80000818:	00e60633          	add	a2,a2,a4
8000081c:	40f50533          	sub	a0,a0,a5
80000820:	00058463          	beqz	a1,80000828 <__clzsi2+0x84>
80000824:	00000513          	li	a0,0
80000828:	00c686b3          	add	a3,a3,a2
8000082c:	00d50533          	add	a0,a0,a3
80000830:	00008067          	ret

80000834 <__ctzsi2>:
80000834:	01051593          	slli	a1,a0,0x10
80000838:	0105d593          	srli	a1,a1,0x10
8000083c:	0015b593          	seqz	a1,a1
80000840:	00459593          	slli	a1,a1,0x4
80000844:	00b557b3          	srl	a5,a0,a1
80000848:	0ff7f613          	zext.b	a2,a5
8000084c:	00163613          	seqz	a2,a2
80000850:	00361613          	slli	a2,a2,0x3
80000854:	00c7d7b3          	srl	a5,a5,a2
80000858:	00f7f693          	andi	a3,a5,15
8000085c:	0016b693          	seqz	a3,a3
80000860:	00269693          	slli	a3,a3,0x2
80000864:	00d7d7b3          	srl	a5,a5,a3
80000868:	0037f713          	andi	a4,a5,3
8000086c:	00173713          	seqz	a4,a4
80000870:	00171713          	slli	a4,a4,0x1
80000874:	00e7d7b3          	srl	a5,a5,a4
80000878:	0017d513          	srli	a0,a5,0x1
8000087c:	fff7c793          	not	a5,a5
80000880:	00b60633          	add	a2,a2,a1
80000884:	0017f793          	andi	a5,a5,1
80000888:	00157593          	andi	a1,a0,1
8000088c:	00200513          	li	a0,2
80000890:	00c686b3          	add	a3,a3,a2
80000894:	40b50533          	sub	a0,a0,a1
80000898:	40f007b3          	neg	a5,a5
8000089c:	00f57533          	and	a0,a0,a5
800008a0:	00d70733          	add	a4,a4,a3
800008a4:	00e50533          	add	a0,a0,a4
800008a8:	00008067          	ret
