
/home/mubai/ysyx-workbench/am-kernels/benchmarks/microbench/build/microbench-riscv32-nemu.elf:     file format elf32-littleriscv


Disassembly of section .text:

80000000 <_start>:
80000000:	00000413          	li	s0,0
80000004:	0000f117          	auipc	sp,0xf
80000008:	ffc10113          	addi	sp,sp,-4 # 8000f000 <_end>
8000000c:	505040ef          	jal	80004d10 <_trm_init>

80000010 <_ZN5Dinic3DFSEii>:
80000010:	00c52783          	lw	a5,12(a0)
80000014:	f2010113          	addi	sp,sp,-224
80000018:	0c112e23          	sw	ra,220(sp)
8000001c:	0b912a23          	sw	s9,180(sp)
80000020:	00f12223          	sw	a5,4(sp)
80000024:	10b78ae3          	beq	a5,a1,80000938 <_ZN5Dinic3DFSEii+0x928>
80000028:	00050313          	mv	t1,a0
8000002c:	00000513          	li	a0,0
80000030:	0e060ce3          	beqz	a2,80000928 <_ZN5Dinic3DFSEii+0x918>
80000034:	02032703          	lw	a4,32(t1)
80000038:	00259593          	slli	a1,a1,0x2
8000003c:	0ba12823          	sw	s10,176(sp)
80000040:	00e12423          	sw	a4,8(sp)
80000044:	00b70733          	add	a4,a4,a1
80000048:	00072d03          	lw	s10,0(a4)
8000004c:	fff00793          	li	a5,-1
80000050:	10fd02e3          	beq	s10,a5,80000954 <_ZN5Dinic3DFSEii+0x944>
80000054:	01c32f03          	lw	t5,28(t1)
80000058:	01032883          	lw	a7,16(t1)
8000005c:	0d512223          	sw	s5,196(sp)
80000060:	000f0793          	mv	a5,t5
80000064:	00bf0ab3          	add	s5,t5,a1
80000068:	0c812c23          	sw	s0,216(sp)
8000006c:	0c912a23          	sw	s1,212(sp)
80000070:	0d612023          	sw	s6,192(sp)
80000074:	0bb12623          	sw	s11,172(sp)
80000078:	00088f13          	mv	t5,a7
8000007c:	0d212823          	sw	s2,208(sp)
80000080:	0d312623          	sw	s3,204(sp)
80000084:	0b712e23          	sw	s7,188(sp)
80000088:	000a8d93          	mv	s11,s5
8000008c:	00050493          	mv	s1,a0
80000090:	00030413          	mv	s0,t1
80000094:	00060b13          	mv	s6,a2
80000098:	00078893          	mv	a7,a5
8000009c:	01c0006f          	j	800000b8 <_ZN5Dinic3DFSEii+0xa8>
800000a0:	01842783          	lw	a5,24(s0)
800000a4:	002d1713          	slli	a4,s10,0x2
800000a8:	00e787b3          	add	a5,a5,a4
800000ac:	0007ad03          	lw	s10,0(a5)
800000b0:	fff00793          	li	a5,-1
800000b4:	04fd06e3          	beq	s10,a5,80000900 <_ZN5Dinic3DFSEii+0x8f0>
800000b8:	004d1793          	slli	a5,s10,0x4
800000bc:	00ff0bb3          	add	s7,t5,a5
800000c0:	004ba603          	lw	a2,4(s7)
800000c4:	000da703          	lw	a4,0(s11)
800000c8:	00261693          	slli	a3,a2,0x2
800000cc:	00d88cb3          	add	s9,a7,a3
800000d0:	000ca783          	lw	a5,0(s9)
800000d4:	00170713          	addi	a4,a4,1
800000d8:	fcf714e3          	bne	a4,a5,800000a0 <_ZN5Dinic3DFSEii+0x90>
800000dc:	008ba583          	lw	a1,8(s7)
800000e0:	00cba703          	lw	a4,12(s7)
800000e4:	40e58933          	sub	s2,a1,a4
800000e8:	012b5463          	bge	s6,s2,800000f0 <_ZN5Dinic3DFSEii+0xe0>
800000ec:	000b0913          	mv	s2,s6
800000f0:	00412703          	lw	a4,4(sp)
800000f4:	06c704e3          	beq	a4,a2,8000095c <_ZN5Dinic3DFSEii+0x94c>
800000f8:	fa0904e3          	beqz	s2,800000a0 <_ZN5Dinic3DFSEii+0x90>
800000fc:	00812703          	lw	a4,8(sp)
80000100:	00d706b3          	add	a3,a4,a3
80000104:	0006aa83          	lw	s5,0(a3)
80000108:	fff00713          	li	a4,-1
8000010c:	f8ea8ae3          	beq	s5,a4,800000a0 <_ZN5Dinic3DFSEii+0x90>
80000110:	00000993          	li	s3,0
80000114:	0d412423          	sw	s4,200(sp)
80000118:	000d8713          	mv	a4,s11
8000011c:	00040e13          	mv	t3,s0
80000120:	fff00393          	li	t2,-1
80000124:	01712a23          	sw	s7,20(sp)
80000128:	01a12c23          	sw	s10,24(sp)
8000012c:	000f0293          	mv	t0,t5
80000130:	00088e93          	mv	t4,a7
80000134:	000c8d93          	mv	s11,s9
80000138:	00048a13          	mv	s4,s1
8000013c:	00098413          	mv	s0,s3
80000140:	01612e23          	sw	s6,28(sp)
80000144:	01c0006f          	j	80000160 <_ZN5Dinic3DFSEii+0x150>
80000148:	018e2783          	lw	a5,24(t3)
8000014c:	002a9693          	slli	a3,s5,0x2
80000150:	00d787b3          	add	a5,a5,a3
80000154:	0007aa83          	lw	s5,0(a5)
80000158:	747a8663          	beq	s5,t2,800008a4 <_ZN5Dinic3DFSEii+0x894>
8000015c:	000da783          	lw	a5,0(s11)
80000160:	004a9693          	slli	a3,s5,0x4
80000164:	00d28bb3          	add	s7,t0,a3
80000168:	004ba503          	lw	a0,4(s7)
8000016c:	00178793          	addi	a5,a5,1
80000170:	00251613          	slli	a2,a0,0x2
80000174:	00ce8cb3          	add	s9,t4,a2
80000178:	000ca683          	lw	a3,0(s9)
8000017c:	fcd796e3          	bne	a5,a3,80000148 <_ZN5Dinic3DFSEii+0x138>
80000180:	008ba803          	lw	a6,8(s7)
80000184:	00cba783          	lw	a5,12(s7)
80000188:	40f809b3          	sub	s3,a6,a5
8000018c:	01395463          	bge	s2,s3,80000194 <_ZN5Dinic3DFSEii+0x184>
80000190:	00090993          	mv	s3,s2
80000194:	00412783          	lw	a5,4(sp)
80000198:	7ca78663          	beq	a5,a0,80000964 <_ZN5Dinic3DFSEii+0x954>
8000019c:	fa0986e3          	beqz	s3,80000148 <_ZN5Dinic3DFSEii+0x138>
800001a0:	00812783          	lw	a5,8(sp)
800001a4:	00c78633          	add	a2,a5,a2
800001a8:	00062d03          	lw	s10,0(a2)
800001ac:	fff00793          	li	a5,-1
800001b0:	f8fd0ce3          	beq	s10,a5,80000148 <_ZN5Dinic3DFSEii+0x138>
800001b4:	00000b13          	li	s6,0
800001b8:	0b812c23          	sw	s8,184(sp)
800001bc:	03712223          	sw	s7,36(sp)
800001c0:	00028f93          	mv	t6,t0
800001c4:	fff00813          	li	a6,-1
800001c8:	000e8293          	mv	t0,t4
800001cc:	03b12023          	sw	s11,32(sp)
800001d0:	000e0e93          	mv	t4,t3
800001d4:	000c8b93          	mv	s7,s9
800001d8:	03512423          	sw	s5,40(sp)
800001dc:	03212623          	sw	s2,44(sp)
800001e0:	02812823          	sw	s0,48(sp)
800001e4:	01a12023          	sw	s10,0(sp)
800001e8:	00098c13          	mv	s8,s3
800001ec:	01612623          	sw	s6,12(sp)
800001f0:	00070e13          	mv	t3,a4
800001f4:	0240006f          	j	80000218 <_ZN5Dinic3DFSEii+0x208>
800001f8:	00012783          	lw	a5,0(sp)
800001fc:	018ea683          	lw	a3,24(t4)
80000200:	00279613          	slli	a2,a5,0x2
80000204:	00c686b3          	add	a3,a3,a2
80000208:	0006a783          	lw	a5,0(a3)
8000020c:	00f12023          	sw	a5,0(sp)
80000210:	63078a63          	beq	a5,a6,80000844 <_ZN5Dinic3DFSEii+0x834>
80000214:	000ba683          	lw	a3,0(s7)
80000218:	00012783          	lw	a5,0(sp)
8000021c:	00168693          	addi	a3,a3,1
80000220:	00479613          	slli	a2,a5,0x4
80000224:	00cf8ab3          	add	s5,t6,a2
80000228:	004aaf03          	lw	t5,4(s5)
8000022c:	002f1613          	slli	a2,t5,0x2
80000230:	00c289b3          	add	s3,t0,a2
80000234:	0009a503          	lw	a0,0(s3)
80000238:	fca690e3          	bne	a3,a0,800001f8 <_ZN5Dinic3DFSEii+0x1e8>
8000023c:	008aa403          	lw	s0,8(s5)
80000240:	00caa683          	lw	a3,12(s5)
80000244:	40d40b33          	sub	s6,s0,a3
80000248:	016c5463          	bge	s8,s6,80000250 <_ZN5Dinic3DFSEii+0x240>
8000024c:	000c0b13          	mv	s6,s8
80000250:	00412783          	lw	a5,4(sp)
80000254:	71e78c63          	beq	a5,t5,8000096c <_ZN5Dinic3DFSEii+0x95c>
80000258:	fa0b00e3          	beqz	s6,800001f8 <_ZN5Dinic3DFSEii+0x1e8>
8000025c:	00812783          	lw	a5,8(sp)
80000260:	fff00693          	li	a3,-1
80000264:	00c78633          	add	a2,a5,a2
80000268:	00062d83          	lw	s11,0(a2)
8000026c:	f8dd86e3          	beq	s11,a3,800001f8 <_ZN5Dinic3DFSEii+0x1e8>
80000270:	00000493          	li	s1,0
80000274:	00912823          	sw	s1,16(sp)
80000278:	00028313          	mv	t1,t0
8000027c:	fff00f13          	li	t5,-1
80000280:	03712a23          	sw	s7,52(sp)
80000284:	000a8793          	mv	a5,s5
80000288:	00098d13          	mv	s10,s3
8000028c:	03812c23          	sw	s8,56(sp)
80000290:	000b0493          	mv	s1,s6
80000294:	000f8293          	mv	t0,t6
80000298:	03412e23          	sw	s4,60(sp)
8000029c:	000e8893          	mv	a7,t4
800002a0:	01c0006f          	j	800002bc <_ZN5Dinic3DFSEii+0x2ac>
800002a4:	0188a603          	lw	a2,24(a7)
800002a8:	002d9593          	slli	a1,s11,0x2
800002ac:	00b60633          	add	a2,a2,a1
800002b0:	00062d83          	lw	s11,0(a2)
800002b4:	53ed8863          	beq	s11,t5,800007e4 <_ZN5Dinic3DFSEii+0x7d4>
800002b8:	000d2503          	lw	a0,0(s10)
800002bc:	004d9613          	slli	a2,s11,0x4
800002c0:	00c28bb3          	add	s7,t0,a2
800002c4:	004baf83          	lw	t6,4(s7)
800002c8:	00150513          	addi	a0,a0,1
800002cc:	002f9593          	slli	a1,t6,0x2
800002d0:	00b309b3          	add	s3,t1,a1
800002d4:	0009a603          	lw	a2,0(s3)
800002d8:	fcc516e3          	bne	a0,a2,800002a4 <_ZN5Dinic3DFSEii+0x294>
800002dc:	008ba403          	lw	s0,8(s7)
800002e0:	00cba503          	lw	a0,12(s7)
800002e4:	40a40c33          	sub	s8,s0,a0
800002e8:	6784c263          	blt	s1,s8,8000094c <_ZN5Dinic3DFSEii+0x93c>
800002ec:	00412703          	lw	a4,4(sp)
800002f0:	69f70263          	beq	a4,t6,80000974 <_ZN5Dinic3DFSEii+0x964>
800002f4:	fa0c08e3          	beqz	s8,800002a4 <_ZN5Dinic3DFSEii+0x294>
800002f8:	00812683          	lw	a3,8(sp)
800002fc:	00b685b3          	add	a1,a3,a1
80000300:	0005ac83          	lw	s9,0(a1)
80000304:	fff00593          	li	a1,-1
80000308:	f8bc8ee3          	beq	s9,a1,800002a4 <_ZN5Dinic3DFSEii+0x294>
8000030c:	00000b13          	li	s6,0
80000310:	05a12023          	sw	s10,64(sp)
80000314:	04912423          	sw	s1,72(sp)
80000318:	000c0d13          	mv	s10,s8
8000031c:	05c12623          	sw	t3,76(sp)
80000320:	00098c13          	mv	s8,s3
80000324:	00030e13          	mv	t3,t1
80000328:	fff00f93          	li	t6,-1
8000032c:	05712223          	sw	s7,68(sp)
80000330:	000b0413          	mv	s0,s6
80000334:	00070313          	mv	t1,a4
80000338:	00060493          	mv	s1,a2
8000033c:	00088993          	mv	s3,a7
80000340:	01c0006f          	j	8000035c <_ZN5Dinic3DFSEii+0x34c>
80000344:	0189a503          	lw	a0,24(s3)
80000348:	002c9e93          	slli	t4,s9,0x2
8000034c:	01d50533          	add	a0,a0,t4
80000350:	00052c83          	lw	s9,0(a0)
80000354:	43fc8c63          	beq	s9,t6,8000078c <_ZN5Dinic3DFSEii+0x77c>
80000358:	000c2483          	lw	s1,0(s8)
8000035c:	004c9513          	slli	a0,s9,0x4
80000360:	00a28bb3          	add	s7,t0,a0
80000364:	004baa03          	lw	s4,4(s7)
80000368:	00148493          	addi	s1,s1,1
8000036c:	002a1e93          	slli	t4,s4,0x2
80000370:	01de0b33          	add	s6,t3,t4
80000374:	000b2503          	lw	a0,0(s6)
80000378:	fca496e3          	bne	s1,a0,80000344 <_ZN5Dinic3DFSEii+0x334>
8000037c:	008baa83          	lw	s5,8(s7)
80000380:	00cba483          	lw	s1,12(s7)
80000384:	409a84b3          	sub	s1,s5,s1
80000388:	009d5463          	bge	s10,s1,80000390 <_ZN5Dinic3DFSEii+0x380>
8000038c:	000d0493          	mv	s1,s10
80000390:	5f430663          	beq	t1,s4,8000097c <_ZN5Dinic3DFSEii+0x96c>
80000394:	fa0488e3          	beqz	s1,80000344 <_ZN5Dinic3DFSEii+0x334>
80000398:	00812703          	lw	a4,8(sp)
8000039c:	01d70eb3          	add	t4,a4,t4
800003a0:	000eaa03          	lw	s4,0(t4)
800003a4:	fff00e93          	li	t4,-1
800003a8:	f9da0ee3          	beq	s4,t4,80000344 <_ZN5Dinic3DFSEii+0x334>
800003ac:	00000a93          	li	s5,0
800003b0:	05812a23          	sw	s8,84(sp)
800003b4:	05712e23          	sw	s7,92(sp)
800003b8:	07a12223          	sw	s10,100(sp)
800003bc:	00028b93          	mv	s7,t0
800003c0:	04f12823          	sw	a5,80(sp)
800003c4:	05b12c23          	sw	s11,88(sp)
800003c8:	07912023          	sw	s9,96(sp)
800003cc:	06812423          	sw	s0,104(sp)
800003d0:	000a8d13          	mv	s10,s5
800003d4:	00030293          	mv	t0,t1
800003d8:	000e0c13          	mv	s8,t3
800003dc:	01c0006f          	j	800003f8 <_ZN5Dinic3DFSEii+0x3e8>
800003e0:	0189a603          	lw	a2,24(s3)
800003e4:	002a1a13          	slli	s4,s4,0x2
800003e8:	01460633          	add	a2,a2,s4
800003ec:	00062a03          	lw	s4,0(a2)
800003f0:	33da0e63          	beq	s4,t4,8000072c <_ZN5Dinic3DFSEii+0x71c>
800003f4:	000b2503          	lw	a0,0(s6)
800003f8:	004a1913          	slli	s2,s4,0x4
800003fc:	012b8933          	add	s2,s7,s2
80000400:	00492e03          	lw	t3,4(s2)
80000404:	00150513          	addi	a0,a0,1
80000408:	002e1593          	slli	a1,t3,0x2
8000040c:	00bc0ab3          	add	s5,s8,a1
80000410:	000aa603          	lw	a2,0(s5)
80000414:	fcc516e3          	bne	a0,a2,800003e0 <_ZN5Dinic3DFSEii+0x3d0>
80000418:	00892403          	lw	s0,8(s2)
8000041c:	00c92503          	lw	a0,12(s2)
80000420:	40a40cb3          	sub	s9,s0,a0
80000424:	0194d463          	bge	s1,s9,8000042c <_ZN5Dinic3DFSEii+0x41c>
80000428:	00048c93          	mv	s9,s1
8000042c:	57c28063          	beq	t0,t3,8000098c <_ZN5Dinic3DFSEii+0x97c>
80000430:	fa0c88e3          	beqz	s9,800003e0 <_ZN5Dinic3DFSEii+0x3d0>
80000434:	00812783          	lw	a5,8(sp)
80000438:	00b785b3          	add	a1,a5,a1
8000043c:	0005a403          	lw	s0,0(a1)
80000440:	fff00593          	li	a1,-1
80000444:	f8b40ee3          	beq	s0,a1,800003e0 <_ZN5Dinic3DFSEii+0x3d0>
80000448:	00000593          	li	a1,0
8000044c:	07612623          	sw	s6,108(sp)
80000450:	07212823          	sw	s2,112(sp)
80000454:	fff00e13          	li	t3,-1
80000458:	000a8d93          	mv	s11,s5
8000045c:	07412a23          	sw	s4,116(sp)
80000460:	06912c23          	sw	s1,120(sp)
80000464:	07a12e23          	sw	s10,124(sp)
80000468:	000c8913          	mv	s2,s9
8000046c:	00058b13          	mv	s6,a1
80000470:	01c0006f          	j	8000048c <_ZN5Dinic3DFSEii+0x47c>
80000474:	0189a783          	lw	a5,24(s3)
80000478:	00241413          	slli	s0,s0,0x2
8000047c:	008787b3          	add	a5,a5,s0
80000480:	0007a403          	lw	s0,0(a5)
80000484:	25c40e63          	beq	s0,t3,800006e0 <_ZN5Dinic3DFSEii+0x6d0>
80000488:	000da603          	lw	a2,0(s11)
8000048c:	00441a13          	slli	s4,s0,0x4
80000490:	014b8a33          	add	s4,s7,s4
80000494:	004a2703          	lw	a4,4(s4)
80000498:	00160613          	addi	a2,a2,1
8000049c:	00271793          	slli	a5,a4,0x2
800004a0:	00fc0d33          	add	s10,s8,a5
800004a4:	000d2503          	lw	a0,0(s10)
800004a8:	fca616e3          	bne	a2,a0,80000474 <_ZN5Dinic3DFSEii+0x464>
800004ac:	008a2a83          	lw	s5,8(s4)
800004b0:	00ca2603          	lw	a2,12(s4)
800004b4:	40ca8ab3          	sub	s5,s5,a2
800004b8:	01595463          	bge	s2,s5,800004c0 <_ZN5Dinic3DFSEii+0x4b0>
800004bc:	00090a93          	mv	s5,s2
800004c0:	4ce28a63          	beq	t0,a4,80000994 <_ZN5Dinic3DFSEii+0x984>
800004c4:	fa0a88e3          	beqz	s5,80000474 <_ZN5Dinic3DFSEii+0x464>
800004c8:	00812703          	lw	a4,8(sp)
800004cc:	00f707b3          	add	a5,a4,a5
800004d0:	0007a483          	lw	s1,0(a5)
800004d4:	fff00793          	li	a5,-1
800004d8:	f8f48ee3          	beq	s1,a5,80000474 <_ZN5Dinic3DFSEii+0x464>
800004dc:	00000c93          	li	s9,0
800004e0:	09b12023          	sw	s11,128(sp)
800004e4:	000c8713          	mv	a4,s9
800004e8:	000a0313          	mv	t1,s4
800004ec:	000d0d93          	mv	s11,s10
800004f0:	000a8c93          	mv	s9,s5
800004f4:	08812223          	sw	s0,132(sp)
800004f8:	09212423          	sw	s2,136(sp)
800004fc:	09612623          	sw	s6,140(sp)
80000500:	01c0006f          	j	8000051c <_ZN5Dinic3DFSEii+0x50c>
80000504:	0189a603          	lw	a2,24(s3)
80000508:	00249493          	slli	s1,s1,0x2
8000050c:	00960633          	add	a2,a2,s1
80000510:	00062483          	lw	s1,0(a2)
80000514:	18f48063          	beq	s1,a5,80000694 <_ZN5Dinic3DFSEii+0x684>
80000518:	000da503          	lw	a0,0(s11)
8000051c:	00449a13          	slli	s4,s1,0x4
80000520:	014b8a33          	add	s4,s7,s4
80000524:	004a2403          	lw	s0,4(s4)
80000528:	00150913          	addi	s2,a0,1
8000052c:	00241513          	slli	a0,s0,0x2
80000530:	00ac0ab3          	add	s5,s8,a0
80000534:	000aa603          	lw	a2,0(s5)
80000538:	fcc916e3          	bne	s2,a2,80000504 <_ZN5Dinic3DFSEii+0x4f4>
8000053c:	008a2d03          	lw	s10,8(s4)
80000540:	00ca2903          	lw	s2,12(s4)
80000544:	412d0d33          	sub	s10,s10,s2
80000548:	01acd463          	bge	s9,s10,80000550 <_ZN5Dinic3DFSEii+0x540>
8000054c:	000c8d13          	mv	s10,s9
80000550:	44828663          	beq	t0,s0,8000099c <_ZN5Dinic3DFSEii+0x98c>
80000554:	fa0d08e3          	beqz	s10,80000504 <_ZN5Dinic3DFSEii+0x4f4>
80000558:	00812683          	lw	a3,8(sp)
8000055c:	00a68533          	add	a0,a3,a0
80000560:	00052403          	lw	s0,0(a0)
80000564:	fff00513          	li	a0,-1
80000568:	f8a40ee3          	beq	s0,a0,80000504 <_ZN5Dinic3DFSEii+0x4f4>
8000056c:	00000913          	li	s2,0
80000570:	09412c23          	sw	s4,152(sp)
80000574:	08912e23          	sw	s1,156(sp)
80000578:	000c0a13          	mv	s4,s8
8000057c:	00090493          	mv	s1,s2
80000580:	00098c13          	mv	s8,s3
80000584:	000d0913          	mv	s2,s10
80000588:	fff00b13          	li	s6,-1
8000058c:	08512823          	sw	t0,144(sp)
80000590:	08e12a23          	sw	a4,148(sp)
80000594:	00030d13          	mv	s10,t1
80000598:	000a8993          	mv	s3,s5
8000059c:	01c0006f          	j	800005b8 <_ZN5Dinic3DFSEii+0x5a8>
800005a0:	018c2603          	lw	a2,24(s8)
800005a4:	00241413          	slli	s0,s0,0x2
800005a8:	00860633          	add	a2,a2,s0
800005ac:	00062403          	lw	s0,0(a2)
800005b0:	09640863          	beq	s0,s6,80000640 <_ZN5Dinic3DFSEii+0x630>
800005b4:	0009a603          	lw	a2,0(s3)
800005b8:	00441a93          	slli	s5,s0,0x4
800005bc:	015b8ab3          	add	s5,s7,s5
800005c0:	004aa583          	lw	a1,4(s5)
800005c4:	00160513          	addi	a0,a2,1
800005c8:	00259613          	slli	a2,a1,0x2
800005cc:	00ca0633          	add	a2,s4,a2
800005d0:	00062603          	lw	a2,0(a2)
800005d4:	fcc516e3          	bne	a0,a2,800005a0 <_ZN5Dinic3DFSEii+0x590>
800005d8:	008aa603          	lw	a2,8(s5)
800005dc:	00caa083          	lw	ra,12(s5)
800005e0:	000c0513          	mv	a0,s8
800005e4:	40160633          	sub	a2,a2,ra
800005e8:	38c94e63          	blt	s2,a2,80000984 <_ZN5Dinic3DFSEii+0x974>
800005ec:	a25ff0ef          	jal	80000010 <_ZN5Dinic3DFSEii>
800005f0:	00144613          	xori	a2,s0,1
800005f4:	00461613          	slli	a2,a2,0x4
800005f8:	00cb8633          	add	a2,s7,a2
800005fc:	fff00793          	li	a5,-1
80000600:	fff00e13          	li	t3,-1
80000604:	fff00e93          	li	t4,-1
80000608:	fff00f93          	li	t6,-1
8000060c:	fff00f13          	li	t5,-1
80000610:	fff00813          	li	a6,-1
80000614:	fff00393          	li	t2,-1
80000618:	f8a054e3          	blez	a0,800005a0 <_ZN5Dinic3DFSEii+0x590>
8000061c:	00caa583          	lw	a1,12(s5)
80000620:	40a90933          	sub	s2,s2,a0
80000624:	00a484b3          	add	s1,s1,a0
80000628:	00a585b3          	add	a1,a1,a0
8000062c:	00baa623          	sw	a1,12(s5)
80000630:	00c62583          	lw	a1,12(a2)
80000634:	40a585b3          	sub	a1,a1,a0
80000638:	00b62623          	sw	a1,12(a2)
8000063c:	f60912e3          	bnez	s2,800005a0 <_ZN5Dinic3DFSEii+0x590>
80000640:	00048913          	mv	s2,s1
80000644:	000c0993          	mv	s3,s8
80000648:	09012283          	lw	t0,144(sp)
8000064c:	000a0c13          	mv	s8,s4
80000650:	09412703          	lw	a4,148(sp)
80000654:	09c12483          	lw	s1,156(sp)
80000658:	09812a03          	lw	s4,152(sp)
8000065c:	000d0313          	mv	t1,s10
80000660:	eb2052e3          	blez	s2,80000504 <_ZN5Dinic3DFSEii+0x4f4>
80000664:	00ca2503          	lw	a0,12(s4)
80000668:	0014c613          	xori	a2,s1,1
8000066c:	00461613          	slli	a2,a2,0x4
80000670:	01250533          	add	a0,a0,s2
80000674:	00aa2623          	sw	a0,12(s4)
80000678:	00cb8633          	add	a2,s7,a2
8000067c:	00c62503          	lw	a0,12(a2)
80000680:	412c8cb3          	sub	s9,s9,s2
80000684:	01270733          	add	a4,a4,s2
80000688:	41250533          	sub	a0,a0,s2
8000068c:	00a62623          	sw	a0,12(a2)
80000690:	e60c9ae3          	bnez	s9,80000504 <_ZN5Dinic3DFSEii+0x4f4>
80000694:	08012d83          	lw	s11,128(sp)
80000698:	08412403          	lw	s0,132(sp)
8000069c:	08812903          	lw	s2,136(sp)
800006a0:	08c12b03          	lw	s6,140(sp)
800006a4:	00070c93          	mv	s9,a4
800006a8:	00030a13          	mv	s4,t1
800006ac:	dd9054e3          	blez	s9,80000474 <_ZN5Dinic3DFSEii+0x464>
800006b0:	00ca2703          	lw	a4,12(s4)
800006b4:	00144793          	xori	a5,s0,1
800006b8:	00479793          	slli	a5,a5,0x4
800006bc:	01970733          	add	a4,a4,s9
800006c0:	00ea2623          	sw	a4,12(s4)
800006c4:	00fb87b3          	add	a5,s7,a5
800006c8:	00c7a703          	lw	a4,12(a5)
800006cc:	41990933          	sub	s2,s2,s9
800006d0:	019b0b33          	add	s6,s6,s9
800006d4:	41970733          	sub	a4,a4,s9
800006d8:	00e7a623          	sw	a4,12(a5)
800006dc:	d8091ce3          	bnez	s2,80000474 <_ZN5Dinic3DFSEii+0x464>
800006e0:	000b0593          	mv	a1,s6
800006e4:	07012903          	lw	s2,112(sp)
800006e8:	07412a03          	lw	s4,116(sp)
800006ec:	07812483          	lw	s1,120(sp)
800006f0:	07c12d03          	lw	s10,124(sp)
800006f4:	06c12b03          	lw	s6,108(sp)
800006f8:	ceb054e3          	blez	a1,800003e0 <_ZN5Dinic3DFSEii+0x3d0>
800006fc:	00c92503          	lw	a0,12(s2)
80000700:	001a4613          	xori	a2,s4,1
80000704:	00461613          	slli	a2,a2,0x4
80000708:	00b50533          	add	a0,a0,a1
8000070c:	00a92623          	sw	a0,12(s2)
80000710:	00cb8633          	add	a2,s7,a2
80000714:	00c62503          	lw	a0,12(a2)
80000718:	40b484b3          	sub	s1,s1,a1
8000071c:	00bd0d33          	add	s10,s10,a1
80000720:	40b50533          	sub	a0,a0,a1
80000724:	00a62623          	sw	a0,12(a2)
80000728:	ca049ce3          	bnez	s1,800003e0 <_ZN5Dinic3DFSEii+0x3d0>
8000072c:	00028313          	mv	t1,t0
80000730:	000d0a93          	mv	s5,s10
80000734:	000b8293          	mv	t0,s7
80000738:	000c0e13          	mv	t3,s8
8000073c:	05012783          	lw	a5,80(sp)
80000740:	05812d83          	lw	s11,88(sp)
80000744:	06012c83          	lw	s9,96(sp)
80000748:	06812403          	lw	s0,104(sp)
8000074c:	06412d03          	lw	s10,100(sp)
80000750:	05c12b83          	lw	s7,92(sp)
80000754:	05412c03          	lw	s8,84(sp)
80000758:	bf5056e3          	blez	s5,80000344 <_ZN5Dinic3DFSEii+0x334>
8000075c:	00cbae83          	lw	t4,12(s7)
80000760:	001cc513          	xori	a0,s9,1
80000764:	00451513          	slli	a0,a0,0x4
80000768:	015e8eb3          	add	t4,t4,s5
8000076c:	01dba623          	sw	t4,12(s7)
80000770:	00a28533          	add	a0,t0,a0
80000774:	00c52e83          	lw	t4,12(a0)
80000778:	415d0d33          	sub	s10,s10,s5
8000077c:	01540433          	add	s0,s0,s5
80000780:	415e8eb3          	sub	t4,t4,s5
80000784:	01d52623          	sw	t4,12(a0)
80000788:	ba0d1ee3          	bnez	s10,80000344 <_ZN5Dinic3DFSEii+0x334>
8000078c:	000e0313          	mv	t1,t3
80000790:	04012d03          	lw	s10,64(sp)
80000794:	04412b83          	lw	s7,68(sp)
80000798:	04812483          	lw	s1,72(sp)
8000079c:	04c12e03          	lw	t3,76(sp)
800007a0:	00040b13          	mv	s6,s0
800007a4:	00098893          	mv	a7,s3
800007a8:	af605ee3          	blez	s6,800002a4 <_ZN5Dinic3DFSEii+0x294>
800007ac:	00cba583          	lw	a1,12(s7)
800007b0:	001dc613          	xori	a2,s11,1
800007b4:	00461613          	slli	a2,a2,0x4
800007b8:	016585b3          	add	a1,a1,s6
800007bc:	00bba623          	sw	a1,12(s7)
800007c0:	00c28633          	add	a2,t0,a2
800007c4:	00c62583          	lw	a1,12(a2)
800007c8:	01012703          	lw	a4,16(sp)
800007cc:	416484b3          	sub	s1,s1,s6
800007d0:	416585b3          	sub	a1,a1,s6
800007d4:	01670733          	add	a4,a4,s6
800007d8:	00e12823          	sw	a4,16(sp)
800007dc:	00b62623          	sw	a1,12(a2)
800007e0:	ac0492e3          	bnez	s1,800002a4 <_ZN5Dinic3DFSEii+0x294>
800007e4:	03412b83          	lw	s7,52(sp)
800007e8:	03812c03          	lw	s8,56(sp)
800007ec:	01012483          	lw	s1,16(sp)
800007f0:	03c12a03          	lw	s4,60(sp)
800007f4:	00028f93          	mv	t6,t0
800007f8:	00078a93          	mv	s5,a5
800007fc:	00030293          	mv	t0,t1
80000800:	00088e93          	mv	t4,a7
80000804:	9e905ae3          	blez	s1,800001f8 <_ZN5Dinic3DFSEii+0x1e8>
80000808:	00012783          	lw	a5,0(sp)
8000080c:	00caa603          	lw	a2,12(s5)
80000810:	409c0c33          	sub	s8,s8,s1
80000814:	0017c693          	xori	a3,a5,1
80000818:	00960633          	add	a2,a2,s1
8000081c:	00469693          	slli	a3,a3,0x4
80000820:	00caa623          	sw	a2,12(s5)
80000824:	00df86b3          	add	a3,t6,a3
80000828:	00c6a603          	lw	a2,12(a3)
8000082c:	00c12783          	lw	a5,12(sp)
80000830:	40960633          	sub	a2,a2,s1
80000834:	009787b3          	add	a5,a5,s1
80000838:	00f12623          	sw	a5,12(sp)
8000083c:	00c6a623          	sw	a2,12(a3)
80000840:	9a0c1ce3          	bnez	s8,800001f8 <_ZN5Dinic3DFSEii+0x1e8>
80000844:	02012d83          	lw	s11,32(sp)
80000848:	02412b83          	lw	s7,36(sp)
8000084c:	02812a83          	lw	s5,40(sp)
80000850:	02c12903          	lw	s2,44(sp)
80000854:	03012403          	lw	s0,48(sp)
80000858:	00c12b03          	lw	s6,12(sp)
8000085c:	0b812c03          	lw	s8,184(sp)
80000860:	000e0713          	mv	a4,t3
80000864:	000e8e13          	mv	t3,t4
80000868:	00028e93          	mv	t4,t0
8000086c:	000f8293          	mv	t0,t6
80000870:	8d605ce3          	blez	s6,80000148 <_ZN5Dinic3DFSEii+0x138>
80000874:	00cba683          	lw	a3,12(s7)
80000878:	001ac793          	xori	a5,s5,1
8000087c:	00479793          	slli	a5,a5,0x4
80000880:	016686b3          	add	a3,a3,s6
80000884:	00dba623          	sw	a3,12(s7)
80000888:	00f287b3          	add	a5,t0,a5
8000088c:	00c7a683          	lw	a3,12(a5)
80000890:	41690933          	sub	s2,s2,s6
80000894:	01640433          	add	s0,s0,s6
80000898:	416686b3          	sub	a3,a3,s6
8000089c:	00d7a623          	sw	a3,12(a5)
800008a0:	8a0914e3          	bnez	s2,80000148 <_ZN5Dinic3DFSEii+0x138>
800008a4:	000a0493          	mv	s1,s4
800008a8:	01412b83          	lw	s7,20(sp)
800008ac:	01812d03          	lw	s10,24(sp)
800008b0:	01c12b03          	lw	s6,28(sp)
800008b4:	0c812a03          	lw	s4,200(sp)
800008b8:	00040993          	mv	s3,s0
800008bc:	00028f13          	mv	t5,t0
800008c0:	000e8893          	mv	a7,t4
800008c4:	00070d93          	mv	s11,a4
800008c8:	000e0413          	mv	s0,t3
800008cc:	fd305a63          	blez	s3,800000a0 <_ZN5Dinic3DFSEii+0x90>
800008d0:	00cba703          	lw	a4,12(s7)
800008d4:	001d4793          	xori	a5,s10,1
800008d8:	00479793          	slli	a5,a5,0x4
800008dc:	01370733          	add	a4,a4,s3
800008e0:	00eba623          	sw	a4,12(s7)
800008e4:	00ff07b3          	add	a5,t5,a5
800008e8:	00c7a703          	lw	a4,12(a5)
800008ec:	413b0b33          	sub	s6,s6,s3
800008f0:	013484b3          	add	s1,s1,s3
800008f4:	41370733          	sub	a4,a4,s3
800008f8:	00e7a623          	sw	a4,12(a5)
800008fc:	fa0b1263          	bnez	s6,800000a0 <_ZN5Dinic3DFSEii+0x90>
80000900:	00048513          	mv	a0,s1
80000904:	0d812403          	lw	s0,216(sp)
80000908:	0d412483          	lw	s1,212(sp)
8000090c:	0d012903          	lw	s2,208(sp)
80000910:	0cc12983          	lw	s3,204(sp)
80000914:	0c412a83          	lw	s5,196(sp)
80000918:	0c012b03          	lw	s6,192(sp)
8000091c:	0bc12b83          	lw	s7,188(sp)
80000920:	0b012d03          	lw	s10,176(sp)
80000924:	0ac12d83          	lw	s11,172(sp)
80000928:	0dc12083          	lw	ra,220(sp)
8000092c:	0b412c83          	lw	s9,180(sp)
80000930:	0e010113          	addi	sp,sp,224
80000934:	00008067          	ret
80000938:	0dc12083          	lw	ra,220(sp)
8000093c:	0b412c83          	lw	s9,180(sp)
80000940:	00060513          	mv	a0,a2
80000944:	0e010113          	addi	sp,sp,224
80000948:	00008067          	ret
8000094c:	00048c13          	mv	s8,s1
80000950:	99dff06f          	j	800002ec <_ZN5Dinic3DFSEii+0x2dc>
80000954:	0b012d03          	lw	s10,176(sp)
80000958:	fd1ff06f          	j	80000928 <_ZN5Dinic3DFSEii+0x918>
8000095c:	00090993          	mv	s3,s2
80000960:	f6dff06f          	j	800008cc <_ZN5Dinic3DFSEii+0x8bc>
80000964:	00098b13          	mv	s6,s3
80000968:	f09ff06f          	j	80000870 <_ZN5Dinic3DFSEii+0x860>
8000096c:	000b0493          	mv	s1,s6
80000970:	e95ff06f          	j	80000804 <_ZN5Dinic3DFSEii+0x7f4>
80000974:	000c0b13          	mv	s6,s8
80000978:	e31ff06f          	j	800007a8 <_ZN5Dinic3DFSEii+0x798>
8000097c:	00048a93          	mv	s5,s1
80000980:	dd9ff06f          	j	80000758 <_ZN5Dinic3DFSEii+0x748>
80000984:	00090613          	mv	a2,s2
80000988:	c65ff06f          	j	800005ec <_ZN5Dinic3DFSEii+0x5dc>
8000098c:	000c8593          	mv	a1,s9
80000990:	d69ff06f          	j	800006f8 <_ZN5Dinic3DFSEii+0x6e8>
80000994:	000a8c93          	mv	s9,s5
80000998:	d15ff06f          	j	800006ac <_ZN5Dinic3DFSEii+0x69c>
8000099c:	000d0913          	mv	s2,s10
800009a0:	cc1ff06f          	j	80000660 <_ZN5Dinic3DFSEii+0x650>

800009a4 <bench_dinic_prepare>:
800009a4:	00006797          	auipc	a5,0x6
800009a8:	da47a783          	lw	a5,-604(a5) # 80006748 <setting>
800009ac:	0007a783          	lw	a5,0(a5)
800009b0:	fd010113          	addi	sp,sp,-48
800009b4:	02112623          	sw	ra,44(sp)
800009b8:	02812423          	sw	s0,40(sp)
800009bc:	02912223          	sw	s1,36(sp)
800009c0:	03212023          	sw	s2,32(sp)
800009c4:	01312e23          	sw	s3,28(sp)
800009c8:	01412c23          	sw	s4,24(sp)
800009cc:	01512a23          	sw	s5,20(sp)
800009d0:	01612823          	sw	s6,16(sp)
800009d4:	01712623          	sw	s7,12(sp)
800009d8:	00006917          	auipc	s2,0x6
800009dc:	d3490913          	addi	s2,s2,-716 # 8000670c <_ZL1N>
800009e0:	01912223          	sw	s9,4(sp)
800009e4:	00100513          	li	a0,1
800009e8:	00f92023          	sw	a5,0(s2)
800009ec:	300020ef          	jal	80002cec <bench_srand>
800009f0:	02c00513          	li	a0,44
800009f4:	00092b03          	lw	s6,0(s2)
800009f8:	24c020ef          	jal	80002c44 <bench_alloc>
800009fc:	00092403          	lw	s0,0(s2)
80000a00:	00006997          	auipc	s3,0x6
80000a04:	d0898993          	addi	s3,s3,-760 # 80006708 <_ZL1G>
80000a08:	00050493          	mv	s1,a0
80000a0c:	00140413          	addi	s0,s0,1
80000a10:	00141a13          	slli	s4,s0,0x1
80000a14:	ffea0793          	addi	a5,s4,-2
80000a18:	4017d793          	srai	a5,a5,0x1
80000a1c:	02f78ab3          	mul	s5,a5,a5
80000a20:	00179793          	slli	a5,a5,0x1
80000a24:	00a9a023          	sw	a0,0(s3)
80000a28:	00341413          	slli	s0,s0,0x3
80000a2c:	001b1b13          	slli	s6,s6,0x1
80000a30:	001b0b93          	addi	s7,s6,1
80000a34:	00fa8ab3          	add	s5,s5,a5
80000a38:	005a9513          	slli	a0,s5,0x5
80000a3c:	208020ef          	jal	80002c44 <bench_alloc>
80000a40:	00a4a823          	sw	a0,16(s1)
80000a44:	00040513          	mv	a0,s0
80000a48:	1fc020ef          	jal	80002c44 <bench_alloc>
80000a4c:	00a4aa23          	sw	a0,20(s1)
80000a50:	003a9513          	slli	a0,s5,0x3
80000a54:	1f0020ef          	jal	80002c44 <bench_alloc>
80000a58:	00a4ac23          	sw	a0,24(s1)
80000a5c:	000a0513          	mv	a0,s4
80000a60:	1e4020ef          	jal	80002c44 <bench_alloc>
80000a64:	02a4a423          	sw	a0,40(s1)
80000a68:	00040513          	mv	a0,s0
80000a6c:	1d8020ef          	jal	80002c44 <bench_alloc>
80000a70:	00a4ae23          	sw	a0,28(s1)
80000a74:	00040513          	mv	a0,s0
80000a78:	1cc020ef          	jal	80002c44 <bench_alloc>
80000a7c:	02a4a023          	sw	a0,32(s1)
80000a80:	00040513          	mv	a0,s0
80000a84:	1c0020ef          	jal	80002c44 <bench_alloc>
80000a88:	02a4a223          	sw	a0,36(s1)
80000a8c:	0144a023          	sw	s4,0(s1)
80000a90:	01405e63          	blez	s4,80000aac <bench_dinic_prepare+0x108>
80000a94:	0144a783          	lw	a5,20(s1)
80000a98:	fff00693          	li	a3,-1
80000a9c:	00878733          	add	a4,a5,s0
80000aa0:	00d7a023          	sw	a3,0(a5)
80000aa4:	00478793          	addi	a5,a5,4
80000aa8:	fee79ce3          	bne	a5,a4,80000aa0 <bench_dinic_prepare+0xfc>
80000aac:	00092c83          	lw	s9,0(s2)
80000ab0:	0004a223          	sw	zero,4(s1)
80000ab4:	00a00a13          	li	s4,10
80000ab8:	00000493          	li	s1,0
80000abc:	23905e63          	blez	s9,80000cf8 <bench_dinic_prepare+0x354>
80000ac0:	01812423          	sw	s8,8(sp)
80000ac4:	01a12023          	sw	s10,0(sp)
80000ac8:	00249a93          	slli	s5,s1,0x2
80000acc:	00000c13          	li	s8,0
80000ad0:	0009a403          	lw	s0,0(s3)
80000ad4:	22c020ef          	jal	80002d00 <bench_rand>
80000ad8:	03457533          	remu	a0,a0,s4
80000adc:	018c85b3          	add	a1,s9,s8
80000ae0:	00259893          	slli	a7,a1,0x2
80000ae4:	00092c83          	lw	s9,0(s2)
80000ae8:	001c0c13          	addi	s8,s8,1
80000aec:	08050863          	beqz	a0,80000b7c <bench_dinic_prepare+0x1d8>
80000af0:	00442703          	lw	a4,4(s0)
80000af4:	01042783          	lw	a5,16(s0)
80000af8:	01442603          	lw	a2,20(s0)
80000afc:	00471693          	slli	a3,a4,0x4
80000b00:	00d786b3          	add	a3,a5,a3
80000b04:	0096a023          	sw	s1,0(a3)
80000b08:	00a6a423          	sw	a0,8(a3)
80000b0c:	00b6a223          	sw	a1,4(a3)
80000b10:	0006a623          	sw	zero,12(a3)
80000b14:	01560533          	add	a0,a2,s5
80000b18:	01842683          	lw	a3,24(s0)
80000b1c:	00052803          	lw	a6,0(a0)
80000b20:	00271713          	slli	a4,a4,0x2
80000b24:	00e68733          	add	a4,a3,a4
80000b28:	01072023          	sw	a6,0(a4)
80000b2c:	00442803          	lw	a6,4(s0)
80000b30:	01160733          	add	a4,a2,a7
80000b34:	00180613          	addi	a2,a6,1
80000b38:	00c42223          	sw	a2,4(s0)
80000b3c:	01052023          	sw	a6,0(a0)
80000b40:	00442603          	lw	a2,4(s0)
80000b44:	00461513          	slli	a0,a2,0x4
80000b48:	00a787b3          	add	a5,a5,a0
80000b4c:	00b7a023          	sw	a1,0(a5)
80000b50:	0097a223          	sw	s1,4(a5)
80000b54:	0007a423          	sw	zero,8(a5)
80000b58:	0007a623          	sw	zero,12(a5)
80000b5c:	00072783          	lw	a5,0(a4)
80000b60:	00261613          	slli	a2,a2,0x2
80000b64:	00c686b3          	add	a3,a3,a2
80000b68:	00f6a023          	sw	a5,0(a3)
80000b6c:	00442783          	lw	a5,4(s0)
80000b70:	00178693          	addi	a3,a5,1
80000b74:	00d42223          	sw	a3,4(s0)
80000b78:	00f72023          	sw	a5,0(a4)
80000b7c:	f59c4ae3          	blt	s8,s9,80000ad0 <bench_dinic_prepare+0x12c>
80000b80:	00148493          	addi	s1,s1,1
80000b84:	f594c2e3          	blt	s1,s9,80000ac8 <bench_dinic_prepare+0x124>
80000b88:	17905463          	blez	s9,80000cf0 <bench_dinic_prepare+0x34c>
80000b8c:	002b1c93          	slli	s9,s6,0x2
80000b90:	002b9c13          	slli	s8,s7,0x2
80000b94:	00000a13          	li	s4,0
80000b98:	3e800a93          	li	s5,1000
80000b9c:	0009a483          	lw	s1,0(s3)
80000ba0:	160020ef          	jal	80002d00 <bench_rand>
80000ba4:	03557533          	remu	a0,a0,s5
80000ba8:	0009a403          	lw	s0,0(s3)
80000bac:	00092d03          	lw	s10,0(s2)
80000bb0:	002a1813          	slli	a6,s4,0x2
80000bb4:	08050863          	beqz	a0,80000c44 <bench_dinic_prepare+0x2a0>
80000bb8:	0044a703          	lw	a4,4(s1)
80000bbc:	0104a783          	lw	a5,16(s1)
80000bc0:	0144a603          	lw	a2,20(s1)
80000bc4:	00471693          	slli	a3,a4,0x4
80000bc8:	00d786b3          	add	a3,a5,a3
80000bcc:	0166a023          	sw	s6,0(a3)
80000bd0:	0146a223          	sw	s4,4(a3)
80000bd4:	00a6a423          	sw	a0,8(a3)
80000bd8:	0006a623          	sw	zero,12(a3)
80000bdc:	019605b3          	add	a1,a2,s9
80000be0:	0184a683          	lw	a3,24(s1)
80000be4:	0005a503          	lw	a0,0(a1)
80000be8:	00271713          	slli	a4,a4,0x2
80000bec:	00e68733          	add	a4,a3,a4
80000bf0:	00a72023          	sw	a0,0(a4)
80000bf4:	0044a503          	lw	a0,4(s1)
80000bf8:	01060733          	add	a4,a2,a6
80000bfc:	00150613          	addi	a2,a0,1
80000c00:	00c4a223          	sw	a2,4(s1)
80000c04:	00a5a023          	sw	a0,0(a1)
80000c08:	0044a603          	lw	a2,4(s1)
80000c0c:	00461593          	slli	a1,a2,0x4
80000c10:	00b787b3          	add	a5,a5,a1
80000c14:	0147a023          	sw	s4,0(a5)
80000c18:	0167a223          	sw	s6,4(a5)
80000c1c:	0007a423          	sw	zero,8(a5)
80000c20:	0007a623          	sw	zero,12(a5)
80000c24:	00072783          	lw	a5,0(a4)
80000c28:	00261613          	slli	a2,a2,0x2
80000c2c:	00c686b3          	add	a3,a3,a2
80000c30:	00f6a023          	sw	a5,0(a3)
80000c34:	0044a783          	lw	a5,4(s1)
80000c38:	00178693          	addi	a3,a5,1
80000c3c:	00d4a223          	sw	a3,4(s1)
80000c40:	00f72023          	sw	a5,0(a4)
80000c44:	0bc020ef          	jal	80002d00 <bench_rand>
80000c48:	03557533          	remu	a0,a0,s5
80000c4c:	014d0833          	add	a6,s10,s4
80000c50:	00092883          	lw	a7,0(s2)
80000c54:	00281593          	slli	a1,a6,0x2
80000c58:	001a0a13          	addi	s4,s4,1
80000c5c:	08050863          	beqz	a0,80000cec <bench_dinic_prepare+0x348>
80000c60:	00442703          	lw	a4,4(s0)
80000c64:	01042783          	lw	a5,16(s0)
80000c68:	01442603          	lw	a2,20(s0)
80000c6c:	00471693          	slli	a3,a4,0x4
80000c70:	00d786b3          	add	a3,a5,a3
80000c74:	0106a023          	sw	a6,0(a3)
80000c78:	00a6a423          	sw	a0,8(a3)
80000c7c:	0176a223          	sw	s7,4(a3)
80000c80:	0006a623          	sw	zero,12(a3)
80000c84:	01842503          	lw	a0,24(s0)
80000c88:	00b606b3          	add	a3,a2,a1
80000c8c:	0006a583          	lw	a1,0(a3)
80000c90:	00271713          	slli	a4,a4,0x2
80000c94:	00e50733          	add	a4,a0,a4
80000c98:	00b72023          	sw	a1,0(a4)
80000c9c:	00442583          	lw	a1,4(s0)
80000ca0:	01860733          	add	a4,a2,s8
80000ca4:	00158613          	addi	a2,a1,1
80000ca8:	00c42223          	sw	a2,4(s0)
80000cac:	00b6a023          	sw	a1,0(a3)
80000cb0:	00442683          	lw	a3,4(s0)
80000cb4:	00469613          	slli	a2,a3,0x4
80000cb8:	00c787b3          	add	a5,a5,a2
80000cbc:	0177a023          	sw	s7,0(a5)
80000cc0:	0107a223          	sw	a6,4(a5)
80000cc4:	0007a423          	sw	zero,8(a5)
80000cc8:	0007a623          	sw	zero,12(a5)
80000ccc:	00072783          	lw	a5,0(a4)
80000cd0:	00269693          	slli	a3,a3,0x2
80000cd4:	00d50533          	add	a0,a0,a3
80000cd8:	00f52023          	sw	a5,0(a0)
80000cdc:	00442783          	lw	a5,4(s0)
80000ce0:	00178693          	addi	a3,a5,1
80000ce4:	00d42223          	sw	a3,4(s0)
80000ce8:	00f72023          	sw	a5,0(a4)
80000cec:	eb1a48e3          	blt	s4,a7,80000b9c <bench_dinic_prepare+0x1f8>
80000cf0:	00812c03          	lw	s8,8(sp)
80000cf4:	00012d03          	lw	s10,0(sp)
80000cf8:	02c12083          	lw	ra,44(sp)
80000cfc:	02812403          	lw	s0,40(sp)
80000d00:	02412483          	lw	s1,36(sp)
80000d04:	02012903          	lw	s2,32(sp)
80000d08:	01c12983          	lw	s3,28(sp)
80000d0c:	01812a03          	lw	s4,24(sp)
80000d10:	01412a83          	lw	s5,20(sp)
80000d14:	01012b03          	lw	s6,16(sp)
80000d18:	00c12b83          	lw	s7,12(sp)
80000d1c:	00412c83          	lw	s9,4(sp)
80000d20:	03010113          	addi	sp,sp,48
80000d24:	00008067          	ret

80000d28 <bench_dinic_run>:
80000d28:	f6010113          	addi	sp,sp,-160
80000d2c:	08812c23          	sw	s0,152(sp)
80000d30:	00006417          	auipc	s0,0x6
80000d34:	9d842403          	lw	s0,-1576(s0) # 80006708 <_ZL1G>
80000d38:	09412423          	sw	s4,136(sp)
80000d3c:	07a12823          	sw	s10,112(sp)
80000d40:	00006797          	auipc	a5,0x6
80000d44:	9cc7a783          	lw	a5,-1588(a5) # 8000670c <_ZL1N>
80000d48:	01c42e83          	lw	t4,28(s0)
80000d4c:	02442a03          	lw	s4,36(s0)
80000d50:	01442d03          	lw	s10,20(s0)
80000d54:	09512223          	sw	s5,132(sp)
80000d58:	09612023          	sw	s6,128(sp)
80000d5c:	00179a93          	slli	s5,a5,0x1
80000d60:	003f4537          	lui	a0,0x3f4
80000d64:	02842b03          	lw	s6,40(s0)
80000d68:	00042603          	lw	a2,0(s0)
80000d6c:	08912a23          	sw	s1,148(sp)
80000d70:	09312623          	sw	s3,140(sp)
80000d74:	07712e23          	sw	s7,124(sp)
80000d78:	07812c23          	sw	s8,120(sp)
80000d7c:	07912a23          	sw	s9,116(sp)
80000d80:	08112e23          	sw	ra,156(sp)
80000d84:	09212823          	sw	s2,144(sp)
80000d88:	07b12623          	sw	s11,108(sp)
80000d8c:	00379593          	slli	a1,a5,0x3
80000d90:	00000b93          	li	s7,0
80000d94:	001a8713          	addi	a4,s5,1
80000d98:	f3f50513          	addi	a0,a0,-193 # 3f3f3f <_entry_offset+0x3f3f3f>
80000d9c:	000b8c13          	mv	s8,s7
80000da0:	01542423          	sw	s5,8(s0)
80000da4:	000a0b93          	mv	s7,s4
80000da8:	00e42623          	sw	a4,12(s0)
80000dac:	000a8693          	mv	a3,s5
80000db0:	00100f13          	li	t5,1
80000db4:	fff00493          	li	s1,-1
80000db8:	00be89b3          	add	s3,t4,a1
80000dbc:	000a8793          	mv	a5,s5
80000dc0:	000e8a13          	mv	s4,t4
80000dc4:	000d0c93          	mv	s9,s10
80000dc8:	04a12e23          	sw	a0,92(sp)
80000dcc:	000b0713          	mv	a4,s6
80000dd0:	00cb0533          	add	a0,s6,a2
80000dd4:	00c05863          	blez	a2,80000de4 <bench_dinic_run+0xbc>
80000dd8:	00070023          	sb	zero,0(a4)
80000ddc:	00170713          	addi	a4,a4,1
80000de0:	fee51ce3          	bne	a0,a4,80000dd8 <bench_dinic_run+0xb0>
80000de4:	00269713          	slli	a4,a3,0x2
80000de8:	00dba023          	sw	a3,0(s7)
80000dec:	00ea0733          	add	a4,s4,a4
80000df0:	00072023          	sw	zero,0(a4)
80000df4:	00842703          	lw	a4,8(s0)
80000df8:	000b8893          	mv	a7,s7
80000dfc:	00100e13          	li	t3,1
80000e00:	00eb0733          	add	a4,s6,a4
80000e04:	01e70023          	sb	t5,0(a4)
80000e08:	00000813          	li	a6,0
80000e0c:	0008a683          	lw	a3,0(a7)
80000e10:	00180813          	addi	a6,a6,1
80000e14:	00269693          	slli	a3,a3,0x2
80000e18:	00dc8733          	add	a4,s9,a3
80000e1c:	00072703          	lw	a4,0(a4)
80000e20:	06970863          	beq	a4,s1,80000e90 <bench_dinic_run+0x168>
80000e24:	01042283          	lw	t0,16(s0)
80000e28:	01842f83          	lw	t6,24(s0)
80000e2c:	00da0633          	add	a2,s4,a3
80000e30:	00471693          	slli	a3,a4,0x4
80000e34:	00d286b3          	add	a3,t0,a3
80000e38:	0046a503          	lw	a0,4(a3)
80000e3c:	00271713          	slli	a4,a4,0x2
80000e40:	00ef8733          	add	a4,t6,a4
80000e44:	00ab0333          	add	t1,s6,a0
80000e48:	00034e83          	lbu	t4,0(t1)
80000e4c:	020e9e63          	bnez	t4,80000e88 <bench_dinic_run+0x160>
80000e50:	0086a903          	lw	s2,8(a3)
80000e54:	00c6a383          	lw	t2,12(a3)
80000e58:	00251513          	slli	a0,a0,0x2
80000e5c:	002e1e93          	slli	t4,t3,0x2
80000e60:	00aa0533          	add	a0,s4,a0
80000e64:	01db8eb3          	add	t4,s7,t4
80000e68:	0323d063          	bge	t2,s2,80000e88 <bench_dinic_run+0x160>
80000e6c:	00062383          	lw	t2,0(a2)
80000e70:	01e30023          	sb	t5,0(t1)
80000e74:	001e0e13          	addi	t3,t3,1
80000e78:	00138313          	addi	t1,t2,1
80000e7c:	00652023          	sw	t1,0(a0)
80000e80:	0046a683          	lw	a3,4(a3)
80000e84:	00dea023          	sw	a3,0(t4)
80000e88:	00072703          	lw	a4,0(a4)
80000e8c:	fa9712e3          	bne	a4,s1,80000e30 <bench_dinic_run+0x108>
80000e90:	00488893          	addi	a7,a7,4
80000e94:	f7c81ce3          	bne	a6,t3,80000e0c <bench_dinic_run+0xe4>
80000e98:	00c42e03          	lw	t3,12(s0)
80000e9c:	01cb0733          	add	a4,s6,t3
80000ea0:	00074703          	lbu	a4,0(a4)
80000ea4:	46070263          	beqz	a4,80001308 <bench_dinic_run+0x5e0>
80000ea8:	00042603          	lw	a2,0(s0)
80000eac:	02c05863          	blez	a2,80000edc <bench_dinic_run+0x1b4>
80000eb0:	02042503          	lw	a0,32(s0)
80000eb4:	000c8693          	mv	a3,s9
80000eb8:	00000713          	li	a4,0
80000ebc:	0006a603          	lw	a2,0(a3)
80000ec0:	00170713          	addi	a4,a4,1
80000ec4:	00468693          	addi	a3,a3,4
80000ec8:	00c52023          	sw	a2,0(a0)
80000ecc:	00042603          	lw	a2,0(s0)
80000ed0:	00450513          	addi	a0,a0,4
80000ed4:	fec744e3          	blt	a4,a2,80000ebc <bench_dinic_run+0x194>
80000ed8:	00c42e03          	lw	t3,12(s0)
80000edc:	41c78663          	beq	a5,t3,800012e8 <bench_dinic_run+0x5c0>
80000ee0:	02042e83          	lw	t4,32(s0)
80000ee4:	00be8733          	add	a4,t4,a1
80000ee8:	00072903          	lw	s2,0(a4)
80000eec:	3e990663          	beq	s2,s1,800012d8 <bench_dinic_run+0x5b0>
80000ef0:	003f4ab7          	lui	s5,0x3f4
80000ef4:	00f12623          	sw	a5,12(sp)
80000ef8:	01042d83          	lw	s11,16(s0)
80000efc:	00000d13          	li	s10,0
80000f00:	f3fa8a93          	addi	s5,s5,-193 # 3f3f3f <_entry_offset+0x3f3f3f>
80000f04:	01812823          	sw	s8,16(sp)
80000f08:	000e8f93          	mv	t6,t4
80000f0c:	00b12a23          	sw	a1,20(sp)
80000f10:	000b0513          	mv	a0,s6
80000f14:	000b8793          	mv	a5,s7
80000f18:	0180006f          	j	80000f30 <bench_dinic_run+0x208>
80000f1c:	01842703          	lw	a4,24(s0)
80000f20:	00291913          	slli	s2,s2,0x2
80000f24:	01270733          	add	a4,a4,s2
80000f28:	00072903          	lw	s2,0(a4)
80000f2c:	38990863          	beq	s2,s1,800012bc <bench_dinic_run+0x594>
80000f30:	00491b93          	slli	s7,s2,0x4
80000f34:	017d8bb3          	add	s7,s11,s7
80000f38:	004ba583          	lw	a1,4(s7)
80000f3c:	0009a703          	lw	a4,0(s3)
80000f40:	00259613          	slli	a2,a1,0x2
80000f44:	00ca0c33          	add	s8,s4,a2
80000f48:	000c2e83          	lw	t4,0(s8)
80000f4c:	00170713          	addi	a4,a4,1
80000f50:	fdd716e3          	bne	a4,t4,80000f1c <bench_dinic_run+0x1f4>
80000f54:	008ba703          	lw	a4,8(s7)
80000f58:	00cba303          	lw	t1,12(s7)
80000f5c:	40670733          	sub	a4,a4,t1
80000f60:	00ead463          	bge	s5,a4,80000f68 <bench_dinic_run+0x240>
80000f64:	000a8713          	mv	a4,s5
80000f68:	37c58c63          	beq	a1,t3,800012e0 <bench_dinic_run+0x5b8>
80000f6c:	fa0708e3          	beqz	a4,80000f1c <bench_dinic_run+0x1f4>
80000f70:	00cf8633          	add	a2,t6,a2
80000f74:	00062b03          	lw	s6,0(a2)
80000f78:	fa9b02e3          	beq	s6,s1,80000f1c <bench_dinic_run+0x1f4>
80000f7c:	03212023          	sw	s2,32(sp)
80000f80:	03a12223          	sw	s10,36(sp)
80000f84:	00078393          	mv	t2,a5
80000f88:	00098693          	mv	a3,s3
80000f8c:	00000593          	li	a1,0
80000f90:	01512c23          	sw	s5,24(sp)
80000f94:	01712e23          	sw	s7,28(sp)
80000f98:	000c0913          	mv	s2,s8
80000f9c:	00070d13          	mv	s10,a4
80000fa0:	00050313          	mv	t1,a0
80000fa4:	000e8793          	mv	a5,t4
80000fa8:	00040993          	mv	s3,s0
80000fac:	01c0006f          	j	80000fc8 <bench_dinic_run+0x2a0>
80000fb0:	0189a783          	lw	a5,24(s3)
80000fb4:	002b1b13          	slli	s6,s6,0x2
80000fb8:	016787b3          	add	a5,a5,s6
80000fbc:	0007ab03          	lw	s6,0(a5)
80000fc0:	2a9b0463          	beq	s6,s1,80001268 <bench_dinic_run+0x540>
80000fc4:	00092783          	lw	a5,0(s2)
80000fc8:	004b1b93          	slli	s7,s6,0x4
80000fcc:	017d8bb3          	add	s7,s11,s7
80000fd0:	004baa83          	lw	s5,4(s7)
80000fd4:	00178793          	addi	a5,a5,1
80000fd8:	002a9613          	slli	a2,s5,0x2
80000fdc:	00ca0433          	add	s0,s4,a2
80000fe0:	00042703          	lw	a4,0(s0)
80000fe4:	fce796e3          	bne	a5,a4,80000fb0 <bench_dinic_run+0x288>
80000fe8:	008ba783          	lw	a5,8(s7)
80000fec:	00cbac03          	lw	s8,12(s7)
80000ff0:	418787b3          	sub	a5,a5,s8
80000ff4:	00fd5463          	bge	s10,a5,80000ffc <bench_dinic_run+0x2d4>
80000ff8:	000d0793          	mv	a5,s10
80000ffc:	2fca8e63          	beq	s5,t3,800012f8 <bench_dinic_run+0x5d0>
80001000:	fa0788e3          	beqz	a5,80000fb0 <bench_dinic_run+0x288>
80001004:	00cf8633          	add	a2,t6,a2
80001008:	00062a83          	lw	s5,0(a2)
8000100c:	fa9a82e3          	beq	s5,s1,80000fb0 <bench_dinic_run+0x288>
80001010:	00000c13          	li	s8,0
80001014:	000b8893          	mv	a7,s7
80001018:	00058513          	mv	a0,a1
8000101c:	000d0e93          	mv	t4,s10
80001020:	00030593          	mv	a1,t1
80001024:	00090813          	mv	a6,s2
80001028:	000b0313          	mv	t1,s6
8000102c:	000c0d13          	mv	s10,s8
80001030:	00098b13          	mv	s6,s3
80001034:	000a0b93          	mv	s7,s4
80001038:	00040993          	mv	s3,s0
8000103c:	000c8293          	mv	t0,s9
80001040:	01c0006f          	j	8000105c <bench_dinic_run+0x334>
80001044:	018b2703          	lw	a4,24(s6)
80001048:	002a9a93          	slli	s5,s5,0x2
8000104c:	01570733          	add	a4,a4,s5
80001050:	00072a83          	lw	s5,0(a4)
80001054:	1a9a8c63          	beq	s5,s1,8000120c <bench_dinic_run+0x4e4>
80001058:	0009a703          	lw	a4,0(s3)
8000105c:	004a9913          	slli	s2,s5,0x4
80001060:	012d8933          	add	s2,s11,s2
80001064:	00492403          	lw	s0,4(s2)
80001068:	00170c13          	addi	s8,a4,1
8000106c:	00241613          	slli	a2,s0,0x2
80001070:	00cb8a33          	add	s4,s7,a2
80001074:	000a2703          	lw	a4,0(s4)
80001078:	fcec16e3          	bne	s8,a4,80001044 <bench_dinic_run+0x31c>
8000107c:	00892c03          	lw	s8,8(s2)
80001080:	00c92c83          	lw	s9,12(s2)
80001084:	419c0c33          	sub	s8,s8,s9
80001088:	0187d463          	bge	a5,s8,80001090 <bench_dinic_run+0x368>
8000108c:	00078c13          	mv	s8,a5
80001090:	27c40863          	beq	s0,t3,80001300 <bench_dinic_run+0x5d8>
80001094:	fa0c08e3          	beqz	s8,80001044 <bench_dinic_run+0x31c>
80001098:	00cf8633          	add	a2,t6,a2
8000109c:	00062403          	lw	s0,0(a2)
800010a0:	fa9402e3          	beq	s0,s1,80001044 <bench_dinic_run+0x31c>
800010a4:	00000c93          	li	s9,0
800010a8:	03312c23          	sw	s3,56(sp)
800010ac:	05212423          	sw	s2,72(sp)
800010b0:	00040993          	mv	s3,s0
800010b4:	05512623          	sw	s5,76(sp)
800010b8:	000b0413          	mv	s0,s6
800010bc:	000c8a93          	mv	s5,s9
800010c0:	000b8b13          	mv	s6,s7
800010c4:	03f12423          	sw	t6,40(sp)
800010c8:	000d8b93          	mv	s7,s11
800010cc:	03012623          	sw	a6,44(sp)
800010d0:	02f12823          	sw	a5,48(sp)
800010d4:	03112a23          	sw	a7,52(sp)
800010d8:	02a12e23          	sw	a0,60(sp)
800010dc:	04612023          	sw	t1,64(sp)
800010e0:	05d12223          	sw	t4,68(sp)
800010e4:	000c0913          	mv	s2,s8
800010e8:	04b12823          	sw	a1,80(sp)
800010ec:	04712a23          	sw	t2,84(sp)
800010f0:	04512c23          	sw	t0,88(sp)
800010f4:	000e0c93          	mv	s9,t3
800010f8:	00068d93          	mv	s11,a3
800010fc:	01c0006f          	j	80001118 <bench_dinic_run+0x3f0>
80001100:	01842703          	lw	a4,24(s0)
80001104:	00299793          	slli	a5,s3,0x2
80001108:	00f707b3          	add	a5,a4,a5
8000110c:	0007a983          	lw	s3,0(a5)
80001110:	06998e63          	beq	s3,s1,8000118c <bench_dinic_run+0x464>
80001114:	000a2703          	lw	a4,0(s4)
80001118:	00499693          	slli	a3,s3,0x4
8000111c:	00db8c33          	add	s8,s7,a3
80001120:	004c2583          	lw	a1,4(s8)
80001124:	00170613          	addi	a2,a4,1
80001128:	00259713          	slli	a4,a1,0x2
8000112c:	00eb0733          	add	a4,s6,a4
80001130:	00072703          	lw	a4,0(a4)
80001134:	fce616e3          	bne	a2,a4,80001100 <bench_dinic_run+0x3d8>
80001138:	008c2603          	lw	a2,8(s8)
8000113c:	00cc2703          	lw	a4,12(s8)
80001140:	00040513          	mv	a0,s0
80001144:	40e60633          	sub	a2,a2,a4
80001148:	00c95463          	bge	s2,a2,80001150 <bench_dinic_run+0x428>
8000114c:	00090613          	mv	a2,s2
80001150:	ec1fe0ef          	jal	80000010 <_ZN5Dinic3DFSEii>
80001154:	0019c713          	xori	a4,s3,1
80001158:	00471713          	slli	a4,a4,0x4
8000115c:	00eb8733          	add	a4,s7,a4
80001160:	00100f13          	li	t5,1
80001164:	f8a05ee3          	blez	a0,80001100 <bench_dinic_run+0x3d8>
80001168:	00cc2603          	lw	a2,12(s8)
8000116c:	40a90933          	sub	s2,s2,a0
80001170:	00aa8ab3          	add	s5,s5,a0
80001174:	00a60633          	add	a2,a2,a0
80001178:	00cc2623          	sw	a2,12(s8)
8000117c:	00c72683          	lw	a3,12(a4)
80001180:	40a686b3          	sub	a3,a3,a0
80001184:	00d72623          	sw	a3,12(a4)
80001188:	f6091ce3          	bnez	s2,80001100 <bench_dinic_run+0x3d8>
8000118c:	000c8e13          	mv	t3,s9
80001190:	02812f83          	lw	t6,40(sp)
80001194:	000a8c93          	mv	s9,s5
80001198:	02c12803          	lw	a6,44(sp)
8000119c:	03012783          	lw	a5,48(sp)
800011a0:	03412883          	lw	a7,52(sp)
800011a4:	03812983          	lw	s3,56(sp)
800011a8:	03c12503          	lw	a0,60(sp)
800011ac:	04012303          	lw	t1,64(sp)
800011b0:	04412e83          	lw	t4,68(sp)
800011b4:	04812903          	lw	s2,72(sp)
800011b8:	05012583          	lw	a1,80(sp)
800011bc:	05412383          	lw	t2,84(sp)
800011c0:	05812283          	lw	t0,88(sp)
800011c4:	04c12a83          	lw	s5,76(sp)
800011c8:	000d8693          	mv	a3,s11
800011cc:	000b8d93          	mv	s11,s7
800011d0:	000b0b93          	mv	s7,s6
800011d4:	00040b13          	mv	s6,s0
800011d8:	e79056e3          	blez	s9,80001044 <bench_dinic_run+0x31c>
800011dc:	00c92603          	lw	a2,12(s2)
800011e0:	001ac713          	xori	a4,s5,1
800011e4:	00471713          	slli	a4,a4,0x4
800011e8:	01960633          	add	a2,a2,s9
800011ec:	00c92623          	sw	a2,12(s2)
800011f0:	00ed8733          	add	a4,s11,a4
800011f4:	00c72603          	lw	a2,12(a4)
800011f8:	419787b3          	sub	a5,a5,s9
800011fc:	019d0d33          	add	s10,s10,s9
80001200:	41960633          	sub	a2,a2,s9
80001204:	00c72623          	sw	a2,12(a4)
80001208:	e2079ee3          	bnez	a5,80001044 <bench_dinic_run+0x31c>
8000120c:	000b0993          	mv	s3,s6
80001210:	000d0c13          	mv	s8,s10
80001214:	00030b13          	mv	s6,t1
80001218:	000b8a13          	mv	s4,s7
8000121c:	00058313          	mv	t1,a1
80001220:	00080913          	mv	s2,a6
80001224:	000e8d13          	mv	s10,t4
80001228:	00050593          	mv	a1,a0
8000122c:	00088b93          	mv	s7,a7
80001230:	00028c93          	mv	s9,t0
80001234:	d7805ee3          	blez	s8,80000fb0 <bench_dinic_run+0x288>
80001238:	00cba703          	lw	a4,12(s7)
8000123c:	001b4793          	xori	a5,s6,1
80001240:	00479793          	slli	a5,a5,0x4
80001244:	01870733          	add	a4,a4,s8
80001248:	00eba623          	sw	a4,12(s7)
8000124c:	00fd87b3          	add	a5,s11,a5
80001250:	00c7a703          	lw	a4,12(a5)
80001254:	418d0d33          	sub	s10,s10,s8
80001258:	018585b3          	add	a1,a1,s8
8000125c:	41870733          	sub	a4,a4,s8
80001260:	00e7a623          	sw	a4,12(a5)
80001264:	d40d16e3          	bnez	s10,80000fb0 <bench_dinic_run+0x288>
80001268:	01812a83          	lw	s5,24(sp)
8000126c:	01c12b83          	lw	s7,28(sp)
80001270:	02012903          	lw	s2,32(sp)
80001274:	02412d03          	lw	s10,36(sp)
80001278:	00098413          	mv	s0,s3
8000127c:	00030513          	mv	a0,t1
80001280:	00038793          	mv	a5,t2
80001284:	00068993          	mv	s3,a3
80001288:	c8b05ae3          	blez	a1,80000f1c <bench_dinic_run+0x1f4>
8000128c:	00cba603          	lw	a2,12(s7)
80001290:	00194713          	xori	a4,s2,1
80001294:	00471713          	slli	a4,a4,0x4
80001298:	00b60633          	add	a2,a2,a1
8000129c:	00cba623          	sw	a2,12(s7)
800012a0:	00ed8733          	add	a4,s11,a4
800012a4:	00c72603          	lw	a2,12(a4)
800012a8:	40ba8ab3          	sub	s5,s5,a1
800012ac:	00bd0d33          	add	s10,s10,a1
800012b0:	40b60633          	sub	a2,a2,a1
800012b4:	00c72623          	sw	a2,12(a4)
800012b8:	c60a92e3          	bnez	s5,80000f1c <bench_dinic_run+0x1f4>
800012bc:	01012c03          	lw	s8,16(sp)
800012c0:	00078b93          	mv	s7,a5
800012c4:	01412583          	lw	a1,20(sp)
800012c8:	00c12783          	lw	a5,12(sp)
800012cc:	00042603          	lw	a2,0(s0)
800012d0:	00050b13          	mv	s6,a0
800012d4:	01ac0c33          	add	s8,s8,s10
800012d8:	00842683          	lw	a3,8(s0)
800012dc:	af1ff06f          	j	80000dcc <bench_dinic_run+0xa4>
800012e0:	00070593          	mv	a1,a4
800012e4:	fa5ff06f          	j	80001288 <bench_dinic_run+0x560>
800012e8:	05c12703          	lw	a4,92(sp)
800012ec:	00842683          	lw	a3,8(s0)
800012f0:	00ec0c33          	add	s8,s8,a4
800012f4:	ad9ff06f          	j	80000dcc <bench_dinic_run+0xa4>
800012f8:	00078c13          	mv	s8,a5
800012fc:	f39ff06f          	j	80001234 <bench_dinic_run+0x50c>
80001300:	000c0c93          	mv	s9,s8
80001304:	ed5ff06f          	j	800011d8 <bench_dinic_run+0x4b0>
80001308:	09c12083          	lw	ra,156(sp)
8000130c:	09812403          	lw	s0,152(sp)
80001310:	00005797          	auipc	a5,0x5
80001314:	3f87aa23          	sw	s8,1012(a5) # 80006704 <_ZL3ans>
80001318:	09412483          	lw	s1,148(sp)
8000131c:	09012903          	lw	s2,144(sp)
80001320:	08c12983          	lw	s3,140(sp)
80001324:	08812a03          	lw	s4,136(sp)
80001328:	08412a83          	lw	s5,132(sp)
8000132c:	08012b03          	lw	s6,128(sp)
80001330:	07c12b83          	lw	s7,124(sp)
80001334:	07812c03          	lw	s8,120(sp)
80001338:	07412c83          	lw	s9,116(sp)
8000133c:	07012d03          	lw	s10,112(sp)
80001340:	06c12d83          	lw	s11,108(sp)
80001344:	0a010113          	addi	sp,sp,160
80001348:	00008067          	ret

8000134c <bench_dinic_validate>:
8000134c:	00005797          	auipc	a5,0x5
80001350:	3fc7a783          	lw	a5,1020(a5) # 80006748 <setting>
80001354:	00c7a503          	lw	a0,12(a5)
80001358:	00005797          	auipc	a5,0x5
8000135c:	3ac7a783          	lw	a5,940(a5) # 80006704 <_ZL3ans>
80001360:	40f50533          	sub	a0,a0,a5
80001364:	00153513          	seqz	a0,a0
80001368:	00008067          	ret

8000136c <myqsort>:
8000136c:	fe010113          	addi	sp,sp,-32
80001370:	01212823          	sw	s2,16(sp)
80001374:	01312623          	sw	s3,12(sp)
80001378:	00112e23          	sw	ra,28(sp)
8000137c:	00812c23          	sw	s0,24(sp)
80001380:	00912a23          	sw	s1,20(sp)
80001384:	00050913          	mv	s2,a0
80001388:	00060993          	mv	s3,a2
8000138c:	0935d063          	bge	a1,s3,8000140c <myqsort+0xa0>
80001390:	00299493          	slli	s1,s3,0x2
80001394:	009904b3          	add	s1,s2,s1
80001398:	00259793          	slli	a5,a1,0x2
8000139c:	00f908b3          	add	a7,s2,a5
800013a0:	00158713          	addi	a4,a1,1
800013a4:	0008a803          	lw	a6,0(a7)
800013a8:	09375063          	bge	a4,s3,80001428 <myqsort+0xbc>
800013ac:	00478793          	addi	a5,a5,4
800013b0:	00f907b3          	add	a5,s2,a5
800013b4:	00058413          	mv	s0,a1
800013b8:	0007a683          	lw	a3,0(a5)
800013bc:	0106de63          	bge	a3,a6,800013d8 <myqsort+0x6c>
800013c0:	00140413          	addi	s0,s0,1
800013c4:	00241713          	slli	a4,s0,0x2
800013c8:	00e90733          	add	a4,s2,a4
800013cc:	00072503          	lw	a0,0(a4)
800013d0:	00d72023          	sw	a3,0(a4)
800013d4:	00a7a023          	sw	a0,0(a5)
800013d8:	00478793          	addi	a5,a5,4
800013dc:	fcf49ee3          	bne	s1,a5,800013b8 <myqsort+0x4c>
800013e0:	00241793          	slli	a5,s0,0x2
800013e4:	0008a683          	lw	a3,0(a7)
800013e8:	00f907b3          	add	a5,s2,a5
800013ec:	0007a703          	lw	a4,0(a5)
800013f0:	00d7a023          	sw	a3,0(a5)
800013f4:	00040613          	mv	a2,s0
800013f8:	00e8a023          	sw	a4,0(a7)
800013fc:	00090513          	mv	a0,s2
80001400:	f6dff0ef          	jal	8000136c <myqsort>
80001404:	00140593          	addi	a1,s0,1
80001408:	f935c8e3          	blt	a1,s3,80001398 <myqsort+0x2c>
8000140c:	01c12083          	lw	ra,28(sp)
80001410:	01812403          	lw	s0,24(sp)
80001414:	01412483          	lw	s1,20(sp)
80001418:	01012903          	lw	s2,16(sp)
8000141c:	00c12983          	lw	s3,12(sp)
80001420:	02010113          	addi	sp,sp,32
80001424:	00008067          	ret
80001428:	00058993          	mv	s3,a1
8000142c:	f61ff06f          	j	8000138c <myqsort+0x20>

80001430 <bench_qsort_prepare>:
80001430:	fe010113          	addi	sp,sp,-32
80001434:	00100513          	li	a0,1
80001438:	00112e23          	sw	ra,28(sp)
8000143c:	01212823          	sw	s2,16(sp)
80001440:	01312623          	sw	s3,12(sp)
80001444:	0a9010ef          	jal	80002cec <bench_srand>
80001448:	00005797          	auipc	a5,0x5
8000144c:	3007a783          	lw	a5,768(a5) # 80006748 <setting>
80001450:	0007a783          	lw	a5,0(a5)
80001454:	00005917          	auipc	s2,0x5
80001458:	2c090913          	addi	s2,s2,704 # 80006714 <N>
8000145c:	00005997          	auipc	s3,0x5
80001460:	2b498993          	addi	s3,s3,692 # 80006710 <data>
80001464:	00279513          	slli	a0,a5,0x2
80001468:	00f92023          	sw	a5,0(s2)
8000146c:	7d8010ef          	jal	80002c44 <bench_alloc>
80001470:	00092783          	lw	a5,0(s2)
80001474:	00a9a023          	sw	a0,0(s3)
80001478:	04f05463          	blez	a5,800014c0 <bench_qsort_prepare+0x90>
8000147c:	00912a23          	sw	s1,20(sp)
80001480:	00812c23          	sw	s0,24(sp)
80001484:	00000493          	li	s1,0
80001488:	079010ef          	jal	80002d00 <bench_rand>
8000148c:	00050413          	mv	s0,a0
80001490:	071010ef          	jal	80002d00 <bench_rand>
80001494:	0009a783          	lw	a5,0(s3)
80001498:	00249693          	slli	a3,s1,0x2
8000149c:	01041413          	slli	s0,s0,0x10
800014a0:	00092703          	lw	a4,0(s2)
800014a4:	00d787b3          	add	a5,a5,a3
800014a8:	00a46433          	or	s0,s0,a0
800014ac:	0087a023          	sw	s0,0(a5)
800014b0:	00148493          	addi	s1,s1,1
800014b4:	fce4cae3          	blt	s1,a4,80001488 <bench_qsort_prepare+0x58>
800014b8:	01812403          	lw	s0,24(sp)
800014bc:	01412483          	lw	s1,20(sp)
800014c0:	01c12083          	lw	ra,28(sp)
800014c4:	01012903          	lw	s2,16(sp)
800014c8:	00c12983          	lw	s3,12(sp)
800014cc:	02010113          	addi	sp,sp,32
800014d0:	00008067          	ret

800014d4 <bench_qsort_run>:
800014d4:	00005617          	auipc	a2,0x5
800014d8:	24062603          	lw	a2,576(a2) # 80006714 <N>
800014dc:	00000593          	li	a1,0
800014e0:	00005517          	auipc	a0,0x5
800014e4:	23052503          	lw	a0,560(a0) # 80006710 <data>
800014e8:	e85ff06f          	j	8000136c <myqsort>

800014ec <bench_qsort_validate>:
800014ec:	00005597          	auipc	a1,0x5
800014f0:	2285a583          	lw	a1,552(a1) # 80006714 <N>
800014f4:	00005517          	auipc	a0,0x5
800014f8:	21c52503          	lw	a0,540(a0) # 80006710 <data>
800014fc:	00259593          	slli	a1,a1,0x2
80001500:	ff010113          	addi	sp,sp,-16
80001504:	00b505b3          	add	a1,a0,a1
80001508:	00112623          	sw	ra,12(sp)
8000150c:	029010ef          	jal	80002d34 <checksum>
80001510:	00005797          	auipc	a5,0x5
80001514:	2387a783          	lw	a5,568(a5) # 80006748 <setting>
80001518:	00c7a783          	lw	a5,12(a5)
8000151c:	00c12083          	lw	ra,12(sp)
80001520:	40a78533          	sub	a0,a5,a0
80001524:	00153513          	seqz	a0,a0
80001528:	01010113          	addi	sp,sp,16
8000152c:	00008067          	ret

80001530 <bench_memcpy.part.0>:
80001530:	ff010113          	addi	sp,sp,-16
80001534:	00800613          	li	a2,8
80001538:	00004597          	auipc	a1,0x4
8000153c:	27858593          	addi	a1,a1,632 # 800057b0 <_etext>
80001540:	00004517          	auipc	a0,0x4
80001544:	2c050513          	addi	a0,a0,704 # 80005800 <_etext+0x50>
80001548:	00112623          	sw	ra,12(sp)
8000154c:	12c040ef          	jal	80005678 <printf>
80001550:	00100513          	li	a0,1
80001554:	7b0030ef          	jal	80004d04 <halt>

80001558 <qlz_compress>:
80001558:	fff60893          	addi	a7,a2,-1
8000155c:	e6e00793          	li	a5,-402
80001560:	5b17e263          	bltu	a5,a7,80001b04 <qlz_compress+0x5ac>
80001564:	00060813          	mv	a6,a2
80001568:	0d700613          	li	a2,215
8000156c:	01063633          	sltu	a2,a2,a6
80001570:	40c00633          	neg	a2,a2
80001574:	000087b7          	lui	a5,0x8
80001578:	00009737          	lui	a4,0x9
8000157c:	f8010113          	addi	sp,sp,-128
80001580:	00667f93          	andi	t6,a2,6
80001584:	00478793          	addi	a5,a5,4 # 8004 <_entry_offset+0x8004>
80001588:	80470713          	addi	a4,a4,-2044 # 8804 <_entry_offset+0x8804>
8000158c:	05812c23          	sw	s8,88(sp)
80001590:	06112e23          	sw	ra,124(sp)
80001594:	06812c23          	sw	s0,120(sp)
80001598:	06912a23          	sw	s1,116(sp)
8000159c:	07212823          	sw	s2,112(sp)
800015a0:	07312623          	sw	s3,108(sp)
800015a4:	07412423          	sw	s4,104(sp)
800015a8:	07612023          	sw	s6,96(sp)
800015ac:	05712e23          	sw	s7,92(sp)
800015b0:	00050c13          	mv	s8,a0
800015b4:	00058f13          	mv	t5,a1
800015b8:	003f8f93          	addi	t6,t6,3
800015bc:	00f687b3          	add	a5,a3,a5
800015c0:	00e68733          	add	a4,a3,a4
800015c4:	0007a023          	sw	zero,0(a5)
800015c8:	00478793          	addi	a5,a5,4
800015cc:	fee79ce3          	bne	a5,a4,800015c4 <qlz_compress+0x6c>
800015d0:	01ff0bb3          	add	s7,t5,t6
800015d4:	011c02b3          	add	t0,s8,a7
800015d8:	01712a23          	sw	s7,20(sp)
800015dc:	ff628b13          	addi	s6,t0,-10
800015e0:	004b8e93          	addi	t4,s7,4
800015e4:	658b6c63          	bltu	s6,s8,80001c3c <qlz_compress+0x6e4>
800015e8:	00185793          	srli	a5,a6,0x1
800015ec:	00fc07b3          	add	a5,s8,a5
800015f0:	05912a23          	sw	s9,84(sp)
800015f4:	05b12623          	sw	s11,76(sp)
800015f8:	07512223          	sw	s5,100(sp)
800015fc:	05a12823          	sw	s10,80(sp)
80001600:	00f12823          	sw	a5,16(sp)
80001604:	000c0713          	mv	a4,s8
80001608:	800008b7          	lui	a7,0x80000
8000160c:	04010393          	addi	t2,sp,64
80001610:	ffc28c93          	addi	s9,t0,-4
80001614:	0fe00d93          	li	s11,254
80001618:	000089b7          	lui	s3,0x8
8000161c:	00400493          	li	s1,4
80001620:	03f12023          	sw	t6,32(sp)
80001624:	02512623          	sw	t0,44(sp)
80001628:	01812c23          	sw	s8,24(sp)
8000162c:	03e12223          	sw	t5,36(sp)
80001630:	03012423          	sw	a6,40(sp)
80001634:	0018f793          	andi	a5,a7,1
80001638:	36079c63          	bnez	a5,800019b0 <qlz_compress+0x458>
8000163c:	0018d893          	srli	a7,a7,0x1
80001640:	40ec8fb3          	sub	t6,s9,a4
80001644:	01fdd463          	bge	s11,t6,8000164c <qlz_compress+0xf4>
80001648:	0fe00f93          	li	t6,254
8000164c:	00174583          	lbu	a1,1(a4)
80001650:	00274783          	lbu	a5,2(a4)
80001654:	00074503          	lbu	a0,0(a4)
80001658:	00859593          	slli	a1,a1,0x8
8000165c:	01079793          	slli	a5,a5,0x10
80001660:	00f5e5b3          	or	a1,a1,a5
80001664:	0095d793          	srli	a5,a1,0x9
80001668:	00d5d613          	srli	a2,a1,0xd
8000166c:	00c7c7b3          	xor	a5,a5,a2
80001670:	00a5e5b3          	or	a1,a1,a0
80001674:	00b7c7b3          	xor	a5,a5,a1
80001678:	7ff7f793          	andi	a5,a5,2047
8000167c:	00f68333          	add	t1,a3,a5
80001680:	00698ab3          	add	s5,s3,t1
80001684:	00479813          	slli	a6,a5,0x4
80001688:	004ace03          	lbu	t3,4(s5)
8000168c:	01068c33          	add	s8,a3,a6
80001690:	004c2503          	lw	a0,4(s8)
80001694:	001e0293          	addi	t0,t3,1
80001698:	ffe70413          	addi	s0,a4,-2
8000169c:	001f8a13          	addi	s4,t6,1
800016a0:	003e7913          	andi	s2,t3,3
800016a4:	0ff2f293          	zext.b	t0,t0
800016a8:	36856463          	bltu	a0,s0,80001a10 <qlz_compress+0x4b8>
800016ac:	00100513          	li	a0,1
800016b0:	00000613          	li	a2,0
800016b4:	00070f13          	mv	t5,a4
800016b8:	55c57463          	bgeu	a0,t3,80001c00 <qlz_compress+0x6a8>
800016bc:	01068833          	add	a6,a3,a6
800016c0:	00040c13          	mv	s8,s0
800016c4:	00882403          	lw	s0,8(a6)
800016c8:	01412623          	sw	s4,12(sp)
800016cc:	000f4a03          	lbu	s4,0(t5)
800016d0:	00c40f33          	add	t5,s0,a2
800016d4:	000f4f03          	lbu	t5,0(t5)
800016d8:	00000a93          	li	s5,0
800016dc:	00100513          	li	a0,1
800016e0:	03ea0663          	beq	s4,t5,8000170c <qlz_compress+0x1b4>
800016e4:	00150513          	addi	a0,a0,1
800016e8:	0a950263          	beq	a0,s1,8000178c <qlz_compress+0x234>
800016ec:	00480813          	addi	a6,a6,4
800016f0:	09c57e63          	bgeu	a0,t3,8000178c <qlz_compress+0x234>
800016f4:	00882403          	lw	s0,8(a6)
800016f8:	00c70f33          	add	t5,a4,a2
800016fc:	000f4a03          	lbu	s4,0(t5)
80001700:	00c40f33          	add	t5,s0,a2
80001704:	000f4f03          	lbu	t5,0(t5)
80001708:	fdea1ee3          	bne	s4,t5,800016e4 <qlz_compress+0x18c>
8000170c:	00144f03          	lbu	t5,1(s0)
80001710:	00244a03          	lbu	s4,2(s0)
80001714:	00044d03          	lbu	s10,0(s0)
80001718:	008f1f13          	slli	t5,t5,0x8
8000171c:	010a1a13          	slli	s4,s4,0x10
80001720:	014f6f33          	or	t5,t5,s4
80001724:	01af6f33          	or	t5,t5,s10
80001728:	fabf1ee3          	bne	t5,a1,800016e4 <qlz_compress+0x18c>
8000172c:	fb847ce3          	bgeu	s0,s8,800016e4 <qlz_compress+0x18c>
80001730:	00344a03          	lbu	s4,3(s0)
80001734:	00374f03          	lbu	t5,3(a4)
80001738:	49ea1863          	bne	s4,t5,80001bc8 <qlz_compress+0x670>
8000173c:	00c12f03          	lw	t5,12(sp)
80001740:	00300a13          	li	s4,3
80001744:	49ea7263          	bgeu	s4,t5,80001bc8 <qlz_compress+0x670>
80001748:	00300f13          	li	t5,3
8000174c:	01612e23          	sw	s6,28(sp)
80001750:	0080006f          	j	80001758 <qlz_compress+0x200>
80001754:	3baf8263          	beq	t6,s10,80001af8 <qlz_compress+0x5a0>
80001758:	000f0d13          	mv	s10,t5
8000175c:	001f0f13          	addi	t5,t5,1
80001760:	01e40b33          	add	s6,s0,t5
80001764:	01e70a33          	add	s4,a4,t5
80001768:	000b4b03          	lbu	s6,0(s6)
8000176c:	000a4a03          	lbu	s4,0(s4)
80001770:	ff4b02e3          	beq	s6,s4,80001754 <qlz_compress+0x1fc>
80001774:	01c12b03          	lw	s6,28(sp)
80001778:	f7e676e3          	bgeu	a2,t5,800016e4 <qlz_compress+0x18c>
8000177c:	00050a93          	mv	s5,a0
80001780:	00150513          	addi	a0,a0,1
80001784:	000f0613          	mv	a2,t5
80001788:	f69512e3          	bne	a0,s1,800016ec <qlz_compress+0x194>
8000178c:	00279593          	slli	a1,a5,0x2
80001790:	012585b3          	add	a1,a1,s2
80001794:	00259593          	slli	a1,a1,0x2
80001798:	00b685b3          	add	a1,a3,a1
8000179c:	00e5a223          	sw	a4,4(a1)
800017a0:	00698333          	add	t1,s3,t1
800017a4:	00530223          	sb	t0,4(t1)
800017a8:	00200593          	li	a1,2
800017ac:	2ac5fa63          	bgeu	a1,a2,80001a60 <qlz_compress+0x508>
800017b0:	00c70f33          	add	t5,a4,a2
800017b4:	80000737          	lui	a4,0x80000
800017b8:	00579793          	slli	a5,a5,0x5
800017bc:	00900593          	li	a1,9
800017c0:	00e8e8b3          	or	a7,a7,a4
800017c4:	0157e7b3          	or	a5,a5,s5
800017c8:	000f0713          	mv	a4,t5
800017cc:	2ac5e663          	bltu	a1,a2,80001a78 <qlz_compress+0x520>
800017d0:	ffe60613          	addi	a2,a2,-2
800017d4:	00261613          	slli	a2,a2,0x2
800017d8:	00f667b3          	or	a5,a2,a5
800017dc:	0087d613          	srli	a2,a5,0x8
800017e0:	00fe8023          	sb	a5,0(t4)
800017e4:	00ce80a3          	sb	a2,1(t4)
800017e8:	002e8e93          	addi	t4,t4,2
800017ec:	e4eb74e3          	bgeu	s6,a4,80001634 <qlz_compress+0xdc>
800017f0:	02c12283          	lw	t0,44(sp)
800017f4:	02012f83          	lw	t6,32(sp)
800017f8:	01812c03          	lw	s8,24(sp)
800017fc:	02412f03          	lw	t5,36(sp)
80001800:	02812803          	lw	a6,40(sp)
80001804:	000b8613          	mv	a2,s7
80001808:	40e2ea63          	bltu	t0,a4,80001c1c <qlz_compress+0x6c4>
8000180c:	06412a83          	lw	s5,100(sp)
80001810:	05412c83          	lw	s9,84(sp)
80001814:	05012d03          	lw	s10,80(sp)
80001818:	04c12d83          	lw	s11,76(sp)
8000181c:	ffd28293          	addi	t0,t0,-3
80001820:	010c0e33          	add	t3,s8,a6
80001824:	03c10593          	addi	a1,sp,60
80001828:	80000437          	lui	s0,0x80000
8000182c:	04010313          	addi	t1,sp,64
80001830:	000083b7          	lui	t2,0x8
80001834:	0018f793          	andi	a5,a7,1
80001838:	0018d513          	srli	a0,a7,0x1
8000183c:	28079263          	bnez	a5,80001ac0 <qlz_compress+0x568>
80001840:	0028d493          	srli	s1,a7,0x2
80001844:	00157913          	andi	s2,a0,1
80001848:	00050893          	mv	a7,a0
8000184c:	06e2e063          	bltu	t0,a4,800018ac <qlz_compress+0x354>
80001850:	00174503          	lbu	a0,1(a4) # 80000001 <_start+0x1>
80001854:	00274783          	lbu	a5,2(a4)
80001858:	00074a03          	lbu	s4,0(a4)
8000185c:	00851513          	slli	a0,a0,0x8
80001860:	01079793          	slli	a5,a5,0x10
80001864:	00f56533          	or	a0,a0,a5
80001868:	00d55993          	srli	s3,a0,0xd
8000186c:	00955793          	srli	a5,a0,0x9
80001870:	0137c7b3          	xor	a5,a5,s3
80001874:	01456533          	or	a0,a0,s4
80001878:	00a7c7b3          	xor	a5,a5,a0
8000187c:	7ff7f793          	andi	a5,a5,2047
80001880:	00f68533          	add	a0,a3,a5
80001884:	00a38533          	add	a0,t2,a0
80001888:	00454983          	lbu	s3,4(a0)
8000188c:	00279793          	slli	a5,a5,0x2
80001890:	0039fa13          	andi	s4,s3,3
80001894:	014787b3          	add	a5,a5,s4
80001898:	00279793          	slli	a5,a5,0x2
8000189c:	00f687b3          	add	a5,a3,a5
800018a0:	00e7a223          	sw	a4,4(a5)
800018a4:	00198993          	addi	s3,s3,1 # 8001 <_entry_offset+0x8001>
800018a8:	01350223          	sb	s3,4(a0)
800018ac:	00074783          	lbu	a5,0(a4)
800018b0:	00170713          	addi	a4,a4,1
800018b4:	001e8e93          	addi	t4,t4,1
800018b8:	fefe8fa3          	sb	a5,-1(t4)
800018bc:	f6ee1ce3          	bne	t3,a4,80001834 <qlz_compress+0x2dc>
800018c0:	00091c63          	bnez	s2,800018d8 <qlz_compress+0x380>
800018c4:	00088493          	mv	s1,a7
800018c8:	0018d893          	srli	a7,a7,0x1
800018cc:	0018f793          	andi	a5,a7,1
800018d0:	fe078ae3          	beqz	a5,800018c4 <qlz_compress+0x36c>
800018d4:	0024d493          	srli	s1,s1,0x2
800018d8:	80000737          	lui	a4,0x80000
800018dc:	00e4e4b3          	or	s1,s1,a4
800018e0:	00060793          	mv	a5,a2
800018e4:	02912e23          	sw	s1,60(sp)
800018e8:	04010613          	addi	a2,sp,64
800018ec:	0005c703          	lbu	a4,0(a1)
800018f0:	00158593          	addi	a1,a1,1
800018f4:	00178793          	addi	a5,a5,1
800018f8:	fee78fa3          	sb	a4,-1(a5)
800018fc:	fec598e3          	bne	a1,a2,800018ec <qlz_compress+0x394>
80001900:	01412783          	lw	a5,20(sp)
80001904:	40fe8533          	sub	a0,t4,a5
80001908:	00900793          	li	a5,9
8000190c:	00f55463          	bge	a0,a5,80001914 <qlz_compress+0x3bc>
80001910:	00900513          	li	a0,9
80001914:	01f50533          	add	a0,a0,t6
80001918:	00100793          	li	a5,1
8000191c:	0006a023          	sw	zero,0(a3)
80001920:	00300713          	li	a4,3
80001924:	1eef8463          	beq	t6,a4,80001b0c <qlz_compress+0x5b4>
80001928:	0027e793          	ori	a5,a5,2
8000192c:	03c10593          	addi	a1,sp,60
80001930:	00ff0023          	sb	a5,0(t5)
80001934:	02a12e23          	sw	a0,60(sp)
80001938:	00058793          	mv	a5,a1
8000193c:	001f0713          	addi	a4,t5,1
80001940:	04010613          	addi	a2,sp,64
80001944:	0007c683          	lbu	a3,0(a5)
80001948:	00178793          	addi	a5,a5,1
8000194c:	00170713          	addi	a4,a4,1 # 80000001 <_start+0x1>
80001950:	fed70fa3          	sb	a3,-1(a4)
80001954:	fec798e3          	bne	a5,a2,80001944 <qlz_compress+0x3ec>
80001958:	03012e23          	sw	a6,60(sp)
8000195c:	005f0793          	addi	a5,t5,5
80001960:	04010693          	addi	a3,sp,64
80001964:	0005c703          	lbu	a4,0(a1)
80001968:	00158593          	addi	a1,a1,1
8000196c:	00178793          	addi	a5,a5,1
80001970:	fee78fa3          	sb	a4,-1(a5)
80001974:	fed598e3          	bne	a1,a3,80001964 <qlz_compress+0x40c>
80001978:	000f4783          	lbu	a5,0(t5)
8000197c:	0487e793          	ori	a5,a5,72
80001980:	00ff0023          	sb	a5,0(t5)
80001984:	07c12083          	lw	ra,124(sp)
80001988:	07812403          	lw	s0,120(sp)
8000198c:	07412483          	lw	s1,116(sp)
80001990:	07012903          	lw	s2,112(sp)
80001994:	06c12983          	lw	s3,108(sp)
80001998:	06812a03          	lw	s4,104(sp)
8000199c:	06012b03          	lw	s6,96(sp)
800019a0:	05c12b83          	lw	s7,92(sp)
800019a4:	05812c03          	lw	s8,88(sp)
800019a8:	08010113          	addi	sp,sp,128
800019ac:	00008067          	ret
800019b0:	01012783          	lw	a5,16(sp)
800019b4:	02e7f063          	bgeu	a5,a4,800019d4 <qlz_compress+0x47c>
800019b8:	01812783          	lw	a5,24(sp)
800019bc:	01412603          	lw	a2,20(sp)
800019c0:	40f707b3          	sub	a5,a4,a5
800019c4:	4057d593          	srai	a1,a5,0x5
800019c8:	40ce8633          	sub	a2,t4,a2
800019cc:	40b787b3          	sub	a5,a5,a1
800019d0:	18c7c263          	blt	a5,a2,80001b54 <qlz_compress+0x5fc>
800019d4:	800007b7          	lui	a5,0x80000
800019d8:	0018d893          	srli	a7,a7,0x1
800019dc:	00f8e8b3          	or	a7,a7,a5
800019e0:	03112e23          	sw	a7,60(sp)
800019e4:	03c10793          	addi	a5,sp,60
800019e8:	000b8613          	mv	a2,s7
800019ec:	0007c583          	lbu	a1,0(a5) # 80000000 <_start>
800019f0:	00178793          	addi	a5,a5,1
800019f4:	00160613          	addi	a2,a2,1
800019f8:	feb60fa3          	sb	a1,-1(a2)
800019fc:	fef398e3          	bne	t2,a5,800019ec <qlz_compress+0x494>
80001a00:	000e8b93          	mv	s7,t4
80001a04:	400008b7          	lui	a7,0x40000
80001a08:	004e8e93          	addi	t4,t4,4
80001a0c:	c35ff06f          	j	80001640 <qlz_compress+0xe8>
80001a10:	040e0263          	beqz	t3,80001a54 <qlz_compress+0x4fc>
80001a14:	00154603          	lbu	a2,1(a0)
80001a18:	00254f03          	lbu	t5,2(a0)
80001a1c:	00054d03          	lbu	s10,0(a0)
80001a20:	00861613          	slli	a2,a2,0x8
80001a24:	010f1f13          	slli	t5,t5,0x10
80001a28:	01e66633          	or	a2,a2,t5
80001a2c:	01a66633          	or	a2,a2,s10
80001a30:	06b61863          	bne	a2,a1,80001aa0 <qlz_compress+0x548>
80001a34:	00354f03          	lbu	t5,3(a0)
80001a38:	00374603          	lbu	a2,3(a4)
80001a3c:	0ccf0e63          	beq	t5,a2,80001b18 <qlz_compress+0x5c0>
80001a40:	00100513          	li	a0,1
80001a44:	00300613          	li	a2,3
80001a48:	00370f13          	addi	t5,a4,3
80001a4c:	c6ae18e3          	bne	t3,a0,800016bc <qlz_compress+0x164>
80001a50:	2180006f          	j	80001c68 <qlz_compress+0x710>
80001a54:	00ec2223          	sw	a4,4(s8)
80001a58:	00100793          	li	a5,1
80001a5c:	00fa8223          	sb	a5,4(s5)
80001a60:	00074783          	lbu	a5,0(a4)
80001a64:	00170713          	addi	a4,a4,1
80001a68:	001e8e93          	addi	t4,t4,1
80001a6c:	fefe8fa3          	sb	a5,-1(t4)
80001a70:	bceb72e3          	bgeu	s6,a4,80001634 <qlz_compress+0xdc>
80001a74:	d7dff06f          	j	800017f0 <qlz_compress+0x298>
80001a78:	01061613          	slli	a2,a2,0x10
80001a7c:	00f66633          	or	a2,a2,a5
80001a80:	00865593          	srli	a1,a2,0x8
80001a84:	01065793          	srli	a5,a2,0x10
80001a88:	00ce8023          	sb	a2,0(t4)
80001a8c:	00be80a3          	sb	a1,1(t4)
80001a90:	00fe8123          	sb	a5,2(t4)
80001a94:	003e8e93          	addi	t4,t4,3
80001a98:	b8eb7ee3          	bgeu	s6,a4,80001634 <qlz_compress+0xdc>
80001a9c:	d55ff06f          	j	800017f0 <qlz_compress+0x298>
80001aa0:	00100513          	li	a0,1
80001aa4:	00000613          	li	a2,0
80001aa8:	00070f13          	mv	t5,a4
80001aac:	c0ae18e3          	bne	t3,a0,800016bc <qlz_compress+0x164>
80001ab0:	00ec2423          	sw	a4,8(s8)
80001ab4:	00200793          	li	a5,2
80001ab8:	00fa8223          	sb	a5,4(s5)
80001abc:	fa5ff06f          	j	80001a60 <qlz_compress+0x508>
80001ac0:	00856533          	or	a0,a0,s0
80001ac4:	02a12e23          	sw	a0,60(sp)
80001ac8:	00058793          	mv	a5,a1
80001acc:	0007c503          	lbu	a0,0(a5)
80001ad0:	00178793          	addi	a5,a5,1
80001ad4:	00160613          	addi	a2,a2,1
80001ad8:	fea60fa3          	sb	a0,-1(a2)
80001adc:	fef318e3          	bne	t1,a5,80001acc <qlz_compress+0x574>
80001ae0:	000e8613          	mv	a2,t4
80001ae4:	200004b7          	lui	s1,0x20000
80001ae8:	004e8e93          	addi	t4,t4,4
80001aec:	00000913          	li	s2,0
80001af0:	400008b7          	lui	a7,0x40000
80001af4:	d59ff06f          	j	8000184c <qlz_compress+0x2f4>
80001af8:	01c12b03          	lw	s6,28(sp)
80001afc:	00c12f03          	lw	t5,12(sp)
80001b00:	c79ff06f          	j	80001778 <qlz_compress+0x220>
80001b04:	00000513          	li	a0,0
80001b08:	00008067          	ret
80001b0c:	00af00a3          	sb	a0,1(t5)
80001b10:	010f0123          	sb	a6,2(t5)
80001b14:	e69ff06f          	j	8000197c <qlz_compress+0x424>
80001b18:	00454f03          	lbu	t5,4(a0)
80001b1c:	00474603          	lbu	a2,4(a4)
80001b20:	12cf1c63          	bne	t5,a2,80001c58 <qlz_compress+0x700>
80001b24:	00400613          	li	a2,4
80001b28:	01466663          	bltu	a2,s4,80001b34 <qlz_compress+0x5dc>
80001b2c:	12c0006f          	j	80001c58 <qlz_compress+0x700>
80001b30:	0baf8063          	beq	t6,s10,80001bd0 <qlz_compress+0x678>
80001b34:	00060d13          	mv	s10,a2
80001b38:	00160613          	addi	a2,a2,1
80001b3c:	00c50ab3          	add	s5,a0,a2
80001b40:	00c70f33          	add	t5,a4,a2
80001b44:	000acc03          	lbu	s8,0(s5)
80001b48:	000f4a83          	lbu	s5,0(t5)
80001b4c:	ff5c02e3          	beq	s8,s5,80001b30 <qlz_compress+0x5d8>
80001b50:	0880006f          	j	80001bd8 <qlz_compress+0x680>
80001b54:	01812c03          	lw	s8,24(sp)
80001b58:	02012f83          	lw	t6,32(sp)
80001b5c:	02412f03          	lw	t5,36(sp)
80001b60:	02812803          	lw	a6,40(sp)
80001b64:	120c0863          	beqz	s8,80001c94 <qlz_compress+0x73c>
80001b68:	01412703          	lw	a4,20(sp)
80001b6c:	010c07b3          	add	a5,s8,a6
80001b70:	02f77e63          	bgeu	a4,a5,80001bac <qlz_compress+0x654>
80001b74:	02ec7c63          	bgeu	s8,a4,80001bac <qlz_compress+0x654>
80001b78:	01070733          	add	a4,a4,a6
80001b7c:	fff7c603          	lbu	a2,-1(a5)
80001b80:	fff78793          	addi	a5,a5,-1
80001b84:	fff70713          	addi	a4,a4,-1
80001b88:	00c70023          	sb	a2,0(a4)
80001b8c:	fefc18e3          	bne	s8,a5,80001b7c <qlz_compress+0x624>
80001b90:	06412a83          	lw	s5,100(sp)
80001b94:	05412c83          	lw	s9,84(sp)
80001b98:	05012d03          	lw	s10,80(sp)
80001b9c:	04c12d83          	lw	s11,76(sp)
80001ba0:	010f8533          	add	a0,t6,a6
80001ba4:	00000793          	li	a5,0
80001ba8:	d75ff06f          	j	8000191c <qlz_compress+0x3c4>
80001bac:	01412703          	lw	a4,20(sp)
80001bb0:	000c4603          	lbu	a2,0(s8)
80001bb4:	001c0c13          	addi	s8,s8,1
80001bb8:	00170713          	addi	a4,a4,1
80001bbc:	fec70fa3          	sb	a2,-1(a4)
80001bc0:	ff8798e3          	bne	a5,s8,80001bb0 <qlz_compress+0x658>
80001bc4:	fcdff06f          	j	80001b90 <qlz_compress+0x638>
80001bc8:	00300f13          	li	t5,3
80001bcc:	badff06f          	j	80001778 <qlz_compress+0x220>
80001bd0:	000a0613          	mv	a2,s4
80001bd4:	01470f33          	add	t5,a4,s4
80001bd8:	00100513          	li	a0,1
80001bdc:	aeae10e3          	bne	t3,a0,800016bc <qlz_compress+0x164>
80001be0:	01068833          	add	a6,a3,a6
80001be4:	00e82423          	sw	a4,8(a6)
80001be8:	00008737          	lui	a4,0x8
80001bec:	00670733          	add	a4,a4,t1
80001bf0:	00200593          	li	a1,2
80001bf4:	00b70223          	sb	a1,4(a4) # 8004 <_entry_offset+0x8004>
80001bf8:	00000a93          	li	s5,0
80001bfc:	bb9ff06f          	j	800017b4 <qlz_compress+0x25c>
80001c00:	00279793          	slli	a5,a5,0x2
80001c04:	012787b3          	add	a5,a5,s2
80001c08:	00279793          	slli	a5,a5,0x2
80001c0c:	00f687b3          	add	a5,a3,a5
80001c10:	00e7a223          	sw	a4,4(a5)
80001c14:	005a8223          	sb	t0,4(s5)
80001c18:	e49ff06f          	j	80001a60 <qlz_compress+0x508>
80001c1c:	06412a83          	lw	s5,100(sp)
80001c20:	05412c83          	lw	s9,84(sp)
80001c24:	05012d03          	lw	s10,80(sp)
80001c28:	04c12d83          	lw	s11,76(sp)
80001c2c:	0018f913          	andi	s2,a7,1
80001c30:	0018d493          	srli	s1,a7,0x1
80001c34:	03c10593          	addi	a1,sp,60
80001c38:	c89ff06f          	j	800018c0 <qlz_compress+0x368>
80001c3c:	01412783          	lw	a5,20(sp)
80001c40:	000c0713          	mv	a4,s8
80001c44:	800008b7          	lui	a7,0x80000
80001c48:	00078613          	mv	a2,a5
80001c4c:	03c10593          	addi	a1,sp,60
80001c50:	bd82f6e3          	bgeu	t0,s8,8000181c <qlz_compress+0x2c4>
80001c54:	c71ff06f          	j	800018c4 <qlz_compress+0x36c>
80001c58:	00100513          	li	a0,1
80001c5c:	00400613          	li	a2,4
80001c60:	00470f13          	addi	t5,a4,4
80001c64:	a4ae1ce3          	bne	t3,a0,800016bc <qlz_compress+0x164>
80001c68:	01068833          	add	a6,a3,a6
80001c6c:	000085b7          	lui	a1,0x8
80001c70:	00e82423          	sw	a4,8(a6)
80001c74:	006585b3          	add	a1,a1,t1
80001c78:	00200513          	li	a0,2
80001c7c:	00a58223          	sb	a0,4(a1) # 8004 <_entry_offset+0x8004>
80001c80:	800005b7          	lui	a1,0x80000
80001c84:	00b8e8b3          	or	a7,a7,a1
80001c88:	00c70733          	add	a4,a4,a2
80001c8c:	00579793          	slli	a5,a5,0x5
80001c90:	b41ff06f          	j	800017d0 <qlz_compress+0x278>
80001c94:	89dff0ef          	jal	80001530 <bench_memcpy.part.0>

80001c98 <bench_lzip_prepare>:
80001c98:	00005797          	auipc	a5,0x5
80001c9c:	ab07a783          	lw	a5,-1360(a5) # 80006748 <setting>
80001ca0:	0007a783          	lw	a5,0(a5)
80001ca4:	fe010113          	addi	sp,sp,-32
80001ca8:	00112e23          	sw	ra,28(sp)
80001cac:	00912a23          	sw	s1,20(sp)
80001cb0:	01212823          	sw	s2,16(sp)
80001cb4:	00005497          	auipc	s1,0x5
80001cb8:	a7448493          	addi	s1,s1,-1420 # 80006728 <SIZE>
80001cbc:	00100513          	li	a0,1
80001cc0:	00f4a023          	sw	a5,0(s1)
80001cc4:	028010ef          	jal	80002cec <bench_srand>
80001cc8:	00009537          	lui	a0,0x9
80001ccc:	80450513          	addi	a0,a0,-2044 # 8804 <_entry_offset+0x8804>
80001cd0:	775000ef          	jal	80002c44 <bench_alloc>
80001cd4:	00050793          	mv	a5,a0
80001cd8:	0004a503          	lw	a0,0(s1)
80001cdc:	00005717          	auipc	a4,0x5
80001ce0:	a4f72423          	sw	a5,-1464(a4) # 80006724 <state>
80001ce4:	00005917          	auipc	s2,0x5
80001ce8:	a3c90913          	addi	s2,s2,-1476 # 80006720 <blk>
80001cec:	759000ef          	jal	80002c44 <bench_alloc>
80001cf0:	0004a783          	lw	a5,0(s1)
80001cf4:	00a92023          	sw	a0,0(s2)
80001cf8:	19078513          	addi	a0,a5,400
80001cfc:	749000ef          	jal	80002c44 <bench_alloc>
80001d00:	0004a783          	lw	a5,0(s1)
80001d04:	00005717          	auipc	a4,0x5
80001d08:	a0a72c23          	sw	a0,-1512(a4) # 8000671c <compress>
80001d0c:	04f05063          	blez	a5,80001d4c <bench_lzip_prepare+0xb4>
80001d10:	00812c23          	sw	s0,24(sp)
80001d14:	01312623          	sw	s3,12(sp)
80001d18:	00000413          	li	s0,0
80001d1c:	01a00993          	li	s3,26
80001d20:	7e1000ef          	jal	80002d00 <bench_rand>
80001d24:	03357533          	remu	a0,a0,s3
80001d28:	00092783          	lw	a5,0(s2)
80001d2c:	0004a703          	lw	a4,0(s1)
80001d30:	008787b3          	add	a5,a5,s0
80001d34:	00140413          	addi	s0,s0,1 # 80000001 <_start+0x1>
80001d38:	06150513          	addi	a0,a0,97
80001d3c:	00a78023          	sb	a0,0(a5)
80001d40:	fee440e3          	blt	s0,a4,80001d20 <bench_lzip_prepare+0x88>
80001d44:	01812403          	lw	s0,24(sp)
80001d48:	00c12983          	lw	s3,12(sp)
80001d4c:	01c12083          	lw	ra,28(sp)
80001d50:	01412483          	lw	s1,20(sp)
80001d54:	01012903          	lw	s2,16(sp)
80001d58:	02010113          	addi	sp,sp,32
80001d5c:	00008067          	ret

80001d60 <bench_lzip_run>:
80001d60:	ff010113          	addi	sp,sp,-16
80001d64:	00005697          	auipc	a3,0x5
80001d68:	9c06a683          	lw	a3,-1600(a3) # 80006724 <state>
80001d6c:	00005617          	auipc	a2,0x5
80001d70:	9bc62603          	lw	a2,-1604(a2) # 80006728 <SIZE>
80001d74:	00005597          	auipc	a1,0x5
80001d78:	9a85a583          	lw	a1,-1624(a1) # 8000671c <compress>
80001d7c:	00005517          	auipc	a0,0x5
80001d80:	9a452503          	lw	a0,-1628(a0) # 80006720 <blk>
80001d84:	00112623          	sw	ra,12(sp)
80001d88:	fd0ff0ef          	jal	80001558 <qlz_compress>
80001d8c:	00c12083          	lw	ra,12(sp)
80001d90:	00005797          	auipc	a5,0x5
80001d94:	98a7a423          	sw	a0,-1656(a5) # 80006718 <len>
80001d98:	01010113          	addi	sp,sp,16
80001d9c:	00008067          	ret

80001da0 <bench_lzip_validate>:
80001da0:	00005517          	auipc	a0,0x5
80001da4:	97c52503          	lw	a0,-1668(a0) # 8000671c <compress>
80001da8:	00005597          	auipc	a1,0x5
80001dac:	9705a583          	lw	a1,-1680(a1) # 80006718 <len>
80001db0:	ff010113          	addi	sp,sp,-16
80001db4:	00b505b3          	add	a1,a0,a1
80001db8:	00112623          	sw	ra,12(sp)
80001dbc:	779000ef          	jal	80002d34 <checksum>
80001dc0:	00005797          	auipc	a5,0x5
80001dc4:	9887a783          	lw	a5,-1656(a5) # 80006748 <setting>
80001dc8:	00c7a783          	lw	a5,12(a5)
80001dcc:	00c12083          	lw	ra,12(sp)
80001dd0:	40a78533          	sub	a0,a5,a0
80001dd4:	00153513          	seqz	a0,a0
80001dd8:	01010113          	addi	sp,sp,16
80001ddc:	00008067          	ret

80001de0 <_ZL9radixPassPiS_S_ii>:
80001de0:	fe010113          	addi	sp,sp,-32
80001de4:	01412423          	sw	s4,8(sp)
80001de8:	00070a13          	mv	s4,a4
80001dec:	00170713          	addi	a4,a4,1
80001df0:	01512223          	sw	s5,4(sp)
80001df4:	00271a93          	slli	s5,a4,0x2
80001df8:	00812c23          	sw	s0,24(sp)
80001dfc:	00050413          	mv	s0,a0
80001e00:	000a8513          	mv	a0,s5
80001e04:	00912a23          	sw	s1,20(sp)
80001e08:	01212823          	sw	s2,16(sp)
80001e0c:	01312623          	sw	s3,12(sp)
80001e10:	00112e23          	sw	ra,28(sp)
80001e14:	00058913          	mv	s2,a1
80001e18:	00060493          	mv	s1,a2
80001e1c:	00068993          	mv	s3,a3
80001e20:	625000ef          	jal	80002c44 <bench_alloc>
80001e24:	0e0a4463          	bltz	s4,80001f0c <_ZL9radixPassPiS_S_ii+0x12c>
80001e28:	00050793          	mv	a5,a0
80001e2c:	00aa8733          	add	a4,s5,a0
80001e30:	0007a023          	sw	zero,0(a5)
80001e34:	00478793          	addi	a5,a5,4
80001e38:	fef71ce3          	bne	a4,a5,80001e30 <_ZL9radixPassPiS_S_ii+0x50>
80001e3c:	05305063          	blez	s3,80001e7c <_ZL9radixPassPiS_S_ii+0x9c>
80001e40:	00040313          	mv	t1,s0
80001e44:	00000893          	li	a7,0
80001e48:	00032783          	lw	a5,0(t1)
80001e4c:	00188893          	addi	a7,a7,1 # 80000001 <_start+0x1>
80001e50:	00430313          	addi	t1,t1,4
80001e54:	00279793          	slli	a5,a5,0x2
80001e58:	00f487b3          	add	a5,s1,a5
80001e5c:	0007a783          	lw	a5,0(a5)
80001e60:	00279793          	slli	a5,a5,0x2
80001e64:	00f507b3          	add	a5,a0,a5
80001e68:	0007a803          	lw	a6,0(a5)
80001e6c:	00180813          	addi	a6,a6,1
80001e70:	0107a023          	sw	a6,0(a5)
80001e74:	fd38cae3          	blt	a7,s3,80001e48 <_ZL9radixPassPiS_S_ii+0x68>
80001e78:	020a4663          	bltz	s4,80001ea4 <_ZL9radixPassPiS_S_ii+0xc4>
80001e7c:	00050793          	mv	a5,a0
80001e80:	00000893          	li	a7,0
80001e84:	00000813          	li	a6,0
80001e88:	0007a683          	lw	a3,0(a5)
80001e8c:	00180813          	addi	a6,a6,1
80001e90:	0117a023          	sw	a7,0(a5)
80001e94:	00d888b3          	add	a7,a7,a3
80001e98:	00478793          	addi	a5,a5,4
80001e9c:	ff0a56e3          	bge	s4,a6,80001e88 <_ZL9radixPassPiS_S_ii+0xa8>
80001ea0:	05305463          	blez	s3,80001ee8 <_ZL9radixPassPiS_S_ii+0x108>
80001ea4:	00299993          	slli	s3,s3,0x2
80001ea8:	00040813          	mv	a6,s0
80001eac:	013409b3          	add	s3,s0,s3
80001eb0:	00082683          	lw	a3,0(a6)
80001eb4:	00480813          	addi	a6,a6,4
80001eb8:	00269793          	slli	a5,a3,0x2
80001ebc:	00f487b3          	add	a5,s1,a5
80001ec0:	0007a703          	lw	a4,0(a5)
80001ec4:	00271713          	slli	a4,a4,0x2
80001ec8:	00e50733          	add	a4,a0,a4
80001ecc:	00072783          	lw	a5,0(a4)
80001ed0:	00178613          	addi	a2,a5,1
80001ed4:	00279793          	slli	a5,a5,0x2
80001ed8:	00c72023          	sw	a2,0(a4)
80001edc:	00f907b3          	add	a5,s2,a5
80001ee0:	00d7a023          	sw	a3,0(a5)
80001ee4:	fd0996e3          	bne	s3,a6,80001eb0 <_ZL9radixPassPiS_S_ii+0xd0>
80001ee8:	01c12083          	lw	ra,28(sp)
80001eec:	01812403          	lw	s0,24(sp)
80001ef0:	01412483          	lw	s1,20(sp)
80001ef4:	01012903          	lw	s2,16(sp)
80001ef8:	00c12983          	lw	s3,12(sp)
80001efc:	00812a03          	lw	s4,8(sp)
80001f00:	00412a83          	lw	s5,4(sp)
80001f04:	02010113          	addi	sp,sp,32
80001f08:	00008067          	ret
80001f0c:	f3304ae3          	bgtz	s3,80001e40 <_ZL9radixPassPiS_S_ii+0x60>
80001f10:	fd9ff06f          	j	80001ee8 <_ZL9radixPassPiS_S_ii+0x108>

80001f14 <_Z11suffixArrayPiS_ii>:
80001f14:	fb010113          	addi	sp,sp,-80
80001f18:	04812423          	sw	s0,72(sp)
80001f1c:	03a12023          	sw	s10,32(sp)
80001f20:	00260413          	addi	s0,a2,2
80001f24:	00300d13          	li	s10,3
80001f28:	03a44433          	div	s0,s0,s10
80001f2c:	03812423          	sw	s8,40(sp)
80001f30:	03712623          	sw	s7,44(sp)
80001f34:	04912223          	sw	s1,68(sp)
80001f38:	03412c23          	sw	s4,56(sp)
80001f3c:	00050a13          	mv	s4,a0
80001f40:	04112623          	sw	ra,76(sp)
80001f44:	05212023          	sw	s2,64(sp)
80001f48:	03312e23          	sw	s3,60(sp)
80001f4c:	00068913          	mv	s2,a3
80001f50:	03512a23          	sw	s5,52(sp)
80001f54:	03612823          	sw	s6,48(sp)
80001f58:	03912223          	sw	s9,36(sp)
80001f5c:	01b12e23          	sw	s11,28(sp)
80001f60:	00060c93          	mv	s9,a2
80001f64:	00058d93          	mv	s11,a1
80001f68:	03a64c33          	div	s8,a2,s10
80001f6c:	008c0c33          	add	s8,s8,s0
80001f70:	003c0b93          	addi	s7,s8,3
80001f74:	002b9b93          	slli	s7,s7,0x2
80001f78:	000b8513          	mv	a0,s7
80001f7c:	002c0493          	addi	s1,s8,2
80001f80:	4c5000ef          	jal	80002c44 <bench_alloc>
80001f84:	00249493          	slli	s1,s1,0x2
80001f88:	009507b3          	add	a5,a0,s1
80001f8c:	ffc48b13          	addi	s6,s1,-4
80001f90:	0007a023          	sw	zero,0(a5)
80001f94:	ff848993          	addi	s3,s1,-8
80001f98:	016507b3          	add	a5,a0,s6
80001f9c:	0007a023          	sw	zero,0(a5)
80001fa0:	013507b3          	add	a5,a0,s3
80001fa4:	0007a023          	sw	zero,0(a5)
80001fa8:	00050a93          	mv	s5,a0
80001fac:	000b8513          	mv	a0,s7
80001fb0:	495000ef          	jal	80002c44 <bench_alloc>
80001fb4:	009504b3          	add	s1,a0,s1
80001fb8:	0004a023          	sw	zero,0(s1)
80001fbc:	01650b33          	add	s6,a0,s6
80001fc0:	013507b3          	add	a5,a0,s3
80001fc4:	00241713          	slli	a4,s0,0x2
80001fc8:	000b2023          	sw	zero,0(s6)
80001fcc:	0007a023          	sw	zero,0(a5)
80001fd0:	00050b93          	mv	s7,a0
80001fd4:	00070513          	mv	a0,a4
80001fd8:	00070493          	mv	s1,a4
80001fdc:	00e12423          	sw	a4,8(sp)
80001fe0:	465000ef          	jal	80002c44 <bench_alloc>
80001fe4:	00050993          	mv	s3,a0
80001fe8:	001c8b13          	addi	s6,s9,1
80001fec:	00048513          	mv	a0,s1
80001ff0:	455000ef          	jal	80002c44 <bench_alloc>
80001ff4:	03ab4b33          	div	s6,s6,s10
80001ff8:	00000613          	li	a2,0
80001ffc:	00050d13          	mv	s10,a0
80002000:	00000793          	li	a5,0
80002004:	00300513          	li	a0,3
80002008:	41640b33          	sub	s6,s0,s6
8000200c:	016c85b3          	add	a1,s9,s6
80002010:	02b05263          	blez	a1,80002034 <_Z11suffixArrayPiS_ii+0x120>
80002014:	02a7e733          	rem	a4,a5,a0
80002018:	00261693          	slli	a3,a2,0x2
8000201c:	00da86b3          	add	a3,s5,a3
80002020:	00070663          	beqz	a4,8000202c <_Z11suffixArrayPiS_ii+0x118>
80002024:	00f6a023          	sw	a5,0(a3)
80002028:	00160613          	addi	a2,a2,1
8000202c:	00178793          	addi	a5,a5,1
80002030:	feb792e3          	bne	a5,a1,80002014 <_Z11suffixArrayPiS_ii+0x100>
80002034:	00090713          	mv	a4,s2
80002038:	000c0693          	mv	a3,s8
8000203c:	008a0613          	addi	a2,s4,8
80002040:	000b8593          	mv	a1,s7
80002044:	000a8513          	mv	a0,s5
80002048:	d99ff0ef          	jal	80001de0 <_ZL9radixPassPiS_S_ii>
8000204c:	00090713          	mv	a4,s2
80002050:	000c0693          	mv	a3,s8
80002054:	004a0613          	addi	a2,s4,4
80002058:	000a8593          	mv	a1,s5
8000205c:	000b8513          	mv	a0,s7
80002060:	d81ff0ef          	jal	80001de0 <_ZL9radixPassPiS_S_ii>
80002064:	00090713          	mv	a4,s2
80002068:	000c0693          	mv	a3,s8
8000206c:	000a0613          	mv	a2,s4
80002070:	000b8593          	mv	a1,s7
80002074:	000a8513          	mv	a0,s5
80002078:	d69ff0ef          	jal	80001de0 <_ZL9radixPassPiS_S_ii>
8000207c:	0d805e63          	blez	s8,80002158 <_Z11suffixArrayPiS_ii+0x244>
80002080:	002c1713          	slli	a4,s8,0x2
80002084:	000b8493          	mv	s1,s7
80002088:	01770733          	add	a4,a4,s7
8000208c:	000b8813          	mv	a6,s7
80002090:	fff00513          	li	a0,-1
80002094:	fff00593          	li	a1,-1
80002098:	fff00613          	li	a2,-1
8000209c:	00000693          	li	a3,0
800020a0:	00300313          	li	t1,3
800020a4:	00100e13          	li	t3,1
800020a8:	00082783          	lw	a5,0(a6)
800020ac:	00060f93          	mv	t6,a2
800020b0:	00058293          	mv	t0,a1
800020b4:	00279e93          	slli	t4,a5,0x2
800020b8:	01da0eb3          	add	t4,s4,t4
800020bc:	000ea603          	lw	a2,0(t4)
800020c0:	00050393          	mv	t2,a0
800020c4:	0267ef33          	rem	t5,a5,t1
800020c8:	004ea583          	lw	a1,4(t4)
800020cc:	008ea503          	lw	a0,8(t4)
800020d0:	1ff60463          	beq	a2,t6,800022b8 <_Z11suffixArrayPiS_ii+0x3a4>
800020d4:	00168693          	addi	a3,a3,1
800020d8:	0267c7b3          	div	a5,a5,t1
800020dc:	01cf0463          	beq	t5,t3,800020e4 <_Z11suffixArrayPiS_ii+0x1d0>
800020e0:	00f407b3          	add	a5,s0,a5
800020e4:	00279793          	slli	a5,a5,0x2
800020e8:	00fa87b3          	add	a5,s5,a5
800020ec:	00d7a023          	sw	a3,0(a5)
800020f0:	00480813          	addi	a6,a6,4
800020f4:	fae81ae3          	bne	a6,a4,800020a8 <_Z11suffixArrayPiS_ii+0x194>
800020f8:	40000537          	lui	a0,0x40000
800020fc:	000a8593          	mv	a1,s5
80002100:	00000613          	li	a2,0
80002104:	fff50513          	addi	a0,a0,-1 # 3fffffff <_entry_offset+0x3fffffff>
80002108:	2986c063          	blt	a3,s8,80002388 <_Z11suffixArrayPiS_ii+0x474>
8000210c:	0005a783          	lw	a5,0(a1)
80002110:	00458593          	addi	a1,a1,4
80002114:	00a787b3          	add	a5,a5,a0
80002118:	00279793          	slli	a5,a5,0x2
8000211c:	00fb87b3          	add	a5,s7,a5
80002120:	00c7a023          	sw	a2,0(a5)
80002124:	00160613          	addi	a2,a2,1
80002128:	fecc12e3          	bne	s8,a2,8000210c <_Z11suffixArrayPiS_ii+0x1f8>
8000212c:	00000593          	li	a1,0
80002130:	0004a683          	lw	a3,0(s1)
80002134:	00259793          	slli	a5,a1,0x2
80002138:	00448493          	addi	s1,s1,4
8000213c:	00169613          	slli	a2,a3,0x1
80002140:	00f987b3          	add	a5,s3,a5
80002144:	00d60633          	add	a2,a2,a3
80002148:	0086d663          	bge	a3,s0,80002154 <_Z11suffixArrayPiS_ii+0x240>
8000214c:	00c7a023          	sw	a2,0(a5)
80002150:	00158593          	addi	a1,a1,1
80002154:	fce49ee3          	bne	s1,a4,80002130 <_Z11suffixArrayPiS_ii+0x21c>
80002158:	000a0613          	mv	a2,s4
8000215c:	00090713          	mv	a4,s2
80002160:	00040693          	mv	a3,s0
80002164:	000d0593          	mv	a1,s10
80002168:	00098513          	mv	a0,s3
8000216c:	c75ff0ef          	jal	80001de0 <_ZL9radixPassPiS_S_ii>
80002170:	00000613          	li	a2,0
80002174:	00000813          	li	a6,0
80002178:	00300893          	li	a7,3
8000217c:	05904263          	bgtz	s9,800021c0 <_Z11suffixArrayPiS_ii+0x2ac>
80002180:	0fc0006f          	j	8000227c <_Z11suffixArrayPiS_ii+0x368>
80002184:	00169593          	slli	a1,a3,0x1
80002188:	00d585b3          	add	a1,a1,a3
8000218c:	00158593          	addi	a1,a1,1
80002190:	00259513          	slli	a0,a1,0x2
80002194:	00aa0533          	add	a0,s4,a0
80002198:	00052503          	lw	a0,0(a0)
8000219c:	09e54663          	blt	a0,t5,80002228 <_Z11suffixArrayPiS_ii+0x314>
800021a0:	13e50263          	beq	a0,t5,800022c4 <_Z11suffixArrayPiS_ii+0x3b0>
800021a4:	00261593          	slli	a1,a2,0x2
800021a8:	00bd87b3          	add	a5,s11,a1
800021ac:	0067a023          	sw	t1,0(a5)
800021b0:	00180813          	addi	a6,a6,1
800021b4:	15040463          	beq	s0,a6,800022fc <_Z11suffixArrayPiS_ii+0x3e8>
800021b8:	00160613          	addi	a2,a2,1
800021bc:	0d965063          	bge	a2,s9,8000227c <_Z11suffixArrayPiS_ii+0x368>
800021c0:	00281793          	slli	a5,a6,0x2
800021c4:	00fd07b3          	add	a5,s10,a5
800021c8:	0007a303          	lw	t1,0(a5)
800021cc:	002b1713          	slli	a4,s6,0x2
800021d0:	00eb8733          	add	a4,s7,a4
800021d4:	00072683          	lw	a3,0(a4)
800021d8:	00231513          	slli	a0,t1,0x2
800021dc:	00aa0533          	add	a0,s4,a0
800021e0:	03134eb3          	div	t4,t1,a7
800021e4:	00052f03          	lw	t5,0(a0)
800021e8:	f886cee3          	blt	a3,s0,80002184 <_Z11suffixArrayPiS_ii+0x270>
800021ec:	408686b3          	sub	a3,a3,s0
800021f0:	00169e13          	slli	t3,a3,0x1
800021f4:	00de0e33          	add	t3,t3,a3
800021f8:	002e0593          	addi	a1,t3,2
800021fc:	00259f93          	slli	t6,a1,0x2
80002200:	01fa0fb3          	add	t6,s4,t6
80002204:	000faf83          	lw	t6,0(t6)
80002208:	03efc063          	blt	t6,t5,80002228 <_Z11suffixArrayPiS_ii+0x314>
8000220c:	f9ef9ce3          	bne	t6,t5,800021a4 <_Z11suffixArrayPiS_ii+0x290>
80002210:	003e0e13          	addi	t3,t3,3
80002214:	002e1e13          	slli	t3,t3,0x2
80002218:	01ca0e33          	add	t3,s4,t3
8000221c:	000e2e03          	lw	t3,0(t3)
80002220:	00452503          	lw	a0,4(a0)
80002224:	12ae5c63          	bge	t3,a0,8000235c <_Z11suffixArrayPiS_ii+0x448>
80002228:	00261713          	slli	a4,a2,0x2
8000222c:	00ed86b3          	add	a3,s11,a4
80002230:	00b6a023          	sw	a1,0(a3)
80002234:	001b0b13          	addi	s6,s6,1
80002238:	f96c10e3          	bne	s8,s6,800021b8 <_Z11suffixArrayPiS_ii+0x2a4>
8000223c:	00160613          	addi	a2,a2,1
80002240:	f6885ce3          	bge	a6,s0,800021b8 <_Z11suffixArrayPiS_ii+0x2a4>
80002244:	00812683          	lw	a3,8(sp)
80002248:	00470713          	addi	a4,a4,4
8000224c:	00ed8733          	add	a4,s11,a4
80002250:	00dd05b3          	add	a1,s10,a3
80002254:	0007a683          	lw	a3,0(a5)
80002258:	00478793          	addi	a5,a5,4
8000225c:	00470713          	addi	a4,a4,4
80002260:	fed72e23          	sw	a3,-4(a4)
80002264:	feb798e3          	bne	a5,a1,80002254 <_Z11suffixArrayPiS_ii+0x340>
80002268:	41060833          	sub	a6,a2,a6
8000226c:	00880633          	add	a2,a6,s0
80002270:	00160613          	addi	a2,a2,1
80002274:	00040813          	mv	a6,s0
80002278:	f59644e3          	blt	a2,s9,800021c0 <_Z11suffixArrayPiS_ii+0x2ac>
8000227c:	04c12083          	lw	ra,76(sp)
80002280:	04812403          	lw	s0,72(sp)
80002284:	04412483          	lw	s1,68(sp)
80002288:	04012903          	lw	s2,64(sp)
8000228c:	03c12983          	lw	s3,60(sp)
80002290:	03812a03          	lw	s4,56(sp)
80002294:	03412a83          	lw	s5,52(sp)
80002298:	03012b03          	lw	s6,48(sp)
8000229c:	02c12b83          	lw	s7,44(sp)
800022a0:	02812c03          	lw	s8,40(sp)
800022a4:	02412c83          	lw	s9,36(sp)
800022a8:	02012d03          	lw	s10,32(sp)
800022ac:	01c12d83          	lw	s11,28(sp)
800022b0:	05010113          	addi	sp,sp,80
800022b4:	00008067          	ret
800022b8:	e0b29ee3          	bne	t0,a1,800020d4 <_Z11suffixArrayPiS_ii+0x1c0>
800022bc:	e0a39ce3          	bne	t2,a0,800020d4 <_Z11suffixArrayPiS_ii+0x1c0>
800022c0:	e19ff06f          	j	800020d8 <_Z11suffixArrayPiS_ii+0x1c4>
800022c4:	008686b3          	add	a3,a3,s0
800022c8:	00269693          	slli	a3,a3,0x2
800022cc:	002e9e93          	slli	t4,t4,0x2
800022d0:	00da86b3          	add	a3,s5,a3
800022d4:	01da8eb3          	add	t4,s5,t4
800022d8:	0006a503          	lw	a0,0(a3)
800022dc:	000ea683          	lw	a3,0(t4)
800022e0:	eca6c2e3          	blt	a3,a0,800021a4 <_Z11suffixArrayPiS_ii+0x290>
800022e4:	00261713          	slli	a4,a2,0x2
800022e8:	00ed86b3          	add	a3,s11,a4
800022ec:	00b6a023          	sw	a1,0(a3)
800022f0:	001b0b13          	addi	s6,s6,1
800022f4:	ed6c12e3          	bne	s8,s6,800021b8 <_Z11suffixArrayPiS_ii+0x2a4>
800022f8:	f45ff06f          	j	8000223c <_Z11suffixArrayPiS_ii+0x328>
800022fc:	00160613          	addi	a2,a2,1
80002300:	eb8b5ce3          	bge	s6,s8,800021b8 <_Z11suffixArrayPiS_ii+0x2a4>
80002304:	00458593          	addi	a1,a1,4
80002308:	002c1e13          	slli	t3,s8,0x2
8000230c:	00070793          	mv	a5,a4
80002310:	00bd85b3          	add	a1,s11,a1
80002314:	01cb8e33          	add	t3,s7,t3
80002318:	0007a683          	lw	a3,0(a5)
8000231c:	40868333          	sub	t1,a3,s0
80002320:	00131713          	slli	a4,t1,0x1
80002324:	00169513          	slli	a0,a3,0x1
80002328:	00670733          	add	a4,a4,t1
8000232c:	00d50533          	add	a0,a0,a3
80002330:	00270713          	addi	a4,a4,2
80002334:	0086d463          	bge	a3,s0,8000233c <_Z11suffixArrayPiS_ii+0x428>
80002338:	00150713          	addi	a4,a0,1
8000233c:	00e5a023          	sw	a4,0(a1)
80002340:	00478793          	addi	a5,a5,4
80002344:	00458593          	addi	a1,a1,4
80002348:	fcfe18e3          	bne	t3,a5,80002318 <_Z11suffixArrayPiS_ii+0x404>
8000234c:	41660633          	sub	a2,a2,s6
80002350:	01860633          	add	a2,a2,s8
80002354:	000c0b13          	mv	s6,s8
80002358:	e61ff06f          	j	800021b8 <_Z11suffixArrayPiS_ii+0x2a4>
8000235c:	e4ae14e3          	bne	t3,a0,800021a4 <_Z11suffixArrayPiS_ii+0x290>
80002360:	00168693          	addi	a3,a3,1
80002364:	01d40533          	add	a0,s0,t4
80002368:	00269693          	slli	a3,a3,0x2
8000236c:	00251513          	slli	a0,a0,0x2
80002370:	00da86b3          	add	a3,s5,a3
80002374:	00aa8533          	add	a0,s5,a0
80002378:	0006ae03          	lw	t3,0(a3)
8000237c:	00052683          	lw	a3,0(a0)
80002380:	e3c6c2e3          	blt	a3,t3,800021a4 <_Z11suffixArrayPiS_ii+0x290>
80002384:	ea5ff06f          	j	80002228 <_Z11suffixArrayPiS_ii+0x314>
80002388:	000c0613          	mv	a2,s8
8000238c:	000b8593          	mv	a1,s7
80002390:	000a8513          	mv	a0,s5
80002394:	00e12623          	sw	a4,12(sp)
80002398:	b7dff0ef          	jal	80001f14 <_Z11suffixArrayPiS_ii>
8000239c:	00c12703          	lw	a4,12(sp)
800023a0:	000b8613          	mv	a2,s7
800023a4:	00000693          	li	a3,0
800023a8:	00062783          	lw	a5,0(a2)
800023ac:	00168693          	addi	a3,a3,1
800023b0:	00460613          	addi	a2,a2,4
800023b4:	00279793          	slli	a5,a5,0x2
800023b8:	00fa87b3          	add	a5,s5,a5
800023bc:	00d7a023          	sw	a3,0(a5)
800023c0:	ff8694e3          	bne	a3,s8,800023a8 <_Z11suffixArrayPiS_ii+0x494>
800023c4:	d69ff06f          	j	8000212c <_Z11suffixArrayPiS_ii+0x218>

800023c8 <bench_ssort_prepare>:
800023c8:	00004797          	auipc	a5,0x4
800023cc:	3807a783          	lw	a5,896(a5) # 80006748 <setting>
800023d0:	0007a783          	lw	a5,0(a5)
800023d4:	fe010113          	addi	sp,sp,-32
800023d8:	00112e23          	sw	ra,28(sp)
800023dc:	00912a23          	sw	s1,20(sp)
800023e0:	01212823          	sw	s2,16(sp)
800023e4:	00004497          	auipc	s1,0x4
800023e8:	35048493          	addi	s1,s1,848 # 80006734 <_ZL1N>
800023ec:	00100513          	li	a0,1
800023f0:	00f4a023          	sw	a5,0(s1)
800023f4:	0f9000ef          	jal	80002cec <bench_srand>
800023f8:	0004a503          	lw	a0,0(s1)
800023fc:	00004917          	auipc	s2,0x4
80002400:	33490913          	addi	s2,s2,820 # 80006730 <_ZL1s>
80002404:	00a50513          	addi	a0,a0,10
80002408:	00251513          	slli	a0,a0,0x2
8000240c:	039000ef          	jal	80002c44 <bench_alloc>
80002410:	0004a783          	lw	a5,0(s1)
80002414:	00a92023          	sw	a0,0(s2)
80002418:	00a78513          	addi	a0,a5,10
8000241c:	00251513          	slli	a0,a0,0x2
80002420:	025000ef          	jal	80002c44 <bench_alloc>
80002424:	0004a783          	lw	a5,0(s1)
80002428:	00004717          	auipc	a4,0x4
8000242c:	30a72223          	sw	a0,772(a4) # 8000672c <_ZL2sa>
80002430:	04f05063          	blez	a5,80002470 <bench_ssort_prepare+0xa8>
80002434:	00812c23          	sw	s0,24(sp)
80002438:	01312623          	sw	s3,12(sp)
8000243c:	00000413          	li	s0,0
80002440:	01a00993          	li	s3,26
80002444:	0bd000ef          	jal	80002d00 <bench_rand>
80002448:	03357533          	remu	a0,a0,s3
8000244c:	00092783          	lw	a5,0(s2)
80002450:	00241693          	slli	a3,s0,0x2
80002454:	0004a703          	lw	a4,0(s1)
80002458:	00d787b3          	add	a5,a5,a3
8000245c:	00140413          	addi	s0,s0,1
80002460:	00a7a023          	sw	a0,0(a5)
80002464:	fee440e3          	blt	s0,a4,80002444 <bench_ssort_prepare+0x7c>
80002468:	01812403          	lw	s0,24(sp)
8000246c:	00c12983          	lw	s3,12(sp)
80002470:	01c12083          	lw	ra,28(sp)
80002474:	01412483          	lw	s1,20(sp)
80002478:	01012903          	lw	s2,16(sp)
8000247c:	02010113          	addi	sp,sp,32
80002480:	00008067          	ret

80002484 <bench_ssort_run>:
80002484:	01a00693          	li	a3,26
80002488:	00004617          	auipc	a2,0x4
8000248c:	2ac62603          	lw	a2,684(a2) # 80006734 <_ZL1N>
80002490:	00004597          	auipc	a1,0x4
80002494:	29c5a583          	lw	a1,668(a1) # 8000672c <_ZL2sa>
80002498:	00004517          	auipc	a0,0x4
8000249c:	29852503          	lw	a0,664(a0) # 80006730 <_ZL1s>
800024a0:	a75ff06f          	j	80001f14 <_Z11suffixArrayPiS_ii>

800024a4 <bench_ssort_validate>:
800024a4:	00004597          	auipc	a1,0x4
800024a8:	2905a583          	lw	a1,656(a1) # 80006734 <_ZL1N>
800024ac:	00004517          	auipc	a0,0x4
800024b0:	28052503          	lw	a0,640(a0) # 8000672c <_ZL2sa>
800024b4:	00259593          	slli	a1,a1,0x2
800024b8:	ff010113          	addi	sp,sp,-16
800024bc:	00b505b3          	add	a1,a0,a1
800024c0:	00112623          	sw	ra,12(sp)
800024c4:	071000ef          	jal	80002d34 <checksum>
800024c8:	00004797          	auipc	a5,0x4
800024cc:	2807a783          	lw	a5,640(a5) # 80006748 <setting>
800024d0:	00c7a783          	lw	a5,12(a5)
800024d4:	00c12083          	lw	ra,12(sp)
800024d8:	40a78533          	sub	a0,a5,a0
800024dc:	00153513          	seqz	a0,a0
800024e0:	01010113          	addi	sp,sp,16
800024e4:	00008067          	ret

800024e8 <bench_sieve_prepare>:
800024e8:	00004797          	auipc	a5,0x4
800024ec:	2607a783          	lw	a5,608(a5) # 80006748 <setting>
800024f0:	0007a783          	lw	a5,0(a5)
800024f4:	ff010113          	addi	sp,sp,-16
800024f8:	00812423          	sw	s0,8(sp)
800024fc:	41f7d513          	srai	a0,a5,0x1f
80002500:	00757513          	andi	a0,a0,7
80002504:	00f50533          	add	a0,a0,a5
80002508:	40355513          	srai	a0,a0,0x3
8000250c:	00112623          	sw	ra,12(sp)
80002510:	00004417          	auipc	s0,0x4
80002514:	23040413          	addi	s0,s0,560 # 80006740 <N>
80002518:	08050513          	addi	a0,a0,128
8000251c:	00f42023          	sw	a5,0(s0)
80002520:	724000ef          	jal	80002c44 <bench_alloc>
80002524:	00042783          	lw	a5,0(s0)
80002528:	00004717          	auipc	a4,0x4
8000252c:	20a72823          	sw	a0,528(a4) # 80006738 <primes>
80002530:	fe100693          	li	a3,-31
80002534:	41f7d713          	srai	a4,a5,0x1f
80002538:	01f77713          	andi	a4,a4,31
8000253c:	00f70733          	add	a4,a4,a5
80002540:	02d7c063          	blt	a5,a3,80002560 <bench_sieve_prepare+0x78>
80002544:	40575713          	srai	a4,a4,0x5
80002548:	00000793          	li	a5,0
8000254c:	fff00693          	li	a3,-1
80002550:	00d52023          	sw	a3,0(a0)
80002554:	00178793          	addi	a5,a5,1
80002558:	00450513          	addi	a0,a0,4
8000255c:	fef75ae3          	bge	a4,a5,80002550 <bench_sieve_prepare+0x68>
80002560:	00c12083          	lw	ra,12(sp)
80002564:	00812403          	lw	s0,8(sp)
80002568:	01010113          	addi	sp,sp,16
8000256c:	00008067          	ret

80002570 <bench_sieve_run>:
80002570:	00004517          	auipc	a0,0x4
80002574:	1d052503          	lw	a0,464(a0) # 80006740 <N>
80002578:	12a05863          	blez	a0,800026a8 <bench_sieve_run+0x138>
8000257c:	00004817          	auipc	a6,0x4
80002580:	1bc82803          	lw	a6,444(a6) # 80006738 <primes>
80002584:	00082683          	lw	a3,0(a6)
80002588:	00100713          	li	a4,1
8000258c:	0026f793          	andi	a5,a3,2
80002590:	00079c63          	bnez	a5,800025a8 <bench_sieve_run+0x38>
80002594:	00008067          	ret
80002598:	0007a783          	lw	a5,0(a5)
8000259c:	00e7d7b3          	srl	a5,a5,a4
800025a0:	0017f793          	andi	a5,a5,1
800025a4:	10078063          	beqz	a5,800026a4 <bench_sieve_run+0x134>
800025a8:	00170713          	addi	a4,a4,1
800025ac:	40575793          	srai	a5,a4,0x5
800025b0:	00279793          	slli	a5,a5,0x2
800025b4:	00f807b3          	add	a5,a6,a5
800025b8:	fee550e3          	bge	a0,a4,80002598 <bench_sieve_run+0x28>
800025bc:	00300793          	li	a5,3
800025c0:	0ca7da63          	bge	a5,a0,80002694 <bench_sieve_run+0x124>
800025c4:	00400893          	li	a7,4
800025c8:	00200593          	li	a1,2
800025cc:	00100313          	li	t1,1
800025d0:	0240006f          	j	800025f4 <bench_sieve_run+0x84>
800025d4:	00158593          	addi	a1,a1,1
800025d8:	02b587b3          	mul	a5,a1,a1
800025dc:	00288893          	addi	a7,a7,2
800025e0:	06f54063          	blt	a0,a5,80002640 <bench_sieve_run+0xd0>
800025e4:	4055d793          	srai	a5,a1,0x5
800025e8:	00279793          	slli	a5,a5,0x2
800025ec:	00f807b3          	add	a5,a6,a5
800025f0:	0007a683          	lw	a3,0(a5)
800025f4:	00b6d6b3          	srl	a3,a3,a1
800025f8:	0016f693          	andi	a3,a3,1
800025fc:	fc068ce3          	beqz	a3,800025d4 <bench_sieve_run+0x64>
80002600:	00088713          	mv	a4,a7
80002604:	fd1548e3          	blt	a0,a7,800025d4 <bench_sieve_run+0x64>
80002608:	40575793          	srai	a5,a4,0x5
8000260c:	00279793          	slli	a5,a5,0x2
80002610:	00f807b3          	add	a5,a6,a5
80002614:	0007a683          	lw	a3,0(a5)
80002618:	00e31633          	sll	a2,t1,a4
8000261c:	fff64613          	not	a2,a2
80002620:	00c6f6b3          	and	a3,a3,a2
80002624:	00d7a023          	sw	a3,0(a5)
80002628:	00b70733          	add	a4,a4,a1
8000262c:	fce55ee3          	bge	a0,a4,80002608 <bench_sieve_run+0x98>
80002630:	00158593          	addi	a1,a1,1
80002634:	02b587b3          	mul	a5,a1,a1
80002638:	00288893          	addi	a7,a7,2
8000263c:	faf554e3          	bge	a0,a5,800025e4 <bench_sieve_run+0x74>
80002640:	00004797          	auipc	a5,0x4
80002644:	0e07ae23          	sw	zero,252(a5) # 8000673c <ans>
80002648:	00150513          	addi	a0,a0,1
8000264c:	00000613          	li	a2,0
80002650:	00000693          	li	a3,0
80002654:	00200713          	li	a4,2
80002658:	40575793          	srai	a5,a4,0x5
8000265c:	00279793          	slli	a5,a5,0x2
80002660:	00f807b3          	add	a5,a6,a5
80002664:	0007a783          	lw	a5,0(a5)
80002668:	00e7d7b3          	srl	a5,a5,a4
8000266c:	0017f793          	andi	a5,a5,1
80002670:	00170713          	addi	a4,a4,1
80002674:	00078663          	beqz	a5,80002680 <bench_sieve_run+0x110>
80002678:	00168693          	addi	a3,a3,1
8000267c:	00100613          	li	a2,1
80002680:	fce51ce3          	bne	a0,a4,80002658 <bench_sieve_run+0xe8>
80002684:	02060063          	beqz	a2,800026a4 <bench_sieve_run+0x134>
80002688:	00004797          	auipc	a5,0x4
8000268c:	0ad7aa23          	sw	a3,180(a5) # 8000673c <ans>
80002690:	00008067          	ret
80002694:	00004797          	auipc	a5,0x4
80002698:	0a07a423          	sw	zero,168(a5) # 8000673c <ans>
8000269c:	00100793          	li	a5,1
800026a0:	faf514e3          	bne	a0,a5,80002648 <bench_sieve_run+0xd8>
800026a4:	00008067          	ret
800026a8:	00004797          	auipc	a5,0x4
800026ac:	0807aa23          	sw	zero,148(a5) # 8000673c <ans>
800026b0:	00008067          	ret

800026b4 <bench_sieve_validate>:
800026b4:	00004797          	auipc	a5,0x4
800026b8:	0947a783          	lw	a5,148(a5) # 80006748 <setting>
800026bc:	00c7a503          	lw	a0,12(a5)
800026c0:	00004797          	auipc	a5,0x4
800026c4:	07c7a783          	lw	a5,124(a5) # 8000673c <ans>
800026c8:	40f50533          	sub	a0,a0,a5
800026cc:	00153513          	seqz	a0,a0
800026d0:	00008067          	ret

800026d4 <format_time>:
800026d4:	fe010113          	addi	sp,sp,-32
800026d8:	3e800613          	li	a2,1000
800026dc:	00000693          	li	a3,0
800026e0:	00112e23          	sw	ra,28(sp)
800026e4:	00812c23          	sw	s0,24(sp)
800026e8:	00912a23          	sw	s1,20(sp)
800026ec:	01212823          	sw	s2,16(sp)
800026f0:	01312623          	sw	s3,12(sp)
800026f4:	00058913          	mv	s2,a1
800026f8:	00050993          	mv	s3,a0
800026fc:	36d020ef          	jal	80005268 <__umoddi3>
80002700:	00050413          	mv	s0,a0
80002704:	00058493          	mv	s1,a1
80002708:	3e800613          	li	a2,1000
8000270c:	00000693          	li	a3,0
80002710:	00098513          	mv	a0,s3
80002714:	00090593          	mv	a1,s2
80002718:	349020ef          	jal	80005260 <__udivdi3>
8000271c:	00050613          	mv	a2,a0
80002720:	00058693          	mv	a3,a1
80002724:	00004517          	auipc	a0,0x4
80002728:	fc050513          	addi	a0,a0,-64 # 800066e4 <buf.0>
8000272c:	00003597          	auipc	a1,0x3
80002730:	0f058593          	addi	a1,a1,240 # 8000581c <_etext+0x6c>
80002734:	040030ef          	jal	80005774 <sprintf>
80002738:	00004717          	auipc	a4,0x4
8000273c:	fab70713          	addi	a4,a4,-85 # 800066e3 <heap+0x7>
80002740:	0084e7b3          	or	a5,s1,s0
80002744:	00e50533          	add	a0,a0,a4
80002748:	08078863          	beqz	a5,800027d8 <format_time+0x104>
8000274c:	ccccd6b7          	lui	a3,0xccccd
80002750:	ccccd8b7          	lui	a7,0xccccd
80002754:	00500313          	li	t1,5
80002758:	ccd68693          	addi	a3,a3,-819 # cccccccd <_end+0x4ccbdccd>
8000275c:	ccc88893          	addi	a7,a7,-820 # cccccccc <_end+0x4ccbdccc>
80002760:	00900e13          	li	t3,9
80002764:	009407b3          	add	a5,s0,s1
80002768:	0087b733          	sltu	a4,a5,s0
8000276c:	00e787b3          	add	a5,a5,a4
80002770:	0267f7b3          	remu	a5,a5,t1
80002774:	fff50513          	addi	a0,a0,-1
80002778:	00048613          	mv	a2,s1
8000277c:	00040e93          	mv	t4,s0
80002780:	40f407b3          	sub	a5,s0,a5
80002784:	00f435b3          	sltu	a1,s0,a5
80002788:	40b485b3          	sub	a1,s1,a1
8000278c:	03178833          	mul	a6,a5,a7
80002790:	02d585b3          	mul	a1,a1,a3
80002794:	02d7b733          	mulhu	a4,a5,a3
80002798:	010585b3          	add	a1,a1,a6
8000279c:	02d787b3          	mul	a5,a5,a3
800027a0:	00e585b3          	add	a1,a1,a4
800027a4:	01f59713          	slli	a4,a1,0x1f
800027a8:	0015d493          	srli	s1,a1,0x1
800027ac:	0017d793          	srli	a5,a5,0x1
800027b0:	00f767b3          	or	a5,a4,a5
800027b4:	00279713          	slli	a4,a5,0x2
800027b8:	00f70733          	add	a4,a4,a5
800027bc:	00171713          	slli	a4,a4,0x1
800027c0:	40e40733          	sub	a4,s0,a4
800027c4:	03070713          	addi	a4,a4,48
800027c8:	00e500a3          	sb	a4,1(a0)
800027cc:	00078413          	mv	s0,a5
800027d0:	f8061ae3          	bnez	a2,80002764 <format_time+0x90>
800027d4:	f9de68e3          	bltu	t3,t4,80002764 <format_time+0x90>
800027d8:	01c12083          	lw	ra,28(sp)
800027dc:	01812403          	lw	s0,24(sp)
800027e0:	01412483          	lw	s1,20(sp)
800027e4:	01012903          	lw	s2,16(sp)
800027e8:	00c12983          	lw	s3,12(sp)
800027ec:	00004517          	auipc	a0,0x4
800027f0:	ef850513          	addi	a0,a0,-264 # 800066e4 <buf.0>
800027f4:	02010113          	addi	sp,sp,32
800027f8:	00008067          	ret

800027fc <main>:
800027fc:	f9010113          	addi	sp,sp,-112
80002800:	06112623          	sw	ra,108(sp)
80002804:	06812423          	sw	s0,104(sp)
80002808:	06912223          	sw	s1,100(sp)
8000280c:	07212023          	sw	s2,96(sp)
80002810:	05312e23          	sw	s3,92(sp)
80002814:	05412c23          	sw	s4,88(sp)
80002818:	05512a23          	sw	s5,84(sp)
8000281c:	05612823          	sw	s6,80(sp)
80002820:	05712623          	sw	s7,76(sp)
80002824:	05812423          	sw	s8,72(sp)
80002828:	05912223          	sw	s9,68(sp)
8000282c:	05a12023          	sw	s10,64(sp)
80002830:	03b12e23          	sw	s11,60(sp)
80002834:	34050e63          	beqz	a0,80002b90 <main+0x394>
80002838:	00003597          	auipc	a1,0x3
8000283c:	0b058593          	addi	a1,a1,176 # 800058e8 <_etext+0x138>
80002840:	00050413          	mv	s0,a0
80002844:	351020ef          	jal	80005394 <strcmp>
80002848:	34050463          	beqz	a0,80002b90 <main+0x394>
8000284c:	00003597          	auipc	a1,0x3
80002850:	01458593          	addi	a1,a1,20 # 80005860 <_etext+0xb0>
80002854:	00040513          	mv	a0,s0
80002858:	33d020ef          	jal	80005394 <strcmp>
8000285c:	00050c93          	mv	s9,a0
80002860:	00050e63          	beqz	a0,8000287c <main+0x80>
80002864:	00003597          	auipc	a1,0x3
80002868:	00458593          	addi	a1,a1,4 # 80005868 <_etext+0xb8>
8000286c:	00040513          	mv	a0,s0
80002870:	325020ef          	jal	80005394 <strcmp>
80002874:	00100c93          	li	s9,1
80002878:	38051263          	bnez	a0,80002bfc <main+0x400>
8000287c:	548020ef          	jal	80004dc4 <ioe_init>
80002880:	00040593          	mv	a1,s0
80002884:	00003517          	auipc	a0,0x3
80002888:	03450513          	addi	a0,a0,52 # 800058b8 <_etext+0x108>
8000288c:	5ed020ef          	jal	80005678 <printf>
80002890:	02810593          	addi	a1,sp,40
80002894:	00600513          	li	a0,6
80002898:	588020ef          	jal	80004e20 <ioe_read>
8000289c:	02812783          	lw	a5,40(sp)
800028a0:	004c9713          	slli	a4,s9,0x4
800028a4:	00003d97          	auipc	s11,0x3
800028a8:	7ecd8d93          	addi	s11,s11,2028 # 80006090 <benchmarks>
800028ac:	00f12c23          	sw	a5,24(sp)
800028b0:	02c12783          	lw	a5,44(sp)
800028b4:	01470713          	addi	a4,a4,20
800028b8:	01b70d33          	add	s10,a4,s11
800028bc:	00f12e23          	sw	a5,28(sp)
800028c0:	00100793          	li	a5,1
800028c4:	00004b97          	auipc	s7,0x4
800028c8:	b14b8b93          	addi	s7,s7,-1260 # 800063d8 <_ZL8PUZZLE_H>
800028cc:	00000c13          	li	s8,0
800028d0:	00000b13          	li	s6,0
800028d4:	00f12623          	sw	a5,12(sp)
800028d8:	00012a23          	sw	zero,20(sp)
800028dc:	00004917          	auipc	s2,0x4
800028e0:	e7090913          	addi	s2,s2,-400 # 8000674c <current>
800028e4:	00004a97          	auipc	s5,0x4
800028e8:	e64a8a93          	addi	s5,s5,-412 # 80006748 <setting>
800028ec:	00004497          	auipc	s1,0x4
800028f0:	df048493          	addi	s1,s1,-528 # 800066dc <heap>
800028f4:	00003a17          	auipc	s4,0x3
800028f8:	ff8a0a13          	addi	s4,s4,-8 # 800058ec <_etext+0x13c>
800028fc:	02c0006f          	j	80002928 <main+0x12c>
80002900:	000a0513          	mv	a0,s4
80002904:	575020ef          	jal	80005678 <printf>
80002908:	00003597          	auipc	a1,0x3
8000290c:	ff058593          	addi	a1,a1,-16 # 800058f8 <_etext+0x148>
80002910:	00003517          	auipc	a0,0x3
80002914:	00050513          	mv	a0,a0
80002918:	561020ef          	jal	80005678 <printf>
8000291c:	054d8d93          	addi	s11,s11,84
80002920:	054d0d13          	addi	s10,s10,84
80002924:	17bb8063          	beq	s7,s11,80002a84 <main+0x288>
80002928:	0004a603          	lw	a2,0(s1)
8000292c:	0044a683          	lw	a3,4(s1)
80002930:	004d2503          	lw	a0,4(s10)
80002934:	01b92023          	sw	s11,0(s2)
80002938:	40c686b3          	sub	a3,a3,a2
8000293c:	01aaa023          	sw	s10,0(s5)
80002940:	00cda583          	lw	a1,12(s11)
80002944:	010da603          	lw	a2,16(s11)
80002948:	faa6ece3          	bltu	a3,a0,80002900 <main+0x104>
8000294c:	000a0513          	mv	a0,s4
80002950:	529020ef          	jal	80005678 <printf>
80002954:	00092603          	lw	a2,0(s2)
80002958:	0004a683          	lw	a3,0(s1)
8000295c:	00004797          	auipc	a5,0x4
80002960:	de878793          	addi	a5,a5,-536 # 80006744 <hbrk>
80002964:	00062603          	lw	a2,0(a2)
80002968:	00768693          	addi	a3,a3,7
8000296c:	ff86f693          	andi	a3,a3,-8
80002970:	00d7a023          	sw	a3,0(a5)
80002974:	000600e7          	jalr	a2
80002978:	02810593          	addi	a1,sp,40
8000297c:	00600513          	li	a0,6
80002980:	4a0020ef          	jal	80004e20 <ioe_read>
80002984:	00092683          	lw	a3,0(s2)
80002988:	02812983          	lw	s3,40(sp)
8000298c:	02c12403          	lw	s0,44(sp)
80002990:	0046a683          	lw	a3,4(a3)
80002994:	000680e7          	jalr	a3
80002998:	02810593          	addi	a1,sp,40
8000299c:	00600513          	li	a0,6
800029a0:	480020ef          	jal	80004e20 <ioe_read>
800029a4:	00092603          	lw	a2,0(s2)
800029a8:	02812683          	lw	a3,40(sp)
800029ac:	02c12783          	lw	a5,44(sp)
800029b0:	00862603          	lw	a2,8(a2)
800029b4:	413689b3          	sub	s3,a3,s3
800029b8:	0136b6b3          	sltu	a3,a3,s3
800029bc:	40878433          	sub	s0,a5,s0
800029c0:	40d40433          	sub	s0,s0,a3
800029c4:	000600e7          	jalr	a2
800029c8:	1e050063          	beqz	a0,80002ba8 <main+0x3ac>
800029cc:	00a12823          	sw	a0,16(sp)
800029d0:	00003517          	auipc	a0,0x3
800029d4:	f5050513          	addi	a0,a0,-176 # 80005920 <_etext+0x170>
800029d8:	4a1020ef          	jal	80005678 <printf>
800029dc:	01012683          	lw	a3,16(sp)
800029e0:	013c0633          	add	a2,s8,s3
800029e4:	018635b3          	sltu	a1,a2,s8
800029e8:	008b0b33          	add	s6,s6,s0
800029ec:	0016f693          	andi	a3,a3,1
800029f0:	00060c13          	mv	s8,a2
800029f4:	01658b33          	add	s6,a1,s6
800029f8:	1c068863          	beqz	a3,80002bc8 <main+0x3cc>
800029fc:	00003517          	auipc	a0,0x3
80002a00:	f2850513          	addi	a0,a0,-216 # 80005924 <_etext+0x174>
80002a04:	475020ef          	jal	80005678 <printf>
80002a08:	0089e6b3          	or	a3,s3,s0
80002a0c:	00012823          	sw	zero,16(sp)
80002a10:	02068c63          	beqz	a3,80002a48 <main+0x24c>
80002a14:	000aa683          	lw	a3,0(s5)
80002a18:	00018537          	lui	a0,0x18
80002a1c:	6a050513          	addi	a0,a0,1696 # 186a0 <_entry_offset+0x186a0>
80002a20:	0086a803          	lw	a6,8(a3)
80002a24:	00098613          	mv	a2,s3
80002a28:	00040693          	mv	a3,s0
80002a2c:	02a835b3          	mulhu	a1,a6,a0
80002a30:	02a80533          	mul	a0,a6,a0
80002a34:	02d020ef          	jal	80005260 <__udivdi3>
80002a38:	01412703          	lw	a4,20(sp)
80002a3c:	00a12823          	sw	a0,16(sp)
80002a40:	00a707b3          	add	a5,a4,a0
80002a44:	00f12a23          	sw	a5,20(sp)
80002a48:	00003517          	auipc	a0,0x3
80002a4c:	f9c50513          	addi	a0,a0,-100 # 800059e4 <_etext+0x234>
80002a50:	429020ef          	jal	80005678 <printf>
80002a54:	ec0c84e3          	beqz	s9,8000291c <main+0x120>
80002a58:	00040593          	mv	a1,s0
80002a5c:	00098513          	mv	a0,s3
80002a60:	c75ff0ef          	jal	800026d4 <format_time>
80002a64:	01012603          	lw	a2,16(sp)
80002a68:	00050593          	mv	a1,a0
80002a6c:	054d8d93          	addi	s11,s11,84
80002a70:	00003517          	auipc	a0,0x3
80002a74:	ecc50513          	addi	a0,a0,-308 # 8000593c <_etext+0x18c>
80002a78:	401020ef          	jal	80005678 <printf>
80002a7c:	054d0d13          	addi	s10,s10,84
80002a80:	ebbb94e3          	bne	s7,s11,80002928 <main+0x12c>
80002a84:	02810593          	addi	a1,sp,40
80002a88:	00600513          	li	a0,6
80002a8c:	394020ef          	jal	80004e20 <ioe_read>
80002a90:	02812783          	lw	a5,40(sp)
80002a94:	01812703          	lw	a4,24(sp)
80002a98:	02c12403          	lw	s0,44(sp)
80002a9c:	00003517          	auipc	a0,0x3
80002aa0:	eb850513          	addi	a0,a0,-328 # 80005954 <_etext+0x1a4>
80002aa4:	40e784b3          	sub	s1,a5,a4
80002aa8:	01c12703          	lw	a4,28(sp)
80002aac:	0097b7b3          	sltu	a5,a5,s1
80002ab0:	40e40433          	sub	s0,s0,a4
80002ab4:	40f40433          	sub	s0,s0,a5
80002ab8:	3c1020ef          	jal	80005678 <printf>
80002abc:	00c12783          	lw	a5,12(sp)
80002ac0:	00003597          	auipc	a1,0x3
80002ac4:	d7058593          	addi	a1,a1,-656 # 80005830 <_etext+0x80>
80002ac8:	10079c63          	bnez	a5,80002be0 <main+0x3e4>
80002acc:	00003517          	auipc	a0,0x3
80002ad0:	ebc50513          	addi	a0,a0,-324 # 80005988 <_etext+0x1d8>
80002ad4:	3a5020ef          	jal	80005678 <printf>
80002ad8:	00100793          	li	a5,1
80002adc:	1197d863          	bge	a5,s9,80002bec <main+0x3f0>
80002ae0:	01412783          	lw	a5,20(sp)
80002ae4:	00a00593          	li	a1,10
80002ae8:	00003517          	auipc	a0,0x3
80002aec:	eb050513          	addi	a0,a0,-336 # 80005998 <_etext+0x1e8>
80002af0:	02b7d5b3          	divu	a1,a5,a1
80002af4:	385020ef          	jal	80005678 <printf>
80002af8:	000185b7          	lui	a1,0x18
80002afc:	00003617          	auipc	a2,0x3
80002b00:	eb060613          	addi	a2,a2,-336 # 800059ac <_etext+0x1fc>
80002b04:	6a058593          	addi	a1,a1,1696 # 186a0 <_entry_offset+0x186a0>
80002b08:	00003517          	auipc	a0,0x3
80002b0c:	eb850513          	addi	a0,a0,-328 # 800059c0 <_etext+0x210>
80002b10:	369020ef          	jal	80005678 <printf>
80002b14:	000b0593          	mv	a1,s6
80002b18:	000c0513          	mv	a0,s8
80002b1c:	bb9ff0ef          	jal	800026d4 <format_time>
80002b20:	00050593          	mv	a1,a0
80002b24:	00003517          	auipc	a0,0x3
80002b28:	ec450513          	addi	a0,a0,-316 # 800059e8 <_etext+0x238>
80002b2c:	34d020ef          	jal	80005678 <printf>
80002b30:	00040593          	mv	a1,s0
80002b34:	00048513          	mv	a0,s1
80002b38:	b9dff0ef          	jal	800026d4 <format_time>
80002b3c:	00050593          	mv	a1,a0
80002b40:	00003517          	auipc	a0,0x3
80002b44:	ebc50513          	addi	a0,a0,-324 # 800059fc <_etext+0x24c>
80002b48:	331020ef          	jal	80005678 <printf>
80002b4c:	00c12783          	lw	a5,12(sp)
80002b50:	06c12083          	lw	ra,108(sp)
80002b54:	06812403          	lw	s0,104(sp)
80002b58:	06412483          	lw	s1,100(sp)
80002b5c:	06012903          	lw	s2,96(sp)
80002b60:	05c12983          	lw	s3,92(sp)
80002b64:	05812a03          	lw	s4,88(sp)
80002b68:	05412a83          	lw	s5,84(sp)
80002b6c:	05012b03          	lw	s6,80(sp)
80002b70:	04c12b83          	lw	s7,76(sp)
80002b74:	04812c03          	lw	s8,72(sp)
80002b78:	04412c83          	lw	s9,68(sp)
80002b7c:	04012d03          	lw	s10,64(sp)
80002b80:	03c12d83          	lw	s11,60(sp)
80002b84:	0017c513          	xori	a0,a5,1
80002b88:	07010113          	addi	sp,sp,112
80002b8c:	00008067          	ret
80002b90:	00003517          	auipc	a0,0x3
80002b94:	ca850513          	addi	a0,a0,-856 # 80005838 <_etext+0x88>
80002b98:	2e1020ef          	jal	80005678 <printf>
80002b9c:	00003417          	auipc	s0,0x3
80002ba0:	c8840413          	addi	s0,s0,-888 # 80005824 <_etext+0x74>
80002ba4:	ca9ff06f          	j	8000284c <main+0x50>
80002ba8:	00003517          	auipc	a0,0x3
80002bac:	d7450513          	addi	a0,a0,-652 # 8000591c <_etext+0x16c>
80002bb0:	2c9020ef          	jal	80005678 <printf>
80002bb4:	013c06b3          	add	a3,s8,s3
80002bb8:	0186b633          	sltu	a2,a3,s8
80002bbc:	008b0b33          	add	s6,s6,s0
80002bc0:	00068c13          	mv	s8,a3
80002bc4:	01660b33          	add	s6,a2,s6
80002bc8:	00003517          	auipc	a0,0x3
80002bcc:	d6850513          	addi	a0,a0,-664 # 80005930 <_etext+0x180>
80002bd0:	2a9020ef          	jal	80005678 <printf>
80002bd4:	00012623          	sw	zero,12(sp)
80002bd8:	00012823          	sw	zero,16(sp)
80002bdc:	e6dff06f          	j	80002a48 <main+0x24c>
80002be0:	00003597          	auipc	a1,0x3
80002be4:	c4858593          	addi	a1,a1,-952 # 80005828 <_etext+0x78>
80002be8:	ee5ff06f          	j	80002acc <main+0x2d0>
80002bec:	00003517          	auipc	a0,0x3
80002bf0:	df850513          	addi	a0,a0,-520 # 800059e4 <_etext+0x234>
80002bf4:	285020ef          	jal	80005678 <printf>
80002bf8:	f1dff06f          	j	80002b14 <main+0x318>
80002bfc:	00003597          	auipc	a1,0x3
80002c00:	c2858593          	addi	a1,a1,-984 # 80005824 <_etext+0x74>
80002c04:	00040513          	mv	a0,s0
80002c08:	78c020ef          	jal	80005394 <strcmp>
80002c0c:	00200c93          	li	s9,2
80002c10:	c60506e3          	beqz	a0,8000287c <main+0x80>
80002c14:	00003597          	auipc	a1,0x3
80002c18:	c5c58593          	addi	a1,a1,-932 # 80005870 <_etext+0xc0>
80002c1c:	00040513          	mv	a0,s0
80002c20:	774020ef          	jal	80005394 <strcmp>
80002c24:	00300c93          	li	s9,3
80002c28:	c4050ae3          	beqz	a0,8000287c <main+0x80>
80002c2c:	00040593          	mv	a1,s0
80002c30:	00003517          	auipc	a0,0x3
80002c34:	c4850513          	addi	a0,a0,-952 # 80005878 <_etext+0xc8>
80002c38:	241020ef          	jal	80005678 <printf>
80002c3c:	00100513          	li	a0,1
80002c40:	0c4020ef          	jal	80004d04 <halt>

80002c44 <bench_alloc>:
80002c44:	00004597          	auipc	a1,0x4
80002c48:	b0058593          	addi	a1,a1,-1280 # 80006744 <hbrk>
80002c4c:	0005a683          	lw	a3,0(a1)
80002c50:	00750713          	addi	a4,a0,7
80002c54:	00004797          	auipc	a5,0x4
80002c58:	a8878793          	addi	a5,a5,-1400 # 800066dc <heap>
80002c5c:	ff010113          	addi	sp,sp,-16
80002c60:	ff877713          	andi	a4,a4,-8
80002c64:	0007a603          	lw	a2,0(a5)
80002c68:	00112623          	sw	ra,12(sp)
80002c6c:	00e68733          	add	a4,a3,a4
80002c70:	00e5a023          	sw	a4,0(a1)
80002c74:	04c76863          	bltu	a4,a2,80002cc4 <bench_alloc+0x80>
80002c78:	0047a783          	lw	a5,4(a5)
80002c7c:	04f77463          	bgeu	a4,a5,80002cc4 <bench_alloc+0x80>
80002c80:	00068793          	mv	a5,a3
80002c84:	00d70e63          	beq	a4,a3,80002ca0 <bench_alloc+0x5c>
80002c88:	00000513          	li	a0,0
80002c8c:	00000593          	li	a1,0
80002c90:	00a7a023          	sw	a0,0(a5)
80002c94:	00b7a223          	sw	a1,4(a5)
80002c98:	00878793          	addi	a5,a5,8
80002c9c:	fef716e3          	bne	a4,a5,80002c88 <bench_alloc+0x44>
80002ca0:	00004797          	auipc	a5,0x4
80002ca4:	aa87a783          	lw	a5,-1368(a5) # 80006748 <setting>
80002ca8:	0047a783          	lw	a5,4(a5)
80002cac:	40c70733          	sub	a4,a4,a2
80002cb0:	02e7ea63          	bltu	a5,a4,80002ce4 <bench_alloc+0xa0>
80002cb4:	00c12083          	lw	ra,12(sp)
80002cb8:	00068513          	mv	a0,a3
80002cbc:	01010113          	addi	sp,sp,16
80002cc0:	00008067          	ret
80002cc4:	0a100613          	li	a2,161
80002cc8:	00003597          	auipc	a1,0x3
80002ccc:	d4858593          	addi	a1,a1,-696 # 80005a10 <_etext+0x260>
80002cd0:	00003517          	auipc	a0,0x3
80002cd4:	b3050513          	addi	a0,a0,-1232 # 80005800 <_etext+0x50>
80002cd8:	1a1020ef          	jal	80005678 <printf>
80002cdc:	00100513          	li	a0,1
80002ce0:	024020ef          	jal	80004d04 <halt>
80002ce4:	0a500613          	li	a2,165
80002ce8:	fe1ff06f          	j	80002cc8 <bench_alloc+0x84>

80002cec <bench_srand>:
80002cec:	01151513          	slli	a0,a0,0x11
80002cf0:	01155513          	srli	a0,a0,0x11
80002cf4:	00004797          	auipc	a5,0x4
80002cf8:	9ea7a223          	sw	a0,-1564(a5) # 800066d8 <seed>
80002cfc:	00008067          	ret

80002d00 <bench_rand>:
80002d00:	00004697          	auipc	a3,0x4
80002d04:	9d868693          	addi	a3,a3,-1576 # 800066d8 <seed>
80002d08:	0006a783          	lw	a5,0(a3)
80002d0c:	00034737          	lui	a4,0x34
80002d10:	3fd70713          	addi	a4,a4,1021 # 343fd <_entry_offset+0x343fd>
80002d14:	02e787b3          	mul	a5,a5,a4
80002d18:	0026a737          	lui	a4,0x26a
80002d1c:	ec370713          	addi	a4,a4,-317 # 269ec3 <_entry_offset+0x269ec3>
80002d20:	00e787b3          	add	a5,a5,a4
80002d24:	00179513          	slli	a0,a5,0x1
80002d28:	00f6a023          	sw	a5,0(a3)
80002d2c:	01155513          	srli	a0,a0,0x11
80002d30:	00008067          	ret

80002d34 <checksum>:
80002d34:	811ca6b7          	lui	a3,0x811ca
80002d38:	01000837          	lui	a6,0x1000
80002d3c:	00450613          	addi	a2,a0,4
80002d40:	dc568693          	addi	a3,a3,-571 # 811c9dc5 <_end+0x11badc5>
80002d44:	19380813          	addi	a6,a6,403 # 1000193 <_entry_offset+0x1000193>
80002d48:	04b67c63          	bgeu	a2,a1,80002da0 <checksum+0x6c>
80002d4c:	00050793          	mv	a5,a0
80002d50:	0007c703          	lbu	a4,0(a5)
80002d54:	00178793          	addi	a5,a5,1
80002d58:	00d74733          	xor	a4,a4,a3
80002d5c:	030706b3          	mul	a3,a4,a6
80002d60:	fef618e3          	bne	a2,a5,80002d50 <checksum+0x1c>
80002d64:	00460613          	addi	a2,a2,4
80002d68:	00450513          	addi	a0,a0,4
80002d6c:	feb660e3          	bltu	a2,a1,80002d4c <checksum+0x18>
80002d70:	013267b7          	lui	a5,0x1326
80002d74:	19378793          	addi	a5,a5,403 # 1326193 <_entry_offset+0x1326193>
80002d78:	02f70733          	mul	a4,a4,a5
80002d7c:	40775793          	srai	a5,a4,0x7
80002d80:	00e7c7b3          	xor	a5,a5,a4
80002d84:	00379713          	slli	a4,a5,0x3
80002d88:	00f70733          	add	a4,a4,a5
80002d8c:	41175793          	srai	a5,a4,0x11
80002d90:	00e7c7b3          	xor	a5,a5,a4
80002d94:	00579513          	slli	a0,a5,0x5
80002d98:	00f50533          	add	a0,a0,a5
80002d9c:	00008067          	ret
80002da0:	a6f00537          	lui	a0,0xa6f00
80002da4:	79e50513          	addi	a0,a0,1950 # a6f0079e <_end+0x26ef179e>
80002da8:	00008067          	ret

80002dac <dfs>:
80002dac:	fe010113          	addi	sp,sp,-32
80002db0:	01212823          	sw	s2,16(sp)
80002db4:	00112e23          	sw	ra,28(sp)
80002db8:	00004797          	auipc	a5,0x4
80002dbc:	99c7a783          	lw	a5,-1636(a5) # 80006754 <FULL>
80002dc0:	00100913          	li	s2,1
80002dc4:	06a78a63          	beq	a5,a0,80002e38 <dfs+0x8c>
80002dc8:	00812c23          	sw	s0,24(sp)
80002dcc:	00c5e433          	or	s0,a1,a2
80002dd0:	00a46433          	or	s0,s0,a0
80002dd4:	fff44413          	not	s0,s0
80002dd8:	00912a23          	sw	s1,20(sp)
80002ddc:	01312623          	sw	s3,12(sp)
80002de0:	01412423          	sw	s4,8(sp)
80002de4:	00f47433          	and	s0,s0,a5
80002de8:	00050493          	mv	s1,a0
80002dec:	00058a13          	mv	s4,a1
80002df0:	00060993          	mv	s3,a2
80002df4:	00000913          	li	s2,0
80002df8:	02040863          	beqz	s0,80002e28 <dfs+0x7c>
80002dfc:	408007b3          	neg	a5,s0
80002e00:	0087f7b3          	and	a5,a5,s0
80002e04:	00f9e633          	or	a2,s3,a5
80002e08:	00fa65b3          	or	a1,s4,a5
80002e0c:	00165613          	srli	a2,a2,0x1
80002e10:	00159593          	slli	a1,a1,0x1
80002e14:	00f4e533          	or	a0,s1,a5
80002e18:	40f40433          	sub	s0,s0,a5
80002e1c:	f91ff0ef          	jal	80002dac <dfs>
80002e20:	00a90933          	add	s2,s2,a0
80002e24:	fc041ce3          	bnez	s0,80002dfc <dfs+0x50>
80002e28:	01812403          	lw	s0,24(sp)
80002e2c:	01412483          	lw	s1,20(sp)
80002e30:	00c12983          	lw	s3,12(sp)
80002e34:	00812a03          	lw	s4,8(sp)
80002e38:	01c12083          	lw	ra,28(sp)
80002e3c:	00090513          	mv	a0,s2
80002e40:	01012903          	lw	s2,16(sp)
80002e44:	02010113          	addi	sp,sp,32
80002e48:	00008067          	ret

80002e4c <bench_queen_prepare>:
80002e4c:	00004797          	auipc	a5,0x4
80002e50:	8fc7a783          	lw	a5,-1796(a5) # 80006748 <setting>
80002e54:	0007a703          	lw	a4,0(a5)
80002e58:	00004797          	auipc	a5,0x4
80002e5c:	8e07ac23          	sw	zero,-1800(a5) # 80006750 <ans>
80002e60:	00100793          	li	a5,1
80002e64:	00e797b3          	sll	a5,a5,a4
80002e68:	fff78793          	addi	a5,a5,-1
80002e6c:	00004717          	auipc	a4,0x4
80002e70:	8ef72423          	sw	a5,-1816(a4) # 80006754 <FULL>
80002e74:	00008067          	ret

80002e78 <bench_queen_run>:
80002e78:	ff010113          	addi	sp,sp,-16
80002e7c:	00812423          	sw	s0,8(sp)
80002e80:	00912223          	sw	s1,4(sp)
80002e84:	00112623          	sw	ra,12(sp)
80002e88:	00004417          	auipc	s0,0x4
80002e8c:	8cc42403          	lw	s0,-1844(s0) # 80006754 <FULL>
80002e90:	00100493          	li	s1,1
80002e94:	02040463          	beqz	s0,80002ebc <bench_queen_run+0x44>
80002e98:	00000493          	li	s1,0
80002e9c:	40800533          	neg	a0,s0
80002ea0:	00857533          	and	a0,a0,s0
80002ea4:	00155613          	srli	a2,a0,0x1
80002ea8:	00151593          	slli	a1,a0,0x1
80002eac:	40a40433          	sub	s0,s0,a0
80002eb0:	efdff0ef          	jal	80002dac <dfs>
80002eb4:	00a484b3          	add	s1,s1,a0
80002eb8:	fe0412e3          	bnez	s0,80002e9c <bench_queen_run+0x24>
80002ebc:	00c12083          	lw	ra,12(sp)
80002ec0:	00812403          	lw	s0,8(sp)
80002ec4:	00004797          	auipc	a5,0x4
80002ec8:	8897a623          	sw	s1,-1908(a5) # 80006750 <ans>
80002ecc:	00412483          	lw	s1,4(sp)
80002ed0:	01010113          	addi	sp,sp,16
80002ed4:	00008067          	ret

80002ed8 <bench_queen_validate>:
80002ed8:	00004797          	auipc	a5,0x4
80002edc:	8707a783          	lw	a5,-1936(a5) # 80006748 <setting>
80002ee0:	00c7a503          	lw	a0,12(a5)
80002ee4:	00004797          	auipc	a5,0x4
80002ee8:	86c7a783          	lw	a5,-1940(a5) # 80006750 <ans>
80002eec:	40f50533          	sub	a0,a0,a5
80002ef0:	00153513          	seqz	a0,a0
80002ef4:	00008067          	ret

80002ef8 <_ZNK14Updatable_heapI8N_puzzleILi4EEE7pointerERKS1_.isra.0>:
80002ef8:	00064883          	lbu	a7,0(a2)
80002efc:	00088c63          	beqz	a7,80002f14 <_ZNK14Updatable_heapI8N_puzzleILi4EEE7pointerERKS1_.isra.0+0x1c>
80002f00:	01462803          	lw	a6,20(a2)
80002f04:	fff50513          	addi	a0,a0,-1
80002f08:	010577b3          	and	a5,a0,a6
80002f0c:	00279793          	slli	a5,a5,0x2
80002f10:	00f585b3          	add	a1,a1,a5
80002f14:	0005a503          	lw	a0,0(a1)
80002f18:	06050a63          	beqz	a0,80002f8c <_ZNK14Updatable_heapI8N_puzzleILi4EEE7pointerERKS1_.isra.0+0x94>
80002f1c:	01800313          	li	t1,24
80002f20:	00c0006f          	j	80002f2c <_ZNK14Updatable_heapI8N_puzzleILi4EEE7pointerERKS1_.isra.0+0x34>
80002f24:	01852503          	lw	a0,24(a0)
80002f28:	06050263          	beqz	a0,80002f8c <_ZNK14Updatable_heapI8N_puzzleILi4EEE7pointerERKS1_.isra.0+0x94>
80002f2c:	00054783          	lbu	a5,0(a0)
80002f30:	fe078ae3          	beqz	a5,80002f24 <_ZNK14Updatable_heapI8N_puzzleILi4EEE7pointerERKS1_.isra.0+0x2c>
80002f34:	fe0888e3          	beqz	a7,80002f24 <_ZNK14Updatable_heapI8N_puzzleILi4EEE7pointerERKS1_.isra.0+0x2c>
80002f38:	01462803          	lw	a6,20(a2)
80002f3c:	01452783          	lw	a5,20(a0)
80002f40:	00800713          	li	a4,8
80002f44:	03078063          	beq	a5,a6,80002f64 <_ZNK14Updatable_heapI8N_puzzleILi4EEE7pointerERKS1_.isra.0+0x6c>
80002f48:	01852503          	lw	a0,24(a0)
80002f4c:	04050063          	beqz	a0,80002f8c <_ZNK14Updatable_heapI8N_puzzleILi4EEE7pointerERKS1_.isra.0+0x94>
80002f50:	00054783          	lbu	a5,0(a0)
80002f54:	fc0788e3          	beqz	a5,80002f24 <_ZNK14Updatable_heapI8N_puzzleILi4EEE7pointerERKS1_.isra.0+0x2c>
80002f58:	01452783          	lw	a5,20(a0)
80002f5c:	00800713          	li	a4,8
80002f60:	ff0794e3          	bne	a5,a6,80002f48 <_ZNK14Updatable_heapI8N_puzzleILi4EEE7pointerERKS1_.isra.0+0x50>
80002f64:	ffc70793          	addi	a5,a4,-4
80002f68:	00f505b3          	add	a1,a0,a5
80002f6c:	00f606b3          	add	a3,a2,a5
80002f70:	00058583          	lb	a1,0(a1)
80002f74:	00068683          	lb	a3,0(a3)
80002f78:	00178793          	addi	a5,a5,1
80002f7c:	fcd596e3          	bne	a1,a3,80002f48 <_ZNK14Updatable_heapI8N_puzzleILi4EEE7pointerERKS1_.isra.0+0x50>
80002f80:	fef714e3          	bne	a4,a5,80002f68 <_ZNK14Updatable_heapI8N_puzzleILi4EEE7pointerERKS1_.isra.0+0x70>
80002f84:	00470713          	addi	a4,a4,4
80002f88:	fc671ee3          	bne	a4,t1,80002f64 <_ZNK14Updatable_heapI8N_puzzleILi4EEE7pointerERKS1_.isra.0+0x6c>
80002f8c:	00008067          	ret

80002f90 <bench_15pz_prepare>:
80002f90:	00008067          	ret

80002f94 <bench_15pz_validate>:
80002f94:	00003797          	auipc	a5,0x3
80002f98:	7b47a783          	lw	a5,1972(a5) # 80006748 <setting>
80002f9c:	00c7a503          	lw	a0,12(a5)
80002fa0:	00003797          	auipc	a5,0x3
80002fa4:	7b87a783          	lw	a5,1976(a5) # 80006758 <_ZL3ans>
80002fa8:	40f50533          	sub	a0,a0,a5
80002fac:	00153513          	seqz	a0,a0
80002fb0:	00008067          	ret

80002fb4 <_ZN8N_puzzleILi4EEC1Ev>:
80002fb4:	f9010113          	addi	sp,sp,-112
80002fb8:	05412c23          	sw	s4,88(sp)
80002fbc:	05812423          	sw	s8,72(sp)
80002fc0:	06112623          	sw	ra,108(sp)
80002fc4:	06812423          	sw	s0,104(sp)
80002fc8:	06912223          	sw	s1,100(sp)
80002fcc:	07212023          	sw	s2,96(sp)
80002fd0:	05312e23          	sw	s3,92(sp)
80002fd4:	05512a23          	sw	s5,84(sp)
80002fd8:	05612823          	sw	s6,80(sp)
80002fdc:	05712623          	sw	s7,76(sp)
80002fe0:	05912223          	sw	s9,68(sp)
80002fe4:	00100793          	li	a5,1
80002fe8:	00010a13          	mv	s4,sp
80002fec:	00f50023          	sb	a5,0(a0)
80002ff0:	00050c13          	mv	s8,a0
80002ff4:	000501a3          	sb	zero,3(a0)
80002ff8:	000a0713          	mv	a4,s4
80002ffc:	00000793          	li	a5,0
80003000:	01000693          	li	a3,16
80003004:	00f72023          	sw	a5,0(a4)
80003008:	00178793          	addi	a5,a5,1
8000300c:	00470713          	addi	a4,a4,4
80003010:	fed79ae3          	bne	a5,a3,80003004 <_ZN8N_puzzleILi4EEC1Ev+0x50>
80003014:	000c0413          	mv	s0,s8
80003018:	00000993          	li	s3,0
8000301c:	00000c93          	li	s9,0
80003020:	00400913          	li	s2,4
80003024:	ff000a93          	li	s5,-16
80003028:	000a0b93          	mv	s7,s4
8000302c:	00000b13          	li	s6,0
80003030:	01098493          	addi	s1,s3,16
80003034:	ccdff0ef          	jal	80002d00 <bench_rand>
80003038:	416487b3          	sub	a5,s1,s6
8000303c:	02f576b3          	remu	a3,a0,a5
80003040:	016405b3          	add	a1,s0,s6
80003044:	00269693          	slli	a3,a3,0x2
80003048:	04068793          	addi	a5,a3,64
8000304c:	002787b3          	add	a5,a5,sp
80003050:	fc07a603          	lw	a2,-64(a5)
80003054:	fff60513          	addi	a0,a2,-1
80003058:	41f55793          	srai	a5,a0,0x1f
8000305c:	01e7d813          	srli	a6,a5,0x1e
80003060:	01050733          	add	a4,a0,a6
80003064:	0037f793          	andi	a5,a5,3
80003068:	00a787b3          	add	a5,a5,a0
8000306c:	00377713          	andi	a4,a4,3
80003070:	41070733          	sub	a4,a4,a6
80003074:	4027d793          	srai	a5,a5,0x2
80003078:	41670733          	sub	a4,a4,s6
8000307c:	419787b3          	sub	a5,a5,s9
80003080:	41f7d813          	srai	a6,a5,0x1f
80003084:	41f75513          	srai	a0,a4,0x1f
80003088:	00f847b3          	xor	a5,a6,a5
8000308c:	00e54733          	xor	a4,a0,a4
80003090:	410787b3          	sub	a5,a5,a6
80003094:	40a70733          	sub	a4,a4,a0
80003098:	00c58223          	sb	a2,4(a1)
8000309c:	00e787b3          	add	a5,a5,a4
800030a0:	0a061263          	bnez	a2,80003144 <_ZN8N_puzzleILi4EEC1Ev+0x190>
800030a4:	019c00a3          	sb	s9,1(s8)
800030a8:	016c0123          	sb	s6,2(s8)
800030ac:	03cba783          	lw	a5,60(s7)
800030b0:	04068713          	addi	a4,a3,64
800030b4:	002706b3          	add	a3,a4,sp
800030b8:	001b0b13          	addi	s6,s6,1
800030bc:	fcf6a023          	sw	a5,-64(a3)
800030c0:	ffcb8b93          	addi	s7,s7,-4
800030c4:	f72b18e3          	bne	s6,s2,80003034 <_ZN8N_puzzleILi4EEC1Ev+0x80>
800030c8:	ffc98993          	addi	s3,s3,-4
800030cc:	001c8c93          	addi	s9,s9,1
800030d0:	ff0a0a13          	addi	s4,s4,-16
800030d4:	00440413          	addi	s0,s0,4
800030d8:	f55998e3          	bne	s3,s5,80003028 <_ZN8N_puzzleILi4EEC1Ev+0x74>
800030dc:	004c0693          	addi	a3,s8,4
800030e0:	014c0513          	addi	a0,s8,20
800030e4:	00000713          	li	a4,0
800030e8:	7b500593          	li	a1,1973
800030ec:	ffc68793          	addi	a5,a3,-4
800030f0:	02b70733          	mul	a4,a4,a1
800030f4:	00478603          	lb	a2,4(a5)
800030f8:	00178793          	addi	a5,a5,1
800030fc:	00c70733          	add	a4,a4,a2
80003100:	fef698e3          	bne	a3,a5,800030f0 <_ZN8N_puzzleILi4EEC1Ev+0x13c>
80003104:	00468693          	addi	a3,a3,4
80003108:	fea692e3          	bne	a3,a0,800030ec <_ZN8N_puzzleILi4EEC1Ev+0x138>
8000310c:	06c12083          	lw	ra,108(sp)
80003110:	06812403          	lw	s0,104(sp)
80003114:	00ec2a23          	sw	a4,20(s8)
80003118:	06412483          	lw	s1,100(sp)
8000311c:	06012903          	lw	s2,96(sp)
80003120:	05c12983          	lw	s3,92(sp)
80003124:	05812a03          	lw	s4,88(sp)
80003128:	05412a83          	lw	s5,84(sp)
8000312c:	05012b03          	lw	s6,80(sp)
80003130:	04c12b83          	lw	s7,76(sp)
80003134:	04812c03          	lw	s8,72(sp)
80003138:	04412c83          	lw	s9,68(sp)
8000313c:	07010113          	addi	sp,sp,112
80003140:	00008067          	ret
80003144:	003c4703          	lbu	a4,3(s8)
80003148:	00e787b3          	add	a5,a5,a4
8000314c:	00fc01a3          	sb	a5,3(s8)
80003150:	f5dff06f          	j	800030ac <_ZN8N_puzzleILi4EEC1Ev+0xf8>

80003154 <_ZN8N_puzzleILi4EEC1EPi>:
80003154:	fe010113          	addi	sp,sp,-32
80003158:	00100793          	li	a5,1
8000315c:	00812e23          	sw	s0,28(sp)
80003160:	00f50023          	sb	a5,0(a0)
80003164:	000501a3          	sb	zero,3(a0)
80003168:	00012023          	sw	zero,0(sp)
8000316c:	00012223          	sw	zero,4(sp)
80003170:	00012423          	sw	zero,8(sp)
80003174:	00012623          	sw	zero,12(sp)
80003178:	00050313          	mv	t1,a0
8000317c:	00000893          	li	a7,0
80003180:	00000f13          	li	t5,0
80003184:	00100e93          	li	t4,1
80003188:	00400e13          	li	t3,4
8000318c:	01000f93          	li	t6,16
80003190:	002f1813          	slli	a6,t5,0x2
80003194:	01058833          	add	a6,a1,a6
80003198:	00000693          	li	a3,0
8000319c:	00082603          	lw	a2,0(a6)
800031a0:	00d302b3          	add	t0,t1,a3
800031a4:	fff60393          	addi	t2,a2,-1
800031a8:	41f3d793          	srai	a5,t2,0x1f
800031ac:	01e7d413          	srli	s0,a5,0x1e
800031b0:	00838733          	add	a4,t2,s0
800031b4:	00377713          	andi	a4,a4,3
800031b8:	40870733          	sub	a4,a4,s0
800031bc:	0037f793          	andi	a5,a5,3
800031c0:	007787b3          	add	a5,a5,t2
800031c4:	40d70733          	sub	a4,a4,a3
800031c8:	41f75393          	srai	t2,a4,0x1f
800031cc:	4027d793          	srai	a5,a5,0x2
800031d0:	411787b3          	sub	a5,a5,a7
800031d4:	00e3c733          	xor	a4,t2,a4
800031d8:	41f7d413          	srai	s0,a5,0x1f
800031dc:	40770733          	sub	a4,a4,t2
800031e0:	01060393          	addi	t2,a2,16
800031e4:	00f447b3          	xor	a5,s0,a5
800031e8:	002383b3          	add	t2,t2,sp
800031ec:	408787b3          	sub	a5,a5,s0
800031f0:	00c28223          	sb	a2,4(t0)
800031f4:	ffd38823          	sb	t4,-16(t2) # 7ff0 <_entry_offset+0x7ff0>
800031f8:	00e787b3          	add	a5,a5,a4
800031fc:	08061063          	bnez	a2,8000327c <_ZN8N_puzzleILi4EEC1EPi+0x128>
80003200:	011500a3          	sb	a7,1(a0)
80003204:	00d50123          	sb	a3,2(a0)
80003208:	00168693          	addi	a3,a3,1
8000320c:	00480813          	addi	a6,a6,4
80003210:	f9c696e3          	bne	a3,t3,8000319c <_ZN8N_puzzleILi4EEC1EPi+0x48>
80003214:	004f0f13          	addi	t5,t5,4
80003218:	00188893          	addi	a7,a7,1
8000321c:	00430313          	addi	t1,t1,4
80003220:	f7ff18e3          	bne	t5,t6,80003190 <_ZN8N_puzzleILi4EEC1EPi+0x3c>
80003224:	00010793          	mv	a5,sp
80003228:	01010693          	addi	a3,sp,16
8000322c:	0007c703          	lbu	a4,0(a5)
80003230:	00178793          	addi	a5,a5,1
80003234:	04070c63          	beqz	a4,8000328c <_ZN8N_puzzleILi4EEC1EPi+0x138>
80003238:	fed79ae3          	bne	a5,a3,8000322c <_ZN8N_puzzleILi4EEC1EPi+0xd8>
8000323c:	00450613          	addi	a2,a0,4
80003240:	01450813          	addi	a6,a0,20
80003244:	00000713          	li	a4,0
80003248:	7b500593          	li	a1,1973
8000324c:	ffc60793          	addi	a5,a2,-4
80003250:	02b70733          	mul	a4,a4,a1
80003254:	00478683          	lb	a3,4(a5)
80003258:	00178793          	addi	a5,a5,1
8000325c:	00d70733          	add	a4,a4,a3
80003260:	fec798e3          	bne	a5,a2,80003250 <_ZN8N_puzzleILi4EEC1EPi+0xfc>
80003264:	00478613          	addi	a2,a5,4
80003268:	fec812e3          	bne	a6,a2,8000324c <_ZN8N_puzzleILi4EEC1EPi+0xf8>
8000326c:	01c12403          	lw	s0,28(sp)
80003270:	00e52a23          	sw	a4,20(a0)
80003274:	02010113          	addi	sp,sp,32
80003278:	00008067          	ret
8000327c:	00354703          	lbu	a4,3(a0)
80003280:	00e787b3          	add	a5,a5,a4
80003284:	00f501a3          	sb	a5,3(a0)
80003288:	f81ff06f          	j	80003208 <_ZN8N_puzzleILi4EEC1EPi+0xb4>
8000328c:	01c12403          	lw	s0,28(sp)
80003290:	00050023          	sb	zero,0(a0)
80003294:	02010113          	addi	sp,sp,32
80003298:	00008067          	ret

8000329c <_ZNK8N_puzzleILi4EE8solvableEv>:
8000329c:	00050e13          	mv	t3,a0
800032a0:	00054503          	lbu	a0,0(a0)
800032a4:	0a050463          	beqz	a0,8000334c <_ZNK8N_puzzleILi4EE8solvableEv+0xb0>
800032a8:	fc010113          	addi	sp,sp,-64
800032ac:	004e0613          	addi	a2,t3,4
800032b0:	014e0513          	addi	a0,t3,20
800032b4:	00010593          	mv	a1,sp
800032b8:	ffc60793          	addi	a5,a2,-4
800032bc:	00058693          	mv	a3,a1
800032c0:	00478703          	lb	a4,4(a5)
800032c4:	00178793          	addi	a5,a5,1
800032c8:	00071463          	bnez	a4,800032d0 <_ZNK8N_puzzleILi4EE8solvableEv+0x34>
800032cc:	01000713          	li	a4,16
800032d0:	00e6a023          	sw	a4,0(a3)
800032d4:	00468693          	addi	a3,a3,4
800032d8:	fec794e3          	bne	a5,a2,800032c0 <_ZNK8N_puzzleILi4EE8solvableEv+0x24>
800032dc:	00478613          	addi	a2,a5,4
800032e0:	01058593          	addi	a1,a1,16
800032e4:	fcc51ae3          	bne	a0,a2,800032b8 <_ZNK8N_puzzleILi4EE8solvableEv+0x1c>
800032e8:	00410813          	addi	a6,sp,4
800032ec:	00000693          	li	a3,0
800032f0:	00100893          	li	a7,1
800032f4:	04010593          	addi	a1,sp,64
800032f8:	01000313          	li	t1,16
800032fc:	ffc82603          	lw	a2,-4(a6)
80003300:	00080793          	mv	a5,a6
80003304:	0007a703          	lw	a4,0(a5)
80003308:	00478793          	addi	a5,a5,4
8000330c:	00c72733          	slt	a4,a4,a2
80003310:	00e686b3          	add	a3,a3,a4
80003314:	fef598e3          	bne	a1,a5,80003304 <_ZNK8N_puzzleILi4EE8solvableEv+0x68>
80003318:	00188893          	addi	a7,a7,1
8000331c:	00480813          	addi	a6,a6,4
80003320:	fc689ee3          	bne	a7,t1,800032fc <_ZNK8N_puzzleILi4EE8solvableEv+0x60>
80003324:	001e4703          	lbu	a4,1(t3)
80003328:	002e4783          	lbu	a5,2(t3)
8000332c:	00600513          	li	a0,6
80003330:	40e50533          	sub	a0,a0,a4
80003334:	40f50533          	sub	a0,a0,a5
80003338:	00d50533          	add	a0,a0,a3
8000333c:	fff54513          	not	a0,a0
80003340:	00157513          	andi	a0,a0,1
80003344:	04010113          	addi	sp,sp,64
80003348:	00008067          	ret
8000334c:	00008067          	ret

80003350 <_ZN14Updatable_heapI8N_puzzleILi4EEE12percolate_upEi>:
80003350:	00100793          	li	a5,1
80003354:	06f58263          	beq	a1,a5,800033b8 <_ZN14Updatable_heapI8N_puzzleILi4EEE12percolate_upEi+0x68>
80003358:	00852503          	lw	a0,8(a0)
8000335c:	00259793          	slli	a5,a1,0x2
80003360:	00100e13          	li	t3,1
80003364:	00f507b3          	add	a5,a0,a5
80003368:	0007a803          	lw	a6,0(a5)
8000336c:	02482303          	lw	t1,36(a6)
80003370:	01c0006f          	j	8000338c <_ZN14Updatable_heapI8N_puzzleILi4EEE12percolate_upEi+0x3c>
80003374:	00c72023          	sw	a2,0(a4)
80003378:	0107a023          	sw	a6,0(a5)
8000337c:	00072783          	lw	a5,0(a4)
80003380:	00b82e23          	sw	a1,28(a6)
80003384:	00d7ae23          	sw	a3,28(a5)
80003388:	03c58863          	beq	a1,t3,800033b8 <_ZN14Updatable_heapI8N_puzzleILi4EEE12percolate_upEi+0x68>
8000338c:	01f5d793          	srli	a5,a1,0x1f
80003390:	00b787b3          	add	a5,a5,a1
80003394:	00058693          	mv	a3,a1
80003398:	4017d593          	srai	a1,a5,0x1
8000339c:	00259793          	slli	a5,a1,0x2
800033a0:	00f507b3          	add	a5,a0,a5
800033a4:	0007a603          	lw	a2,0(a5)
800033a8:	00269713          	slli	a4,a3,0x2
800033ac:	00e50733          	add	a4,a0,a4
800033b0:	02462883          	lw	a7,36(a2)
800033b4:	fd1340e3          	blt	t1,a7,80003374 <_ZN14Updatable_heapI8N_puzzleILi4EEE12percolate_upEi+0x24>
800033b8:	00008067          	ret

800033bc <_ZN14Updatable_heapI8N_puzzleILi4EEE4pushERKS1_i>:
800033bc:	fe010113          	addi	sp,sp,-32
800033c0:	01312623          	sw	s3,12(sp)
800033c4:	00052983          	lw	s3,0(a0)
800033c8:	00912a23          	sw	s1,20(sp)
800033cc:	00058493          	mv	s1,a1
800033d0:	00452583          	lw	a1,4(a0)
800033d4:	00812c23          	sw	s0,24(sp)
800033d8:	01212823          	sw	s2,16(sp)
800033dc:	00050413          	mv	s0,a0
800033e0:	00060913          	mv	s2,a2
800033e4:	00098513          	mv	a0,s3
800033e8:	00048613          	mv	a2,s1
800033ec:	00112e23          	sw	ra,28(sp)
800033f0:	b09ff0ef          	jal	80002ef8 <_ZNK14Updatable_heapI8N_puzzleILi4EEE7pointerERKS1_.isra.0>
800033f4:	04050263          	beqz	a0,80003438 <_ZN14Updatable_heapI8N_puzzleILi4EEE4pushERKS1_i+0x7c>
800033f8:	02854783          	lbu	a5,40(a0)
800033fc:	02079063          	bnez	a5,8000341c <_ZN14Updatable_heapI8N_puzzleILi4EEE4pushERKS1_i+0x60>
80003400:	00054703          	lbu	a4,0(a0)
80003404:	04000793          	li	a5,64
80003408:	00070463          	beqz	a4,80003410 <_ZN14Updatable_heapI8N_puzzleILi4EEE4pushERKS1_i+0x54>
8000340c:	00350783          	lb	a5,3(a0)
80003410:	02452703          	lw	a4,36(a0)
80003414:	00f90933          	add	s2,s2,a5
80003418:	12e94663          	blt	s2,a4,80003544 <_ZN14Updatable_heapI8N_puzzleILi4EEE4pushERKS1_i+0x188>
8000341c:	01c12083          	lw	ra,28(sp)
80003420:	01812403          	lw	s0,24(sp)
80003424:	01412483          	lw	s1,20(sp)
80003428:	01012903          	lw	s2,16(sp)
8000342c:	00c12983          	lw	s3,12(sp)
80003430:	02010113          	addi	sp,sp,32
80003434:	00008067          	ret
80003438:	00c42783          	lw	a5,12(s0)
8000343c:	14f9c263          	blt	s3,a5,80003580 <_ZN14Updatable_heapI8N_puzzleILi4EEE4pushERKS1_i+0x1c4>
80003440:	00178793          	addi	a5,a5,1
80003444:	00f42623          	sw	a5,12(s0)
80003448:	03000513          	li	a0,48
8000344c:	ff8ff0ef          	jal	80002c44 <bench_alloc>
80003450:	0004c883          	lbu	a7,0(s1)
80003454:	00442803          	lw	a6,4(s0)
80003458:	0144a683          	lw	a3,20(s1)
8000345c:	00000713          	li	a4,0
80003460:	0c089e63          	bnez	a7,8000353c <_ZN14Updatable_heapI8N_puzzleILi4EEE4pushERKS1_i+0x180>
80003464:	00042603          	lw	a2,0(s0)
80003468:	00c42983          	lw	s3,12(s0)
8000346c:	00450793          	addi	a5,a0,4
80003470:	fff60613          	addi	a2,a2,-1
80003474:	00e67733          	and	a4,a2,a4
80003478:	00271713          	slli	a4,a4,0x2
8000347c:	00e80733          	add	a4,a6,a4
80003480:	00072e03          	lw	t3,0(a4)
80003484:	01150023          	sb	a7,0(a0)
80003488:	0014c303          	lbu	t1,1(s1)
8000348c:	00448713          	addi	a4,s1,4
80003490:	01450593          	addi	a1,a0,20
80003494:	006500a3          	sb	t1,1(a0)
80003498:	0024c303          	lbu	t1,2(s1)
8000349c:	00650123          	sb	t1,2(a0)
800034a0:	00348303          	lb	t1,3(s1)
800034a4:	00d52a23          	sw	a3,20(a0)
800034a8:	006501a3          	sb	t1,3(a0)
800034ac:	00072683          	lw	a3,0(a4)
800034b0:	00478793          	addi	a5,a5,4
800034b4:	00470713          	addi	a4,a4,4
800034b8:	fed7ae23          	sw	a3,-4(a5)
800034bc:	feb798e3          	bne	a5,a1,800034ac <_ZN14Updatable_heapI8N_puzzleILi4EEE4pushERKS1_i+0xf0>
800034c0:	01c52c23          	sw	t3,24(a0)
800034c4:	01352e23          	sw	s3,28(a0)
800034c8:	03252023          	sw	s2,32(a0)
800034cc:	0a088063          	beqz	a7,8000356c <_ZN14Updatable_heapI8N_puzzleILi4EEE4pushERKS1_i+0x1b0>
800034d0:	0144a783          	lw	a5,20(s1)
800034d4:	01230333          	add	t1,t1,s2
800034d8:	02652223          	sw	t1,36(a0)
800034dc:	00f67633          	and	a2,a2,a5
800034e0:	00261613          	slli	a2,a2,0x2
800034e4:	02050423          	sb	zero,40(a0)
800034e8:	02052623          	sw	zero,44(a0)
800034ec:	00c80833          	add	a6,a6,a2
800034f0:	00842783          	lw	a5,8(s0)
800034f4:	00299713          	slli	a4,s3,0x2
800034f8:	00a82023          	sw	a0,0(a6)
800034fc:	00e787b3          	add	a5,a5,a4
80003500:	00a7a023          	sw	a0,0(a5)
80003504:	00098593          	mv	a1,s3
80003508:	00040513          	mv	a0,s0
8000350c:	e45ff0ef          	jal	80003350 <_ZN14Updatable_heapI8N_puzzleILi4EEE12percolate_upEi>
80003510:	01042783          	lw	a5,16(s0)
80003514:	0137d463          	bge	a5,s3,8000351c <_ZN14Updatable_heapI8N_puzzleILi4EEE4pushERKS1_i+0x160>
80003518:	00098793          	mv	a5,s3
8000351c:	01c12083          	lw	ra,28(sp)
80003520:	00f42823          	sw	a5,16(s0)
80003524:	01812403          	lw	s0,24(sp)
80003528:	01412483          	lw	s1,20(sp)
8000352c:	01012903          	lw	s2,16(sp)
80003530:	00c12983          	lw	s3,12(sp)
80003534:	02010113          	addi	sp,sp,32
80003538:	00008067          	ret
8000353c:	00068713          	mv	a4,a3
80003540:	f25ff06f          	j	80003464 <_ZN14Updatable_heapI8N_puzzleILi4EEE4pushERKS1_i+0xa8>
80003544:	03252223          	sw	s2,36(a0)
80003548:	01c52583          	lw	a1,28(a0)
8000354c:	00040513          	mv	a0,s0
80003550:	01812403          	lw	s0,24(sp)
80003554:	01c12083          	lw	ra,28(sp)
80003558:	01412483          	lw	s1,20(sp)
8000355c:	01012903          	lw	s2,16(sp)
80003560:	00c12983          	lw	s3,12(sp)
80003564:	02010113          	addi	sp,sp,32
80003568:	de9ff06f          	j	80003350 <_ZN14Updatable_heapI8N_puzzleILi4EEE12percolate_upEi>
8000356c:	04090913          	addi	s2,s2,64
80003570:	03252223          	sw	s2,36(a0)
80003574:	02050423          	sb	zero,40(a0)
80003578:	02052623          	sw	zero,44(a0)
8000357c:	f75ff06f          	j	800034f0 <_ZN14Updatable_heapI8N_puzzleILi4EEE4pushERKS1_i+0x134>
80003580:	09800613          	li	a2,152
80003584:	00002597          	auipc	a1,0x2
80003588:	5d058593          	addi	a1,a1,1488 # 80005b54 <_etext+0x3a4>
8000358c:	00002517          	auipc	a0,0x2
80003590:	27450513          	addi	a0,a0,628 # 80005800 <_etext+0x50>
80003594:	0e4020ef          	jal	80005678 <printf>
80003598:	00100513          	li	a0,1
8000359c:	768010ef          	jal	80004d04 <halt>

800035a0 <_ZN14Updatable_heapI8N_puzzleILi4EEE14percolate_downEv>:
800035a0:	00c52f83          	lw	t6,12(a0)
800035a4:	00200793          	li	a5,2
800035a8:	0ff7da63          	bge	a5,t6,8000369c <_ZN14Updatable_heapI8N_puzzleILi4EEE14percolate_downEv+0xfc>
800035ac:	00852803          	lw	a6,8(a0)
800035b0:	00100613          	li	a2,1
800035b4:	00200693          	li	a3,2
800035b8:	00261793          	slli	a5,a2,0x2
800035bc:	00f808b3          	add	a7,a6,a5
800035c0:	00f887b3          	add	a5,a7,a5
800035c4:	0007a303          	lw	t1,0(a5)
800035c8:	0008ae83          	lw	t4,0(a7)
800035cc:	00361793          	slli	a5,a2,0x3
800035d0:	00f807b3          	add	a5,a6,a5
800035d4:	0047a783          	lw	a5,4(a5)
800035d8:	024eaf03          	lw	t5,36(t4)
800035dc:	02432303          	lw	t1,36(t1)
800035e0:	00168e13          	addi	t3,a3,1
800035e4:	00269713          	slli	a4,a3,0x2
800035e8:	002e1593          	slli	a1,t3,0x2
800035ec:	0247a783          	lw	a5,36(a5)
800035f0:	00e80733          	add	a4,a6,a4
800035f4:	00b805b3          	add	a1,a6,a1
800035f8:	006f5463          	bge	t5,t1,80003600 <_ZN14Updatable_heapI8N_puzzleILi4EEE14percolate_downEv+0x60>
800035fc:	02ff4863          	blt	t5,a5,8000362c <_ZN14Updatable_heapI8N_puzzleILi4EEE14percolate_downEv+0x8c>
80003600:	02f35863          	bge	t1,a5,80003630 <_ZN14Updatable_heapI8N_puzzleILi4EEE14percolate_downEv+0x90>
80003604:	00072783          	lw	a5,0(a4)
80003608:	01d72023          	sw	t4,0(a4)
8000360c:	00f8a023          	sw	a5,0(a7)
80003610:	00072703          	lw	a4,0(a4)
80003614:	00c7ae23          	sw	a2,28(a5)
80003618:	00068613          	mv	a2,a3
8000361c:	00d72e23          	sw	a3,28(a4)
80003620:	00161693          	slli	a3,a2,0x1
80003624:	f9f6cae3          	blt	a3,t6,800035b8 <_ZN14Updatable_heapI8N_puzzleILi4EEE14percolate_downEv+0x18>
80003628:	03f68463          	beq	a3,t6,80003650 <_ZN14Updatable_heapI8N_puzzleILi4EEE14percolate_downEv+0xb0>
8000362c:	00008067          	ret
80003630:	0005a783          	lw	a5,0(a1)
80003634:	01d5a023          	sw	t4,0(a1)
80003638:	00f8a023          	sw	a5,0(a7)
8000363c:	0005a703          	lw	a4,0(a1)
80003640:	00c7ae23          	sw	a2,28(a5)
80003644:	000e0613          	mv	a2,t3
80003648:	01c72e23          	sw	t3,28(a4)
8000364c:	fd5ff06f          	j	80003620 <_ZN14Updatable_heapI8N_puzzleILi4EEE14percolate_downEv+0x80>
80003650:	00852583          	lw	a1,8(a0)
80003654:	00261793          	slli	a5,a2,0x2
80003658:	00361713          	slli	a4,a2,0x3
8000365c:	00e58733          	add	a4,a1,a4
80003660:	00f587b3          	add	a5,a1,a5
80003664:	00072803          	lw	a6,0(a4)
80003668:	0007a503          	lw	a0,0(a5)
8000366c:	02482803          	lw	a6,36(a6)
80003670:	02452703          	lw	a4,36(a0)
80003674:	fae85ce3          	bge	a6,a4,8000362c <_ZN14Updatable_heapI8N_puzzleILi4EEE14percolate_downEv+0x8c>
80003678:	00269713          	slli	a4,a3,0x2
8000367c:	00e585b3          	add	a1,a1,a4
80003680:	0005a703          	lw	a4,0(a1)
80003684:	00a5a023          	sw	a0,0(a1)
80003688:	00e7a023          	sw	a4,0(a5)
8000368c:	0005a783          	lw	a5,0(a1)
80003690:	00c72e23          	sw	a2,28(a4)
80003694:	00d7ae23          	sw	a3,28(a5)
80003698:	00008067          	ret
8000369c:	00200693          	li	a3,2
800036a0:	00100613          	li	a2,1
800036a4:	f9f694e3          	bne	a3,t6,8000362c <_ZN14Updatable_heapI8N_puzzleILi4EEE14percolate_downEv+0x8c>
800036a8:	fa9ff06f          	j	80003650 <_ZN14Updatable_heapI8N_puzzleILi4EEE14percolate_downEv+0xb0>

800036ac <bench_15pz_run>:
800036ac:	f2010113          	addi	sp,sp,-224
800036b0:	01810513          	addi	a0,sp,24
800036b4:	0c112e23          	sw	ra,220(sp)
800036b8:	0c912a23          	sw	s1,212(sp)
800036bc:	0d512223          	sw	s5,196(sp)
800036c0:	0ba12823          	sw	s10,176(sp)
800036c4:	8f1ff0ef          	jal	80002fb4 <_ZN8N_puzzleILi4EEC1Ev>
800036c8:	00003797          	auipc	a5,0x3
800036cc:	0807a783          	lw	a5,128(a5) # 80006748 <setting>
800036d0:	0007a783          	lw	a5,0(a5)
800036d4:	00200713          	li	a4,2
800036d8:	06e784e3          	beq	a5,a4,80003f40 <bench_15pz_run+0x894>
800036dc:	00f748e3          	blt	a4,a5,80003eec <bench_15pz_run+0x840>
800036e0:	04078e63          	beqz	a5,8000373c <bench_15pz_run+0x90>
800036e4:	00100713          	li	a4,1
800036e8:	10e790e3          	bne	a5,a4,80003fe8 <bench_15pz_run+0x93c>
800036ec:	06010493          	addi	s1,sp,96
800036f0:	00003597          	auipc	a1,0x3
800036f4:	d6858593          	addi	a1,a1,-664 # 80006458 <_ZL8PUZZLE_M>
800036f8:	00048513          	mv	a0,s1
800036fc:	a59ff0ef          	jal	80003154 <_ZN8N_puzzleILi4EEC1EPi>
80003700:	06012783          	lw	a5,96(sp)
80003704:	01c10713          	addi	a4,sp,28
80003708:	07010a93          	addi	s5,sp,112
8000370c:	00f12c23          	sw	a5,24(sp)
80003710:	07412783          	lw	a5,116(sp)
80003714:	02f12623          	sw	a5,44(sp)
80003718:	00048793          	mv	a5,s1
8000371c:	0047a683          	lw	a3,4(a5)
80003720:	00478793          	addi	a5,a5,4
80003724:	00470713          	addi	a4,a4,4
80003728:	fed72e23          	sw	a3,-4(a4)
8000372c:	fefa98e3          	bne	s5,a5,8000371c <bench_15pz_run+0x70>
80003730:	00001d37          	lui	s10,0x1
80003734:	800d0d13          	addi	s10,s10,-2048 # 800 <_entry_offset+0x800>
80003738:	04c0006f          	j	80003784 <bench_15pz_run+0xd8>
8000373c:	06010493          	addi	s1,sp,96
80003740:	00003597          	auipc	a1,0x3
80003744:	d5858593          	addi	a1,a1,-680 # 80006498 <_ZL8PUZZLE_S>
80003748:	00048513          	mv	a0,s1
8000374c:	a09ff0ef          	jal	80003154 <_ZN8N_puzzleILi4EEC1EPi>
80003750:	06012783          	lw	a5,96(sp)
80003754:	01c10713          	addi	a4,sp,28
80003758:	07010a93          	addi	s5,sp,112
8000375c:	00f12c23          	sw	a5,24(sp)
80003760:	07412783          	lw	a5,116(sp)
80003764:	02f12623          	sw	a5,44(sp)
80003768:	00048793          	mv	a5,s1
8000376c:	0047a683          	lw	a3,4(a5)
80003770:	00478793          	addi	a5,a5,4
80003774:	00470713          	addi	a4,a4,4
80003778:	fed72e23          	sw	a3,-4(a4)
8000377c:	ff5798e3          	bne	a5,s5,8000376c <bench_15pz_run+0xc0>
80003780:	00a00d13          	li	s10,10
80003784:	01810513          	addi	a0,sp,24
80003788:	b15ff0ef          	jal	8000329c <_ZNK8N_puzzleILi4EE8solvableEv>
8000378c:	0c812c23          	sw	s0,216(sp)
80003790:	0d212823          	sw	s2,208(sp)
80003794:	7e050c63          	beqz	a0,80003f8c <bench_15pz_run+0x8e0>
80003798:	01400513          	li	a0,20
8000379c:	ca8ff0ef          	jal	80002c44 <bench_alloc>
800037a0:	00050413          	mv	s0,a0
800037a4:	01a52023          	sw	s10,0(a0)
800037a8:	002d1513          	slli	a0,s10,0x2
800037ac:	c98ff0ef          	jal	80002c44 <bench_alloc>
800037b0:	00042783          	lw	a5,0(s0)
800037b4:	00a42423          	sw	a0,8(s0)
800037b8:	00178793          	addi	a5,a5,1
800037bc:	00279513          	slli	a0,a5,0x2
800037c0:	c84ff0ef          	jal	80002c44 <bench_alloc>
800037c4:	00042683          	lw	a3,0(s0)
800037c8:	00a42223          	sw	a0,4(s0)
800037cc:	00042623          	sw	zero,12(s0)
800037d0:	00269713          	slli	a4,a3,0x2
800037d4:	00042823          	sw	zero,16(s0)
800037d8:	00050793          	mv	a5,a0
800037dc:	00e50733          	add	a4,a0,a4
800037e0:	00d05863          	blez	a3,800037f0 <bench_15pz_run+0x144>
800037e4:	0007a023          	sw	zero,0(a5)
800037e8:	00478793          	addi	a5,a5,4
800037ec:	fef71ce3          	bne	a4,a5,800037e4 <bench_15pz_run+0x138>
800037f0:	00000613          	li	a2,0
800037f4:	01810593          	addi	a1,sp,24
800037f8:	00040513          	mv	a0,s0
800037fc:	bc1ff0ef          	jal	800033bc <_ZN14Updatable_heapI8N_puzzleILi4EEE4pushERKS1_i>
80003800:	00c42603          	lw	a2,12(s0)
80003804:	fff00793          	li	a5,-1
80003808:	00003717          	auipc	a4,0x3
8000380c:	f5070713          	addi	a4,a4,-176 # 80006758 <_ZL3ans>
80003810:	00f72023          	sw	a5,0(a4)
80003814:	00000913          	li	s2,0
80003818:	18060463          	beqz	a2,800039a0 <bench_15pz_run+0x2f4>
8000381c:	0d312623          	sw	s3,204(sp)
80003820:	0b812c23          	sw	s8,184(sp)
80003824:	0d412423          	sw	s4,200(sp)
80003828:	0d612023          	sw	s6,192(sp)
8000382c:	0b712e23          	sw	s7,188(sp)
80003830:	0b912a23          	sw	s9,180(sp)
80003834:	0bb12623          	sw	s11,172(sp)
80003838:	04010993          	addi	s3,sp,64
8000383c:	00400c13          	li	s8,4
80003840:	00842803          	lw	a6,8(s0)
80003844:	06410693          	addi	a3,sp,100
80003848:	00482703          	lw	a4,4(a6)
8000384c:	00074c83          	lbu	s9,0(a4)
80003850:	00174a03          	lbu	s4,1(a4)
80003854:	00274b03          	lbu	s6,2(a4)
80003858:	00370b83          	lb	s7,3(a4)
8000385c:	00072883          	lw	a7,0(a4)
80003860:	01472d83          	lw	s11,20(a4)
80003864:	00470793          	addi	a5,a4,4
80003868:	01470713          	addi	a4,a4,20
8000386c:	0007a583          	lw	a1,0(a5)
80003870:	00478793          	addi	a5,a5,4
80003874:	00468693          	addi	a3,a3,4
80003878:	feb6ae23          	sw	a1,-4(a3)
8000387c:	fee798e3          	bne	a5,a4,8000386c <bench_15pz_run+0x1c0>
80003880:	00100793          	li	a5,1
80003884:	64f60063          	beq	a2,a5,80003ec4 <bench_15pz_run+0x818>
80003888:	74c7d063          	bge	a5,a2,80003fc8 <bench_15pz_run+0x91c>
8000388c:	00261713          	slli	a4,a2,0x2
80003890:	00e80733          	add	a4,a6,a4
80003894:	00072703          	lw	a4,0(a4)
80003898:	fff60613          	addi	a2,a2,-1
8000389c:	00040513          	mv	a0,s0
800038a0:	00e82223          	sw	a4,4(a6)
800038a4:	00f72e23          	sw	a5,28(a4)
800038a8:	00c42623          	sw	a2,12(s0)
800038ac:	01112623          	sw	a7,12(sp)
800038b0:	cf1ff0ef          	jal	800035a0 <_ZN14Updatable_heapI8N_puzzleILi4EEE14percolate_downEv>
800038b4:	00c12883          	lw	a7,12(sp)
800038b8:	03112823          	sw	a7,48(sp)
800038bc:	05b12223          	sw	s11,68(sp)
800038c0:	03410713          	addi	a4,sp,52
800038c4:	00048793          	mv	a5,s1
800038c8:	0047a683          	lw	a3,4(a5)
800038cc:	00478793          	addi	a5,a5,4
800038d0:	00470713          	addi	a4,a4,4
800038d4:	fed72e23          	sw	a3,-4(a4)
800038d8:	fefa98e3          	bne	s5,a5,800038c8 <bench_15pz_run+0x21c>
800038dc:	00190913          	addi	s2,s2,1
800038e0:	00048713          	mv	a4,s1
800038e4:	00000793          	li	a5,0
800038e8:	00f00693          	li	a3,15
800038ec:	00178793          	addi	a5,a5,1
800038f0:	00f72023          	sw	a5,0(a4)
800038f4:	00470713          	addi	a4,a4,4
800038f8:	fed79ae3          	bne	a5,a3,800038ec <bench_15pz_run+0x240>
800038fc:	00048593          	mv	a1,s1
80003900:	04810513          	addi	a0,sp,72
80003904:	08012e23          	sw	zero,156(sp)
80003908:	84dff0ef          	jal	80003154 <_ZN8N_puzzleILi4EEC1EPi>
8000390c:	460c8c63          	beqz	s9,80003d84 <bench_15pz_run+0x6d8>
80003910:	04814783          	lbu	a5,72(sp)
80003914:	0a078663          	beqz	a5,800039c0 <bench_15pz_run+0x314>
80003918:	05c12783          	lw	a5,92(sp)
8000391c:	0bb79263          	bne	a5,s11,800039c0 <bench_15pz_run+0x314>
80003920:	03010613          	addi	a2,sp,48
80003924:	04810593          	addi	a1,sp,72
80003928:	00000793          	li	a5,0
8000392c:	00f606b3          	add	a3,a2,a5
80003930:	00f58733          	add	a4,a1,a5
80003934:	00468683          	lb	a3,4(a3)
80003938:	00470703          	lb	a4,4(a4)
8000393c:	08e69263          	bne	a3,a4,800039c0 <bench_15pz_run+0x314>
80003940:	00178793          	addi	a5,a5,1
80003944:	ff8794e3          	bne	a5,s8,8000392c <bench_15pz_run+0x280>
80003948:	00460613          	addi	a2,a2,4
8000394c:	00458593          	addi	a1,a1,4
80003950:	fcc99ce3          	bne	s3,a2,80003928 <bench_15pz_run+0x27c>
80003954:	00442583          	lw	a1,4(s0)
80003958:	00042503          	lw	a0,0(s0)
8000395c:	03010613          	addi	a2,sp,48
80003960:	d98ff0ef          	jal	80002ef8 <_ZNK14Updatable_heapI8N_puzzleILi4EEE7pointerERKS1_.isra.0>
80003964:	800007b7          	lui	a5,0x80000
80003968:	fff78793          	addi	a5,a5,-1 # 7fffffff <_entry_offset+0x7fffffff>
8000396c:	00050463          	beqz	a0,80003974 <bench_15pz_run+0x2c8>
80003970:	02052783          	lw	a5,32(a0)
80003974:	02f907b3          	mul	a5,s2,a5
80003978:	00003717          	auipc	a4,0x3
8000397c:	de070713          	addi	a4,a4,-544 # 80006758 <_ZL3ans>
80003980:	00f72023          	sw	a5,0(a4)
80003984:	0cc12983          	lw	s3,204(sp)
80003988:	0c812a03          	lw	s4,200(sp)
8000398c:	0c012b03          	lw	s6,192(sp)
80003990:	0bc12b83          	lw	s7,188(sp)
80003994:	0b812c03          	lw	s8,184(sp)
80003998:	0b412c83          	lw	s9,180(sp)
8000399c:	0ac12d83          	lw	s11,172(sp)
800039a0:	0d812403          	lw	s0,216(sp)
800039a4:	0dc12083          	lw	ra,220(sp)
800039a8:	0d012903          	lw	s2,208(sp)
800039ac:	0d412483          	lw	s1,212(sp)
800039b0:	0c412a83          	lw	s5,196(sp)
800039b4:	0b012d03          	lw	s10,176(sp)
800039b8:	0e010113          	addi	sp,sp,224
800039bc:	00008067          	ret
800039c0:	00300693          	li	a3,3
800039c4:	0ffbfb93          	zext.b	s7,s7
800039c8:	06410713          	addi	a4,sp,100
800039cc:	03010793          	addi	a5,sp,48
800039d0:	3cdb0263          	beq	s6,a3,80003d94 <bench_15pz_run+0x6e8>
800039d4:	0047a683          	lw	a3,4(a5)
800039d8:	00478793          	addi	a5,a5,4
800039dc:	00470713          	addi	a4,a4,4
800039e0:	fed72e23          	sw	a3,-4(a4)
800039e4:	fef998e3          	bne	s3,a5,800039d4 <bench_15pz_run+0x328>
800039e8:	002a1d93          	slli	s11,s4,0x2
800039ec:	090d8793          	addi	a5,s11,144
800039f0:	01010713          	addi	a4,sp,16
800039f4:	001b0693          	addi	a3,s6,1
800039f8:	00e78633          	add	a2,a5,a4
800039fc:	00d607b3          	add	a5,a2,a3
80003a00:	f9478583          	lb	a1,-108(a5)
80003a04:	016608b3          	add	a7,a2,s6
80003a08:	0ff6f513          	zext.b	a0,a3
80003a0c:	fff58793          	addi	a5,a1,-1
80003a10:	41f7d713          	srai	a4,a5,0x1f
80003a14:	01e75713          	srli	a4,a4,0x1e
80003a18:	00e787b3          	add	a5,a5,a4
80003a1c:	0037f793          	andi	a5,a5,3
80003a20:	40e787b3          	sub	a5,a5,a4
80003a24:	41678733          	sub	a4,a5,s6
80003a28:	40d787b3          	sub	a5,a5,a3
80003a2c:	41f75e13          	srai	t3,a4,0x1f
80003a30:	41f7d313          	srai	t1,a5,0x1f
80003a34:	00ee4833          	xor	a6,t3,a4
80003a38:	00f347b3          	xor	a5,t1,a5
80003a3c:	41c80833          	sub	a6,a6,t3
80003a40:	406787b3          	sub	a5,a5,t1
80003a44:	40f80833          	sub	a6,a6,a5
80003a48:	010b8833          	add	a6,s7,a6
80003a4c:	fcb88223          	sb	a1,-60(a7)
80003a50:	00a60633          	add	a2,a2,a0
80003a54:	01881813          	slli	a6,a6,0x18
80003a58:	fc060223          	sb	zero,-60(a2)
80003a5c:	41885813          	srai	a6,a6,0x18
80003a60:	0ff6f893          	zext.b	a7,a3
80003a64:	00048593          	mv	a1,s1
80003a68:	06410613          	addi	a2,sp,100
80003a6c:	07410c93          	addi	s9,sp,116
80003a70:	00000713          	li	a4,0
80003a74:	7b500513          	li	a0,1973
80003a78:	ffc60793          	addi	a5,a2,-4
80003a7c:	02a70733          	mul	a4,a4,a0
80003a80:	00478683          	lb	a3,4(a5)
80003a84:	00178793          	addi	a5,a5,1
80003a88:	00d70733          	add	a4,a4,a3
80003a8c:	fec798e3          	bne	a5,a2,80003a7c <bench_15pz_run+0x3d0>
80003a90:	00478613          	addi	a2,a5,4
80003a94:	fecc92e3          	bne	s9,a2,80003a78 <bench_15pz_run+0x3cc>
80003a98:	04c10793          	addi	a5,sp,76
80003a9c:	00078693          	mv	a3,a5
80003aa0:	00f12623          	sw	a5,12(sp)
80003aa4:	00100793          	li	a5,1
80003aa8:	04f10423          	sb	a5,72(sp)
80003aac:	054104a3          	sb	s4,73(sp)
80003ab0:	00068793          	mv	a5,a3
80003ab4:	05110523          	sb	a7,74(sp)
80003ab8:	050105a3          	sb	a6,75(sp)
80003abc:	04e12e23          	sw	a4,92(sp)
80003ac0:	01048693          	addi	a3,s1,16
80003ac4:	0045a703          	lw	a4,4(a1)
80003ac8:	00458593          	addi	a1,a1,4
80003acc:	00478793          	addi	a5,a5,4
80003ad0:	fee7ae23          	sw	a4,-4(a5)
80003ad4:	feb698e3          	bne	a3,a1,80003ac4 <bench_15pz_run+0x418>
80003ad8:	00442583          	lw	a1,4(s0)
80003adc:	00042503          	lw	a0,0(s0)
80003ae0:	03010613          	addi	a2,sp,48
80003ae4:	c14ff0ef          	jal	80002ef8 <_ZNK14Updatable_heapI8N_puzzleILi4EEE7pointerERKS1_.isra.0>
80003ae8:	3e050263          	beqz	a0,80003ecc <bench_15pz_run+0x820>
80003aec:	02052603          	lw	a2,32(a0)
80003af0:	00160613          	addi	a2,a2,1
80003af4:	04810593          	addi	a1,sp,72
80003af8:	00040513          	mv	a0,s0
80003afc:	8c1ff0ef          	jal	800033bc <_ZN14Updatable_heapI8N_puzzleILi4EEE4pushERKS1_i>
80003b00:	2a0b1263          	bnez	s6,80003da4 <bench_15pz_run+0x6f8>
80003b04:	00300693          	li	a3,3
80003b08:	06410713          	addi	a4,sp,100
80003b0c:	03010793          	addi	a5,sp,48
80003b10:	12da0e63          	beq	s4,a3,80003c4c <bench_15pz_run+0x5a0>
80003b14:	0047a683          	lw	a3,4(a5)
80003b18:	00478793          	addi	a5,a5,4
80003b1c:	00470713          	addi	a4,a4,4
80003b20:	fed72e23          	sw	a3,-4(a4)
80003b24:	fef998e3          	bne	s3,a5,80003b14 <bench_15pz_run+0x468>
80003b28:	001a0693          	addi	a3,s4,1
80003b2c:	00269793          	slli	a5,a3,0x2
80003b30:	01010713          	addi	a4,sp,16
80003b34:	09078793          	addi	a5,a5,144
80003b38:	00e787b3          	add	a5,a5,a4
80003b3c:	016787b3          	add	a5,a5,s6
80003b40:	f9478603          	lb	a2,-108(a5)
80003b44:	0ff6f593          	zext.b	a1,a3
80003b48:	fff60713          	addi	a4,a2,-1
80003b4c:	41f75793          	srai	a5,a4,0x1f
80003b50:	0037f793          	andi	a5,a5,3
80003b54:	00e787b3          	add	a5,a5,a4
80003b58:	4027d793          	srai	a5,a5,0x2
80003b5c:	41478733          	sub	a4,a5,s4
80003b60:	40d787b3          	sub	a5,a5,a3
80003b64:	41f75893          	srai	a7,a4,0x1f
80003b68:	41f7d513          	srai	a0,a5,0x1f
80003b6c:	00e8c833          	xor	a6,a7,a4
80003b70:	00f547b3          	xor	a5,a0,a5
80003b74:	40a787b3          	sub	a5,a5,a0
80003b78:	41180833          	sub	a6,a6,a7
80003b7c:	00259713          	slli	a4,a1,0x2
80003b80:	40f80833          	sub	a6,a6,a5
80003b84:	01010593          	addi	a1,sp,16
80003b88:	090d8793          	addi	a5,s11,144
80003b8c:	00b785b3          	add	a1,a5,a1
80003b90:	09070793          	addi	a5,a4,144
80003b94:	01010713          	addi	a4,sp,16
80003b98:	016585b3          	add	a1,a1,s6
80003b9c:	00e787b3          	add	a5,a5,a4
80003ba0:	010b8833          	add	a6,s7,a6
80003ba4:	fcc58223          	sb	a2,-60(a1)
80003ba8:	016787b3          	add	a5,a5,s6
80003bac:	01881813          	slli	a6,a6,0x18
80003bb0:	0ff6f893          	zext.b	a7,a3
80003bb4:	41885813          	srai	a6,a6,0x18
80003bb8:	fc078223          	sb	zero,-60(a5)
80003bbc:	00048593          	mv	a1,s1
80003bc0:	06410693          	addi	a3,sp,100
80003bc4:	00000713          	li	a4,0
80003bc8:	7b500513          	li	a0,1973
80003bcc:	ffc68793          	addi	a5,a3,-4
80003bd0:	02a70733          	mul	a4,a4,a0
80003bd4:	00478603          	lb	a2,4(a5)
80003bd8:	00178793          	addi	a5,a5,1
80003bdc:	00c70733          	add	a4,a4,a2
80003be0:	fef698e3          	bne	a3,a5,80003bd0 <bench_15pz_run+0x524>
80003be4:	00468693          	addi	a3,a3,4
80003be8:	ff9692e3          	bne	a3,s9,80003bcc <bench_15pz_run+0x520>
80003bec:	00100793          	li	a5,1
80003bf0:	04f10423          	sb	a5,72(sp)
80003bf4:	00c12783          	lw	a5,12(sp)
80003bf8:	051104a3          	sb	a7,73(sp)
80003bfc:	05610523          	sb	s6,74(sp)
80003c00:	050105a3          	sb	a6,75(sp)
80003c04:	04e12e23          	sw	a4,92(sp)
80003c08:	01048693          	addi	a3,s1,16
80003c0c:	0045a703          	lw	a4,4(a1)
80003c10:	00458593          	addi	a1,a1,4
80003c14:	00478793          	addi	a5,a5,4
80003c18:	fee7ae23          	sw	a4,-4(a5)
80003c1c:	fed598e3          	bne	a1,a3,80003c0c <bench_15pz_run+0x560>
80003c20:	00442583          	lw	a1,4(s0)
80003c24:	00042503          	lw	a0,0(s0)
80003c28:	03010613          	addi	a2,sp,48
80003c2c:	accff0ef          	jal	80002ef8 <_ZNK14Updatable_heapI8N_puzzleILi4EEE7pointerERKS1_.isra.0>
80003c30:	2a050263          	beqz	a0,80003ed4 <bench_15pz_run+0x828>
80003c34:	02052603          	lw	a2,32(a0)
80003c38:	00160613          	addi	a2,a2,1
80003c3c:	04810593          	addi	a1,sp,72
80003c40:	00040513          	mv	a0,s0
80003c44:	f78ff0ef          	jal	800033bc <_ZN14Updatable_heapI8N_puzzleILi4EEE4pushERKS1_i>
80003c48:	120a0e63          	beqz	s4,80003d84 <bench_15pz_run+0x6d8>
80003c4c:	06410713          	addi	a4,sp,100
80003c50:	03010793          	addi	a5,sp,48
80003c54:	0047a683          	lw	a3,4(a5)
80003c58:	00478793          	addi	a5,a5,4
80003c5c:	00470713          	addi	a4,a4,4
80003c60:	fed72e23          	sw	a3,-4(a4)
80003c64:	ff3798e3          	bne	a5,s3,80003c54 <bench_15pz_run+0x5a8>
80003c68:	fffa0713          	addi	a4,s4,-1
80003c6c:	00271793          	slli	a5,a4,0x2
80003c70:	01010693          	addi	a3,sp,16
80003c74:	09078793          	addi	a5,a5,144
80003c78:	00d787b3          	add	a5,a5,a3
80003c7c:	016787b3          	add	a5,a5,s6
80003c80:	f9478683          	lb	a3,-108(a5)
80003c84:	01010613          	addi	a2,sp,16
80003c88:	090d8793          	addi	a5,s11,144
80003c8c:	fff68593          	addi	a1,a3,-1
80003c90:	00c78633          	add	a2,a5,a2
80003c94:	41f5d793          	srai	a5,a1,0x1f
80003c98:	0037f793          	andi	a5,a5,3
80003c9c:	00b787b3          	add	a5,a5,a1
80003ca0:	4027d793          	srai	a5,a5,0x2
80003ca4:	41478a33          	sub	s4,a5,s4
80003ca8:	40e787b3          	sub	a5,a5,a4
80003cac:	41fa5593          	srai	a1,s4,0x1f
80003cb0:	0ff77813          	zext.b	a6,a4
80003cb4:	41f7d713          	srai	a4,a5,0x1f
80003cb8:	0145c8b3          	xor	a7,a1,s4
80003cbc:	00f747b3          	xor	a5,a4,a5
80003cc0:	40e787b3          	sub	a5,a5,a4
80003cc4:	40b888b3          	sub	a7,a7,a1
80003cc8:	00281713          	slli	a4,a6,0x2
80003ccc:	40f888b3          	sub	a7,a7,a5
80003cd0:	09070793          	addi	a5,a4,144
80003cd4:	01010713          	addi	a4,sp,16
80003cd8:	00e787b3          	add	a5,a5,a4
80003cdc:	01660633          	add	a2,a2,s6
80003ce0:	011b88b3          	add	a7,s7,a7
80003ce4:	fcd60223          	sb	a3,-60(a2)
80003ce8:	016787b3          	add	a5,a5,s6
80003cec:	01889893          	slli	a7,a7,0x18
80003cf0:	4188d893          	srai	a7,a7,0x18
80003cf4:	fc078223          	sb	zero,-60(a5)
80003cf8:	00048593          	mv	a1,s1
80003cfc:	06410693          	addi	a3,sp,100
80003d00:	00000713          	li	a4,0
80003d04:	7b500513          	li	a0,1973
80003d08:	ffc68793          	addi	a5,a3,-4
80003d0c:	02a70733          	mul	a4,a4,a0
80003d10:	00478603          	lb	a2,4(a5)
80003d14:	00178793          	addi	a5,a5,1
80003d18:	00c70733          	add	a4,a4,a2
80003d1c:	fef698e3          	bne	a3,a5,80003d0c <bench_15pz_run+0x660>
80003d20:	00468693          	addi	a3,a3,4
80003d24:	ff9692e3          	bne	a3,s9,80003d08 <bench_15pz_run+0x65c>
80003d28:	00100793          	li	a5,1
80003d2c:	04f10423          	sb	a5,72(sp)
80003d30:	00c12783          	lw	a5,12(sp)
80003d34:	050104a3          	sb	a6,73(sp)
80003d38:	05610523          	sb	s6,74(sp)
80003d3c:	051105a3          	sb	a7,75(sp)
80003d40:	04e12e23          	sw	a4,92(sp)
80003d44:	01048693          	addi	a3,s1,16
80003d48:	0045a703          	lw	a4,4(a1)
80003d4c:	00458593          	addi	a1,a1,4
80003d50:	00478793          	addi	a5,a5,4
80003d54:	fee7ae23          	sw	a4,-4(a5)
80003d58:	feb698e3          	bne	a3,a1,80003d48 <bench_15pz_run+0x69c>
80003d5c:	00442583          	lw	a1,4(s0)
80003d60:	00042503          	lw	a0,0(s0)
80003d64:	03010613          	addi	a2,sp,48
80003d68:	990ff0ef          	jal	80002ef8 <_ZNK14Updatable_heapI8N_puzzleILi4EEE7pointerERKS1_.isra.0>
80003d6c:	16050863          	beqz	a0,80003edc <bench_15pz_run+0x830>
80003d70:	02052603          	lw	a2,32(a0)
80003d74:	00160613          	addi	a2,a2,1
80003d78:	04810593          	addi	a1,sp,72
80003d7c:	00040513          	mv	a0,s0
80003d80:	e3cff0ef          	jal	800033bc <_ZN14Updatable_heapI8N_puzzleILi4EEE4pushERKS1_i>
80003d84:	00c42603          	lw	a2,12(s0)
80003d88:	be060ee3          	beqz	a2,80003984 <bench_15pz_run+0x2d8>
80003d8c:	ab2d1ae3          	bne	s10,s2,80003840 <bench_15pz_run+0x194>
80003d90:	bf5ff06f          	j	80003984 <bench_15pz_run+0x2d8>
80003d94:	04c10793          	addi	a5,sp,76
80003d98:	002a1d93          	slli	s11,s4,0x2
80003d9c:	07410c93          	addi	s9,sp,116
80003da0:	00f12623          	sw	a5,12(sp)
80003da4:	06410713          	addi	a4,sp,100
80003da8:	03010793          	addi	a5,sp,48
80003dac:	0047a683          	lw	a3,4(a5)
80003db0:	00478793          	addi	a5,a5,4
80003db4:	00470713          	addi	a4,a4,4
80003db8:	fed72e23          	sw	a3,-4(a4)
80003dbc:	fef998e3          	bne	s3,a5,80003dac <bench_15pz_run+0x700>
80003dc0:	090d8793          	addi	a5,s11,144
80003dc4:	01010713          	addi	a4,sp,16
80003dc8:	fffb0513          	addi	a0,s6,-1
80003dcc:	00e786b3          	add	a3,a5,a4
80003dd0:	00a687b3          	add	a5,a3,a0
80003dd4:	f9478603          	lb	a2,-108(a5)
80003dd8:	0ff57813          	zext.b	a6,a0
80003ddc:	016685b3          	add	a1,a3,s6
80003de0:	fff60793          	addi	a5,a2,-1
80003de4:	41f7d713          	srai	a4,a5,0x1f
80003de8:	01e75713          	srli	a4,a4,0x1e
80003dec:	00e787b3          	add	a5,a5,a4
80003df0:	0037f793          	andi	a5,a5,3
80003df4:	40e787b3          	sub	a5,a5,a4
80003df8:	41678733          	sub	a4,a5,s6
80003dfc:	40a787b3          	sub	a5,a5,a0
80003e00:	41f75313          	srai	t1,a4,0x1f
80003e04:	41f7d513          	srai	a0,a5,0x1f
80003e08:	00e348b3          	xor	a7,t1,a4
80003e0c:	00f547b3          	xor	a5,a0,a5
80003e10:	40a787b3          	sub	a5,a5,a0
80003e14:	406888b3          	sub	a7,a7,t1
80003e18:	40f888b3          	sub	a7,a7,a5
80003e1c:	011b88b3          	add	a7,s7,a7
80003e20:	fcc58223          	sb	a2,-60(a1)
80003e24:	010686b3          	add	a3,a3,a6
80003e28:	01889893          	slli	a7,a7,0x18
80003e2c:	fc068223          	sb	zero,-60(a3)
80003e30:	4188d893          	srai	a7,a7,0x18
80003e34:	00048593          	mv	a1,s1
80003e38:	06410693          	addi	a3,sp,100
80003e3c:	00000713          	li	a4,0
80003e40:	7b500513          	li	a0,1973
80003e44:	ffc68793          	addi	a5,a3,-4
80003e48:	02a70733          	mul	a4,a4,a0
80003e4c:	00478603          	lb	a2,4(a5)
80003e50:	00178793          	addi	a5,a5,1
80003e54:	00c70733          	add	a4,a4,a2
80003e58:	fef698e3          	bne	a3,a5,80003e48 <bench_15pz_run+0x79c>
80003e5c:	00468693          	addi	a3,a3,4
80003e60:	ff9692e3          	bne	a3,s9,80003e44 <bench_15pz_run+0x798>
80003e64:	00100793          	li	a5,1
80003e68:	04f10423          	sb	a5,72(sp)
80003e6c:	00c12783          	lw	a5,12(sp)
80003e70:	054104a3          	sb	s4,73(sp)
80003e74:	05010523          	sb	a6,74(sp)
80003e78:	051105a3          	sb	a7,75(sp)
80003e7c:	04e12e23          	sw	a4,92(sp)
80003e80:	01048693          	addi	a3,s1,16
80003e84:	0045a703          	lw	a4,4(a1)
80003e88:	00458593          	addi	a1,a1,4
80003e8c:	00478793          	addi	a5,a5,4
80003e90:	fee7ae23          	sw	a4,-4(a5)
80003e94:	fed598e3          	bne	a1,a3,80003e84 <bench_15pz_run+0x7d8>
80003e98:	00442583          	lw	a1,4(s0)
80003e9c:	00042503          	lw	a0,0(s0)
80003ea0:	03010613          	addi	a2,sp,48
80003ea4:	854ff0ef          	jal	80002ef8 <_ZNK14Updatable_heapI8N_puzzleILi4EEE7pointerERKS1_.isra.0>
80003ea8:	02050e63          	beqz	a0,80003ee4 <bench_15pz_run+0x838>
80003eac:	02052603          	lw	a2,32(a0)
80003eb0:	00160613          	addi	a2,a2,1
80003eb4:	04810593          	addi	a1,sp,72
80003eb8:	00040513          	mv	a0,s0
80003ebc:	d00ff0ef          	jal	800033bc <_ZN14Updatable_heapI8N_puzzleILi4EEE4pushERKS1_i>
80003ec0:	c45ff06f          	j	80003b04 <bench_15pz_run+0x458>
80003ec4:	00042623          	sw	zero,12(s0)
80003ec8:	9f1ff06f          	j	800038b8 <bench_15pz_run+0x20c>
80003ecc:	80000637          	lui	a2,0x80000
80003ed0:	c25ff06f          	j	80003af4 <bench_15pz_run+0x448>
80003ed4:	80000637          	lui	a2,0x80000
80003ed8:	d65ff06f          	j	80003c3c <bench_15pz_run+0x590>
80003edc:	80000637          	lui	a2,0x80000
80003ee0:	e99ff06f          	j	80003d78 <bench_15pz_run+0x6cc>
80003ee4:	80000637          	lui	a2,0x80000
80003ee8:	fcdff06f          	j	80003eb4 <bench_15pz_run+0x808>
80003eec:	00300713          	li	a4,3
80003ef0:	0ee79c63          	bne	a5,a4,80003fe8 <bench_15pz_run+0x93c>
80003ef4:	06010493          	addi	s1,sp,96
80003ef8:	00002597          	auipc	a1,0x2
80003efc:	4e058593          	addi	a1,a1,1248 # 800063d8 <_ZL8PUZZLE_H>
80003f00:	00048513          	mv	a0,s1
80003f04:	a50ff0ef          	jal	80003154 <_ZN8N_puzzleILi4EEC1EPi>
80003f08:	06012783          	lw	a5,96(sp)
80003f0c:	01c10713          	addi	a4,sp,28
80003f10:	07010a93          	addi	s5,sp,112
80003f14:	00f12c23          	sw	a5,24(sp)
80003f18:	07412783          	lw	a5,116(sp)
80003f1c:	02f12623          	sw	a5,44(sp)
80003f20:	00048793          	mv	a5,s1
80003f24:	0047a683          	lw	a3,4(a5)
80003f28:	00478793          	addi	a5,a5,4
80003f2c:	00470713          	addi	a4,a4,4
80003f30:	fed72e23          	sw	a3,-4(a4)
80003f34:	fefa98e3          	bne	s5,a5,80003f24 <bench_15pz_run+0x878>
80003f38:	000c0d37          	lui	s10,0xc0
80003f3c:	849ff06f          	j	80003784 <bench_15pz_run+0xd8>
80003f40:	06010493          	addi	s1,sp,96
80003f44:	00002597          	auipc	a1,0x2
80003f48:	4d458593          	addi	a1,a1,1236 # 80006418 <_ZL8PUZZLE_L>
80003f4c:	00048513          	mv	a0,s1
80003f50:	a04ff0ef          	jal	80003154 <_ZN8N_puzzleILi4EEC1EPi>
80003f54:	06012783          	lw	a5,96(sp)
80003f58:	01c10713          	addi	a4,sp,28
80003f5c:	07010a93          	addi	s5,sp,112
80003f60:	00f12c23          	sw	a5,24(sp)
80003f64:	07412783          	lw	a5,116(sp)
80003f68:	02f12623          	sw	a5,44(sp)
80003f6c:	00048793          	mv	a5,s1
80003f70:	0047a683          	lw	a3,4(a5)
80003f74:	00478793          	addi	a5,a5,4
80003f78:	00470713          	addi	a4,a4,4
80003f7c:	fed72e23          	sw	a3,-4(a4)
80003f80:	fefa98e3          	bne	s5,a5,80003f70 <bench_15pz_run+0x8c4>
80003f84:	00004d37          	lui	s10,0x4
80003f88:	ffcff06f          	j	80003784 <bench_15pz_run+0xd8>
80003f8c:	0d312623          	sw	s3,204(sp)
80003f90:	0d412423          	sw	s4,200(sp)
80003f94:	0d612023          	sw	s6,192(sp)
80003f98:	0b712e23          	sw	s7,188(sp)
80003f9c:	0b812c23          	sw	s8,184(sp)
80003fa0:	0b912a23          	sw	s9,180(sp)
80003fa4:	0bb12623          	sw	s11,172(sp)
80003fa8:	03500613          	li	a2,53
80003fac:	00002597          	auipc	a1,0x2
80003fb0:	bf458593          	addi	a1,a1,-1036 # 80005ba0 <_etext+0x3f0>
80003fb4:	00002517          	auipc	a0,0x2
80003fb8:	84c50513          	addi	a0,a0,-1972 # 80005800 <_etext+0x50>
80003fbc:	6bc010ef          	jal	80005678 <printf>
80003fc0:	00100513          	li	a0,1
80003fc4:	541000ef          	jal	80004d04 <halt>
80003fc8:	05600613          	li	a2,86
80003fcc:	00002597          	auipc	a1,0x2
80003fd0:	b8858593          	addi	a1,a1,-1144 # 80005b54 <_etext+0x3a4>
80003fd4:	00002517          	auipc	a0,0x2
80003fd8:	82c50513          	addi	a0,a0,-2004 # 80005800 <_etext+0x50>
80003fdc:	69c010ef          	jal	80005678 <printf>
80003fe0:	00100513          	li	a0,1
80003fe4:	521000ef          	jal	80004d04 <halt>
80003fe8:	0c812c23          	sw	s0,216(sp)
80003fec:	0d212823          	sw	s2,208(sp)
80003ff0:	0d312623          	sw	s3,204(sp)
80003ff4:	0d412423          	sw	s4,200(sp)
80003ff8:	0d612023          	sw	s6,192(sp)
80003ffc:	0b712e23          	sw	s7,188(sp)
80004000:	0b812c23          	sw	s8,184(sp)
80004004:	0b912a23          	sw	s9,180(sp)
80004008:	0bb12623          	sw	s11,172(sp)
8000400c:	03300613          	li	a2,51
80004010:	f9dff06f          	j	80003fac <bench_15pz_run+0x900>

80004014 <bench_fib_prepare>:
80004014:	00002797          	auipc	a5,0x2
80004018:	7347a783          	lw	a5,1844(a5) # 80006748 <setting>
8000401c:	0007a783          	lw	a5,0(a5)
80004020:	ff010113          	addi	sp,sp,-16
80004024:	00812423          	sw	s0,8(sp)
80004028:	02f78433          	mul	s0,a5,a5
8000402c:	00112623          	sw	ra,12(sp)
80004030:	00002717          	auipc	a4,0x2
80004034:	72f72e23          	sw	a5,1852(a4) # 8000676c <M>
80004038:	00241413          	slli	s0,s0,0x2
8000403c:	00040513          	mv	a0,s0
80004040:	c05fe0ef          	jal	80002c44 <bench_alloc>
80004044:	00050793          	mv	a5,a0
80004048:	00040513          	mv	a0,s0
8000404c:	00002717          	auipc	a4,0x2
80004050:	70f72e23          	sw	a5,1820(a4) # 80006768 <A>
80004054:	bf1fe0ef          	jal	80002c44 <bench_alloc>
80004058:	00050793          	mv	a5,a0
8000405c:	00040513          	mv	a0,s0
80004060:	00002717          	auipc	a4,0x2
80004064:	70f72023          	sw	a5,1792(a4) # 80006760 <T>
80004068:	bddfe0ef          	jal	80002c44 <bench_alloc>
8000406c:	00050793          	mv	a5,a0
80004070:	00040513          	mv	a0,s0
80004074:	00002717          	auipc	a4,0x2
80004078:	6ef72823          	sw	a5,1776(a4) # 80006764 <ans>
8000407c:	bc9fe0ef          	jal	80002c44 <bench_alloc>
80004080:	00c12083          	lw	ra,12(sp)
80004084:	00812403          	lw	s0,8(sp)
80004088:	00002797          	auipc	a5,0x2
8000408c:	6ca7aa23          	sw	a0,1748(a5) # 8000675c <tmp>
80004090:	01010113          	addi	sp,sp,16
80004094:	00008067          	ret

80004098 <bench_fib_run>:
80004098:	fd010113          	addi	sp,sp,-48
8000409c:	00002317          	auipc	t1,0x2
800040a0:	6d032303          	lw	t1,1744(t1) # 8000676c <M>
800040a4:	02812623          	sw	s0,44(sp)
800040a8:	02912423          	sw	s1,40(sp)
800040ac:	03212223          	sw	s2,36(sp)
800040b0:	03312023          	sw	s3,32(sp)
800040b4:	01412e23          	sw	s4,28(sp)
800040b8:	01512c23          	sw	s5,24(sp)
800040bc:	01612a23          	sw	s6,20(sp)
800040c0:	01712823          	sw	s7,16(sp)
800040c4:	01812623          	sw	s8,12(sp)
800040c8:	00002e17          	auipc	t3,0x2
800040cc:	698e2e03          	lw	t3,1688(t3) # 80006760 <T>
800040d0:	00002f97          	auipc	t6,0x2
800040d4:	694faf83          	lw	t6,1684(t6) # 80006764 <ans>
800040d8:	00231593          	slli	a1,t1,0x2
800040dc:	06605c63          	blez	t1,80004154 <bench_fib_run+0xbc>
800040e0:	00002417          	auipc	s0,0x2
800040e4:	68842403          	lw	s0,1672(s0) # 80006768 <A>
800040e8:	fff30393          	addi	t2,t1,-1
800040ec:	00231593          	slli	a1,t1,0x2
800040f0:	00000f13          	li	t5,0
800040f4:	00000893          	li	a7,0
800040f8:	00000e93          	li	t4,0
800040fc:	001e8e93          	addi	t4,t4,1
80004100:	01e40833          	add	a6,s0,t5
80004104:	01ee0533          	add	a0,t3,t5
80004108:	01ef8633          	add	a2,t6,t5
8000410c:	00000793          	li	a5,0
80004110:	41178733          	sub	a4,a5,a7
80004114:	41d782b3          	sub	t0,a5,t4
80004118:	00173713          	seqz	a4,a4
8000411c:	00178793          	addi	a5,a5,1
80004120:	00100693          	li	a3,1
80004124:	01138463          	beq	t2,a7,8000412c <bench_fib_run+0x94>
80004128:	0012b693          	seqz	a3,t0
8000412c:	00d82023          	sw	a3,0(a6)
80004130:	00d52023          	sw	a3,0(a0)
80004134:	00e62023          	sw	a4,0(a2) # 80000000 <_start>
80004138:	00480813          	addi	a6,a6,4
8000413c:	00450513          	addi	a0,a0,4
80004140:	00460613          	addi	a2,a2,4
80004144:	fc6796e3          	bne	a5,t1,80004110 <bench_fib_run+0x78>
80004148:	00188893          	addi	a7,a7,1
8000414c:	00bf0f33          	add	t5,t5,a1
80004150:	fbd316e3          	bne	t1,t4,800040fc <bench_fib_run+0x64>
80004154:	00002397          	auipc	t2,0x2
80004158:	6083a383          	lw	t2,1544(t2) # 8000675c <tmp>
8000415c:	80000eb7          	lui	t4,0x80000
80004160:	40600433          	neg	s0,t1
80004164:	00bf89b3          	add	s3,t6,a1
80004168:	00b384b3          	add	s1,t2,a1
8000416c:	00be0933          	add	s2,t3,a1
80004170:	01f00293          	li	t0,31
80004174:	fd3e8e93          	addi	t4,t4,-45 # 7fffffd3 <_entry_offset+0x7fffffd3>
80004178:	00341f13          	slli	t5,s0,0x3
8000417c:	001ef793          	andi	a5,t4,1
80004180:	0e079863          	bnez	a5,80004270 <bench_fib_run+0x1d8>
80004184:	0a605a63          	blez	t1,80004238 <bench_fib_run+0x1a0>
80004188:	00038b93          	mv	s7,t2
8000418c:	00090893          	mv	a7,s2
80004190:	000e0b13          	mv	s6,t3
80004194:	00000c13          	li	s8,0
80004198:	000e0a13          	mv	s4,t3
8000419c:	000b8813          	mv	a6,s7
800041a0:	00000a93          	li	s5,0
800041a4:	00082023          	sw	zero,0(a6)
800041a8:	000a0613          	mv	a2,s4
800041ac:	000b0793          	mv	a5,s6
800041b0:	00000693          	li	a3,0
800041b4:	0007a703          	lw	a4,0(a5)
800041b8:	00062503          	lw	a0,0(a2)
800041bc:	00478793          	addi	a5,a5,4
800041c0:	00b60633          	add	a2,a2,a1
800041c4:	02a70733          	mul	a4,a4,a0
800041c8:	00e686b3          	add	a3,a3,a4
800041cc:	00d82023          	sw	a3,0(a6)
800041d0:	fef892e3          	bne	a7,a5,800041b4 <bench_fib_run+0x11c>
800041d4:	001a8a93          	addi	s5,s5,1
800041d8:	00480813          	addi	a6,a6,4
800041dc:	004a0a13          	addi	s4,s4,4
800041e0:	fc6a92e3          	bne	s5,t1,800041a4 <bench_fib_run+0x10c>
800041e4:	001c0c13          	addi	s8,s8,1
800041e8:	00bb0b33          	add	s6,s6,a1
800041ec:	00b888b3          	add	a7,a7,a1
800041f0:	00bb8bb3          	add	s7,s7,a1
800041f4:	fa6c12e3          	bne	s8,t1,80004198 <bench_fib_run+0x100>
800041f8:	00048613          	mv	a2,s1
800041fc:	000e0513          	mv	a0,t3
80004200:	00000893          	li	a7,0
80004204:	00341a13          	slli	s4,s0,0x3
80004208:	40b60833          	sub	a6,a2,a1
8000420c:	00050713          	mv	a4,a0
80004210:	00080793          	mv	a5,a6
80004214:	0007a683          	lw	a3,0(a5)
80004218:	00478793          	addi	a5,a5,4
8000421c:	00470713          	addi	a4,a4,4
80004220:	fed72e23          	sw	a3,-4(a4)
80004224:	fef618e3          	bne	a2,a5,80004214 <bench_fib_run+0x17c>
80004228:	00188893          	addi	a7,a7,1
8000422c:	00b50533          	add	a0,a0,a1
80004230:	41480633          	sub	a2,a6,s4
80004234:	fc689ae3          	bne	a7,t1,80004208 <bench_fib_run+0x170>
80004238:	fff28293          	addi	t0,t0,-1
8000423c:	401ede93          	srai	t4,t4,0x1
80004240:	f2029ee3          	bnez	t0,8000417c <bench_fib_run+0xe4>
80004244:	02c12403          	lw	s0,44(sp)
80004248:	02812483          	lw	s1,40(sp)
8000424c:	02412903          	lw	s2,36(sp)
80004250:	02012983          	lw	s3,32(sp)
80004254:	01c12a03          	lw	s4,28(sp)
80004258:	01812a83          	lw	s5,24(sp)
8000425c:	01412b03          	lw	s6,20(sp)
80004260:	01012b83          	lw	s7,16(sp)
80004264:	00c12c03          	lw	s8,12(sp)
80004268:	03010113          	addi	sp,sp,48
8000426c:	00008067          	ret
80004270:	fc6054e3          	blez	t1,80004238 <bench_fib_run+0x1a0>
80004274:	00038c13          	mv	s8,t2
80004278:	00098893          	mv	a7,s3
8000427c:	000f8b13          	mv	s6,t6
80004280:	00000b93          	li	s7,0
80004284:	000e0a13          	mv	s4,t3
80004288:	000c0813          	mv	a6,s8
8000428c:	00000a93          	li	s5,0
80004290:	00082023          	sw	zero,0(a6)
80004294:	000a0613          	mv	a2,s4
80004298:	000b0793          	mv	a5,s6
8000429c:	00000693          	li	a3,0
800042a0:	0007a703          	lw	a4,0(a5)
800042a4:	00062503          	lw	a0,0(a2)
800042a8:	00478793          	addi	a5,a5,4
800042ac:	00b60633          	add	a2,a2,a1
800042b0:	02a70733          	mul	a4,a4,a0
800042b4:	00e686b3          	add	a3,a3,a4
800042b8:	00d82023          	sw	a3,0(a6)
800042bc:	ff1792e3          	bne	a5,a7,800042a0 <bench_fib_run+0x208>
800042c0:	001a8a93          	addi	s5,s5,1
800042c4:	00480813          	addi	a6,a6,4
800042c8:	004a0a13          	addi	s4,s4,4
800042cc:	fc6a92e3          	bne	s5,t1,80004290 <bench_fib_run+0x1f8>
800042d0:	001b8b93          	addi	s7,s7,1
800042d4:	00bb0b33          	add	s6,s6,a1
800042d8:	00b788b3          	add	a7,a5,a1
800042dc:	00bc0c33          	add	s8,s8,a1
800042e0:	fa6b92e3          	bne	s7,t1,80004284 <bench_fib_run+0x1ec>
800042e4:	00048613          	mv	a2,s1
800042e8:	000f8813          	mv	a6,t6
800042ec:	00000513          	li	a0,0
800042f0:	40b608b3          	sub	a7,a2,a1
800042f4:	00080713          	mv	a4,a6
800042f8:	00088793          	mv	a5,a7
800042fc:	0007a683          	lw	a3,0(a5)
80004300:	00478793          	addi	a5,a5,4
80004304:	00470713          	addi	a4,a4,4
80004308:	fed72e23          	sw	a3,-4(a4)
8000430c:	fec798e3          	bne	a5,a2,800042fc <bench_fib_run+0x264>
80004310:	00150513          	addi	a0,a0,1
80004314:	00b80833          	add	a6,a6,a1
80004318:	41e88633          	sub	a2,a7,t5
8000431c:	fc651ae3          	bne	a0,t1,800042f0 <bench_fib_run+0x258>
80004320:	e69ff06f          	j	80004188 <bench_fib_run+0xf0>

80004324 <bench_fib_validate>:
80004324:	00002797          	auipc	a5,0x2
80004328:	4487a783          	lw	a5,1096(a5) # 8000676c <M>
8000432c:	02f787b3          	mul	a5,a5,a5
80004330:	00002717          	auipc	a4,0x2
80004334:	41872703          	lw	a4,1048(a4) # 80006748 <setting>
80004338:	00c72683          	lw	a3,12(a4)
8000433c:	00002717          	auipc	a4,0x2
80004340:	42872703          	lw	a4,1064(a4) # 80006764 <ans>
80004344:	fff78793          	addi	a5,a5,-1
80004348:	00279793          	slli	a5,a5,0x2
8000434c:	00f707b3          	add	a5,a4,a5
80004350:	0007a503          	lw	a0,0(a5)
80004354:	40d50533          	sub	a0,a0,a3
80004358:	00153513          	seqz	a0,a0
8000435c:	00008067          	ret

80004360 <bench_md5_prepare>:
80004360:	00002797          	auipc	a5,0x2
80004364:	3e87a783          	lw	a5,1000(a5) # 80006748 <setting>
80004368:	0007a783          	lw	a5,0(a5)
8000436c:	ff010113          	addi	sp,sp,-16
80004370:	00112623          	sw	ra,12(sp)
80004374:	00912223          	sw	s1,4(sp)
80004378:	01212023          	sw	s2,0(sp)
8000437c:	00002497          	auipc	s1,0x2
80004380:	3fc48493          	addi	s1,s1,1020 # 80006778 <N>
80004384:	00100513          	li	a0,1
80004388:	00f4a023          	sw	a5,0(s1)
8000438c:	961fe0ef          	jal	80002cec <bench_srand>
80004390:	0004a503          	lw	a0,0(s1)
80004394:	00002917          	auipc	s2,0x2
80004398:	3e090913          	addi	s2,s2,992 # 80006774 <str>
8000439c:	8a9fe0ef          	jal	80002c44 <bench_alloc>
800043a0:	0004a783          	lw	a5,0(s1)
800043a4:	00a92023          	sw	a0,0(s2)
800043a8:	02f05663          	blez	a5,800043d4 <bench_md5_prepare+0x74>
800043ac:	00812423          	sw	s0,8(sp)
800043b0:	00000413          	li	s0,0
800043b4:	94dfe0ef          	jal	80002d00 <bench_rand>
800043b8:	00092783          	lw	a5,0(s2)
800043bc:	0004a703          	lw	a4,0(s1)
800043c0:	008787b3          	add	a5,a5,s0
800043c4:	00a78023          	sb	a0,0(a5)
800043c8:	00140413          	addi	s0,s0,1
800043cc:	fee444e3          	blt	s0,a4,800043b4 <bench_md5_prepare+0x54>
800043d0:	00812403          	lw	s0,8(sp)
800043d4:	01000513          	li	a0,16
800043d8:	86dfe0ef          	jal	80002c44 <bench_alloc>
800043dc:	00c12083          	lw	ra,12(sp)
800043e0:	00002797          	auipc	a5,0x2
800043e4:	38a7a823          	sw	a0,912(a5) # 80006770 <digest>
800043e8:	00412483          	lw	s1,4(sp)
800043ec:	00012903          	lw	s2,0(sp)
800043f0:	01010113          	addi	sp,sp,16
800043f4:	00008067          	ret

800043f8 <bench_md5_run>:
800043f8:	00002617          	auipc	a2,0x2
800043fc:	38062603          	lw	a2,896(a2) # 80006778 <N>
80004400:	f9010113          	addi	sp,sp,-112
80004404:	00160793          	addi	a5,a2,1
80004408:	07212223          	sw	s2,100(sp)
8000440c:	07312023          	sw	s3,96(sp)
80004410:	00002917          	auipc	s2,0x2
80004414:	36492903          	lw	s2,868(s2) # 80006774 <str>
80004418:	06812623          	sw	s0,108(sp)
8000441c:	06912423          	sw	s1,104(sp)
80004420:	05412e23          	sw	s4,92(sp)
80004424:	05512c23          	sw	s5,88(sp)
80004428:	05612a23          	sw	s6,84(sp)
8000442c:	05712823          	sw	s7,80(sp)
80004430:	05812623          	sw	s8,76(sp)
80004434:	05912423          	sw	s9,72(sp)
80004438:	05a12223          	sw	s10,68(sp)
8000443c:	03f7f693          	andi	a3,a5,63
80004440:	03800713          	li	a4,56
80004444:	00002997          	auipc	s3,0x2
80004448:	32c9a983          	lw	s3,812(s3) # 80006770 <digest>
8000444c:	00c905b3          	add	a1,s2,a2
80004450:	00078313          	mv	t1,a5
80004454:	28e68863          	beq	a3,a4,800046e4 <bench_md5_run+0x2ec>
80004458:	03800693          	li	a3,56
8000445c:	00130313          	addi	t1,t1,1
80004460:	03f37713          	andi	a4,t1,63
80004464:	fed71ce3          	bne	a4,a3,8000445c <bench_md5_run+0x64>
80004468:	f8000713          	li	a4,-128
8000446c:	00e58023          	sb	a4,0(a1)
80004470:	2667fe63          	bgeu	a5,t1,800046ec <bench_md5_run+0x2f4>
80004474:	00f907b3          	add	a5,s2,a5
80004478:	00690733          	add	a4,s2,t1
8000447c:	00078023          	sb	zero,0(a5)
80004480:	00178793          	addi	a5,a5,1
80004484:	fef71ce3          	bne	a4,a5,8000447c <bench_md5_run+0x84>
80004488:	00361693          	slli	a3,a2,0x3
8000448c:	0086d813          	srli	a6,a3,0x8
80004490:	0106d513          	srli	a0,a3,0x10
80004494:	0186d593          	srli	a1,a3,0x18
80004498:	00430793          	addi	a5,t1,4
8000449c:	010700a3          	sb	a6,1(a4)
800044a0:	00d70023          	sb	a3,0(a4)
800044a4:	00a70123          	sb	a0,2(a4)
800044a8:	00b701a3          	sb	a1,3(a4)
800044ac:	00f907b3          	add	a5,s2,a5
800044b0:	01d65613          	srli	a2,a2,0x1d
800044b4:	10325f37          	lui	t5,0x10325
800044b8:	98baefb7          	lui	t6,0x98bae
800044bc:	efcdb2b7          	lui	t0,0xefcdb
800044c0:	674523b7          	lui	t2,0x67452
800044c4:	00c78023          	sb	a2,0(a5)
800044c8:	000780a3          	sb	zero,1(a5)
800044cc:	00078123          	sb	zero,2(a5)
800044d0:	000781a3          	sb	zero,3(a5)
800044d4:	476f0f13          	addi	t5,t5,1142 # 10325476 <_entry_offset+0x10325476>
800044d8:	cfef8f93          	addi	t6,t6,-770 # 98badcfe <_end+0x18b9ecfe>
800044dc:	b8928293          	addi	t0,t0,-1143 # efcdab89 <_end+0x6fccbb89>
800044e0:	30138393          	addi	t2,t2,769 # 67452301 <_entry_offset+0x67452301>
800044e4:	00000e93          	li	t4,0
800044e8:	00f00a93          	li	s5,15
800044ec:	01f00b13          	li	s6,31
800044f0:	02f00813          	li	a6,47
800044f4:	04000a13          	li	s4,64
800044f8:	01d907b3          	add	a5,s2,t4
800044fc:	00010713          	mv	a4,sp
80004500:	0017c583          	lbu	a1,1(a5)
80004504:	0007c503          	lbu	a0,0(a5)
80004508:	0027c603          	lbu	a2,2(a5)
8000450c:	0037c683          	lbu	a3,3(a5)
80004510:	00859593          	slli	a1,a1,0x8
80004514:	00a5e5b3          	or	a1,a1,a0
80004518:	01061613          	slli	a2,a2,0x10
8000451c:	00b66633          	or	a2,a2,a1
80004520:	01869693          	slli	a3,a3,0x18
80004524:	00c6e6b3          	or	a3,a3,a2
80004528:	00d72023          	sw	a3,0(a4)
8000452c:	00470713          	addi	a4,a4,4
80004530:	04010693          	addi	a3,sp,64
80004534:	00478793          	addi	a5,a5,4
80004538:	fcd714e3          	bne	a4,a3,80004500 <bench_md5_run+0x108>
8000453c:	00000593          	li	a1,0
80004540:	00002497          	auipc	s1,0x2
80004544:	92048493          	addi	s1,s1,-1760 # 80005e60 <k>
80004548:	00002417          	auipc	s0,0x2
8000454c:	81840413          	addi	s0,s0,-2024 # 80005d60 <r>
80004550:	00038b93          	mv	s7,t2
80004554:	00028693          	mv	a3,t0
80004558:	000f0613          	mv	a2,t5
8000455c:	000f8713          	mv	a4,t6
80004560:	00100513          	li	a0,1
80004564:	00500e13          	li	t3,5
80004568:	00000893          	li	a7,0
8000456c:	08baf063          	bgeu	s5,a1,800045ec <bench_md5_run+0x1f4>
80004570:	00e6c7b3          	xor	a5,a3,a4
80004574:	00c7f7b3          	and	a5,a5,a2
80004578:	08bb6463          	bltu	s6,a1,80004600 <bench_md5_run+0x208>
8000457c:	00e7c7b3          	xor	a5,a5,a4
80004580:	00f57c13          	andi	s8,a0,15
80004584:	002c1c13          	slli	s8,s8,0x2
80004588:	040c0c13          	addi	s8,s8,64
8000458c:	0004ac83          	lw	s9,0(s1)
80004590:	002c0c33          	add	s8,s8,sp
80004594:	fc0c2d03          	lw	s10,-64(s8)
80004598:	00042c03          	lw	s8,0(s0)
8000459c:	019787b3          	add	a5,a5,s9
800045a0:	01a787b3          	add	a5,a5,s10
800045a4:	017787b3          	add	a5,a5,s7
800045a8:	41800cb3          	neg	s9,s8
800045ac:	01879bb3          	sll	s7,a5,s8
800045b0:	0197d7b3          	srl	a5,a5,s9
800045b4:	00fbe7b3          	or	a5,s7,a5
800045b8:	00158593          	addi	a1,a1,1
800045bc:	00d787b3          	add	a5,a5,a3
800045c0:	00060b93          	mv	s7,a2
800045c4:	00448493          	addi	s1,s1,4
800045c8:	00440413          	addi	s0,s0,4
800045cc:	00788893          	addi	a7,a7,7
800045d0:	003e0e13          	addi	t3,t3,3
800045d4:	00550513          	addi	a0,a0,5
800045d8:	05458863          	beq	a1,s4,80004628 <bench_md5_run+0x230>
800045dc:	00070613          	mv	a2,a4
800045e0:	00068713          	mv	a4,a3
800045e4:	00078693          	mv	a3,a5
800045e8:	f8bae4e3          	bltu	s5,a1,80004570 <bench_md5_run+0x178>
800045ec:	00e647b3          	xor	a5,a2,a4
800045f0:	00d7f7b3          	and	a5,a5,a3
800045f4:	00c7c7b3          	xor	a5,a5,a2
800045f8:	00058c13          	mv	s8,a1
800045fc:	f89ff06f          	j	80004584 <bench_md5_run+0x18c>
80004600:	00c6c7b3          	xor	a5,a3,a2
80004604:	00b86863          	bltu	a6,a1,80004614 <bench_md5_run+0x21c>
80004608:	00e7c7b3          	xor	a5,a5,a4
8000460c:	00fe7c13          	andi	s8,t3,15
80004610:	f75ff06f          	j	80004584 <bench_md5_run+0x18c>
80004614:	fff64793          	not	a5,a2
80004618:	00d7e7b3          	or	a5,a5,a3
8000461c:	00e7c7b3          	xor	a5,a5,a4
80004620:	00f8fc13          	andi	s8,a7,15
80004624:	f61ff06f          	j	80004584 <bench_md5_run+0x18c>
80004628:	040e8e93          	addi	t4,t4,64
8000462c:	00c383b3          	add	t2,t2,a2
80004630:	00f282b3          	add	t0,t0,a5
80004634:	00df8fb3          	add	t6,t6,a3
80004638:	00ef0f33          	add	t5,t5,a4
8000463c:	ea6eeee3          	bltu	t4,t1,800044f8 <bench_md5_run+0x100>
80004640:	0083d413          	srli	s0,t2,0x8
80004644:	0103de93          	srli	t4,t2,0x10
80004648:	0183de13          	srli	t3,t2,0x18
8000464c:	0082d313          	srli	t1,t0,0x8
80004650:	0102d893          	srli	a7,t0,0x10
80004654:	0182d813          	srli	a6,t0,0x18
80004658:	008fd513          	srli	a0,t6,0x8
8000465c:	010fd593          	srli	a1,t6,0x10
80004660:	018fd613          	srli	a2,t6,0x18
80004664:	008f5693          	srli	a3,t5,0x8
80004668:	010f5713          	srli	a4,t5,0x10
8000466c:	018f5793          	srli	a5,t5,0x18
80004670:	00798023          	sb	t2,0(s3)
80004674:	008980a3          	sb	s0,1(s3)
80004678:	01d98123          	sb	t4,2(s3)
8000467c:	01c981a3          	sb	t3,3(s3)
80004680:	00598223          	sb	t0,4(s3)
80004684:	006982a3          	sb	t1,5(s3)
80004688:	01198323          	sb	a7,6(s3)
8000468c:	010983a3          	sb	a6,7(s3)
80004690:	01f98423          	sb	t6,8(s3)
80004694:	00a984a3          	sb	a0,9(s3)
80004698:	00b98523          	sb	a1,10(s3)
8000469c:	00c985a3          	sb	a2,11(s3)
800046a0:	01e98623          	sb	t5,12(s3)
800046a4:	00d986a3          	sb	a3,13(s3)
800046a8:	00e98723          	sb	a4,14(s3)
800046ac:	00f987a3          	sb	a5,15(s3)
800046b0:	06c12403          	lw	s0,108(sp)
800046b4:	06812483          	lw	s1,104(sp)
800046b8:	06412903          	lw	s2,100(sp)
800046bc:	06012983          	lw	s3,96(sp)
800046c0:	05c12a03          	lw	s4,92(sp)
800046c4:	05812a83          	lw	s5,88(sp)
800046c8:	05412b03          	lw	s6,84(sp)
800046cc:	05012b83          	lw	s7,80(sp)
800046d0:	04c12c03          	lw	s8,76(sp)
800046d4:	04812c83          	lw	s9,72(sp)
800046d8:	04412d03          	lw	s10,68(sp)
800046dc:	07010113          	addi	sp,sp,112
800046e0:	00008067          	ret
800046e4:	f8000793          	li	a5,-128
800046e8:	00f58023          	sb	a5,0(a1)
800046ec:	00690733          	add	a4,s2,t1
800046f0:	d99ff06f          	j	80004488 <bench_md5_run+0x90>

800046f4 <bench_md5_validate>:
800046f4:	00002517          	auipc	a0,0x2
800046f8:	07c52503          	lw	a0,124(a0) # 80006770 <digest>
800046fc:	ff010113          	addi	sp,sp,-16
80004700:	01050593          	addi	a1,a0,16
80004704:	00112623          	sw	ra,12(sp)
80004708:	e2cfe0ef          	jal	80002d34 <checksum>
8000470c:	00002797          	auipc	a5,0x2
80004710:	03c7a783          	lw	a5,60(a5) # 80006748 <setting>
80004714:	00c7a783          	lw	a5,12(a5)
80004718:	00c12083          	lw	ra,12(sp)
8000471c:	40a78533          	sub	a0,a5,a0
80004720:	00153513          	seqz	a0,a0
80004724:	01010113          	addi	sp,sp,16
80004728:	00008067          	ret

8000472c <bench_bf_prepare>:
8000472c:	00002797          	auipc	a5,0x2
80004730:	01c7a783          	lw	a5,28(a5) # 80006748 <setting>
80004734:	0007a783          	lw	a5,0(a5)
80004738:	fe010113          	addi	sp,sp,-32
8000473c:	00112e23          	sw	ra,28(sp)
80004740:	00912a23          	sw	s1,20(sp)
80004744:	01212823          	sw	s2,16(sp)
80004748:	00002497          	auipc	s1,0x2
8000474c:	05448493          	addi	s1,s1,84 # 8000679c <ARR_SIZE>
80004750:	00004537          	lui	a0,0x4
80004754:	00f4a023          	sw	a5,0(s1)
80004758:	00002797          	auipc	a5,0x2
8000475c:	0207ac23          	sw	zero,56(a5) # 80006790 <SP>
80004760:	ce4fe0ef          	jal	80002c44 <bench_alloc>
80004764:	00050793          	mv	a5,a0
80004768:	40000513          	li	a0,1024
8000476c:	00002717          	auipc	a4,0x2
80004770:	02f72623          	sw	a5,44(a4) # 80006798 <PROGRAM>
80004774:	cd0fe0ef          	jal	80002c44 <bench_alloc>
80004778:	00050793          	mv	a5,a0
8000477c:	00002537          	lui	a0,0x2
80004780:	00002717          	auipc	a4,0x2
80004784:	00f72a23          	sw	a5,20(a4) # 80006794 <STACK>
80004788:	cbcfe0ef          	jal	80002c44 <bench_alloc>
8000478c:	0004a783          	lw	a5,0(s1)
80004790:	00002717          	auipc	a4,0x2
80004794:	fea72a23          	sw	a0,-12(a4) # 80006784 <data>
80004798:	00002917          	auipc	s2,0x2
8000479c:	ff090913          	addi	s2,s2,-16 # 80006788 <input>
800047a0:	00178513          	addi	a0,a5,1
800047a4:	00001797          	auipc	a5,0x1
800047a8:	44c78793          	addi	a5,a5,1100 # 80005bf0 <_etext+0x440>
800047ac:	00002717          	auipc	a4,0x2
800047b0:	fef72023          	sw	a5,-32(a4) # 8000678c <code>
800047b4:	c90fe0ef          	jal	80002c44 <bench_alloc>
800047b8:	00050793          	mv	a5,a0
800047bc:	00001537          	lui	a0,0x1
800047c0:	00f92023          	sw	a5,0(s2)
800047c4:	c80fe0ef          	jal	80002c44 <bench_alloc>
800047c8:	00050793          	mv	a5,a0
800047cc:	00100513          	li	a0,1
800047d0:	00002717          	auipc	a4,0x2
800047d4:	faf72823          	sw	a5,-80(a4) # 80006780 <output>
800047d8:	00002797          	auipc	a5,0x2
800047dc:	fa07a223          	sw	zero,-92(a5) # 8000677c <noutput>
800047e0:	d0cfe0ef          	jal	80002cec <bench_srand>
800047e4:	0004a783          	lw	a5,0(s1)
800047e8:	04f05a63          	blez	a5,8000483c <bench_bf_prepare+0x110>
800047ec:	00812c23          	sw	s0,24(sp)
800047f0:	01312623          	sw	s3,12(sp)
800047f4:	01412423          	sw	s4,8(sp)
800047f8:	00000413          	li	s0,0
800047fc:	00001a17          	auipc	s4,0x1
80004800:	4a8a0a13          	addi	s4,s4,1192 # 80005ca4 <_etext+0x4f4>
80004804:	03e00993          	li	s3,62
80004808:	cf8fe0ef          	jal	80002d00 <bench_rand>
8000480c:	03357533          	remu	a0,a0,s3
80004810:	00092783          	lw	a5,0(s2)
80004814:	0004a703          	lw	a4,0(s1)
80004818:	008787b3          	add	a5,a5,s0
8000481c:	00140413          	addi	s0,s0,1
80004820:	00aa0533          	add	a0,s4,a0
80004824:	00054683          	lbu	a3,0(a0) # 1000 <_entry_offset+0x1000>
80004828:	00d78023          	sb	a3,0(a5)
8000482c:	fce44ee3          	blt	s0,a4,80004808 <bench_bf_prepare+0xdc>
80004830:	01812403          	lw	s0,24(sp)
80004834:	00c12983          	lw	s3,12(sp)
80004838:	00812a03          	lw	s4,8(sp)
8000483c:	01c12083          	lw	ra,28(sp)
80004840:	01412483          	lw	s1,20(sp)
80004844:	01012903          	lw	s2,16(sp)
80004848:	02010113          	addi	sp,sp,32
8000484c:	00008067          	ret

80004850 <bench_bf_run>:
80004850:	00002f97          	auipc	t6,0x2
80004854:	f3cf8f93          	addi	t6,t6,-196 # 8000678c <code>
80004858:	000fa683          	lw	a3,0(t6)
8000485c:	fd010113          	addi	sp,sp,-48
80004860:	01712823          	sw	s7,16(sp)
80004864:	01812623          	sw	s8,12(sp)
80004868:	0006c783          	lbu	a5,0(a3)
8000486c:	00002b97          	auipc	s7,0x2
80004870:	f24b8b93          	addi	s7,s7,-220 # 80006790 <SP>
80004874:	000bac03          	lw	s8,0(s7)
80004878:	00002617          	auipc	a2,0x2
8000487c:	f2062603          	lw	a2,-224(a2) # 80006798 <PROGRAM>
80004880:	3e078c63          	beqz	a5,80004c78 <bench_bf_run+0x428>
80004884:	02812623          	sw	s0,44(sp)
80004888:	02912423          	sw	s1,40(sp)
8000488c:	03212223          	sw	s2,36(sp)
80004890:	03312023          	sw	s3,32(sp)
80004894:	01412e23          	sw	s4,28(sp)
80004898:	01512c23          	sw	s5,24(sp)
8000489c:	01612a23          	sw	s6,20(sp)
800048a0:	00002e97          	auipc	t4,0x2
800048a4:	ef4eae83          	lw	t4,-268(t4) # 80006794 <STACK>
800048a8:	00168693          	addi	a3,a3,1
800048ac:	000c0313          	mv	t1,s8
800048b0:	00000893          	li	a7,0
800048b4:	00000e13          	li	t3,0
800048b8:	00000713          	li	a4,0
800048bc:	03200513          	li	a0,50
800048c0:	00001597          	auipc	a1,0x1
800048c4:	6a058593          	addi	a1,a1,1696 # 80005f60 <k+0x100>
800048c8:	00001f37          	lui	t5,0x1
800048cc:	00800b13          	li	s6,8
800048d0:	00100a93          	li	s5,1
800048d4:	00700a13          	li	s4,7
800048d8:	20000993          	li	s3,512
800048dc:	00600913          	li	s2,6
800048e0:	00500493          	li	s1,5
800048e4:	00400413          	li	s0,4
800048e8:	00300393          	li	t2,3
800048ec:	00200293          	li	t0,2
800048f0:	fd578793          	addi	a5,a5,-43
800048f4:	0ff7f793          	zext.b	a5,a5
800048f8:	00f56c63          	bltu	a0,a5,80004910 <bench_bf_run+0xc0>
800048fc:	00279793          	slli	a5,a5,0x2
80004900:	00b787b3          	add	a5,a5,a1
80004904:	0007a783          	lw	a5,0(a5)
80004908:	00b787b3          	add	a5,a5,a1
8000490c:	00078067          	jr	a5
80004910:	0006c783          	lbu	a5,0(a3)
80004914:	00068813          	mv	a6,a3
80004918:	2e078263          	beqz	a5,80004bfc <bench_bf_run+0x3ac>
8000491c:	00168693          	addi	a3,a3,1
80004920:	00100893          	li	a7,1
80004924:	fcdff06f          	j	800048f0 <bench_bf_run+0xa0>
80004928:	32030c63          	beqz	t1,80004c60 <bench_bf_run+0x410>
8000492c:	fff30313          	addi	t1,t1,-1
80004930:	00131793          	slli	a5,t1,0x1
80004934:	00fe87b3          	add	a5,t4,a5
80004938:	0007d883          	lhu	a7,0(a5)
8000493c:	00271793          	slli	a5,a4,0x2
80004940:	00f607b3          	add	a5,a2,a5
80004944:	00289813          	slli	a6,a7,0x2
80004948:	01179123          	sh	a7,2(a5)
8000494c:	01679023          	sh	s6,0(a5)
80004950:	010607b3          	add	a5,a2,a6
80004954:	00170813          	addi	a6,a4,1
80004958:	00e79123          	sh	a4,2(a5)
8000495c:	01081713          	slli	a4,a6,0x10
80004960:	00100e13          	li	t3,1
80004964:	01075713          	srli	a4,a4,0x10
80004968:	0006c783          	lbu	a5,0(a3)
8000496c:	00068813          	mv	a6,a3
80004970:	28078663          	beqz	a5,80004bfc <bench_bf_run+0x3ac>
80004974:	00168693          	addi	a3,a3,1
80004978:	fbe714e3          	bne	a4,t5,80004920 <bench_bf_run+0xd0>
8000497c:	010fa023          	sw	a6,0(t6)
80004980:	000e0463          	beqz	t3,80004988 <bench_bf_run+0x138>
80004984:	006ba023          	sw	t1,0(s7)
80004988:	02c12403          	lw	s0,44(sp)
8000498c:	02812483          	lw	s1,40(sp)
80004990:	02412903          	lw	s2,36(sp)
80004994:	02012983          	lw	s3,32(sp)
80004998:	01c12a03          	lw	s4,28(sp)
8000499c:	01812a83          	lw	s5,24(sp)
800049a0:	01412b03          	lw	s6,20(sp)
800049a4:	00065783          	lhu	a5,0(a2)
800049a8:	00060713          	mv	a4,a2
800049ac:	00000693          	li	a3,0
800049b0:	00000513          	li	a0,0
800049b4:	00800813          	li	a6,8
800049b8:	00001597          	auipc	a1,0x1
800049bc:	67458593          	addi	a1,a1,1652 # 8000602c <k+0x1cc>
800049c0:	000018b7          	lui	a7,0x1
800049c4:	16078c63          	beqz	a5,80004b3c <bench_bf_run+0x2ec>
800049c8:	16f86a63          	bltu	a6,a5,80004b3c <bench_bf_run+0x2ec>
800049cc:	00279793          	slli	a5,a5,0x2
800049d0:	00b787b3          	add	a5,a5,a1
800049d4:	0007a783          	lw	a5,0(a5)
800049d8:	00b787b3          	add	a5,a5,a1
800049dc:	00078067          	jr	a5
800049e0:	00271793          	slli	a5,a4,0x2
800049e4:	00f607b3          	add	a5,a2,a5
800049e8:	01479023          	sh	s4,0(a5)
800049ec:	25330e63          	beq	t1,s3,80004c48 <bench_bf_run+0x3f8>
800049f0:	00131793          	slli	a5,t1,0x1
800049f4:	00fe87b3          	add	a5,t4,a5
800049f8:	00170813          	addi	a6,a4,1
800049fc:	00e79023          	sh	a4,0(a5)
80004a00:	01081713          	slli	a4,a6,0x10
80004a04:	00130313          	addi	t1,t1,1
80004a08:	01075713          	srli	a4,a4,0x10
80004a0c:	00100e13          	li	t3,1
80004a10:	f59ff06f          	j	80004968 <bench_bf_run+0x118>
80004a14:	00271793          	slli	a5,a4,0x2
80004a18:	00170713          	addi	a4,a4,1
80004a1c:	00f607b3          	add	a5,a2,a5
80004a20:	01071713          	slli	a4,a4,0x10
80004a24:	01579023          	sh	s5,0(a5)
80004a28:	01075713          	srli	a4,a4,0x10
80004a2c:	f3dff06f          	j	80004968 <bench_bf_run+0x118>
80004a30:	00271793          	slli	a5,a4,0x2
80004a34:	00170713          	addi	a4,a4,1
80004a38:	00f607b3          	add	a5,a2,a5
80004a3c:	01071713          	slli	a4,a4,0x10
80004a40:	00579023          	sh	t0,0(a5)
80004a44:	01075713          	srli	a4,a4,0x10
80004a48:	f21ff06f          	j	80004968 <bench_bf_run+0x118>
80004a4c:	00271793          	slli	a5,a4,0x2
80004a50:	00170713          	addi	a4,a4,1
80004a54:	00f607b3          	add	a5,a2,a5
80004a58:	01071713          	slli	a4,a4,0x10
80004a5c:	00979023          	sh	s1,0(a5)
80004a60:	01075713          	srli	a4,a4,0x10
80004a64:	f05ff06f          	j	80004968 <bench_bf_run+0x118>
80004a68:	00271793          	slli	a5,a4,0x2
80004a6c:	00170713          	addi	a4,a4,1
80004a70:	00f607b3          	add	a5,a2,a5
80004a74:	01071713          	slli	a4,a4,0x10
80004a78:	00879023          	sh	s0,0(a5)
80004a7c:	01075713          	srli	a4,a4,0x10
80004a80:	ee9ff06f          	j	80004968 <bench_bf_run+0x118>
80004a84:	00271793          	slli	a5,a4,0x2
80004a88:	00170713          	addi	a4,a4,1
80004a8c:	00f607b3          	add	a5,a2,a5
80004a90:	01071713          	slli	a4,a4,0x10
80004a94:	01279023          	sh	s2,0(a5)
80004a98:	01075713          	srli	a4,a4,0x10
80004a9c:	ecdff06f          	j	80004968 <bench_bf_run+0x118>
80004aa0:	00271793          	slli	a5,a4,0x2
80004aa4:	00170713          	addi	a4,a4,1
80004aa8:	00f607b3          	add	a5,a2,a5
80004aac:	01071713          	slli	a4,a4,0x10
80004ab0:	00779023          	sh	t2,0(a5)
80004ab4:	01075713          	srli	a4,a4,0x10
80004ab8:	eb1ff06f          	j	80004968 <bench_bf_run+0x118>
80004abc:	00151313          	slli	t1,a0,0x1
80004ac0:	00002797          	auipc	a5,0x2
80004ac4:	cc47a783          	lw	a5,-828(a5) # 80006784 <data>
80004ac8:	006787b3          	add	a5,a5,t1
80004acc:	0007d783          	lhu	a5,0(a5)
80004ad0:	04078c63          	beqz	a5,80004b28 <bench_bf_run+0x2d8>
80004ad4:	00275683          	lhu	a3,2(a4)
80004ad8:	0500006f          	j	80004b28 <bench_bf_run+0x2d8>
80004adc:	00151313          	slli	t1,a0,0x1
80004ae0:	00002797          	auipc	a5,0x2
80004ae4:	ca47a783          	lw	a5,-860(a5) # 80006784 <data>
80004ae8:	006787b3          	add	a5,a5,t1
80004aec:	0007d783          	lhu	a5,0(a5)
80004af0:	02079c63          	bnez	a5,80004b28 <bench_bf_run+0x2d8>
80004af4:	00275683          	lhu	a3,2(a4)
80004af8:	0300006f          	j	80004b28 <bench_bf_run+0x2d8>
80004afc:	00002e17          	auipc	t3,0x2
80004b00:	c8ce0e13          	addi	t3,t3,-884 # 80006788 <input>
80004b04:	000e2783          	lw	a5,0(t3)
80004b08:	00151313          	slli	t1,a0,0x1
80004b0c:	00002717          	auipc	a4,0x2
80004b10:	c7872703          	lw	a4,-904(a4) # 80006784 <data>
80004b14:	0007ce83          	lbu	t4,0(a5)
80004b18:	00670733          	add	a4,a4,t1
80004b1c:	00178793          	addi	a5,a5,1
80004b20:	00fe2023          	sw	a5,0(t3)
80004b24:	01d71023          	sh	t4,0(a4)
80004b28:	00168693          	addi	a3,a3,1
80004b2c:	00269713          	slli	a4,a3,0x2
80004b30:	00e60733          	add	a4,a2,a4
80004b34:	00075783          	lhu	a5,0(a4)
80004b38:	e80798e3          	bnez	a5,800049c8 <bench_bf_run+0x178>
80004b3c:	01012b83          	lw	s7,16(sp)
80004b40:	00c12c03          	lw	s8,12(sp)
80004b44:	03010113          	addi	sp,sp,48
80004b48:	00008067          	ret
80004b4c:	00002317          	auipc	t1,0x2
80004b50:	c3030313          	addi	t1,t1,-976 # 8000677c <noutput>
80004b54:	00151713          	slli	a4,a0,0x1
80004b58:	00002797          	auipc	a5,0x2
80004b5c:	c2c7a783          	lw	a5,-980(a5) # 80006784 <data>
80004b60:	00032e03          	lw	t3,0(t1)
80004b64:	00e787b3          	add	a5,a5,a4
80004b68:	0007d703          	lhu	a4,0(a5)
80004b6c:	00002797          	auipc	a5,0x2
80004b70:	c147a783          	lw	a5,-1004(a5) # 80006780 <output>
80004b74:	001e0e93          	addi	t4,t3,1
80004b78:	01c787b3          	add	a5,a5,t3
80004b7c:	01d32023          	sw	t4,0(t1)
80004b80:	00e78023          	sb	a4,0(a5)
80004b84:	fa5ff06f          	j	80004b28 <bench_bf_run+0x2d8>
80004b88:	00151713          	slli	a4,a0,0x1
80004b8c:	00002797          	auipc	a5,0x2
80004b90:	bf87a783          	lw	a5,-1032(a5) # 80006784 <data>
80004b94:	00e787b3          	add	a5,a5,a4
80004b98:	0007d703          	lhu	a4,0(a5)
80004b9c:	fff70713          	addi	a4,a4,-1
80004ba0:	00e79023          	sh	a4,0(a5)
80004ba4:	f85ff06f          	j	80004b28 <bench_bf_run+0x2d8>
80004ba8:	00151713          	slli	a4,a0,0x1
80004bac:	00002797          	auipc	a5,0x2
80004bb0:	bd87a783          	lw	a5,-1064(a5) # 80006784 <data>
80004bb4:	00e787b3          	add	a5,a5,a4
80004bb8:	0007d703          	lhu	a4,0(a5)
80004bbc:	00170713          	addi	a4,a4,1
80004bc0:	00e79023          	sh	a4,0(a5)
80004bc4:	f65ff06f          	j	80004b28 <bench_bf_run+0x2d8>
80004bc8:	fff50513          	addi	a0,a0,-1
80004bcc:	00168693          	addi	a3,a3,1
80004bd0:	00269713          	slli	a4,a3,0x2
80004bd4:	00e60733          	add	a4,a2,a4
80004bd8:	00075783          	lhu	a5,0(a4)
80004bdc:	f60780e3          	beqz	a5,80004b3c <bench_bf_run+0x2ec>
80004be0:	df1564e3          	bltu	a0,a7,800049c8 <bench_bf_run+0x178>
80004be4:	01012b83          	lw	s7,16(sp)
80004be8:	00c12c03          	lw	s8,12(sp)
80004bec:	03010113          	addi	sp,sp,48
80004bf0:	00008067          	ret
80004bf4:	00150513          	addi	a0,a0,1
80004bf8:	fd5ff06f          	j	80004bcc <bench_bf_run+0x37c>
80004bfc:	00dfa023          	sw	a3,0(t6)
80004c00:	040e0063          	beqz	t3,80004c40 <bench_bf_run+0x3f0>
80004c04:	006ba023          	sw	t1,0(s7)
80004c08:	d80310e3          	bnez	t1,80004988 <bench_bf_run+0x138>
80004c0c:	000017b7          	lui	a5,0x1
80004c10:	d6f70ce3          	beq	a4,a5,80004988 <bench_bf_run+0x138>
80004c14:	00271713          	slli	a4,a4,0x2
80004c18:	00e60733          	add	a4,a2,a4
80004c1c:	02c12403          	lw	s0,44(sp)
80004c20:	02812483          	lw	s1,40(sp)
80004c24:	02412903          	lw	s2,36(sp)
80004c28:	02012983          	lw	s3,32(sp)
80004c2c:	01c12a03          	lw	s4,28(sp)
80004c30:	01812a83          	lw	s5,24(sp)
80004c34:	01412b03          	lw	s6,20(sp)
80004c38:	00071023          	sh	zero,0(a4)
80004c3c:	d69ff06f          	j	800049a4 <bench_bf_run+0x154>
80004c40:	000c0313          	mv	t1,s8
80004c44:	fc5ff06f          	j	80004c08 <bench_bf_run+0x3b8>
80004c48:	00088463          	beqz	a7,80004c50 <bench_bf_run+0x400>
80004c4c:	010fa023          	sw	a6,0(t6)
80004c50:	d20e0ce3          	beqz	t3,80004988 <bench_bf_run+0x138>
80004c54:	20000793          	li	a5,512
80004c58:	00fba023          	sw	a5,0(s7)
80004c5c:	d2dff06f          	j	80004988 <bench_bf_run+0x138>
80004c60:	00088463          	beqz	a7,80004c68 <bench_bf_run+0x418>
80004c64:	010fa023          	sw	a6,0(t6)
80004c68:	d20e00e3          	beqz	t3,80004988 <bench_bf_run+0x138>
80004c6c:	00002797          	auipc	a5,0x2
80004c70:	b207a223          	sw	zero,-1244(a5) # 80006790 <SP>
80004c74:	d15ff06f          	j	80004988 <bench_bf_run+0x138>
80004c78:	00060713          	mv	a4,a2
80004c7c:	d20c14e3          	bnez	s8,800049a4 <bench_bf_run+0x154>
80004c80:	00071023          	sh	zero,0(a4)
80004c84:	d21ff06f          	j	800049a4 <bench_bf_run+0x154>

80004c88 <bench_bf_validate>:
80004c88:	ff010113          	addi	sp,sp,-16
80004c8c:	00812423          	sw	s0,8(sp)
80004c90:	00002417          	auipc	s0,0x2
80004c94:	aec40413          	addi	s0,s0,-1300 # 8000677c <noutput>
80004c98:	00042583          	lw	a1,0(s0)
80004c9c:	00002517          	auipc	a0,0x2
80004ca0:	ae452503          	lw	a0,-1308(a0) # 80006780 <output>
80004ca4:	00112623          	sw	ra,12(sp)
80004ca8:	00b505b3          	add	a1,a0,a1
80004cac:	888fe0ef          	jal	80002d34 <checksum>
80004cb0:	00042683          	lw	a3,0(s0)
80004cb4:	00002797          	auipc	a5,0x2
80004cb8:	ae87a783          	lw	a5,-1304(a5) # 8000679c <ARR_SIZE>
80004cbc:	00f68c63          	beq	a3,a5,80004cd4 <bench_bf_validate+0x4c>
80004cc0:	00c12083          	lw	ra,12(sp)
80004cc4:	00812403          	lw	s0,8(sp)
80004cc8:	00000513          	li	a0,0
80004ccc:	01010113          	addi	sp,sp,16
80004cd0:	00008067          	ret
80004cd4:	00002797          	auipc	a5,0x2
80004cd8:	a747a783          	lw	a5,-1420(a5) # 80006748 <setting>
80004cdc:	00c7a783          	lw	a5,12(a5)
80004ce0:	00c12083          	lw	ra,12(sp)
80004ce4:	00812403          	lw	s0,8(sp)
80004ce8:	40a78533          	sub	a0,a5,a0
80004cec:	00153513          	seqz	a0,a0
80004cf0:	01010113          	addi	sp,sp,16
80004cf4:	00008067          	ret

80004cf8 <putch>:
80004cf8:	a00007b7          	lui	a5,0xa0000
80004cfc:	3ea78c23          	sb	a0,1016(a5) # a00003f8 <_end+0x1fff13f8>
80004d00:	00008067          	ret

80004d04 <halt>:
80004d04:	00050513          	mv	a0,a0
80004d08:	00100073          	ebreak
80004d0c:	0000006f          	j	80004d0c <halt+0x8>

80004d10 <_trm_init>:
80004d10:	ff010113          	addi	sp,sp,-16
80004d14:	00001517          	auipc	a0,0x1
80004d18:	33c50513          	addi	a0,a0,828 # 80006050 <mainargs>
80004d1c:	00112623          	sw	ra,12(sp)
80004d20:	addfd0ef          	jal	800027fc <main>
80004d24:	00050513          	mv	a0,a0
80004d28:	00100073          	ebreak
80004d2c:	0000006f          	j	80004d2c <_trm_init+0x1c>

80004d30 <__am_timer_config>:
80004d30:	00100793          	li	a5,1
80004d34:	00f50023          	sb	a5,0(a0)
80004d38:	00f500a3          	sb	a5,1(a0)
80004d3c:	00008067          	ret

80004d40 <__am_input_config>:
80004d40:	00100793          	li	a5,1
80004d44:	00f50023          	sb	a5,0(a0)
80004d48:	00008067          	ret

80004d4c <__am_uart_config>:
80004d4c:	00050023          	sb	zero,0(a0)
80004d50:	00008067          	ret

80004d54 <__am_net_config>:
80004d54:	00050023          	sb	zero,0(a0)
80004d58:	00008067          	ret

80004d5c <fail>:
80004d5c:	ff010113          	addi	sp,sp,-16
80004d60:	00812423          	sw	s0,8(sp)
80004d64:	00112623          	sw	ra,12(sp)
80004d68:	00001417          	auipc	s0,0x1
80004d6c:	f7c40413          	addi	s0,s0,-132 # 80005ce4 <_etext+0x534>
80004d70:	04100513          	li	a0,65
80004d74:	f85ff0ef          	jal	80004cf8 <putch>
80004d78:	00144503          	lbu	a0,1(s0)
80004d7c:	00140413          	addi	s0,s0,1
80004d80:	fe051ae3          	bnez	a0,80004d74 <fail+0x18>
80004d84:	00001417          	auipc	s0,0x1
80004d88:	f6c40413          	addi	s0,s0,-148 # 80005cf0 <_etext+0x540>
80004d8c:	06100513          	li	a0,97
80004d90:	f69ff0ef          	jal	80004cf8 <putch>
80004d94:	00144503          	lbu	a0,1(s0)
80004d98:	00140413          	addi	s0,s0,1
80004d9c:	fe051ae3          	bnez	a0,80004d90 <fail+0x34>
80004da0:	00001417          	auipc	s0,0x1
80004da4:	f6c40413          	addi	s0,s0,-148 # 80005d0c <_etext+0x55c>
80004da8:	02000513          	li	a0,32
80004dac:	f4dff0ef          	jal	80004cf8 <putch>
80004db0:	00144503          	lbu	a0,1(s0)
80004db4:	00140413          	addi	s0,s0,1
80004db8:	fe051ae3          	bnez	a0,80004dac <fail+0x50>
80004dbc:	00100513          	li	a0,1
80004dc0:	f45ff0ef          	jal	80004d04 <halt>

80004dc4 <ioe_init>:
80004dc4:	ff010113          	addi	sp,sp,-16
80004dc8:	00112623          	sw	ra,12(sp)
80004dcc:	00001797          	auipc	a5,0x1
80004dd0:	70c78793          	addi	a5,a5,1804 # 800064d8 <lut>
80004dd4:	00002697          	auipc	a3,0x2
80004dd8:	90468693          	addi	a3,a3,-1788 # 800066d8 <seed>
80004ddc:	00000617          	auipc	a2,0x0
80004de0:	f8060613          	addi	a2,a2,-128 # 80004d5c <fail>
80004de4:	00c0006f          	j	80004df0 <ioe_init+0x2c>
80004de8:	00478793          	addi	a5,a5,4
80004dec:	00d78c63          	beq	a5,a3,80004e04 <ioe_init+0x40>
80004df0:	0007a703          	lw	a4,0(a5)
80004df4:	fe071ae3          	bnez	a4,80004de8 <ioe_init+0x24>
80004df8:	00c7a023          	sw	a2,0(a5)
80004dfc:	00478793          	addi	a5,a5,4
80004e00:	fed798e3          	bne	a5,a3,80004df0 <ioe_init+0x2c>
80004e04:	088000ef          	jal	80004e8c <__am_gpu_init>
80004e08:	034000ef          	jal	80004e3c <__am_timer_init>
80004e0c:	0c0000ef          	jal	80004ecc <__am_audio_init>
80004e10:	00c12083          	lw	ra,12(sp)
80004e14:	00100513          	li	a0,1
80004e18:	01010113          	addi	sp,sp,16
80004e1c:	00008067          	ret

80004e20 <ioe_read>:
80004e20:	00251513          	slli	a0,a0,0x2
80004e24:	00001797          	auipc	a5,0x1
80004e28:	6b478793          	addi	a5,a5,1716 # 800064d8 <lut>
80004e2c:	00a787b3          	add	a5,a5,a0
80004e30:	0007a783          	lw	a5,0(a5)
80004e34:	00058513          	mv	a0,a1
80004e38:	00078067          	jr	a5

80004e3c <__am_timer_init>:
80004e3c:	00008067          	ret

80004e40 <__am_timer_uptime>:
80004e40:	a0000737          	lui	a4,0xa0000
80004e44:	a00007b7          	lui	a5,0xa0000
80004e48:	04870713          	addi	a4,a4,72 # a0000048 <_end+0x1fff1048>
80004e4c:	04c7a683          	lw	a3,76(a5) # a000004c <_end+0x1fff104c>
80004e50:	00072703          	lw	a4,0(a4)
80004e54:	00d52223          	sw	a3,4(a0)
80004e58:	00e52023          	sw	a4,0(a0)
80004e5c:	00008067          	ret

80004e60 <__am_timer_rtc>:
80004e60:	76c00793          	li	a5,1900
80004e64:	00052a23          	sw	zero,20(a0)
80004e68:	00052823          	sw	zero,16(a0)
80004e6c:	00052623          	sw	zero,12(a0)
80004e70:	00052423          	sw	zero,8(a0)
80004e74:	00052223          	sw	zero,4(a0)
80004e78:	00f52023          	sw	a5,0(a0)
80004e7c:	00008067          	ret

80004e80 <__am_input_keybrd>:
80004e80:	00050023          	sb	zero,0(a0)
80004e84:	00052223          	sw	zero,4(a0)
80004e88:	00008067          	ret

80004e8c <__am_gpu_init>:
80004e8c:	00008067          	ret

80004e90 <__am_gpu_config>:
80004e90:	00100793          	li	a5,1
80004e94:	00f51023          	sh	a5,0(a0)
80004e98:	00052223          	sw	zero,4(a0)
80004e9c:	00052423          	sw	zero,8(a0)
80004ea0:	00052623          	sw	zero,12(a0)
80004ea4:	00008067          	ret

80004ea8 <__am_gpu_fbdraw>:
80004ea8:	01454783          	lbu	a5,20(a0)
80004eac:	00078863          	beqz	a5,80004ebc <__am_gpu_fbdraw+0x14>
80004eb0:	a00007b7          	lui	a5,0xa0000
80004eb4:	00100713          	li	a4,1
80004eb8:	10e7a223          	sw	a4,260(a5) # a0000104 <_end+0x1fff1104>
80004ebc:	00008067          	ret

80004ec0 <__am_gpu_status>:
80004ec0:	00100793          	li	a5,1
80004ec4:	00f50023          	sb	a5,0(a0)
80004ec8:	00008067          	ret

80004ecc <__am_audio_init>:
80004ecc:	00008067          	ret

80004ed0 <__am_audio_config>:
80004ed0:	00050023          	sb	zero,0(a0)
80004ed4:	00008067          	ret

80004ed8 <__am_audio_ctrl>:
80004ed8:	00008067          	ret

80004edc <__am_audio_status>:
80004edc:	00052023          	sw	zero,0(a0)
80004ee0:	00008067          	ret

80004ee4 <__am_audio_play>:
80004ee4:	00008067          	ret

80004ee8 <__am_disk_config>:
80004ee8:	00050023          	sb	zero,0(a0)
80004eec:	00008067          	ret

80004ef0 <__am_disk_status>:
80004ef0:	00008067          	ret

80004ef4 <__am_disk_blkio>:
80004ef4:	00008067          	ret

80004ef8 <__udivmoddi4>:
80004ef8:	fd010113          	addi	sp,sp,-48
80004efc:	01312e23          	sw	s3,28(sp)
80004f00:	01412c23          	sw	s4,24(sp)
80004f04:	01612823          	sw	s6,16(sp)
80004f08:	01712623          	sw	s7,12(sp)
80004f0c:	02112623          	sw	ra,44(sp)
80004f10:	00068b13          	mv	s6,a3
80004f14:	00050993          	mv	s3,a0
80004f18:	00060a13          	mv	s4,a2
80004f1c:	00070b93          	mv	s7,a4
80004f20:	02059e63          	bnez	a1,80004f5c <__udivmoddi4+0x64>
80004f24:	1a069263          	bnez	a3,800050c8 <__udivmoddi4+0x1d0>
80004f28:	00070863          	beqz	a4,80004f38 <__udivmoddi4+0x40>
80004f2c:	02c577b3          	remu	a5,a0,a2
80004f30:	00072223          	sw	zero,4(a4)
80004f34:	00f72023          	sw	a5,0(a4)
80004f38:	0349d533          	divu	a0,s3,s4
80004f3c:	00000593          	li	a1,0
80004f40:	02c12083          	lw	ra,44(sp)
80004f44:	01c12983          	lw	s3,28(sp)
80004f48:	01812a03          	lw	s4,24(sp)
80004f4c:	01012b03          	lw	s6,16(sp)
80004f50:	00c12b83          	lw	s7,12(sp)
80004f54:	03010113          	addi	sp,sp,48
80004f58:	00008067          	ret
80004f5c:	02912223          	sw	s1,36(sp)
80004f60:	03212023          	sw	s2,32(sp)
80004f64:	01512a23          	sw	s5,20(sp)
80004f68:	02812423          	sw	s0,40(sp)
80004f6c:	00058913          	mv	s2,a1
80004f70:	00058493          	mv	s1,a1
80004f74:	00060a93          	mv	s5,a2
80004f78:	0e061e63          	bnez	a2,80005074 <__udivmoddi4+0x17c>
80004f7c:	1c068063          	beqz	a3,8000513c <__udivmoddi4+0x244>
80004f80:	22050a63          	beqz	a0,800051b4 <__udivmoddi4+0x2bc>
80004f84:	fff68793          	addi	a5,a3,-1
80004f88:	00d7f733          	and	a4,a5,a3
80004f8c:	28070263          	beqz	a4,80005210 <__udivmoddi4+0x318>
80004f90:	00068513          	mv	a0,a3
80004f94:	2f8000ef          	jal	8000528c <__clzsi2>
80004f98:	00050413          	mv	s0,a0
80004f9c:	00090513          	mv	a0,s2
80004fa0:	2ec000ef          	jal	8000528c <__clzsi2>
80004fa4:	40a406b3          	sub	a3,s0,a0
80004fa8:	01e00793          	li	a5,30
80004fac:	18d7ea63          	bltu	a5,a3,80005140 <__udivmoddi4+0x248>
80004fb0:	00168693          	addi	a3,a3,1
80004fb4:	02000793          	li	a5,32
80004fb8:	40d787b3          	sub	a5,a5,a3
80004fbc:	00f91633          	sll	a2,s2,a5
80004fc0:	00d9d733          	srl	a4,s3,a3
80004fc4:	00d95433          	srl	s0,s2,a3
80004fc8:	00f99833          	sll	a6,s3,a5
80004fcc:	00e664b3          	or	s1,a2,a4
80004fd0:	00000713          	li	a4,0
80004fd4:	01f85793          	srli	a5,a6,0x1f
80004fd8:	00149593          	slli	a1,s1,0x1
80004fdc:	00f5e5b3          	or	a1,a1,a5
80004fe0:	01f4d493          	srli	s1,s1,0x1f
80004fe4:	00141793          	slli	a5,s0,0x1
80004fe8:	0097e7b3          	or	a5,a5,s1
80004fec:	40ba0333          	sub	t1,s4,a1
80004ff0:	006a3633          	sltu	a2,s4,t1
80004ff4:	40fb08b3          	sub	a7,s6,a5
80004ff8:	40c888b3          	sub	a7,a7,a2
80004ffc:	00133313          	seqz	t1,t1
80005000:	406888b3          	sub	a7,a7,t1
80005004:	41f8d313          	srai	t1,a7,0x1f
80005008:	014374b3          	and	s1,t1,s4
8000500c:	409584b3          	sub	s1,a1,s1
80005010:	01637333          	and	t1,t1,s6
80005014:	01fad613          	srli	a2,s5,0x1f
80005018:	00181813          	slli	a6,a6,0x1
8000501c:	001a9a93          	slli	s5,s5,0x1
80005020:	0095b5b3          	sltu	a1,a1,s1
80005024:	406787b3          	sub	a5,a5,t1
80005028:	fff68693          	addi	a3,a3,-1
8000502c:	00eaeab3          	or	s5,s5,a4
80005030:	00c86833          	or	a6,a6,a2
80005034:	01f8d713          	srli	a4,a7,0x1f
80005038:	40b78433          	sub	s0,a5,a1
8000503c:	f8069ce3          	bnez	a3,80004fd4 <__udivmoddi4+0xdc>
80005040:	000b8663          	beqz	s7,8000504c <__udivmoddi4+0x154>
80005044:	009ba023          	sw	s1,0(s7)
80005048:	008ba223          	sw	s0,4(s7)
8000504c:	01fad913          	srli	s2,s5,0x1f
80005050:	001a9993          	slli	s3,s5,0x1
80005054:	00181793          	slli	a5,a6,0x1
80005058:	00f965b3          	or	a1,s2,a5
8000505c:	02812403          	lw	s0,40(sp)
80005060:	02412483          	lw	s1,36(sp)
80005064:	02012903          	lw	s2,32(sp)
80005068:	01412a83          	lw	s5,20(sp)
8000506c:	00e9e533          	or	a0,s3,a4
80005070:	ed1ff06f          	j	80004f40 <__udivmoddi4+0x48>
80005074:	06068663          	beqz	a3,800050e0 <__udivmoddi4+0x1e8>
80005078:	00068513          	mv	a0,a3
8000507c:	210000ef          	jal	8000528c <__clzsi2>
80005080:	00050413          	mv	s0,a0
80005084:	00090513          	mv	a0,s2
80005088:	204000ef          	jal	8000528c <__clzsi2>
8000508c:	40a406b3          	sub	a3,s0,a0
80005090:	01f00793          	li	a5,31
80005094:	0ad7e663          	bltu	a5,a3,80005140 <__udivmoddi4+0x248>
80005098:	00168693          	addi	a3,a3,1
8000509c:	02000793          	li	a5,32
800050a0:	00098813          	mv	a6,s3
800050a4:	18f68663          	beq	a3,a5,80005230 <__udivmoddi4+0x338>
800050a8:	40d787b3          	sub	a5,a5,a3
800050ac:	00d9d733          	srl	a4,s3,a3
800050b0:	00f91633          	sll	a2,s2,a5
800050b4:	00d95433          	srl	s0,s2,a3
800050b8:	00f99833          	sll	a6,s3,a5
800050bc:	00e664b3          	or	s1,a2,a4
800050c0:	00000a93          	li	s5,0
800050c4:	f0dff06f          	j	80004fd0 <__udivmoddi4+0xd8>
800050c8:	00070663          	beqz	a4,800050d4 <__udivmoddi4+0x1dc>
800050cc:	00aba023          	sw	a0,0(s7)
800050d0:	00072223          	sw	zero,4(a4)
800050d4:	00000513          	li	a0,0
800050d8:	00000593          	li	a1,0
800050dc:	e65ff06f          	j	80004f40 <__udivmoddi4+0x48>
800050e0:	fff60793          	addi	a5,a2,-1
800050e4:	00c7f733          	and	a4,a5,a2
800050e8:	06071c63          	bnez	a4,80005160 <__udivmoddi4+0x268>
800050ec:	000b8863          	beqz	s7,800050fc <__udivmoddi4+0x204>
800050f0:	00a7f7b3          	and	a5,a5,a0
800050f4:	00fba023          	sw	a5,0(s7)
800050f8:	000ba223          	sw	zero,4(s7)
800050fc:	00100793          	li	a5,1
80005100:	0efa0063          	beq	s4,a5,800051e0 <__udivmoddi4+0x2e8>
80005104:	000a0513          	mv	a0,s4
80005108:	214000ef          	jal	8000531c <__ctzsi2>
8000510c:	02000713          	li	a4,32
80005110:	40a70733          	sub	a4,a4,a0
80005114:	00050793          	mv	a5,a0
80005118:	00e91733          	sll	a4,s2,a4
8000511c:	00a9d833          	srl	a6,s3,a0
80005120:	00f955b3          	srl	a1,s2,a5
80005124:	02812403          	lw	s0,40(sp)
80005128:	02412483          	lw	s1,36(sp)
8000512c:	02012903          	lw	s2,32(sp)
80005130:	01412a83          	lw	s5,20(sp)
80005134:	01076533          	or	a0,a4,a6
80005138:	e09ff06f          	j	80004f40 <__udivmoddi4+0x48>
8000513c:	00100073          	ebreak
80005140:	0a0b8e63          	beqz	s7,800051fc <__udivmoddi4+0x304>
80005144:	012ba223          	sw	s2,4(s7)
80005148:	02812403          	lw	s0,40(sp)
8000514c:	02412483          	lw	s1,36(sp)
80005150:	02012903          	lw	s2,32(sp)
80005154:	01412a83          	lw	s5,20(sp)
80005158:	013ba023          	sw	s3,0(s7)
8000515c:	f79ff06f          	j	800050d4 <__udivmoddi4+0x1dc>
80005160:	00060513          	mv	a0,a2
80005164:	00068413          	mv	s0,a3
80005168:	124000ef          	jal	8000528c <__clzsi2>
8000516c:	00050913          	mv	s2,a0
80005170:	00048513          	mv	a0,s1
80005174:	118000ef          	jal	8000528c <__clzsi2>
80005178:	40a90533          	sub	a0,s2,a0
8000517c:	02150693          	addi	a3,a0,33
80005180:	02000793          	li	a5,32
80005184:	00098813          	mv	a6,s3
80005188:	00000a93          	li	s5,0
8000518c:	e4f682e3          	beq	a3,a5,80004fd0 <__udivmoddi4+0xd8>
80005190:	01f00713          	li	a4,31
80005194:	0ad76463          	bltu	a4,a3,8000523c <__udivmoddi4+0x344>
80005198:	40d78733          	sub	a4,a5,a3
8000519c:	00d4d433          	srl	s0,s1,a3
800051a0:	00d9d7b3          	srl	a5,s3,a3
800051a4:	00e494b3          	sll	s1,s1,a4
800051a8:	00f4e4b3          	or	s1,s1,a5
800051ac:	00e99833          	sll	a6,s3,a4
800051b0:	e21ff06f          	j	80004fd0 <__udivmoddi4+0xd8>
800051b4:	00070863          	beqz	a4,800051c4 <__udivmoddi4+0x2cc>
800051b8:	02d5f7b3          	remu	a5,a1,a3
800051bc:	00072023          	sw	zero,0(a4)
800051c0:	00f72223          	sw	a5,4(a4)
800051c4:	03695533          	divu	a0,s2,s6
800051c8:	02812403          	lw	s0,40(sp)
800051cc:	02412483          	lw	s1,36(sp)
800051d0:	02012903          	lw	s2,32(sp)
800051d4:	01412a83          	lw	s5,20(sp)
800051d8:	00000593          	li	a1,0
800051dc:	d65ff06f          	j	80004f40 <__udivmoddi4+0x48>
800051e0:	00090593          	mv	a1,s2
800051e4:	02812403          	lw	s0,40(sp)
800051e8:	02412483          	lw	s1,36(sp)
800051ec:	02012903          	lw	s2,32(sp)
800051f0:	01412a83          	lw	s5,20(sp)
800051f4:	00098513          	mv	a0,s3
800051f8:	d49ff06f          	j	80004f40 <__udivmoddi4+0x48>
800051fc:	02812403          	lw	s0,40(sp)
80005200:	02412483          	lw	s1,36(sp)
80005204:	02012903          	lw	s2,32(sp)
80005208:	01412a83          	lw	s5,20(sp)
8000520c:	ec9ff06f          	j	800050d4 <__udivmoddi4+0x1dc>
80005210:	000b8863          	beqz	s7,80005220 <__udivmoddi4+0x328>
80005214:	00b7f7b3          	and	a5,a5,a1
80005218:	00aba023          	sw	a0,0(s7)
8000521c:	00fba223          	sw	a5,4(s7)
80005220:	000b0513          	mv	a0,s6
80005224:	0f8000ef          	jal	8000531c <__ctzsi2>
80005228:	00a95533          	srl	a0,s2,a0
8000522c:	f9dff06f          	j	800051c8 <__udivmoddi4+0x2d0>
80005230:	00000413          	li	s0,0
80005234:	00000a93          	li	s5,0
80005238:	d99ff06f          	j	80004fd0 <__udivmoddi4+0xd8>
8000523c:	04000a93          	li	s5,64
80005240:	40da8ab3          	sub	s5,s5,a3
80005244:	00150513          	addi	a0,a0,1
80005248:	01549733          	sll	a4,s1,s5
8000524c:	00a9d7b3          	srl	a5,s3,a0
80005250:	01599ab3          	sll	s5,s3,s5
80005254:	00a4d4b3          	srl	s1,s1,a0
80005258:	00f76833          	or	a6,a4,a5
8000525c:	d75ff06f          	j	80004fd0 <__udivmoddi4+0xd8>

80005260 <__udivdi3>:
80005260:	00000713          	li	a4,0
80005264:	c95ff06f          	j	80004ef8 <__udivmoddi4>

80005268 <__umoddi3>:
80005268:	fe010113          	addi	sp,sp,-32
8000526c:	00810713          	addi	a4,sp,8
80005270:	00112e23          	sw	ra,28(sp)
80005274:	c85ff0ef          	jal	80004ef8 <__udivmoddi4>
80005278:	01c12083          	lw	ra,28(sp)
8000527c:	00812503          	lw	a0,8(sp)
80005280:	00c12583          	lw	a1,12(sp)
80005284:	02010113          	addi	sp,sp,32
80005288:	00008067          	ret

8000528c <__clzsi2>:
8000528c:	000105b7          	lui	a1,0x10
80005290:	00b535b3          	sltu	a1,a0,a1
80005294:	00459593          	slli	a1,a1,0x4
80005298:	01000793          	li	a5,16
8000529c:	40b787b3          	sub	a5,a5,a1
800052a0:	00010737          	lui	a4,0x10
800052a4:	00f557b3          	srl	a5,a0,a5
800052a8:	f0070713          	addi	a4,a4,-256 # ff00 <_entry_offset+0xff00>
800052ac:	00e7f733          	and	a4,a5,a4
800052b0:	00173713          	seqz	a4,a4
800052b4:	00371713          	slli	a4,a4,0x3
800052b8:	00800693          	li	a3,8
800052bc:	40e686b3          	sub	a3,a3,a4
800052c0:	00d7d7b3          	srl	a5,a5,a3
800052c4:	0f07f613          	andi	a2,a5,240
800052c8:	00163613          	seqz	a2,a2
800052cc:	00261613          	slli	a2,a2,0x2
800052d0:	00400693          	li	a3,4
800052d4:	40c686b3          	sub	a3,a3,a2
800052d8:	00d7d7b3          	srl	a5,a5,a3
800052dc:	00c7f693          	andi	a3,a5,12
800052e0:	0016b693          	seqz	a3,a3
800052e4:	00200513          	li	a0,2
800052e8:	00169693          	slli	a3,a3,0x1
800052ec:	40d50833          	sub	a6,a0,a3
800052f0:	0107d7b3          	srl	a5,a5,a6
800052f4:	0017d813          	srli	a6,a5,0x1
800052f8:	00b70733          	add	a4,a4,a1
800052fc:	00187593          	andi	a1,a6,1
80005300:	00e60633          	add	a2,a2,a4
80005304:	40f50533          	sub	a0,a0,a5
80005308:	00058463          	beqz	a1,80005310 <__clzsi2+0x84>
8000530c:	00000513          	li	a0,0
80005310:	00c686b3          	add	a3,a3,a2
80005314:	00d50533          	add	a0,a0,a3
80005318:	00008067          	ret

8000531c <__ctzsi2>:
8000531c:	01051593          	slli	a1,a0,0x10
80005320:	0105d593          	srli	a1,a1,0x10
80005324:	0015b593          	seqz	a1,a1
80005328:	00459593          	slli	a1,a1,0x4
8000532c:	00b557b3          	srl	a5,a0,a1
80005330:	0ff7f613          	zext.b	a2,a5
80005334:	00163613          	seqz	a2,a2
80005338:	00361613          	slli	a2,a2,0x3
8000533c:	00c7d7b3          	srl	a5,a5,a2
80005340:	00f7f693          	andi	a3,a5,15
80005344:	0016b693          	seqz	a3,a3
80005348:	00269693          	slli	a3,a3,0x2
8000534c:	00d7d7b3          	srl	a5,a5,a3
80005350:	0037f713          	andi	a4,a5,3
80005354:	00173713          	seqz	a4,a4
80005358:	00171713          	slli	a4,a4,0x1
8000535c:	00e7d7b3          	srl	a5,a5,a4
80005360:	0017d513          	srli	a0,a5,0x1
80005364:	fff7c793          	not	a5,a5
80005368:	00b60633          	add	a2,a2,a1
8000536c:	0017f793          	andi	a5,a5,1
80005370:	00157593          	andi	a1,a0,1
80005374:	00200513          	li	a0,2
80005378:	00c686b3          	add	a3,a3,a2
8000537c:	40b50533          	sub	a0,a0,a1
80005380:	40f007b3          	neg	a5,a5
80005384:	00f57533          	and	a0,a0,a5
80005388:	00d70733          	add	a4,a4,a3
8000538c:	00e50533          	add	a0,a0,a4
80005390:	00008067          	ret

80005394 <strcmp>:
80005394:	00054783          	lbu	a5,0(a0)
80005398:	00079a63          	bnez	a5,800053ac <strcmp+0x18>
8000539c:	0340006f          	j	800053d0 <strcmp+0x3c>
800053a0:	00054783          	lbu	a5,0(a0)
800053a4:	02078063          	beqz	a5,800053c4 <strcmp+0x30>
800053a8:	00068593          	mv	a1,a3
800053ac:	0005c703          	lbu	a4,0(a1) # 10000 <_entry_offset+0x10000>
800053b0:	00150513          	addi	a0,a0,1
800053b4:	00158693          	addi	a3,a1,1
800053b8:	fef704e3          	beq	a4,a5,800053a0 <strcmp+0xc>
800053bc:	40e78533          	sub	a0,a5,a4
800053c0:	00008067          	ret
800053c4:	0015c703          	lbu	a4,1(a1)
800053c8:	40e78533          	sub	a0,a5,a4
800053cc:	00008067          	ret
800053d0:	0005c703          	lbu	a4,0(a1)
800053d4:	fe9ff06f          	j	800053bc <strcmp+0x28>

800053d8 <vsprintf>:
800053d8:	0005c783          	lbu	a5,0(a1)
800053dc:	00050f13          	mv	t5,a0
800053e0:	26078463          	beqz	a5,80005648 <vsprintf+0x270>
800053e4:	fc010113          	addi	sp,sp,-64
800053e8:	02812e23          	sw	s0,60(sp)
800053ec:	02912c23          	sw	s1,56(sp)
800053f0:	03212a23          	sw	s2,52(sp)
800053f4:	03312823          	sw	s3,48(sp)
800053f8:	00000713          	li	a4,0
800053fc:	00000513          	li	a0,0
80005400:	000f0693          	mv	a3,t5
80005404:	02500393          	li	t2,37
80005408:	03000493          	li	s1,48
8000540c:	00900293          	li	t0,9
80005410:	06400413          	li	s0,100
80005414:	0200006f          	j	80005434 <vsprintf+0x5c>
80005418:	000e0713          	mv	a4,t3
8000541c:	00f68023          	sb	a5,0(a3)
80005420:	00e587b3          	add	a5,a1,a4
80005424:	0007c783          	lbu	a5,0(a5)
80005428:	00150513          	addi	a0,a0,1
8000542c:	00af06b3          	add	a3,t5,a0
80005430:	0c078463          	beqz	a5,800054f8 <vsprintf+0x120>
80005434:	00170e13          	addi	t3,a4,1
80005438:	00050913          	mv	s2,a0
8000543c:	fc779ee3          	bne	a5,t2,80005418 <vsprintf+0x40>
80005440:	01c58fb3          	add	t6,a1,t3
80005444:	000fce83          	lbu	t4,0(t6)
80005448:	00000993          	li	s3,0
8000544c:	009e9a63          	bne	t4,s1,80005460 <vsprintf+0x88>
80005450:	00270e13          	addi	t3,a4,2
80005454:	01c58fb3          	add	t6,a1,t3
80005458:	000fce83          	lbu	t4,0(t6)
8000545c:	00100993          	li	s3,1
80005460:	fd0e8893          	addi	a7,t4,-48
80005464:	001e0313          	addi	t1,t3,1
80005468:	0ff8f793          	zext.b	a5,a7
8000546c:	00658733          	add	a4,a1,t1
80005470:	00000813          	li	a6,0
80005474:	00f2f663          	bgeu	t0,a5,80005480 <vsprintf+0xa8>
80005478:	0340006f          	j	800054ac <vsprintf+0xd4>
8000547c:	00130313          	addi	t1,t1,1
80005480:	00074e83          	lbu	t4,0(a4)
80005484:	00281793          	slli	a5,a6,0x2
80005488:	010787b3          	add	a5,a5,a6
8000548c:	00179793          	slli	a5,a5,0x1
80005490:	00f88833          	add	a6,a7,a5
80005494:	fd0e8893          	addi	a7,t4,-48
80005498:	0ff8f793          	zext.b	a5,a7
8000549c:	00070f93          	mv	t6,a4
800054a0:	00030e13          	mv	t3,t1
800054a4:	00170713          	addi	a4,a4,1
800054a8:	fcf2fae3          	bgeu	t0,a5,8000547c <vsprintf+0xa4>
800054ac:	088e8863          	beq	t4,s0,8000553c <vsprintf+0x164>
800054b0:	07300793          	li	a5,115
800054b4:	06fe9063          	bne	t4,a5,80005514 <vsprintf+0x13c>
800054b8:	00062803          	lw	a6,0(a2)
800054bc:	00460613          	addi	a2,a2,4
800054c0:	02080463          	beqz	a6,800054e8 <vsprintf+0x110>
800054c4:	00084703          	lbu	a4,0(a6)
800054c8:	02070063          	beqz	a4,800054e8 <vsprintf+0x110>
800054cc:	00150513          	addi	a0,a0,1
800054d0:	00af06b3          	add	a3,t5,a0
800054d4:	412507b3          	sub	a5,a0,s2
800054d8:	fee68fa3          	sb	a4,-1(a3)
800054dc:	00f807b3          	add	a5,a6,a5
800054e0:	0007c703          	lbu	a4,0(a5)
800054e4:	fe0714e3          	bnez	a4,800054cc <vsprintf+0xf4>
800054e8:	001e0713          	addi	a4,t3,1
800054ec:	00e587b3          	add	a5,a1,a4
800054f0:	0007c783          	lbu	a5,0(a5)
800054f4:	f40790e3          	bnez	a5,80005434 <vsprintf+0x5c>
800054f8:	00068023          	sb	zero,0(a3)
800054fc:	03c12403          	lw	s0,60(sp)
80005500:	03812483          	lw	s1,56(sp)
80005504:	03412903          	lw	s2,52(sp)
80005508:	03012983          	lw	s3,48(sp)
8000550c:	04010113          	addi	sp,sp,64
80005510:	00008067          	ret
80005514:	02500793          	li	a5,37
80005518:	00f68023          	sb	a5,0(a3)
8000551c:	000fc703          	lbu	a4,0(t6)
80005520:	00150793          	addi	a5,a0,1
80005524:	00ff07b3          	add	a5,t5,a5
80005528:	00250513          	addi	a0,a0,2
8000552c:	00e78023          	sb	a4,0(a5)
80005530:	00af06b3          	add	a3,t5,a0
80005534:	001e0713          	addi	a4,t3,1
80005538:	fb5ff06f          	j	800054ec <vsprintf+0x114>
8000553c:	00062783          	lw	a5,0(a2)
80005540:	00460613          	addi	a2,a2,4
80005544:	08079063          	bnez	a5,800055c4 <vsprintf+0x1ec>
80005548:	03000793          	li	a5,48
8000554c:	00f10023          	sb	a5,0(sp)
80005550:	fff80813          	addi	a6,a6,-1
80005554:	07005263          	blez	a6,800055b8 <vsprintf+0x1e0>
80005558:	00010893          	mv	a7,sp
8000555c:	04098e63          	beqz	s3,800055b8 <vsprintf+0x1e0>
80005560:	fff80813          	addi	a6,a6,-1
80005564:	00098313          	mv	t1,s3
80005568:	001f0793          	addi	a5,t5,1 # 1001 <_entry_offset+0x1001>
8000556c:	00a787b3          	add	a5,a5,a0
80005570:	010787b3          	add	a5,a5,a6
80005574:	03000713          	li	a4,48
80005578:	00e68023          	sb	a4,0(a3)
8000557c:	00168693          	addi	a3,a3,1
80005580:	fed79ce3          	bne	a5,a3,80005578 <vsprintf+0x1a0>
80005584:	00150513          	addi	a0,a0,1
80005588:	01050533          	add	a0,a0,a6
8000558c:	00af06b3          	add	a3,t5,a0
80005590:	006887b3          	add	a5,a7,t1
80005594:	fff7c703          	lbu	a4,-1(a5)
80005598:	fff78793          	addi	a5,a5,-1
8000559c:	00168693          	addi	a3,a3,1
800055a0:	fee68fa3          	sb	a4,-1(a3)
800055a4:	fef898e3          	bne	a7,a5,80005594 <vsprintf+0x1bc>
800055a8:	00a30533          	add	a0,t1,a0
800055ac:	00af06b3          	add	a3,t5,a0
800055b0:	001e0713          	addi	a4,t3,1
800055b4:	f39ff06f          	j	800054ec <vsprintf+0x114>
800055b8:	00100313          	li	t1,1
800055bc:	00010893          	mv	a7,sp
800055c0:	fd1ff06f          	j	80005590 <vsprintf+0x1b8>
800055c4:	03412623          	sw	s4,44(sp)
800055c8:	00000a13          	li	s4,0
800055cc:	0007d663          	bgez	a5,800055d8 <vsprintf+0x200>
800055d0:	40f007b3          	neg	a5,a5
800055d4:	00100a13          	li	s4,1
800055d8:	00000713          	li	a4,0
800055dc:	00010893          	mv	a7,sp
800055e0:	00a00f93          	li	t6,10
800055e4:	03f7e333          	rem	t1,a5,t6
800055e8:	00070e93          	mv	t4,a4
800055ec:	00170713          	addi	a4,a4,1
800055f0:	00e88933          	add	s2,a7,a4
800055f4:	03f7c7b3          	div	a5,a5,t6
800055f8:	03030313          	addi	t1,t1,48
800055fc:	fe690fa3          	sb	t1,-1(s2)
80005600:	fe0792e3          	bnez	a5,800055e4 <vsprintf+0x20c>
80005604:	000a1e63          	bnez	s4,80005620 <vsprintf+0x248>
80005608:	40e80833          	sub	a6,a6,a4
8000560c:	01005463          	blez	a6,80005614 <vsprintf+0x23c>
80005610:	04099e63          	bnez	s3,8000566c <vsprintf+0x294>
80005614:	02c12a03          	lw	s4,44(sp)
80005618:	00070313          	mv	t1,a4
8000561c:	f75ff06f          	j	80005590 <vsprintf+0x1b8>
80005620:	02070793          	addi	a5,a4,32
80005624:	002e8313          	addi	t1,t4,2
80005628:	002787b3          	add	a5,a5,sp
8000562c:	02d00e93          	li	t4,45
80005630:	ffd78023          	sb	t4,-32(a5)
80005634:	40680833          	sub	a6,a6,t1
80005638:	01005463          	blez	a6,80005640 <vsprintf+0x268>
8000563c:	00099c63          	bnez	s3,80005654 <vsprintf+0x27c>
80005640:	02c12a03          	lw	s4,44(sp)
80005644:	f4dff06f          	j	80005590 <vsprintf+0x1b8>
80005648:	00000513          	li	a0,0
8000564c:	000f0023          	sb	zero,0(t5)
80005650:	00008067          	ret
80005654:	01d68023          	sb	t4,0(a3)
80005658:	00150513          	addi	a0,a0,1
8000565c:	02c12a03          	lw	s4,44(sp)
80005660:	00070313          	mv	t1,a4
80005664:	00af06b3          	add	a3,t5,a0
80005668:	f01ff06f          	j	80005568 <vsprintf+0x190>
8000566c:	02c12a03          	lw	s4,44(sp)
80005670:	00070993          	mv	s3,a4
80005674:	eedff06f          	j	80005560 <vsprintf+0x188>

80005678 <printf>:
80005678:	fb010113          	addi	sp,sp,-80
8000567c:	00001e37          	lui	t3,0x1
80005680:	fffff2b7          	lui	t0,0xfffff
80005684:	02912223          	sw	s1,36(sp)
80005688:	02112623          	sw	ra,44(sp)
8000568c:	02812423          	sw	s0,40(sp)
80005690:	fffff337          	lui	t1,0xfffff
80005694:	00510133          	add	sp,sp,t0
80005698:	010e0e93          	addi	t4,t3,16 # 1010 <_entry_offset+0x1010>
8000569c:	006e8eb3          	add	t4,t4,t1
800056a0:	01010313          	addi	t1,sp,16
800056a4:	01010f13          	addi	t5,sp,16
800056a8:	006e8333          	add	t1,t4,t1
800056ac:	024e0e93          	addi	t4,t3,36
800056b0:	00612623          	sw	t1,12(sp)
800056b4:	01ee8eb3          	add	t4,t4,t5
800056b8:	00bea023          	sw	a1,0(t4)
800056bc:	028e0593          	addi	a1,t3,40
800056c0:	01e585b3          	add	a1,a1,t5
800056c4:	02ce0e93          	addi	t4,t3,44
800056c8:	00c5a023          	sw	a2,0(a1)
800056cc:	01ee8eb3          	add	t4,t4,t5
800056d0:	034e0313          	addi	t1,t3,52
800056d4:	00050593          	mv	a1,a0
800056d8:	00c12503          	lw	a0,12(sp)
800056dc:	00dea023          	sw	a3,0(t4)
800056e0:	000e0693          	mv	a3,t3
800056e4:	030e0e13          	addi	t3,t3,48
800056e8:	01ee0e33          	add	t3,t3,t5
800056ec:	00ee2023          	sw	a4,0(t3)
800056f0:	00068713          	mv	a4,a3
800056f4:	03468693          	addi	a3,a3,52
800056f8:	01e686b3          	add	a3,a3,t5
800056fc:	00f6a023          	sw	a5,0(a3)
80005700:	00070793          	mv	a5,a4
80005704:	03870713          	addi	a4,a4,56
80005708:	01e70733          	add	a4,a4,t5
8000570c:	03c78793          	addi	a5,a5,60
80005710:	01072023          	sw	a6,0(a4)
80005714:	01e787b3          	add	a5,a5,t5
80005718:	0117a023          	sw	a7,0(a5)
8000571c:	00c12783          	lw	a5,12(sp)
80005720:	00230333          	add	t1,t1,sp
80005724:	00030613          	mv	a2,t1
80005728:	fe67ae23          	sw	t1,-4(a5)
8000572c:	cadff0ef          	jal	800053d8 <vsprintf>
80005730:	00c12783          	lw	a5,12(sp)
80005734:	00050493          	mv	s1,a0
80005738:	0007c503          	lbu	a0,0(a5)
8000573c:	00050c63          	beqz	a0,80005754 <printf+0xdc>
80005740:	00178413          	addi	s0,a5,1
80005744:	db4ff0ef          	jal	80004cf8 <putch>
80005748:	00044503          	lbu	a0,0(s0)
8000574c:	00140413          	addi	s0,s0,1
80005750:	fe051ae3          	bnez	a0,80005744 <printf+0xcc>
80005754:	000012b7          	lui	t0,0x1
80005758:	00510133          	add	sp,sp,t0
8000575c:	02c12083          	lw	ra,44(sp)
80005760:	00048513          	mv	a0,s1
80005764:	02812403          	lw	s0,40(sp)
80005768:	02412483          	lw	s1,36(sp)
8000576c:	05010113          	addi	sp,sp,80
80005770:	00008067          	ret

80005774 <sprintf>:
80005774:	fc010113          	addi	sp,sp,-64
80005778:	02810313          	addi	t1,sp,40
8000577c:	02c12423          	sw	a2,40(sp)
80005780:	00030613          	mv	a2,t1
80005784:	00112e23          	sw	ra,28(sp)
80005788:	02d12623          	sw	a3,44(sp)
8000578c:	02e12823          	sw	a4,48(sp)
80005790:	02f12a23          	sw	a5,52(sp)
80005794:	03012c23          	sw	a6,56(sp)
80005798:	03112e23          	sw	a7,60(sp)
8000579c:	00612623          	sw	t1,12(sp)
800057a0:	c39ff0ef          	jal	800053d8 <vsprintf>
800057a4:	01c12083          	lw	ra,28(sp)
800057a8:	04010113          	addi	sp,sp,64
800057ac:	00008067          	ret
