[1;34m[src/utils/log.c:30 init_log] Log is written to /home/mubai/ysyx-workbench/am-kernels/kernels/yield-os/build/nemu-log.txt[0m
[1;34m[src/memory/paddr.c:112 init_mem] physical memory area [0x80000000, 0x87ffffff][0m
[1;34m[src/device/io/mmio.c:50 add_mmio_map] Add mmio map 'serial' at [0xa00003f8, 0xa00003ff][0m
[1;34m[src/device/io/mmio.c:50 add_mmio_map] Add mmio map 'rtc' at [0xa0000048, 0xa000004f][0m
[1;34m[src/device/io/mmio.c:50 add_mmio_map] Add mmio map 'vgactl' at [0xa0000100, 0xa0000107][0m
[1;34m[src/device/io/mmio.c:50 add_mmio_map] Add mmio map 'vmem' at [0xa1000000, 0xa10752ff][0m
[1;34m[src/device/io/mmio.c:50 add_mmio_map] Add mmio map 'keyboard' at [0xa0000060, 0xa0000063][0m
[1;34m[src/device/io/mmio.c:50 add_mmio_map] Add mmio map 'audio' at [0xa0000200, 0xa0000217][0m
[1;34m[src/device/io/mmio.c:50 add_mmio_map] Add mmio map 'audio-sbuf' at [0xa1200000, 0xa120ffff][0m
[1;34m[src/monitor/monitor.c:215 load_img] The image is /home/mubai/ysyx-workbench/am-kernels/kernels/yield-os/build/yield-os-riscv32-nemu.bin, size = 104628[0m
[1;34m[src/cpu/difftest/dut.c:84 init_difftest] Differential testing: [1;32mON[0m[0m
[1;34m[src/cpu/difftest/dut.c:85 init_difftest] The result of every instruction will be compared with /home/mubai/ysyx-workbench/nemu/tools/spike-diff/build/riscv32-spike-so. This will help you a lot for debugging, but also significantly reduce the performance. If it is not necessary, you can turn it off in menuconfig.[0m
[1;34m[src/monitor/monitor.c:34 welcome] Trace: [1;32mON[0m[0m
[1;34m[src/monitor/monitor.c:35 welcome] Itrace: [1;32mON[0m[0m
[1;34m[src/monitor/monitor.c:36 welcome] Ftrace: [1;31mOFF[0m[0m
[1;34m[src/monitor/monitor.c:37 welcome] Mtrace: [1;31mOFF[0m[0m
[1;34m[src/monitor/monitor.c:38 welcome] Dtrace: [1;31mOFF[0m[0m
[1;34m[src/monitor/monitor.c:39 welcome] Etrace: [1;32mON[0m[0m
[1;34m[src/monitor/monitor.c:40 welcome] If trace is enabled, a log file will be generated to record the trace. This may lead to a large log file. If it is not necessary, you can disable it in menuconfig[0m
[1;34m[src/monitor/monitor.c:43 welcome] Build time: 18:59:46, Aug  1 2025[0m
0x80000000: 00 00 04 13 mv	s0, zero
0x80000004: 00 02 21 17 auipc	sp, 0x22
0x80000008: ff c1 01 13 addi	sp, sp, -4
0x8000000c: 18 80 00 ef jal	0x188
0x80000194: ff 01 01 13 addi	sp, sp, -0x10
0x80000198: 00 00 15 17 auipc	a0, 1
0x8000019c: 3f c5 05 13 addi	a0, a0, 0x3fc
0x800001a0: 00 11 26 23 sw	ra, 0xc(sp)
0x800001a4: f0 df f0 ef jal	-0xf4
0x800000b0: fe 01 01 13 addi	sp, sp, -0x20
0x800000b4: 00 00 05 17 auipc	a0, 0
0x800000b8: f5 c5 05 13 addi	a0, a0, -0xa4
0x800000bc: 00 11 2e 23 sw	ra, 0x1c(sp)
0x800000c0: 00 81 2c 23 sw	s0, 0x18(sp)
0x800000c4: 00 91 2a 23 sw	s1, 0x14(sp)
0x800000c8: 00 01 14 17 auipc	s0, 0x11
0x800000cc: 7e 84 04 13 addi	s0, s0, 0x7e8
0x800000d0: 17 80 00 ef jal	0x178
0x80000248: 00 05 07 93 mv	a5, a0
0x8000024c: 00 00 07 17 auipc	a4, 0
0x80000250: 03 c7 07 13 addi	a4, a4, 0x3c
0x80000254: 30 57 10 73 csrw	mtvec, a4
0x80000258: 00 10 05 13 addi	a0, zero, 1
0x8000025c: 00 01 97 17 auipc	a4, 0x19
0x80000260: 64 f7 2a 23 sw	a5, 0x654(a4)
0x80000264: 00 00 80 67 ret
0x800000d4: 00 00 94 97 auipc	s1, 9
0x800000d8: 7d c4 84 93 addi	s1, s1, 0x7dc
0x800000dc: 00 04 05 93 mv	a1, s0
0x800000e0: 00 10 06 93 addi	a3, zero, 1
0x800000e4: 00 00 06 17 auipc	a2, 0
0x800000e8: f6 86 06 13 addi	a2, a2, -0x98
0x800000ec: 00 04 85 13 mv	a0, s1
0x800000f0: 17 80 00 ef jal	0x178
0x80000268: ff 01 01 13 addi	sp, sp, -0x10
0x8000026c: 00 00 05 13 mv	a0, zero
0x80000270: 01 01 01 13 addi	sp, sp, 0x10
0x80000274: 00 00 80 67 ret
0x800000f4: 00 05 07 93 mv	a5, a0
0x800000f8: 00 20 06 93 addi	a3, zero, 2
0x800000fc: 00 00 06 17 auipc	a2, 0
0x80000100: f5 06 06 13 addi	a2, a2, -0xb0
0x80000104: 00 04 05 13 mv	a0, s0
0x80000108: 00 01 95 97 auipc	a1, 0x19
0x8000010c: 7a 85 85 93 addi	a1, a1, 0x7a8
0x80000110: 00 f4 a0 23 sw	a5, 0(s1)
0x80000114: 15 40 00 ef jal	0x154
0x80000268: ff 01 01 13 addi	sp, sp, -0x10
0x8000026c: 00 00 05 13 mv	a0, zero
0x80000270: 01 01 01 13 addi	sp, sp, 0x10
0x80000274: 00 00 80 67 ret
0x80000118: 00 a4 20 23 sw	a0, 0(s0)
0x8000011c: 15 c0 00 ef jal	0x15c
0x80000278: ff f0 08 93 addi	a7, zero, -1
0x8000027c: 00 00 00 73 ecall
0x80000288: f7 41 01 13 addi	sp, sp, -0x8c
0x8000028c: 00 11 22 23 sw	ra, 4(sp)
0x80000290: 00 31 26 23 sw	gp, 0xc(sp)
0x80000294: 00 41 28 23 sw	tp, 0x10(sp)
0x80000298: 00 51 2a 23 sw	t0, 0x14(sp)
0x8000029c: 00 61 2c 23 sw	t1, 0x18(sp)
0x800002a0: 00 71 2e 23 sw	t2, 0x1c(sp)
0x800002a4: 02 81 20 23 sw	s0, 0x20(sp)
0x800002a8: 02 91 22 23 sw	s1, 0x24(sp)
0x800002ac: 02 a1 24 23 sw	a0, 0x28(sp)
0x800002b0: 02 b1 26 23 sw	a1, 0x2c(sp)
0x800002b4: 02 c1 28 23 sw	a2, 0x30(sp)
0x800002b8: 02 d1 2a 23 sw	a3, 0x34(sp)
0x800002bc: 02 e1 2c 23 sw	a4, 0x38(sp)
0x800002c0: 02 f1 2e 23 sw	a5, 0x3c(sp)
0x800002c4: 05 01 20 23 sw	a6, 0x40(sp)
0x800002c8: 05 11 22 23 sw	a7, 0x44(sp)
0x800002cc: 05 21 24 23 sw	s2, 0x48(sp)
0x800002d0: 05 31 26 23 sw	s3, 0x4c(sp)
0x800002d4: 05 41 28 23 sw	s4, 0x50(sp)
0x800002d8: 05 51 2a 23 sw	s5, 0x54(sp)
0x800002dc: 05 61 2c 23 sw	s6, 0x58(sp)
0x800002e0: 05 71 2e 23 sw	s7, 0x5c(sp)
0x800002e4: 07 81 20 23 sw	s8, 0x60(sp)
0x800002e8: 07 91 22 23 sw	s9, 0x64(sp)
0x800002ec: 07 a1 24 23 sw	s10, 0x68(sp)
0x800002f0: 07 b1 26 23 sw	s11, 0x6c(sp)
0x800002f4: 07 c1 28 23 sw	t3, 0x70(sp)
0x800002f8: 07 d1 2a 23 sw	t4, 0x74(sp)
0x800002fc: 07 e1 2c 23 sw	t5, 0x78(sp)
0x80000300: 07 f1 2e 23 sw	t6, 0x7c(sp)
0x80000304: 34 20 22 f3 csrr	t0, mcause
0x80000308: 30 00 23 73 csrr	t1, mstatus
0x8000030c: 34 10 23 f3 csrr	t2, mepc
0x80000310: 08 51 20 23 sw	t0, 0x80(sp)
0x80000314: 08 61 22 23 sw	t1, 0x84(sp)
0x80000318: 08 71 24 23 sw	t2, 0x88(sp)
0x8000031c: 00 02 05 37 lui	a0, 0x20
0x80000320: 00 a3 63 33 or	t1, t1, a0
0x80000324: 30 03 10 73 csrw	mstatus, t1
0x80000328: 00 01 05 13 mv	a0, sp
0x8000032c: e8 9f f0 ef jal	-0x178
0x800001b4: 00 01 97 97 auipc	a5, 0x19
0x800001b8: 6f c7 a7 83 lw	a5, 0x6fc(a5)
0x800001bc: 00 05 05 93 mv	a1, a0
0x800001c0: 06 07 82 63 beqz	a5, 0x64
0x800001c4: 08 05 26 03 lw	a2, 0x80(a0)
0x800001c8: fd 01 01 13 addi	sp, sp, -0x30
0x800001cc: 02 11 26 23 sw	ra, 0x2c(sp)
0x800001d0: 00 01 2a 23 sw	zero, 0x14(sp)
0x800001d4: 00 01 2c 23 sw	zero, 0x18(sp)
0x800001d8: 00 01 2e 23 sw	zero, 0x1c(sp)
0x800001dc: 00 b0 06 93 addi	a3, zero, 0xb
0x800001e0: 00 40 07 13 addi	a4, zero, 4
0x800001e4: 02 d6 0c 63 beq	a2, a3, 0x38
0x8000021c: 00 10 07 13 addi	a4, zero, 1
0x80000220: fc 9f f0 6f j	-0x38
0x800001e8: 00 e1 20 23 sw	a4, 0(sp)
0x800001ec: 01 41 27 03 lw	a4, 0x14(sp)
0x800001f0: 00 01 05 13 mv	a0, sp
0x800001f4: 00 e1 22 23 sw	a4, 4(sp)
0x800001f8: 01 81 27 03 lw	a4, 0x18(sp)
0x800001fc: 00 e1 24 23 sw	a4, 8(sp)
0x80000200: 01 c1 27 03 lw	a4, 0x1c(sp)
0x80000204: 00 e1 26 23 sw	a4, 0xc(sp)
0x80000208: 00 07 80 e7 jalr	a5
0x80000010: 00 00 27 17 auipc	a4, 2
0x80000014: 89 c7 07 13 addi	a4, a4, -0x764
0x80000018: 00 07 26 83 lw	a3, 0(a4)
0x8000001c: 00 00 a7 97 auipc	a5, 0xa
0x80000020: 89 47 87 93 addi	a5, a5, -0x76c
0x80000024: 00 b6 a0 23 sw	a1, 0(a3)
0x80000028: 00 f6 88 63 beq	a3, a5, 0x10
0x8000002c: 00 07 a5 03 lw	a0, 0(a5)
0x80000030: 00 f7 20 23 sw	a5, 0(a4)
0x80000034: 00 00 80 67 ret
0x8000020c: 00 05 0e 63 beqz	a0, 0x1c
0x80000228: 01 00 06 13 addi	a2, zero, 0x10
0x8000022c: 00 00 15 97 auipc	a1, 1
0x80000230: 2d 05 85 93 addi	a1, a1, 0x2d0
0x80000234: 00 00 15 17 auipc	a0, 1
0x80000238: 30 c5 05 13 addi	a0, a0, 0x30c
0x8000023c: 15 00 10 ef jal	0x1150
0x8000138c: fb 01 01 13 addi	sp, sp, -0x50
0x80001390: 00 00 1e 37 lui	t3, 1
0x80001394: ff ff f2 b7 lui	t0, 0xfffff
0x80001398: 02 91 22 23 sw	s1, 0x24(sp)
0x8000139c: 02 11 26 23 sw	ra, 0x2c(sp)
0x800013a0: 02 81 24 23 sw	s0, 0x28(sp)
0x800013a4: ff ff f3 37 lui	t1, 0xfffff
0x800013a8: 00 51 01 33 add	sp, sp, t0
0x800013ac: 01 0e 0e 93 addi	t4, t3, 0x10
0x800013b0: 00 6e 8e b3 add	t4, t4, t1
0x800013b4: 01 01 03 13 addi	t1, sp, 0x10
0x800013b8: 01 01 0f 13 addi	t5, sp, 0x10
0x800013bc: 00 6e 83 33 add	t1, t4, t1
0x800013c0: 02 4e 0e 93 addi	t4, t3, 0x24
0x800013c4: 00 61 26 23 sw	t1, 0xc(sp)
0x800013c8: 01 ee 8e b3 add	t4, t4, t5
0x800013cc: 00 be a0 23 sw	a1, 0(t4)
0x800013d0: 02 8e 05 93 addi	a1, t3, 0x28
0x800013d4: 01 e5 85 b3 add	a1, a1, t5
0x800013d8: 00 c5 a0 23 sw	a2, 0(a1)
0x800013dc: 02 ce 06 13 addi	a2, t3, 0x2c
0x800013e0: 01 e6 06 33 add	a2, a2, t5
0x800013e4: 03 0e 0e 93 addi	t4, t3, 0x30
0x800013e8: 00 d6 20 23 sw	a3, 0(a2)
0x800013ec: 01 ee 8e b3 add	t4, t4, t5
0x800013f0: 03 4e 03 13 addi	t1, t3, 0x34
0x800013f4: 00 05 06 13 mv	a2, a0
0x800013f8: 00 c1 25 03 lw	a0, 0xc(sp)
0x800013fc: 00 ee a0 23 sw	a4, 0(t4)
0x80001400: 00 0e 07 13 mv	a4, t3
0x80001404: 03 4e 0e 13 addi	t3, t3, 0x34
0x80001408: 01 ee 0e 33 add	t3, t3, t5
0x8000140c: 00 fe 20 23 sw	a5, 0(t3)
0x80001410: 00 07 07 93 mv	a5, a4
0x80001414: 03 87 07 13 addi	a4, a4, 0x38
0x80001418: 01 e7 07 33 add	a4, a4, t5
0x8000141c: 03 c7 87 93 addi	a5, a5, 0x3c
0x80001420: 01 07 20 23 sw	a6, 0(a4)
0x80001424: 01 e7 87 b3 add	a5, a5, t5
0x80001428: 01 17 a0 23 sw	a7, 0(a5)
0x8000142c: 00 c1 27 83 lw	a5, 0xc(sp)
0x80001430: 00 23 03 33 add	t1, t1, sp
0x80001434: 00 03 06 93 mv	a3, t1
0x80001438: 00 00 15 b7 lui	a1, 1
0x8000143c: fe 67 ae 23 sw	t1, -4(a5)
0x80001440: f8 1f e0 ef jal	-0x1080
0x800003c0: 16 05 8a e3 beqz	a1, 0x974
0x800003c4: 00 10 07 93 addi	a5, zero, 1
0x800003c8: 00 05 0f 13 mv	t5, a0
0x800003cc: 16 f5 82 e3 beq	a1, a5, 0x964
0x800003d0: 00 06 48 83 lbu	a7, 0(a2)
0x800003d4: ff f5 83 13 addi	t1, a1, -1
0x800003d8: 00 00 05 13 mv	a0, zero
0x800003dc: 00 00 08 13 mv	a6, zero
0x800003e0: 00 00 07 93 mv	a5, zero
0x800003e4: 34 08 8e 63 beqz	a7, 0x35c
0x800003e8: f8 01 01 13 addi	sp, sp, -0x80
0x800003ec: 06 81 2e 23 sw	s0, 0x7c(sp)
0x800003f0: 07 31 28 23 sw	s3, 0x70(sp)
0x800003f4: 05 91 2c 23 sw	s9, 0x58(sp)
0x800003f8: 05 a1 2a 23 sw	s10, 0x54(sp)
0x800003fc: 05 b1 28 23 sw	s11, 0x50(sp)
0x80000400: 06 91 2c 23 sw	s1, 0x78(sp)
0x80000404: 07 21 2a 23 sw	s2, 0x74(sp)
0x80000408: 07 41 26 23 sw	s4, 0x6c(sp)
0x8000040c: 07 51 24 23 sw	s5, 0x68(sp)
0x80000410: 07 61 22 23 sw	s6, 0x64(sp)
0x80000414: 07 71 20 23 sw	s7, 0x60(sp)
0x80000418: 02 50 04 13 addi	s0, zero, 0x25
0x8000041c: 01 00 09 93 addi	s3, zero, 0x10
0x80000420: 00 00 1d 97 auipc	s11, 1
0x80000424: 1b 4d 8d 93 addi	s11, s11, 0x1b4
0x80000428: 02 e0 0c 93 addi	s9, zero, 0x2e
0x8000042c: 06 80 0d 13 addi	s10, zero, 0x68
0x80000430: 00 07 85 93 mv	a1, a5
0x80000434: 00 18 07 13 addi	a4, a6, 1
0x80000438: 06 88 88 63 beq	a7, s0, 0x70
0x8000043c: 00 15 05 13 addi	a0, a0, 1
0x80000440: 00 67 fa 63 bgeu	a5, t1, 0x14
0x80000444: 00 ff 05 b3 add	a1, t5, a5
0x80000448: 00 17 87 93 addi	a5, a5, 1
0x8000044c: 01 15 80 23 sb	a7, 0(a1)
0x80000450: 00 07 85 93 mv	a1, a5
0x80000454: 00 07 08 13 mv	a6, a4
0x80000458: 01 06 07 33 add	a4, a2, a6
0x8000045c: 00 07 48 83 lbu	a7, 0(a4)
0x80000460: fc 08 98 e3 bnez	a7, -0x30
0x80000430: 00 07 85 93 mv	a1, a5
0x80000434: 00 18 07 13 addi	a4, a6, 1
0x80000438: 06 88 88 63 beq	a7, s0, 0x70
0x8000043c: 00 15 05 13 addi	a0, a0, 1
0x80000440: 00 67 fa 63 bgeu	a5, t1, 0x14
0x80000444: 00 ff 05 b3 add	a1, t5, a5
0x80000448: 00 17 87 93 addi	a5, a5, 1
0x8000044c: 01 15 80 23 sb	a7, 0(a1)
0x80000450: 00 07 85 93 mv	a1, a5
0x80000454: 00 07 08 13 mv	a6, a4
0x80000458: 01 06 07 33 add	a4, a2, a6
0x8000045c: 00 07 48 83 lbu	a7, 0(a4)
0x80000460: fc 08 98 e3 bnez	a7, -0x30
0x80000430: 00 07 85 93 mv	a1, a5
0x80000434: 00 18 07 13 addi	a4, a6, 1
0x80000438: 06 88 88 63 beq	a7, s0, 0x70
0x8000043c: 00 15 05 13 addi	a0, a0, 1
0x80000440: 00 67 fa 63 bgeu	a5, t1, 0x14
0x80000444: 00 ff 05 b3 add	a1, t5, a5
0x80000448: 00 17 87 93 addi	a5, a5, 1
0x8000044c: 01 15 80 23 sb	a7, 0(a1)
0x80000450: 00 07 85 93 mv	a1, a5
0x80000454: 00 07 08 13 mv	a6, a4
0x80000458: 01 06 07 33 add	a4, a2, a6
0x8000045c: 00 07 48 83 lbu	a7, 0(a4)
0x80000460: fc 08 98 e3 bnez	a7, -0x30
0x80000430: 00 07 85 93 mv	a1, a5
0x80000434: 00 18 07 13 addi	a4, a6, 1
0x80000438: 06 88 88 63 beq	a7, s0, 0x70
0x8000043c: 00 15 05 13 addi	a0, a0, 1
0x80000440: 00 67 fa 63 bgeu	a5, t1, 0x14
0x80000444: 00 ff 05 b3 add	a1, t5, a5
0x80000448: 00 17 87 93 addi	a5, a5, 1
0x8000044c: 01 15 80 23 sb	a7, 0(a1)
0x80000450: 00 07 85 93 mv	a1, a5
0x80000454: 00 07 08 13 mv	a6, a4
0x80000458: 01 06 07 33 add	a4, a2, a6
0x8000045c: 00 07 48 83 lbu	a7, 0(a4)
0x80000460: fc 08 98 e3 bnez	a7, -0x30
0x80000430: 00 07 85 93 mv	a1, a5
0x80000434: 00 18 07 13 addi	a4, a6, 1
0x80000438: 06 88 88 63 beq	a7, s0, 0x70
0x8000043c: 00 15 05 13 addi	a0, a0, 1
0x80000440: 00 67 fa 63 bgeu	a5, t1, 0x14
0x80000444: 00 ff 05 b3 add	a1, t5, a5
0x80000448: 00 17 87 93 addi	a5, a5, 1
0x8000044c: 01 15 80 23 sb	a7, 0(a1)
0x80000450: 00 07 85 93 mv	a1, a5
0x80000454: 00 07 08 13 mv	a6, a4
0x80000458: 01 06 07 33 add	a4, a2, a6
0x8000045c: 00 07 48 83 lbu	a7, 0(a4)
0x80000460: fc 08 98 e3 bnez	a7, -0x30
0x80000430: 00 07 85 93 mv	a1, a5
0x80000434: 00 18 07 13 addi	a4, a6, 1
0x80000438: 06 88 88 63 beq	a7, s0, 0x70
0x8000043c: 00 15 05 13 addi	a0, a0, 1
0x80000440: 00 67 fa 63 bgeu	a5, t1, 0x14
0x80000444: 00 ff 05 b3 add	a1, t5, a5
0x80000448: 00 17 87 93 addi	a5, a5, 1
0x8000044c: 01 15 80 23 sb	a7, 0(a1)
0x80000450: 00 07 85 93 mv	a1, a5
0x80000454: 00 07 08 13 mv	a6, a4
0x80000458: 01 06 07 33 add	a4, a2, a6
0x8000045c: 00 07 48 83 lbu	a7, 0(a4)
0x80000460: fc 08 98 e3 bnez	a7, -0x30
0x80000430: 00 07 85 93 mv	a1, a5
0x80000434: 00 18 07 13 addi	a4, a6, 1
0x80000438: 06 88 88 63 beq	a7, s0, 0x70
0x8000043c: 00 15 05 13 addi	a0, a0, 1
0x80000440: 00 67 fa 63 bgeu	a5, t1, 0x14
0x80000444: 00 ff 05 b3 add	a1, t5, a5
0x80000448: 00 17 87 93 addi	a5, a5, 1
0x8000044c: 01 15 80 23 sb	a7, 0(a1)
0x80000450: 00 07 85 93 mv	a1, a5
0x80000454: 00 07 08 13 mv	a6, a4
0x80000458: 01 06 07 33 add	a4, a2, a6
0x8000045c: 00 07 48 83 lbu	a7, 0(a4)
0x80000460: fc 08 98 e3 bnez	a7, -0x30
0x80000430: 00 07 85 93 mv	a1, a5
0x80000434: 00 18 07 13 addi	a4, a6, 1
0x80000438: 06 88 88 63 beq	a7, s0, 0x70
0x8000043c: 00 15 05 13 addi	a0, a0, 1
0x80000440: 00 67 fa 63 bgeu	a5, t1, 0x14
0x80000444: 00 ff 05 b3 add	a1, t5, a5
0x80000448: 00 17 87 93 addi	a5, a5, 1
0x8000044c: 01 15 80 23 sb	a7, 0(a1)
0x80000450: 00 07 85 93 mv	a1, a5
0x80000454: 00 07 08 13 mv	a6, a4
0x80000458: 01 06 07 33 add	a4, a2, a6
0x8000045c: 00 07 48 83 lbu	a7, 0(a4)
0x80000460: fc 08 98 e3 bnez	a7, -0x30
0x80000430: 00 07 85 93 mv	a1, a5
0x80000434: 00 18 07 13 addi	a4, a6, 1
0x80000438: 06 88 88 63 beq	a7, s0, 0x70
0x8000043c: 00 15 05 13 addi	a0, a0, 1
0x80000440: 00 67 fa 63 bgeu	a5, t1, 0x14
0x80000444: 00 ff 05 b3 add	a1, t5, a5
0x80000448: 00 17 87 93 addi	a5, a5, 1
0x8000044c: 01 15 80 23 sb	a7, 0(a1)
0x80000450: 00 07 85 93 mv	a1, a5
0x80000454: 00 07 08 13 mv	a6, a4
0x80000458: 01 06 07 33 add	a4, a2, a6
0x8000045c: 00 07 48 83 lbu	a7, 0(a4)
0x80000460: fc 08 98 e3 bnez	a7, -0x30
0x80000430: 00 07 85 93 mv	a1, a5
0x80000434: 00 18 07 13 addi	a4, a6, 1
0x80000438: 06 88 88 63 beq	a7, s0, 0x70
0x8000043c: 00 15 05 13 addi	a0, a0, 1
0x80000440: 00 67 fa 63 bgeu	a5, t1, 0x14
0x80000444: 00 ff 05 b3 add	a1, t5, a5
0x80000448: 00 17 87 93 addi	a5, a5, 1
0x8000044c: 01 15 80 23 sb	a7, 0(a1)
0x80000450: 00 07 85 93 mv	a1, a5
0x80000454: 00 07 08 13 mv	a6, a4
0x80000458: 01 06 07 33 add	a4, a2, a6
0x8000045c: 00 07 48 83 lbu	a7, 0(a4)
0x80000460: fc 08 98 e3 bnez	a7, -0x30
0x80000430: 00 07 85 93 mv	a1, a5
0x80000434: 00 18 07 13 addi	a4, a6, 1
0x80000438: 06 88 88 63 beq	a7, s0, 0x70
0x8000043c: 00 15 05 13 addi	a0, a0, 1
0x80000440: 00 67 fa 63 bgeu	a5, t1, 0x14
0x80000444: 00 ff 05 b3 add	a1, t5, a5
0x80000448: 00 17 87 93 addi	a5, a5, 1
0x8000044c: 01 15 80 23 sb	a7, 0(a1)
0x80000450: 00 07 85 93 mv	a1, a5
0x80000454: 00 07 08 13 mv	a6, a4
0x80000458: 01 06 07 33 add	a4, a2, a6
0x8000045c: 00 07 48 83 lbu	a7, 0(a4)
0x80000460: fc 08 98 e3 bnez	a7, -0x30
0x80000430: 00 07 85 93 mv	a1, a5
0x80000434: 00 18 07 13 addi	a4, a6, 1
0x80000438: 06 88 88 63 beq	a7, s0, 0x70
0x8000043c: 00 15 05 13 addi	a0, a0, 1
0x80000440: 00 67 fa 63 bgeu	a5, t1, 0x14
0x80000444: 00 ff 05 b3 add	a1, t5, a5
0x80000448: 00 17 87 93 addi	a5, a5, 1
0x8000044c: 01 15 80 23 sb	a7, 0(a1)
0x80000450: 00 07 85 93 mv	a1, a5
0x80000454: 00 07 08 13 mv	a6, a4
0x80000458: 01 06 07 33 add	a4, a2, a6
0x8000045c: 00 07 48 83 lbu	a7, 0(a4)
0x80000460: fc 08 98 e3 bnez	a7, -0x30
0x80000430: 00 07 85 93 mv	a1, a5
0x80000434: 00 18 07 13 addi	a4, a6, 1
0x80000438: 06 88 88 63 beq	a7, s0, 0x70
0x8000043c: 00 15 05 13 addi	a0, a0, 1
0x80000440: 00 67 fa 63 bgeu	a5, t1, 0x14
0x80000444: 00 ff 05 b3 add	a1, t5, a5
0x80000448: 00 17 87 93 addi	a5, a5, 1
0x8000044c: 01 15 80 23 sb	a7, 0(a1)
0x80000450: 00 07 85 93 mv	a1, a5
0x80000454: 00 07 08 13 mv	a6, a4
0x80000458: 01 06 07 33 add	a4, a2, a6
0x8000045c: 00 07 48 83 lbu	a7, 0(a4)
0x80000460: fc 08 98 e3 bnez	a7, -0x30
0x80000430: 00 07 85 93 mv	a1, a5
0x80000434: 00 18 07 13 addi	a4, a6, 1
0x80000438: 06 88 88 63 beq	a7, s0, 0x70
0x8000043c: 00 15 05 13 addi	a0, a0, 1
0x80000440: 00 67 fa 63 bgeu	a5, t1, 0x14
0x80000444: 00 ff 05 b3 add	a1, t5, a5
0x80000448: 00 17 87 93 addi	a5, a5, 1
0x8000044c: 01 15 80 23 sb	a7, 0(a1)
0x80000450: 00 07 85 93 mv	a1, a5
0x80000454: 00 07 08 13 mv	a6, a4
0x80000458: 01 06 07 33 add	a4, a2, a6
0x8000045c: 00 07 48 83 lbu	a7, 0(a4)
0x80000460: fc 08 98 e3 bnez	a7, -0x30
0x80000430: 00 07 85 93 mv	a1, a5
0x80000434: 00 18 07 13 addi	a4, a6, 1
0x80000438: 06 88 88 63 beq	a7, s0, 0x70
0x8000043c: 00 15 05 13 addi	a0, a0, 1
0x80000440: 00 67 fa 63 bgeu	a5, t1, 0x14
0x80000444: 00 ff 05 b3 add	a1, t5, a5
0x80000448: 00 17 87 93 addi	a5, a5, 1
0x8000044c: 01 15 80 23 sb	a7, 0(a1)
0x80000450: 00 07 85 93 mv	a1, a5
0x80000454: 00 07 08 13 mv	a6, a4
0x80000458: 01 06 07 33 add	a4, a2, a6
0x8000045c: 00 07 48 83 lbu	a7, 0(a4)
0x80000460: fc 08 98 e3 bnez	a7, -0x30
0x80000430: 00 07 85 93 mv	a1, a5
0x80000434: 00 18 07 13 addi	a4, a6, 1
0x80000438: 06 88 88 63 beq	a7, s0, 0x70
0x8000043c: 00 15 05 13 addi	a0, a0, 1
0x80000440: 00 67 fa 63 bgeu	a5, t1, 0x14
0x80000444: 00 ff 05 b3 add	a1, t5, a5
0x80000448: 00 17 87 93 addi	a5, a5, 1
0x8000044c: 01 15 80 23 sb	a7, 0(a1)
0x80000450: 00 07 85 93 mv	a1, a5
0x80000454: 00 07 08 13 mv	a6, a4
0x80000458: 01 06 07 33 add	a4, a2, a6
0x8000045c: 00 07 48 83 lbu	a7, 0(a4)
0x80000460: fc 08 98 e3 bnez	a7, -0x30
0x80000430: 00 07 85 93 mv	a1, a5
0x80000434: 00 18 07 13 addi	a4, a6, 1
0x80000438: 06 88 88 63 beq	a7, s0, 0x70
0x8000043c: 00 15 05 13 addi	a0, a0, 1
0x80000440: 00 67 fa 63 bgeu	a5, t1, 0x14
0x80000444: 00 ff 05 b3 add	a1, t5, a5
0x80000448: 00 17 87 93 addi	a5, a5, 1
0x8000044c: 01 15 80 23 sb	a7, 0(a1)
0x80000450: 00 07 85 93 mv	a1, a5
0x80000454: 00 07 08 13 mv	a6, a4
0x80000458: 01 06 07 33 add	a4, a2, a6
0x8000045c: 00 07 48 83 lbu	a7, 0(a4)
0x80000460: fc 08 98 e3 bnez	a7, -0x30
0x80000430: 00 07 85 93 mv	a1, a5
0x80000434: 00 18 07 13 addi	a4, a6, 1
0x80000438: 06 88 88 63 beq	a7, s0, 0x70
0x8000043c: 00 15 05 13 addi	a0, a0, 1
0x80000440: 00 67 fa 63 bgeu	a5, t1, 0x14
0x80000444: 00 ff 05 b3 add	a1, t5, a5
0x80000448: 00 17 87 93 addi	a5, a5, 1
0x8000044c: 01 15 80 23 sb	a7, 0(a1)
0x80000450: 00 07 85 93 mv	a1, a5
0x80000454: 00 07 08 13 mv	a6, a4
0x80000458: 01 06 07 33 add	a4, a2, a6
0x8000045c: 00 07 48 83 lbu	a7, 0(a4)
0x80000460: fc 08 98 e3 bnez	a7, -0x30
0x80000430: 00 07 85 93 mv	a1, a5
0x80000434: 00 18 07 13 addi	a4, a6, 1
0x80000438: 06 88 88 63 beq	a7, s0, 0x70
0x800004a8: 00 e6 07 33 add	a4, a2, a4
0x800004ac: 00 28 0e 13 addi	t3, a6, 2
0x800004b0: 00 00 0b 13 mv	s6, zero
0x800004b4: 00 00 0f 93 mv	t6, zero
0x800004b8: 00 00 09 13 mv	s2, zero
0x800004bc: 00 00 0a 93 mv	s5, zero
0x800004c0: 00 00 04 93 mv	s1, zero
0x800004c4: 00 07 4e 83 lbu	t4, 0(a4)
0x800004c8: 00 07 03 93 mv	t2, a4
0x800004cc: fe 0e 88 13 addi	a6, t4, -0x20
0x800004d0: 0f f8 78 13 andi	a6, a6, 0xff
0x800004d4: 01 09 ec 63 bltu	s3, a6, 0x18
0x800004ec: 02 a0 07 13 addi	a4, zero, 0x2a
0x800004f0: 06 ee 9c 63 bne	t4, a4, 0x78
0x80000568: fd 0e 82 93 addi	t0, t4, -0x30
0x8000056c: 0f f2 f8 93 andi	a7, t0, 0xff
0x80000570: 00 90 0b 93 addi	s7, zero, 9
0x80000574: ff fe 08 13 addi	a6, t3, -1
0x80000578: 00 00 07 13 mv	a4, zero
0x8000057c: 01 c6 0e 33 add	t3, a2, t3
0x80000580: 00 90 0a 13 addi	s4, zero, 9
0x80000584: f9 1b e8 e3 bltu	s7, a7, -0x70
0x80000514: ff f0 08 93 addi	a7, zero, -1
0x80000518: 0b 9e 86 63 beq	t4, s9, 0xac
0x8000051c: 00 18 0e 13 addi	t3, a6, 1
0x80000520: 01 c6 02 b3 add	t0, a2, t3
0x80000524: 0d ae 8c 63 beq	t4, s10, 0xd8
0x80000528: 06 c0 0a 13 addi	s4, zero, 0x6c
0x8000052c: 15 4e 86 63 beq	t4, s4, 0x14c
0x80000530: 07 a0 0a 13 addi	s4, zero, 0x7a
0x80000534: 19 4e 82 63 beq	t4, s4, 0x184
0x80000538: 7c 8e 8a 63 beq	t4, s0, 0x7d4
0x8000053c: fa 8e 8e 13 addi	t3, t4, -0x58
0x80000540: 0f fe 7e 13 andi	t3, t3, 0xff
0x80000544: 02 00 02 93 addi	t0, zero, 0x20
0x80000548: 0f c2 ec 63 bltu	t0, t3, 0xf8
0x8000054c: 00 00 12 97 auipc	t0, 1
0x80000550: 0c c2 82 93 addi	t0, t0, 0xcc
0x80000554: 00 2e 1e 13 slli	t3, t3, 2
0x80000558: 00 5e 0e 33 add	t3, t3, t0
0x8000055c: 00 0e 2e 03 lw	t3, 0(t3)
0x80000560: 00 5e 0e 33 add	t3, t3, t0
0x80000564: 00 0e 00 67 jr	t3
0x80000a5c: 00 06 ae 83 lw	t4, 0(a3)
0x80000a60: 00 46 8f 93 addi	t6, a3, 4
0x80000a64: 56 0e 8c 63 beqz	t4, 0x578
0x80000a68: 00 0e c6 83 lbu	a3, 0(t4)
0x80000a6c: 40 06 80 63 beqz	a3, 0x400
0x80000a70: 00 00 06 93 mv	a3, zero
0x80000a74: 30 d8 84 63 beq	a7, a3, 0x308
0x80000a78: 00 16 86 93 addi	a3, a3, 1
0x80000a7c: 00 de 8e 33 add	t3, t4, a3
0x80000a80: 00 0e 4e 03 lbu	t3, 0(t3)
0x80000a84: fe 0e 18 e3 bnez	t3, -0x10
0x80000a74: 30 d8 84 63 beq	a7, a3, 0x308
0x80000a78: 00 16 86 93 addi	a3, a3, 1
0x80000a7c: 00 de 8e 33 add	t3, t4, a3
0x80000a80: 00 0e 4e 03 lbu	t3, 0(t3)
0x80000a84: fe 0e 18 e3 bnez	t3, -0x10
0x80000a74: 30 d8 84 63 beq	a7, a3, 0x308
0x80000a78: 00 16 86 93 addi	a3, a3, 1
0x80000a7c: 00 de 8e 33 add	t3, t4, a3
0x80000a80: 00 0e 4e 03 lbu	t3, 0(t3)
0x80000a84: fe 0e 18 e3 bnez	t3, -0x10
0x80000a74: 30 d8 84 63 beq	a7, a3, 0x308
0x80000a78: 00 16 86 93 addi	a3, a3, 1
0x80000a7c: 00 de 8e 33 add	t3, t4, a3
0x80000a80: 00 0e 4e 03 lbu	t3, 0(t3)
0x80000a84: fe 0e 18 e3 bnez	t3, -0x10
0x80000a74: 30 d8 84 63 beq	a7, a3, 0x308
0x80000a78: 00 16 86 93 addi	a3, a3, 1
0x80000a7c: 00 de 8e 33 add	t3, t4, a3
0x80000a80: 00 0e 4e 03 lbu	t3, 0(t3)
0x80000a84: fe 0e 18 e3 bnez	t3, -0x10
0x80000a74: 30 d8 84 63 beq	a7, a3, 0x308
0x80000a78: 00 16 86 93 addi	a3, a3, 1
0x80000a7c: 00 de 8e 33 add	t3, t4, a3
0x80000a80: 00 0e 4e 03 lbu	t3, 0(t3)
0x80000a84: fe 0e 18 e3 bnez	t3, -0x10
0x80000a74: 30 d8 84 63 beq	a7, a3, 0x308
0x80000a78: 00 16 86 93 addi	a3, a3, 1
0x80000a7c: 00 de 8e 33 add	t3, t4, a3
0x80000a80: 00 0e 4e 03 lbu	t3, 0(t3)
0x80000a84: fe 0e 18 e3 bnez	t3, -0x10
0x80000a74: 30 d8 84 63 beq	a7, a3, 0x308
0x80000a78: 00 16 86 93 addi	a3, a3, 1
0x80000a7c: 00 de 8e 33 add	t3, t4, a3
0x80000a80: 00 0e 4e 03 lbu	t3, 0(t3)
0x80000a84: fe 0e 18 e3 bnez	t3, -0x10
0x80000a74: 30 d8 84 63 beq	a7, a3, 0x308
0x80000a78: 00 16 86 93 addi	a3, a3, 1
0x80000a7c: 00 de 8e 33 add	t3, t4, a3
0x80000a80: 00 0e 4e 03 lbu	t3, 0(t3)
0x80000a84: fe 0e 18 e3 bnez	t3, -0x10
0x80000a74: 30 d8 84 63 beq	a7, a3, 0x308
0x80000a78: 00 16 86 93 addi	a3, a3, 1
0x80000a7c: 00 de 8e 33 add	t3, t4, a3
0x80000a80: 00 0e 4e 03 lbu	t3, 0(t3)
0x80000a84: fe 0e 18 e3 bnez	t3, -0x10
0x80000a74: 30 d8 84 63 beq	a7, a3, 0x308
0x80000a78: 00 16 86 93 addi	a3, a3, 1
0x80000a7c: 00 de 8e 33 add	t3, t4, a3
0x80000a80: 00 0e 4e 03 lbu	t3, 0(t3)
0x80000a84: fe 0e 18 e3 bnez	t3, -0x10
0x80000a74: 30 d8 84 63 beq	a7, a3, 0x308
0x80000a78: 00 16 86 93 addi	a3, a3, 1
0x80000a7c: 00 de 8e 33 add	t3, t4, a3
0x80000a80: 00 0e 4e 03 lbu	t3, 0(t3)
0x80000a84: fe 0e 18 e3 bnez	t3, -0x10
0x80000a74: 30 d8 84 63 beq	a7, a3, 0x308
0x80000a78: 00 16 86 93 addi	a3, a3, 1
0x80000a7c: 00 de 8e 33 add	t3, t4, a3
0x80000a80: 00 0e 4e 03 lbu	t3, 0(t3)
0x80000a84: fe 0e 18 e3 bnez	t3, -0x10
0x80000a74: 30 d8 84 63 beq	a7, a3, 0x308
0x80000a78: 00 16 86 93 addi	a3, a3, 1
0x80000a7c: 00 de 8e 33 add	t3, t4, a3
0x80000a80: 00 0e 4e 03 lbu	t3, 0(t3)
0x80000a84: fe 0e 18 e3 bnez	t3, -0x10
0x80000a74: 30 d8 84 63 beq	a7, a3, 0x308
0x80000a78: 00 16 86 93 addi	a3, a3, 1
0x80000a7c: 00 de 8e 33 add	t3, t4, a3
0x80000a80: 00 0e 4e 03 lbu	t3, 0(t3)
0x80000a84: fe 0e 18 e3 bnez	t3, -0x10
0x80000a74: 30 d8 84 63 beq	a7, a3, 0x308
0x80000a78: 00 16 86 93 addi	a3, a3, 1
0x80000a7c: 00 de 8e 33 add	t3, t4, a3
0x80000a80: 00 0e 4e 03 lbu	t3, 0(t3)
0x80000a84: fe 0e 18 e3 bnez	t3, -0x10
0x80000a74: 30 d8 84 63 beq	a7, a3, 0x308
0x80000a78: 00 16 86 93 addi	a3, a3, 1
0x80000a7c: 00 de 8e 33 add	t3, t4, a3
0x80000a80: 00 0e 4e 03 lbu	t3, 0(t3)
0x80000a84: fe 0e 18 e3 bnez	t3, -0x10
0x80000a74: 30 d8 84 63 beq	a7, a3, 0x308
0x80000a78: 00 16 86 93 addi	a3, a3, 1
0x80000a7c: 00 de 8e 33 add	t3, t4, a3
0x80000a80: 00 0e 4e 03 lbu	t3, 0(t3)
0x80000a84: fe 0e 18 e3 bnez	t3, -0x10
0x80000a74: 30 d8 84 63 beq	a7, a3, 0x308
0x80000a78: 00 16 86 93 addi	a3, a3, 1
0x80000a7c: 00 de 8e 33 add	t3, t4, a3
0x80000a80: 00 0e 4e 03 lbu	t3, 0(t3)
0x80000a84: fe 0e 18 e3 bnez	t3, -0x10
0x80000a74: 30 d8 84 63 beq	a7, a3, 0x308
0x80000a78: 00 16 86 93 addi	a3, a3, 1
0x80000a7c: 00 de 8e 33 add	t3, t4, a3
0x80000a80: 00 0e 4e 03 lbu	t3, 0(t3)
0x80000a84: fe 0e 18 e3 bnez	t3, -0x10
0x80000a74: 30 d8 84 63 beq	a7, a3, 0x308
0x80000a78: 00 16 86 93 addi	a3, a3, 1
0x80000a7c: 00 de 8e 33 add	t3, t4, a3
0x80000a80: 00 0e 4e 03 lbu	t3, 0(t3)
0x80000a84: fe 0e 18 e3 bnez	t3, -0x10
0x80000a74: 30 d8 84 63 beq	a7, a3, 0x308
0x80000a78: 00 16 86 93 addi	a3, a3, 1
0x80000a7c: 00 de 8e 33 add	t3, t4, a3
0x80000a80: 00 0e 4e 03 lbu	t3, 0(t3)
0x80000a84: fe 0e 18 e3 bnez	t3, -0x10
0x80000a74: 30 d8 84 63 beq	a7, a3, 0x308
0x80000a78: 00 16 86 93 addi	a3, a3, 1
0x80000a7c: 00 de 8e 33 add	t3, t4, a3
0x80000a80: 00 0e 4e 03 lbu	t3, 0(t3)
0x80000a84: fe 0e 18 e3 bnez	t3, -0x10
0x80000a74: 30 d8 84 63 beq	a7, a3, 0x308
0x80000a78: 00 16 86 93 addi	a3, a3, 1
0x80000a7c: 00 de 8e 33 add	t3, t4, a3
0x80000a80: 00 0e 4e 03 lbu	t3, 0(t3)
0x80000a84: fe 0e 18 e3 bnez	t3, -0x10
0x80000a74: 30 d8 84 63 beq	a7, a3, 0x308
0x80000a78: 00 16 86 93 addi	a3, a3, 1
0x80000a7c: 00 de 8e 33 add	t3, t4, a3
0x80000a80: 00 0e 4e 03 lbu	t3, 0(t3)
0x80000a84: fe 0e 18 e3 bnez	t3, -0x10
0x80000a74: 30 d8 84 63 beq	a7, a3, 0x308
0x80000a78: 00 16 86 93 addi	a3, a3, 1
0x80000a7c: 00 de 8e 33 add	t3, t4, a3
0x80000a80: 00 0e 4e 03 lbu	t3, 0(t3)
0x80000a84: fe 0e 18 e3 bnez	t3, -0x10
0x80000a74: 30 d8 84 63 beq	a7, a3, 0x308
0x80000a78: 00 16 86 93 addi	a3, a3, 1
0x80000a7c: 00 de 8e 33 add	t3, t4, a3
0x80000a80: 00 0e 4e 03 lbu	t3, 0(t3)
0x80000a84: fe 0e 18 e3 bnez	t3, -0x10
0x80000a74: 30 d8 84 63 beq	a7, a3, 0x308
0x80000a78: 00 16 86 93 addi	a3, a3, 1
0x80000a7c: 00 de 8e 33 add	t3, t4, a3
0x80000a80: 00 0e 4e 03 lbu	t3, 0(t3)
0x80000a84: fe 0e 18 e3 bnez	t3, -0x10
0x80000a74: 30 d8 84 63 beq	a7, a3, 0x308
0x80000a78: 00 16 86 93 addi	a3, a3, 1
0x80000a7c: 00 de 8e 33 add	t3, t4, a3
0x80000a80: 00 0e 4e 03 lbu	t3, 0(t3)
0x80000a84: fe 0e 18 e3 bnez	t3, -0x10
0x80000a74: 30 d8 84 63 beq	a7, a3, 0x308
0x80000a78: 00 16 86 93 addi	a3, a3, 1
0x80000a7c: 00 de 8e 33 add	t3, t4, a3
0x80000a80: 00 0e 4e 03 lbu	t3, 0(t3)
0x80000a84: fe 0e 18 e3 bnez	t3, -0x10
0x80000a74: 30 d8 84 63 beq	a7, a3, 0x308
0x80000a78: 00 16 86 93 addi	a3, a3, 1
0x80000a7c: 00 de 8e 33 add	t3, t4, a3
0x80000a80: 00 0e 4e 03 lbu	t3, 0(t3)
0x80000a84: fe 0e 18 e3 bnez	t3, -0x10
0x80000a74: 30 d8 84 63 beq	a7, a3, 0x308
0x80000a78: 00 16 86 93 addi	a3, a3, 1
0x80000a7c: 00 de 8e 33 add	t3, t4, a3
0x80000a80: 00 0e 4e 03 lbu	t3, 0(t3)
0x80000a84: fe 0e 18 e3 bnez	t3, -0x10
0x80000a74: 30 d8 84 63 beq	a7, a3, 0x308
0x80000a78: 00 16 86 93 addi	a3, a3, 1
0x80000a7c: 00 de 8e 33 add	t3, t4, a3
0x80000a80: 00 0e 4e 03 lbu	t3, 0(t3)
0x80000a84: fe 0e 18 e3 bnez	t3, -0x10
0x80000a74: 30 d8 84 63 beq	a7, a3, 0x308
0x80000a78: 00 16 86 93 addi	a3, a3, 1
0x80000a7c: 00 de 8e 33 add	t3, t4, a3
0x80000a80: 00 0e 4e 03 lbu	t3, 0(t3)
0x80000a84: fe 0e 18 e3 bnez	t3, -0x10
0x80000a74: 30 d8 84 63 beq	a7, a3, 0x308
0x80000a78: 00 16 86 93 addi	a3, a3, 1
0x80000a7c: 00 de 8e 33 add	t3, t4, a3
0x80000a80: 00 0e 4e 03 lbu	t3, 0(t3)
0x80000a84: fe 0e 18 e3 bnez	t3, -0x10
0x80000a74: 30 d8 84 63 beq	a7, a3, 0x308
0x80000a78: 00 16 86 93 addi	a3, a3, 1
0x80000a7c: 00 de 8e 33 add	t3, t4, a3
0x80000a80: 00 0e 4e 03 lbu	t3, 0(t3)
0x80000a84: fe 0e 18 e3 bnez	t3, -0x10
0x80000a74: 30 d8 84 63 beq	a7, a3, 0x308
0x80000a78: 00 16 86 93 addi	a3, a3, 1
0x80000a7c: 00 de 8e 33 add	t3, t4, a3
0x80000a80: 00 0e 4e 03 lbu	t3, 0(t3)
0x80000a84: fe 0e 18 e3 bnez	t3, -0x10
0x80000a74: 30 d8 84 63 beq	a7, a3, 0x308
0x80000a78: 00 16 86 93 addi	a3, a3, 1
0x80000a7c: 00 de 8e 33 add	t3, t4, a3
0x80000a80: 00 0e 4e 03 lbu	t3, 0(t3)
0x80000a84: fe 0e 18 e3 bnez	t3, -0x10
0x80000a74: 30 d8 84 63 beq	a7, a3, 0x308
0x80000a78: 00 16 86 93 addi	a3, a3, 1
0x80000a7c: 00 de 8e 33 add	t3, t4, a3
0x80000a80: 00 0e 4e 03 lbu	t3, 0(t3)
0x80000a84: fe 0e 18 e3 bnez	t3, -0x10
0x80000a74: 30 d8 84 63 beq	a7, a3, 0x308
0x80000a78: 00 16 86 93 addi	a3, a3, 1
0x80000a7c: 00 de 8e 33 add	t3, t4, a3
0x80000a80: 00 0e 4e 03 lbu	t3, 0(t3)
0x80000a84: fe 0e 18 e3 bnez	t3, -0x10
0x80000a74: 30 d8 84 63 beq	a7, a3, 0x308
0x80000a78: 00 16 86 93 addi	a3, a3, 1
0x80000a7c: 00 de 8e 33 add	t3, t4, a3
0x80000a80: 00 0e 4e 03 lbu	t3, 0(t3)
0x80000a84: fe 0e 18 e3 bnez	t3, -0x10
0x80000a74: 30 d8 84 63 beq	a7, a3, 0x308
0x80000a78: 00 16 86 93 addi	a3, a3, 1
0x80000a7c: 00 de 8e 33 add	t3, t4, a3
0x80000a80: 00 0e 4e 03 lbu	t3, 0(t3)
0x80000a84: fe 0e 18 e3 bnez	t3, -0x10
0x80000a74: 30 d8 84 63 beq	a7, a3, 0x308
0x80000a78: 00 16 86 93 addi	a3, a3, 1
0x80000a7c: 00 de 8e 33 add	t3, t4, a3
0x80000a80: 00 0e 4e 03 lbu	t3, 0(t3)
0x80000a84: fe 0e 18 e3 bnez	t3, -0x10
0x80000a74: 30 d8 84 63 beq	a7, a3, 0x308
0x80000a78: 00 16 86 93 addi	a3, a3, 1
0x80000a7c: 00 de 8e 33 add	t3, t4, a3
0x80000a80: 00 0e 4e 03 lbu	t3, 0(t3)
0x80000a84: fe 0e 18 e3 bnez	t3, -0x10
0x80000a74: 30 d8 84 63 beq	a7, a3, 0x308
0x80000a78: 00 16 86 93 addi	a3, a3, 1
0x80000a7c: 00 de 8e 33 add	t3, t4, a3
0x80000a80: 00 0e 4e 03 lbu	t3, 0(t3)
0x80000a84: fe 0e 18 e3 bnez	t3, -0x10
0x80000a74: 30 d8 84 63 beq	a7, a3, 0x308
0x80000a78: 00 16 86 93 addi	a3, a3, 1
0x80000a7c: 00 de 8e 33 add	t3, t4, a3
0x80000a80: 00 0e 4e 03 lbu	t3, 0(t3)
0x80000a84: fe 0e 18 e3 bnez	t3, -0x10
0x80000a74: 30 d8 84 63 beq	a7, a3, 0x308
0x80000a78: 00 16 86 93 addi	a3, a3, 1
0x80000a7c: 00 de 8e 33 add	t3, t4, a3
0x80000a80: 00 0e 4e 03 lbu	t3, 0(t3)
0x80000a84: fe 0e 18 e3 bnez	t3, -0x10
0x80000a74: 30 d8 84 63 beq	a7, a3, 0x308
0x80000a78: 00 16 86 93 addi	a3, a3, 1
0x80000a7c: 00 de 8e 33 add	t3, t4, a3
0x80000a80: 00 0e 4e 03 lbu	t3, 0(t3)
0x80000a84: fe 0e 18 e3 bnez	t3, -0x10
0x80000a74: 30 d8 84 63 beq	a7, a3, 0x308
0x80000a78: 00 16 86 93 addi	a3, a3, 1
0x80000a7c: 00 de 8e 33 add	t3, t4, a3
0x80000a80: 00 0e 4e 03 lbu	t3, 0(t3)
0x80000a84: fe 0e 18 e3 bnez	t3, -0x10
0x80000a74: 30 d8 84 63 beq	a7, a3, 0x308
0x80000a78: 00 16 86 93 addi	a3, a3, 1
0x80000a7c: 00 de 8e 33 add	t3, t4, a3
0x80000a80: 00 0e 4e 03 lbu	t3, 0(t3)
0x80000a84: fe 0e 18 e3 bnez	t3, -0x10
0x80000a74: 30 d8 84 63 beq	a7, a3, 0x308
0x80000a78: 00 16 86 93 addi	a3, a3, 1
0x80000a7c: 00 de 8e 33 add	t3, t4, a3
0x80000a80: 00 0e 4e 03 lbu	t3, 0(t3)
0x80000a84: fe 0e 18 e3 bnez	t3, -0x10
0x80000a74: 30 d8 84 63 beq	a7, a3, 0x308
0x80000a78: 00 16 86 93 addi	a3, a3, 1
0x80000a7c: 00 de 8e 33 add	t3, t4, a3
0x80000a80: 00 0e 4e 03 lbu	t3, 0(t3)
0x80000a84: fe 0e 18 e3 bnez	t3, -0x10
0x80000a74: 30 d8 84 63 beq	a7, a3, 0x308
0x80000a78: 00 16 86 93 addi	a3, a3, 1
0x80000a7c: 00 de 8e 33 add	t3, t4, a3
0x80000a80: 00 0e 4e 03 lbu	t3, 0(t3)
0x80000a84: fe 0e 18 e3 bnez	t3, -0x10
0x80000a74: 30 d8 84 63 beq	a7, a3, 0x308
0x80000a78: 00 16 86 93 addi	a3, a3, 1
0x80000a7c: 00 de 8e 33 add	t3, t4, a3
0x80000a80: 00 0e 4e 03 lbu	t3, 0(t3)
0x80000a84: fe 0e 18 e3 bnez	t3, -0x10
0x80000a74: 30 d8 84 63 beq	a7, a3, 0x308
0x80000a78: 00 16 86 93 addi	a3, a3, 1
0x80000a7c: 00 de 8e 33 add	t3, t4, a3
0x80000a80: 00 0e 4e 03 lbu	t3, 0(t3)
0x80000a84: fe 0e 18 e3 bnez	t3, -0x10
0x80000a74: 30 d8 84 63 beq	a7, a3, 0x308
0x80000a78: 00 16 86 93 addi	a3, a3, 1
0x80000a7c: 00 de 8e 33 add	t3, t4, a3
0x80000a80: 00 0e 4e 03 lbu	t3, 0(t3)
0x80000a84: fe 0e 18 e3 bnez	t3, -0x10
0x80000a74: 30 d8 84 63 beq	a7, a3, 0x308
0x80000a78: 00 16 86 93 addi	a3, a3, 1
0x80000a7c: 00 de 8e 33 add	t3, t4, a3
0x80000a80: 00 0e 4e 03 lbu	t3, 0(t3)
0x80000a84: fe 0e 18 e3 bnez	t3, -0x10
0x80000a74: 30 d8 84 63 beq	a7, a3, 0x308
0x80000a78: 00 16 86 93 addi	a3, a3, 1
0x80000a7c: 00 de 8e 33 add	t3, t4, a3
0x80000a80: 00 0e 4e 03 lbu	t3, 0(t3)
0x80000a84: fe 0e 18 e3 bnez	t3, -0x10
0x80000a74: 30 d8 84 63 beq	a7, a3, 0x308
0x80000a78: 00 16 86 93 addi	a3, a3, 1
0x80000a7c: 00 de 8e 33 add	t3, t4, a3
0x80000a80: 00 0e 4e 03 lbu	t3, 0(t3)
0x80000a84: fe 0e 18 e3 bnez	t3, -0x10
0x80000a74: 30 d8 84 63 beq	a7, a3, 0x308
0x80000a78: 00 16 86 93 addi	a3, a3, 1
0x80000a7c: 00 de 8e 33 add	t3, t4, a3
0x80000a80: 00 0e 4e 03 lbu	t3, 0(t3)
0x80000a84: fe 0e 18 e3 bnez	t3, -0x10
0x80000a74: 30 d8 84 63 beq	a7, a3, 0x308
0x80000a78: 00 16 86 93 addi	a3, a3, 1
0x80000a7c: 00 de 8e 33 add	t3, t4, a3
0x80000a80: 00 0e 4e 03 lbu	t3, 0(t3)
0x80000a84: fe 0e 18 e3 bnez	t3, -0x10
0x80000a74: 30 d8 84 63 beq	a7, a3, 0x308
0x80000a78: 00 16 86 93 addi	a3, a3, 1
0x80000a7c: 00 de 8e 33 add	t3, t4, a3
0x80000a80: 00 0e 4e 03 lbu	t3, 0(t3)
0x80000a84: fe 0e 18 e3 bnez	t3, -0x10
0x80000a74: 30 d8 84 63 beq	a7, a3, 0x308
0x80000a78: 00 16 86 93 addi	a3, a3, 1
0x80000a7c: 00 de 8e 33 add	t3, t4, a3
0x80000a80: 00 0e 4e 03 lbu	t3, 0(t3)
0x80000a84: fe 0e 18 e3 bnez	t3, -0x10
0x80000a74: 30 d8 84 63 beq	a7, a3, 0x308
0x80000a78: 00 16 86 93 addi	a3, a3, 1
0x80000a7c: 00 de 8e 33 add	t3, t4, a3
0x80000a80: 00 0e 4e 03 lbu	t3, 0(t3)
0x80000a84: fe 0e 18 e3 bnez	t3, -0x10
0x80000a74: 30 d8 84 63 beq	a7, a3, 0x308
0x80000a78: 00 16 86 93 addi	a3, a3, 1
0x80000a7c: 00 de 8e 33 add	t3, t4, a3
0x80000a80: 00 0e 4e 03 lbu	t3, 0(t3)
0x80000a84: fe 0e 18 e3 bnez	t3, -0x10
0x80000a74: 30 d8 84 63 beq	a7, a3, 0x308
0x80000a78: 00 16 86 93 addi	a3, a3, 1
0x80000a7c: 00 de 8e 33 add	t3, t4, a3
0x80000a80: 00 0e 4e 03 lbu	t3, 0(t3)
0x80000a84: fe 0e 18 e3 bnez	t3, -0x10
0x80000a74: 30 d8 84 63 beq	a7, a3, 0x308
0x80000a78: 00 16 86 93 addi	a3, a3, 1
0x80000a7c: 00 de 8e 33 add	t3, t4, a3
0x80000a80: 00 0e 4e 03 lbu	t3, 0(t3)
0x80000a84: fe 0e 18 e3 bnez	t3, -0x10
0x80000a88: 40 d7 0e 33 sub	t3, a4, a3
0x80000a8c: 7b c0 56 63 blez	t3, 0x7ac
0x80001238: 00 14 b7 13 seqz	a4, s1
0x8000123c: 00 d5 05 33 add	a0, a0, a3
0x80001240: 40 ee 0e 33 sub	t3, t3, a4
0x80001244: 85 5f f0 6f j	-0x7ac
0x80000a98: 00 00 07 13 mv	a4, zero
0x80000a9c: 00 07 85 93 mv	a1, a5
0x80000aa0: 00 67 fe 63 bgeu	a5, t1, 0x1c
0x80000aa4: 00 ee 88 b3 add	a7, t4, a4
0x80000aa8: 00 08 c8 83 lbu	a7, 0(a7)
0x80000aac: 00 ff 05 b3 add	a1, t5, a5
0x80000ab0: 00 17 87 93 addi	a5, a5, 1
0x80000ab4: 01 15 80 23 sb	a7, 0(a1)
0x80000ab8: 00 07 85 93 mv	a1, a5
0x80000abc: 00 17 07 13 addi	a4, a4, 1
0x80000ac0: fc d7 4e e3 blt	a4, a3, -0x24
0x80000a9c: 00 07 85 93 mv	a1, a5
0x80000aa0: 00 67 fe 63 bgeu	a5, t1, 0x1c
0x80000aa4: 00 ee 88 b3 add	a7, t4, a4
0x80000aa8: 00 08 c8 83 lbu	a7, 0(a7)
0x80000aac: 00 ff 05 b3 add	a1, t5, a5
0x80000ab0: 00 17 87 93 addi	a5, a5, 1
0x80000ab4: 01 15 80 23 sb	a7, 0(a1)
0x80000ab8: 00 07 85 93 mv	a1, a5
0x80000abc: 00 17 07 13 addi	a4, a4, 1
0x80000ac0: fc d7 4e e3 blt	a4, a3, -0x24
0x80000a9c: 00 07 85 93 mv	a1, a5
0x80000aa0: 00 67 fe 63 bgeu	a5, t1, 0x1c
0x80000aa4: 00 ee 88 b3 add	a7, t4, a4
0x80000aa8: 00 08 c8 83 lbu	a7, 0(a7)
0x80000aac: 00 ff 05 b3 add	a1, t5, a5
0x80000ab0: 00 17 87 93 addi	a5, a5, 1
0x80000ab4: 01 15 80 23 sb	a7, 0(a1)
0x80000ab8: 00 07 85 93 mv	a1, a5
0x80000abc: 00 17 07 13 addi	a4, a4, 1
0x80000ac0: fc d7 4e e3 blt	a4, a3, -0x24
0x80000a9c: 00 07 85 93 mv	a1, a5
0x80000aa0: 00 67 fe 63 bgeu	a5, t1, 0x1c
0x80000aa4: 00 ee 88 b3 add	a7, t4, a4
0x80000aa8: 00 08 c8 83 lbu	a7, 0(a7)
0x80000aac: 00 ff 05 b3 add	a1, t5, a5
0x80000ab0: 00 17 87 93 addi	a5, a5, 1
0x80000ab4: 01 15 80 23 sb	a7, 0(a1)
0x80000ab8: 00 07 85 93 mv	a1, a5
0x80000abc: 00 17 07 13 addi	a4, a4, 1
0x80000ac0: fc d7 4e e3 blt	a4, a3, -0x24
0x80000a9c: 00 07 85 93 mv	a1, a5
0x80000aa0: 00 67 fe 63 bgeu	a5, t1, 0x1c
0x80000aa4: 00 ee 88 b3 add	a7, t4, a4
0x80000aa8: 00 08 c8 83 lbu	a7, 0(a7)
0x80000aac: 00 ff 05 b3 add	a1, t5, a5
0x80000ab0: 00 17 87 93 addi	a5, a5, 1
0x80000ab4: 01 15 80 23 sb	a7, 0(a1)
0x80000ab8: 00 07 85 93 mv	a1, a5
0x80000abc: 00 17 07 13 addi	a4, a4, 1
0x80000ac0: fc d7 4e e3 blt	a4, a3, -0x24
0x80000a9c: 00 07 85 93 mv	a1, a5
0x80000aa0: 00 67 fe 63 bgeu	a5, t1, 0x1c
0x80000aa4: 00 ee 88 b3 add	a7, t4, a4
0x80000aa8: 00 08 c8 83 lbu	a7, 0(a7)
0x80000aac: 00 ff 05 b3 add	a1, t5, a5
0x80000ab0: 00 17 87 93 addi	a5, a5, 1
0x80000ab4: 01 15 80 23 sb	a7, 0(a1)
0x80000ab8: 00 07 85 93 mv	a1, a5
0x80000abc: 00 17 07 13 addi	a4, a4, 1
0x80000ac0: fc d7 4e e3 blt	a4, a3, -0x24
0x80000a9c: 00 07 85 93 mv	a1, a5
0x80000aa0: 00 67 fe 63 bgeu	a5, t1, 0x1c
0x80000aa4: 00 ee 88 b3 add	a7, t4, a4
0x80000aa8: 00 08 c8 83 lbu	a7, 0(a7)
0x80000aac: 00 ff 05 b3 add	a1, t5, a5
0x80000ab0: 00 17 87 93 addi	a5, a5, 1
0x80000ab4: 01 15 80 23 sb	a7, 0(a1)
0x80000ab8: 00 07 85 93 mv	a1, a5
0x80000abc: 00 17 07 13 addi	a4, a4, 1
0x80000ac0: fc d7 4e e3 blt	a4, a3, -0x24
0x80000a9c: 00 07 85 93 mv	a1, a5
0x80000aa0: 00 67 fe 63 bgeu	a5, t1, 0x1c
0x80000aa4: 00 ee 88 b3 add	a7, t4, a4
0x80000aa8: 00 08 c8 83 lbu	a7, 0(a7)
0x80000aac: 00 ff 05 b3 add	a1, t5, a5
0x80000ab0: 00 17 87 93 addi	a5, a5, 1
0x80000ab4: 01 15 80 23 sb	a7, 0(a1)
0x80000ab8: 00 07 85 93 mv	a1, a5
0x80000abc: 00 17 07 13 addi	a4, a4, 1
0x80000ac0: fc d7 4e e3 blt	a4, a3, -0x24
0x80000a9c: 00 07 85 93 mv	a1, a5
0x80000aa0: 00 67 fe 63 bgeu	a5, t1, 0x1c
0x80000aa4: 00 ee 88 b3 add	a7, t4, a4
0x80000aa8: 00 08 c8 83 lbu	a7, 0(a7)
0x80000aac: 00 ff 05 b3 add	a1, t5, a5
0x80000ab0: 00 17 87 93 addi	a5, a5, 1
0x80000ab4: 01 15 80 23 sb	a7, 0(a1)
0x80000ab8: 00 07 85 93 mv	a1, a5
0x80000abc: 00 17 07 13 addi	a4, a4, 1
0x80000ac0: fc d7 4e e3 blt	a4, a3, -0x24
0x80000a9c: 00 07 85 93 mv	a1, a5
0x80000aa0: 00 67 fe 63 bgeu	a5, t1, 0x1c
0x80000aa4: 00 ee 88 b3 add	a7, t4, a4
0x80000aa8: 00 08 c8 83 lbu	a7, 0(a7)
0x80000aac: 00 ff 05 b3 add	a1, t5, a5
0x80000ab0: 00 17 87 93 addi	a5, a5, 1
0x80000ab4: 01 15 80 23 sb	a7, 0(a1)
0x80000ab8: 00 07 85 93 mv	a1, a5
0x80000abc: 00 17 07 13 addi	a4, a4, 1
0x80000ac0: fc d7 4e e3 blt	a4, a3, -0x24
0x80000a9c: 00 07 85 93 mv	a1, a5
0x80000aa0: 00 67 fe 63 bgeu	a5, t1, 0x1c
0x80000aa4: 00 ee 88 b3 add	a7, t4, a4
0x80000aa8: 00 08 c8 83 lbu	a7, 0(a7)
0x80000aac: 00 ff 05 b3 add	a1, t5, a5
0x80000ab0: 00 17 87 93 addi	a5, a5, 1
0x80000ab4: 01 15 80 23 sb	a7, 0(a1)
0x80000ab8: 00 07 85 93 mv	a1, a5
0x80000abc: 00 17 07 13 addi	a4, a4, 1
0x80000ac0: fc d7 4e e3 blt	a4, a3, -0x24
0x80000a9c: 00 07 85 93 mv	a1, a5
0x80000aa0: 00 67 fe 63 bgeu	a5, t1, 0x1c
0x80000aa4: 00 ee 88 b3 add	a7, t4, a4
0x80000aa8: 00 08 c8 83 lbu	a7, 0(a7)
0x80000aac: 00 ff 05 b3 add	a1, t5, a5
0x80000ab0: 00 17 87 93 addi	a5, a5, 1
0x80000ab4: 01 15 80 23 sb	a7, 0(a1)
0x80000ab8: 00 07 85 93 mv	a1, a5
0x80000abc: 00 17 07 13 addi	a4, a4, 1
0x80000ac0: fc d7 4e e3 blt	a4, a3, -0x24
0x80000a9c: 00 07 85 93 mv	a1, a5
0x80000aa0: 00 67 fe 63 bgeu	a5, t1, 0x1c
0x80000aa4: 00 ee 88 b3 add	a7, t4, a4
0x80000aa8: 00 08 c8 83 lbu	a7, 0(a7)
0x80000aac: 00 ff 05 b3 add	a1, t5, a5
0x80000ab0: 00 17 87 93 addi	a5, a5, 1
0x80000ab4: 01 15 80 23 sb	a7, 0(a1)
0x80000ab8: 00 07 85 93 mv	a1, a5
0x80000abc: 00 17 07 13 addi	a4, a4, 1
0x80000ac0: fc d7 4e e3 blt	a4, a3, -0x24
0x80000a9c: 00 07 85 93 mv	a1, a5
0x80000aa0: 00 67 fe 63 bgeu	a5, t1, 0x1c
0x80000aa4: 00 ee 88 b3 add	a7, t4, a4
0x80000aa8: 00 08 c8 83 lbu	a7, 0(a7)
0x80000aac: 00 ff 05 b3 add	a1, t5, a5
0x80000ab0: 00 17 87 93 addi	a5, a5, 1
0x80000ab4: 01 15 80 23 sb	a7, 0(a1)
0x80000ab8: 00 07 85 93 mv	a1, a5
0x80000abc: 00 17 07 13 addi	a4, a4, 1
0x80000ac0: fc d7 4e e3 blt	a4, a3, -0x24
0x80000a9c: 00 07 85 93 mv	a1, a5
0x80000aa0: 00 67 fe 63 bgeu	a5, t1, 0x1c
0x80000aa4: 00 ee 88 b3 add	a7, t4, a4
0x80000aa8: 00 08 c8 83 lbu	a7, 0(a7)
0x80000aac: 00 ff 05 b3 add	a1, t5, a5
0x80000ab0: 00 17 87 93 addi	a5, a5, 1
0x80000ab4: 01 15 80 23 sb	a7, 0(a1)
0x80000ab8: 00 07 85 93 mv	a1, a5
0x80000abc: 00 17 07 13 addi	a4, a4, 1
0x80000ac0: fc d7 4e e3 blt	a4, a3, -0x24
0x80000a9c: 00 07 85 93 mv	a1, a5
0x80000aa0: 00 67 fe 63 bgeu	a5, t1, 0x1c
0x80000aa4: 00 ee 88 b3 add	a7, t4, a4
0x80000aa8: 00 08 c8 83 lbu	a7, 0(a7)
0x80000aac: 00 ff 05 b3 add	a1, t5, a5
0x80000ab0: 00 17 87 93 addi	a5, a5, 1
0x80000ab4: 01 15 80 23 sb	a7, 0(a1)
0x80000ab8: 00 07 85 93 mv	a1, a5
0x80000abc: 00 17 07 13 addi	a4, a4, 1
0x80000ac0: fc d7 4e e3 blt	a4, a3, -0x24
0x80000a9c: 00 07 85 93 mv	a1, a5
0x80000aa0: 00 67 fe 63 bgeu	a5, t1, 0x1c
0x80000aa4: 00 ee 88 b3 add	a7, t4, a4
0x80000aa8: 00 08 c8 83 lbu	a7, 0(a7)
0x80000aac: 00 ff 05 b3 add	a1, t5, a5
0x80000ab0: 00 17 87 93 addi	a5, a5, 1
0x80000ab4: 01 15 80 23 sb	a7, 0(a1)
0x80000ab8: 00 07 85 93 mv	a1, a5
0x80000abc: 00 17 07 13 addi	a4, a4, 1
0x80000ac0: fc d7 4e e3 blt	a4, a3, -0x24
0x80000a9c: 00 07 85 93 mv	a1, a5
0x80000aa0: 00 67 fe 63 bgeu	a5, t1, 0x1c
0x80000aa4: 00 ee 88 b3 add	a7, t4, a4
0x80000aa8: 00 08 c8 83 lbu	a7, 0(a7)
0x80000aac: 00 ff 05 b3 add	a1, t5, a5
0x80000ab0: 00 17 87 93 addi	a5, a5, 1
0x80000ab4: 01 15 80 23 sb	a7, 0(a1)
0x80000ab8: 00 07 85 93 mv	a1, a5
0x80000abc: 00 17 07 13 addi	a4, a4, 1
0x80000ac0: fc d7 4e e3 blt	a4, a3, -0x24
0x80000a9c: 00 07 85 93 mv	a1, a5
0x80000aa0: 00 67 fe 63 bgeu	a5, t1, 0x1c
0x80000aa4: 00 ee 88 b3 add	a7, t4, a4
0x80000aa8: 00 08 c8 83 lbu	a7, 0(a7)
0x80000aac: 00 ff 05 b3 add	a1, t5, a5
0x80000ab0: 00 17 87 93 addi	a5, a5, 1
0x80000ab4: 01 15 80 23 sb	a7, 0(a1)
0x80000ab8: 00 07 85 93 mv	a1, a5
0x80000abc: 00 17 07 13 addi	a4, a4, 1
0x80000ac0: fc d7 4e e3 blt	a4, a3, -0x24
0x80000a9c: 00 07 85 93 mv	a1, a5
0x80000aa0: 00 67 fe 63 bgeu	a5, t1, 0x1c
0x80000aa4: 00 ee 88 b3 add	a7, t4, a4
0x80000aa8: 00 08 c8 83 lbu	a7, 0(a7)
0x80000aac: 00 ff 05 b3 add	a1, t5, a5
0x80000ab0: 00 17 87 93 addi	a5, a5, 1
0x80000ab4: 01 15 80 23 sb	a7, 0(a1)
0x80000ab8: 00 07 85 93 mv	a1, a5
0x80000abc: 00 17 07 13 addi	a4, a4, 1
0x80000ac0: fc d7 4e e3 blt	a4, a3, -0x24
0x80000a9c: 00 07 85 93 mv	a1, a5
0x80000aa0: 00 67 fe 63 bgeu	a5, t1, 0x1c
0x80000aa4: 00 ee 88 b3 add	a7, t4, a4
0x80000aa8: 00 08 c8 83 lbu	a7, 0(a7)
0x80000aac: 00 ff 05 b3 add	a1, t5, a5
0x80000ab0: 00 17 87 93 addi	a5, a5, 1
0x80000ab4: 01 15 80 23 sb	a7, 0(a1)
0x80000ab8: 00 07 85 93 mv	a1, a5
0x80000abc: 00 17 07 13 addi	a4, a4, 1
0x80000ac0: fc d7 4e e3 blt	a4, a3, -0x24
0x80000a9c: 00 07 85 93 mv	a1, a5
0x80000aa0: 00 67 fe 63 bgeu	a5, t1, 0x1c
0x80000aa4: 00 ee 88 b3 add	a7, t4, a4
0x80000aa8: 00 08 c8 83 lbu	a7, 0(a7)
0x80000aac: 00 ff 05 b3 add	a1, t5, a5
0x80000ab0: 00 17 87 93 addi	a5, a5, 1
0x80000ab4: 01 15 80 23 sb	a7, 0(a1)
0x80000ab8: 00 07 85 93 mv	a1, a5
0x80000abc: 00 17 07 13 addi	a4, a4, 1
0x80000ac0: fc d7 4e e3 blt	a4, a3, -0x24
0x80000a9c: 00 07 85 93 mv	a1, a5
0x80000aa0: 00 67 fe 63 bgeu	a5, t1, 0x1c
0x80000aa4: 00 ee 88 b3 add	a7, t4, a4
0x80000aa8: 00 08 c8 83 lbu	a7, 0(a7)
0x80000aac: 00 ff 05 b3 add	a1, t5, a5
0x80000ab0: 00 17 87 93 addi	a5, a5, 1
0x80000ab4: 01 15 80 23 sb	a7, 0(a1)
0x80000ab8: 00 07 85 93 mv	a1, a5
0x80000abc: 00 17 07 13 addi	a4, a4, 1
0x80000ac0: fc d7 4e e3 blt	a4, a3, -0x24
0x80000a9c: 00 07 85 93 mv	a1, a5
0x80000aa0: 00 67 fe 63 bgeu	a5, t1, 0x1c
0x80000aa4: 00 ee 88 b3 add	a7, t4, a4
0x80000aa8: 00 08 c8 83 lbu	a7, 0(a7)
0x80000aac: 00 ff 05 b3 add	a1, t5, a5
0x80000ab0: 00 17 87 93 addi	a5, a5, 1
0x80000ab4: 01 15 80 23 sb	a7, 0(a1)
0x80000ab8: 00 07 85 93 mv	a1, a5
0x80000abc: 00 17 07 13 addi	a4, a4, 1
0x80000ac0: fc d7 4e e3 blt	a4, a3, -0x24
0x80000a9c: 00 07 85 93 mv	a1, a5
0x80000aa0: 00 67 fe 63 bgeu	a5, t1, 0x1c
0x80000aa4: 00 ee 88 b3 add	a7, t4, a4
0x80000aa8: 00 08 c8 83 lbu	a7, 0(a7)
0x80000aac: 00 ff 05 b3 add	a1, t5, a5
0x80000ab0: 00 17 87 93 addi	a5, a5, 1
0x80000ab4: 01 15 80 23 sb	a7, 0(a1)
0x80000ab8: 00 07 85 93 mv	a1, a5
0x80000abc: 00 17 07 13 addi	a4, a4, 1
0x80000ac0: fc d7 4e e3 blt	a4, a3, -0x24
0x80000a9c: 00 07 85 93 mv	a1, a5
0x80000aa0: 00 67 fe 63 bgeu	a5, t1, 0x1c
0x80000aa4: 00 ee 88 b3 add	a7, t4, a4
0x80000aa8: 00 08 c8 83 lbu	a7, 0(a7)
0x80000aac: 00 ff 05 b3 add	a1, t5, a5
0x80000ab0: 00 17 87 93 addi	a5, a5, 1
0x80000ab4: 01 15 80 23 sb	a7, 0(a1)
0x80000ab8: 00 07 85 93 mv	a1, a5
0x80000abc: 00 17 07 13 addi	a4, a4, 1
0x80000ac0: fc d7 4e e3 blt	a4, a3, -0x24
0x80000a9c: 00 07 85 93 mv	a1, a5
0x80000aa0: 00 67 fe 63 bgeu	a5, t1, 0x1c
0x80000aa4: 00 ee 88 b3 add	a7, t4, a4
0x80000aa8: 00 08 c8 83 lbu	a7, 0(a7)
0x80000aac: 00 ff 05 b3 add	a1, t5, a5
0x80000ab0: 00 17 87 93 addi	a5, a5, 1
0x80000ab4: 01 15 80 23 sb	a7, 0(a1)
0x80000ab8: 00 07 85 93 mv	a1, a5
0x80000abc: 00 17 07 13 addi	a4, a4, 1
0x80000ac0: fc d7 4e e3 blt	a4, a3, -0x24
0x80000a9c: 00 07 85 93 mv	a1, a5
0x80000aa0: 00 67 fe 63 bgeu	a5, t1, 0x1c
0x80000aa4: 00 ee 88 b3 add	a7, t4, a4
0x80000aa8: 00 08 c8 83 lbu	a7, 0(a7)
0x80000aac: 00 ff 05 b3 add	a1, t5, a5
0x80000ab0: 00 17 87 93 addi	a5, a5, 1
0x80000ab4: 01 15 80 23 sb	a7, 0(a1)
0x80000ab8: 00 07 85 93 mv	a1, a5
0x80000abc: 00 17 07 13 addi	a4, a4, 1
0x80000ac0: fc d7 4e e3 blt	a4, a3, -0x24
0x80000a9c: 00 07 85 93 mv	a1, a5
0x80000aa0: 00 67 fe 63 bgeu	a5, t1, 0x1c
0x80000aa4: 00 ee 88 b3 add	a7, t4, a4
0x80000aa8: 00 08 c8 83 lbu	a7, 0(a7)
0x80000aac: 00 ff 05 b3 add	a1, t5, a5
0x80000ab0: 00 17 87 93 addi	a5, a5, 1
0x80000ab4: 01 15 80 23 sb	a7, 0(a1)
0x80000ab8: 00 07 85 93 mv	a1, a5
0x80000abc: 00 17 07 13 addi	a4, a4, 1
0x80000ac0: fc d7 4e e3 blt	a4, a3, -0x24
0x80000a9c: 00 07 85 93 mv	a1, a5
0x80000aa0: 00 67 fe 63 bgeu	a5, t1, 0x1c
0x80000aa4: 00 ee 88 b3 add	a7, t4, a4
0x80000aa8: 00 08 c8 83 lbu	a7, 0(a7)
0x80000aac: 00 ff 05 b3 add	a1, t5, a5
0x80000ab0: 00 17 87 93 addi	a5, a5, 1
0x80000ab4: 01 15 80 23 sb	a7, 0(a1)
0x80000ab8: 00 07 85 93 mv	a1, a5
0x80000abc: 00 17 07 13 addi	a4, a4, 1
0x80000ac0: fc d7 4e e3 blt	a4, a3, -0x24
0x80000a9c: 00 07 85 93 mv	a1, a5
0x80000aa0: 00 67 fe 63 bgeu	a5, t1, 0x1c
0x80000aa4: 00 ee 88 b3 add	a7, t4, a4
0x80000aa8: 00 08 c8 83 lbu	a7, 0(a7)
0x80000aac: 00 ff 05 b3 add	a1, t5, a5
0x80000ab0: 00 17 87 93 addi	a5, a5, 1
0x80000ab4: 01 15 80 23 sb	a7, 0(a1)
0x80000ab8: 00 07 85 93 mv	a1, a5
0x80000abc: 00 17 07 13 addi	a4, a4, 1
0x80000ac0: fc d7 4e e3 blt	a4, a3, -0x24
0x80000a9c: 00 07 85 93 mv	a1, a5
0x80000aa0: 00 67 fe 63 bgeu	a5, t1, 0x1c
0x80000aa4: 00 ee 88 b3 add	a7, t4, a4
0x80000aa8: 00 08 c8 83 lbu	a7, 0(a7)
0x80000aac: 00 ff 05 b3 add	a1, t5, a5
0x80000ab0: 00 17 87 93 addi	a5, a5, 1
0x80000ab4: 01 15 80 23 sb	a7, 0(a1)
0x80000ab8: 00 07 85 93 mv	a1, a5
0x80000abc: 00 17 07 13 addi	a4, a4, 1
0x80000ac0: fc d7 4e e3 blt	a4, a3, -0x24
0x80000a9c: 00 07 85 93 mv	a1, a5
0x80000aa0: 00 67 fe 63 bgeu	a5, t1, 0x1c
0x80000aa4: 00 ee 88 b3 add	a7, t4, a4
0x80000aa8: 00 08 c8 83 lbu	a7, 0(a7)
0x80000aac: 00 ff 05 b3 add	a1, t5, a5
0x80000ab0: 00 17 87 93 addi	a5, a5, 1
0x80000ab4: 01 15 80 23 sb	a7, 0(a1)
0x80000ab8: 00 07 85 93 mv	a1, a5
0x80000abc: 00 17 07 13 addi	a4, a4, 1
0x80000ac0: fc d7 4e e3 blt	a4, a3, -0x24
0x80000a9c: 00 07 85 93 mv	a1, a5
0x80000aa0: 00 67 fe 63 bgeu	a5, t1, 0x1c
0x80000aa4: 00 ee 88 b3 add	a7, t4, a4
0x80000aa8: 00 08 c8 83 lbu	a7, 0(a7)
0x80000aac: 00 ff 05 b3 add	a1, t5, a5
0x80000ab0: 00 17 87 93 addi	a5, a5, 1
0x80000ab4: 01 15 80 23 sb	a7, 0(a1)
0x80000ab8: 00 07 85 93 mv	a1, a5
0x80000abc: 00 17 07 13 addi	a4, a4, 1
0x80000ac0: fc d7 4e e3 blt	a4, a3, -0x24
0x80000a9c: 00 07 85 93 mv	a1, a5
0x80000aa0: 00 67 fe 63 bgeu	a5, t1, 0x1c
0x80000aa4: 00 ee 88 b3 add	a7, t4, a4
0x80000aa8: 00 08 c8 83 lbu	a7, 0(a7)
0x80000aac: 00 ff 05 b3 add	a1, t5, a5
0x80000ab0: 00 17 87 93 addi	a5, a5, 1
0x80000ab4: 01 15 80 23 sb	a7, 0(a1)
0x80000ab8: 00 07 85 93 mv	a1, a5
0x80000abc: 00 17 07 13 addi	a4, a4, 1
0x80000ac0: fc d7 4e e3 blt	a4, a3, -0x24
0x80000a9c: 00 07 85 93 mv	a1, a5
0x80000aa0: 00 67 fe 63 bgeu	a5, t1, 0x1c
0x80000aa4: 00 ee 88 b3 add	a7, t4, a4
0x80000aa8: 00 08 c8 83 lbu	a7, 0(a7)
0x80000aac: 00 ff 05 b3 add	a1, t5, a5
0x80000ab0: 00 17 87 93 addi	a5, a5, 1
0x80000ab4: 01 15 80 23 sb	a7, 0(a1)
0x80000ab8: 00 07 85 93 mv	a1, a5
0x80000abc: 00 17 07 13 addi	a4, a4, 1
0x80000ac0: fc d7 4e e3 blt	a4, a3, -0x24
0x80000a9c: 00 07 85 93 mv	a1, a5
0x80000aa0: 00 67 fe 63 bgeu	a5, t1, 0x1c
0x80000aa4: 00 ee 88 b3 add	a7, t4, a4
0x80000aa8: 00 08 c8 83 lbu	a7, 0(a7)
0x80000aac: 00 ff 05 b3 add	a1, t5, a5
0x80000ab0: 00 17 87 93 addi	a5, a5, 1
0x80000ab4: 01 15 80 23 sb	a7, 0(a1)
0x80000ab8: 00 07 85 93 mv	a1, a5
0x80000abc: 00 17 07 13 addi	a4, a4, 1
0x80000ac0: fc d7 4e e3 blt	a4, a3, -0x24
0x80000a9c: 00 07 85 93 mv	a1, a5
0x80000aa0: 00 67 fe 63 bgeu	a5, t1, 0x1c
0x80000aa4: 00 ee 88 b3 add	a7, t4, a4
0x80000aa8: 00 08 c8 83 lbu	a7, 0(a7)
0x80000aac: 00 ff 05 b3 add	a1, t5, a5
0x80000ab0: 00 17 87 93 addi	a5, a5, 1
0x80000ab4: 01 15 80 23 sb	a7, 0(a1)
0x80000ab8: 00 07 85 93 mv	a1, a5
0x80000abc: 00 17 07 13 addi	a4, a4, 1
0x80000ac0: fc d7 4e e3 blt	a4, a3, -0x24
0x80000a9c: 00 07 85 93 mv	a1, a5
0x80000aa0: 00 67 fe 63 bgeu	a5, t1, 0x1c
0x80000aa4: 00 ee 88 b3 add	a7, t4, a4
0x80000aa8: 00 08 c8 83 lbu	a7, 0(a7)
0x80000aac: 00 ff 05 b3 add	a1, t5, a5
0x80000ab0: 00 17 87 93 addi	a5, a5, 1
0x80000ab4: 01 15 80 23 sb	a7, 0(a1)
0x80000ab8: 00 07 85 93 mv	a1, a5
0x80000abc: 00 17 07 13 addi	a4, a4, 1
0x80000ac0: fc d7 4e e3 blt	a4, a3, -0x24
0x80000a9c: 00 07 85 93 mv	a1, a5
0x80000aa0: 00 67 fe 63 bgeu	a5, t1, 0x1c
0x80000aa4: 00 ee 88 b3 add	a7, t4, a4
0x80000aa8: 00 08 c8 83 lbu	a7, 0(a7)
0x80000aac: 00 ff 05 b3 add	a1, t5, a5
0x80000ab0: 00 17 87 93 addi	a5, a5, 1
0x80000ab4: 01 15 80 23 sb	a7, 0(a1)
0x80000ab8: 00 07 85 93 mv	a1, a5
0x80000abc: 00 17 07 13 addi	a4, a4, 1
0x80000ac0: fc d7 4e e3 blt	a4, a3, -0x24
0x80000a9c: 00 07 85 93 mv	a1, a5
0x80000aa0: 00 67 fe 63 bgeu	a5, t1, 0x1c
0x80000aa4: 00 ee 88 b3 add	a7, t4, a4
0x80000aa8: 00 08 c8 83 lbu	a7, 0(a7)
0x80000aac: 00 ff 05 b3 add	a1, t5, a5
0x80000ab0: 00 17 87 93 addi	a5, a5, 1
0x80000ab4: 01 15 80 23 sb	a7, 0(a1)
0x80000ab8: 00 07 85 93 mv	a1, a5
0x80000abc: 00 17 07 13 addi	a4, a4, 1
0x80000ac0: fc d7 4e e3 blt	a4, a3, -0x24
0x80000a9c: 00 07 85 93 mv	a1, a5
0x80000aa0: 00 67 fe 63 bgeu	a5, t1, 0x1c
0x80000aa4: 00 ee 88 b3 add	a7, t4, a4
0x80000aa8: 00 08 c8 83 lbu	a7, 0(a7)
0x80000aac: 00 ff 05 b3 add	a1, t5, a5
0x80000ab0: 00 17 87 93 addi	a5, a5, 1
0x80000ab4: 01 15 80 23 sb	a7, 0(a1)
0x80000ab8: 00 07 85 93 mv	a1, a5
0x80000abc: 00 17 07 13 addi	a4, a4, 1
0x80000ac0: fc d7 4e e3 blt	a4, a3, -0x24
0x80000a9c: 00 07 85 93 mv	a1, a5
0x80000aa0: 00 67 fe 63 bgeu	a5, t1, 0x1c
0x80000aa4: 00 ee 88 b3 add	a7, t4, a4
0x80000aa8: 00 08 c8 83 lbu	a7, 0(a7)
0x80000aac: 00 ff 05 b3 add	a1, t5, a5
0x80000ab0: 00 17 87 93 addi	a5, a5, 1
0x80000ab4: 01 15 80 23 sb	a7, 0(a1)
0x80000ab8: 00 07 85 93 mv	a1, a5
0x80000abc: 00 17 07 13 addi	a4, a4, 1
0x80000ac0: fc d7 4e e3 blt	a4, a3, -0x24
0x80000a9c: 00 07 85 93 mv	a1, a5
0x80000aa0: 00 67 fe 63 bgeu	a5, t1, 0x1c
0x80000aa4: 00 ee 88 b3 add	a7, t4, a4
0x80000aa8: 00 08 c8 83 lbu	a7, 0(a7)
0x80000aac: 00 ff 05 b3 add	a1, t5, a5
0x80000ab0: 00 17 87 93 addi	a5, a5, 1
0x80000ab4: 01 15 80 23 sb	a7, 0(a1)
0x80000ab8: 00 07 85 93 mv	a1, a5
0x80000abc: 00 17 07 13 addi	a4, a4, 1
0x80000ac0: fc d7 4e e3 blt	a4, a3, -0x24
0x80000a9c: 00 07 85 93 mv	a1, a5
0x80000aa0: 00 67 fe 63 bgeu	a5, t1, 0x1c
0x80000aa4: 00 ee 88 b3 add	a7, t4, a4
0x80000aa8: 00 08 c8 83 lbu	a7, 0(a7)
0x80000aac: 00 ff 05 b3 add	a1, t5, a5
0x80000ab0: 00 17 87 93 addi	a5, a5, 1
0x80000ab4: 01 15 80 23 sb	a7, 0(a1)
0x80000ab8: 00 07 85 93 mv	a1, a5
0x80000abc: 00 17 07 13 addi	a4, a4, 1
0x80000ac0: fc d7 4e e3 blt	a4, a3, -0x24
0x80000a9c: 00 07 85 93 mv	a1, a5
0x80000aa0: 00 67 fe 63 bgeu	a5, t1, 0x1c
0x80000aa4: 00 ee 88 b3 add	a7, t4, a4
0x80000aa8: 00 08 c8 83 lbu	a7, 0(a7)
0x80000aac: 00 ff 05 b3 add	a1, t5, a5
0x80000ab0: 00 17 87 93 addi	a5, a5, 1
0x80000ab4: 01 15 80 23 sb	a7, 0(a1)
0x80000ab8: 00 07 85 93 mv	a1, a5
0x80000abc: 00 17 07 13 addi	a4, a4, 1
0x80000ac0: fc d7 4e e3 blt	a4, a3, -0x24
0x80000a9c: 00 07 85 93 mv	a1, a5
0x80000aa0: 00 67 fe 63 bgeu	a5, t1, 0x1c
0x80000aa4: 00 ee 88 b3 add	a7, t4, a4
0x80000aa8: 00 08 c8 83 lbu	a7, 0(a7)
0x80000aac: 00 ff 05 b3 add	a1, t5, a5
0x80000ab0: 00 17 87 93 addi	a5, a5, 1
0x80000ab4: 01 15 80 23 sb	a7, 0(a1)
0x80000ab8: 00 07 85 93 mv	a1, a5
0x80000abc: 00 17 07 13 addi	a4, a4, 1
0x80000ac0: fc d7 4e e3 blt	a4, a3, -0x24
0x80000a9c: 00 07 85 93 mv	a1, a5
0x80000aa0: 00 67 fe 63 bgeu	a5, t1, 0x1c
0x80000aa4: 00 ee 88 b3 add	a7, t4, a4
0x80000aa8: 00 08 c8 83 lbu	a7, 0(a7)
0x80000aac: 00 ff 05 b3 add	a1, t5, a5
0x80000ab0: 00 17 87 93 addi	a5, a5, 1
0x80000ab4: 01 15 80 23 sb	a7, 0(a1)
0x80000ab8: 00 07 85 93 mv	a1, a5
0x80000abc: 00 17 07 13 addi	a4, a4, 1
0x80000ac0: fc d7 4e e3 blt	a4, a3, -0x24
0x80000a9c: 00 07 85 93 mv	a1, a5
0x80000aa0: 00 67 fe 63 bgeu	a5, t1, 0x1c
0x80000aa4: 00 ee 88 b3 add	a7, t4, a4
0x80000aa8: 00 08 c8 83 lbu	a7, 0(a7)
0x80000aac: 00 ff 05 b3 add	a1, t5, a5
0x80000ab0: 00 17 87 93 addi	a5, a5, 1
0x80000ab4: 01 15 80 23 sb	a7, 0(a1)
0x80000ab8: 00 07 85 93 mv	a1, a5
0x80000abc: 00 17 07 13 addi	a4, a4, 1
0x80000ac0: fc d7 4e e3 blt	a4, a3, -0x24
0x80000a9c: 00 07 85 93 mv	a1, a5
0x80000aa0: 00 67 fe 63 bgeu	a5, t1, 0x1c
0x80000aa4: 00 ee 88 b3 add	a7, t4, a4
0x80000aa8: 00 08 c8 83 lbu	a7, 0(a7)
0x80000aac: 00 ff 05 b3 add	a1, t5, a5
0x80000ab0: 00 17 87 93 addi	a5, a5, 1
0x80000ab4: 01 15 80 23 sb	a7, 0(a1)
0x80000ab8: 00 07 85 93 mv	a1, a5
0x80000abc: 00 17 07 13 addi	a4, a4, 1
0x80000ac0: fc d7 4e e3 blt	a4, a3, -0x24
0x80000a9c: 00 07 85 93 mv	a1, a5
0x80000aa0: 00 67 fe 63 bgeu	a5, t1, 0x1c
0x80000aa4: 00 ee 88 b3 add	a7, t4, a4
0x80000aa8: 00 08 c8 83 lbu	a7, 0(a7)
0x80000aac: 00 ff 05 b3 add	a1, t5, a5
0x80000ab0: 00 17 87 93 addi	a5, a5, 1
0x80000ab4: 01 15 80 23 sb	a7, 0(a1)
0x80000ab8: 00 07 85 93 mv	a1, a5
0x80000abc: 00 17 07 13 addi	a4, a4, 1
0x80000ac0: fc d7 4e e3 blt	a4, a3, -0x24
0x80000a9c: 00 07 85 93 mv	a1, a5
0x80000aa0: 00 67 fe 63 bgeu	a5, t1, 0x1c
0x80000aa4: 00 ee 88 b3 add	a7, t4, a4
0x80000aa8: 00 08 c8 83 lbu	a7, 0(a7)
0x80000aac: 00 ff 05 b3 add	a1, t5, a5
0x80000ab0: 00 17 87 93 addi	a5, a5, 1
0x80000ab4: 01 15 80 23 sb	a7, 0(a1)
0x80000ab8: 00 07 85 93 mv	a1, a5
0x80000abc: 00 17 07 13 addi	a4, a4, 1
0x80000ac0: fc d7 4e e3 blt	a4, a3, -0x24
0x80000a9c: 00 07 85 93 mv	a1, a5
0x80000aa0: 00 67 fe 63 bgeu	a5, t1, 0x1c
0x80000aa4: 00 ee 88 b3 add	a7, t4, a4
0x80000aa8: 00 08 c8 83 lbu	a7, 0(a7)
0x80000aac: 00 ff 05 b3 add	a1, t5, a5
0x80000ab0: 00 17 87 93 addi	a5, a5, 1
0x80000ab4: 01 15 80 23 sb	a7, 0(a1)
0x80000ab8: 00 07 85 93 mv	a1, a5
0x80000abc: 00 17 07 13 addi	a4, a4, 1
0x80000ac0: fc d7 4e e3 blt	a4, a3, -0x24
0x80000a9c: 00 07 85 93 mv	a1, a5
0x80000aa0: 00 67 fe 63 bgeu	a5, t1, 0x1c
0x80000aa4: 00 ee 88 b3 add	a7, t4, a4
0x80000aa8: 00 08 c8 83 lbu	a7, 0(a7)
0x80000aac: 00 ff 05 b3 add	a1, t5, a5
0x80000ab0: 00 17 87 93 addi	a5, a5, 1
0x80000ab4: 01 15 80 23 sb	a7, 0(a1)
0x80000ab8: 00 07 85 93 mv	a1, a5
0x80000abc: 00 17 07 13 addi	a4, a4, 1
0x80000ac0: fc d7 4e e3 blt	a4, a3, -0x24
0x80000a9c: 00 07 85 93 mv	a1, a5
0x80000aa0: 00 67 fe 63 bgeu	a5, t1, 0x1c
0x80000aa4: 00 ee 88 b3 add	a7, t4, a4
0x80000aa8: 00 08 c8 83 lbu	a7, 0(a7)
0x80000aac: 00 ff 05 b3 add	a1, t5, a5
0x80000ab0: 00 17 87 93 addi	a5, a5, 1
0x80000ab4: 01 15 80 23 sb	a7, 0(a1)
0x80000ab8: 00 07 85 93 mv	a1, a5
0x80000abc: 00 17 07 13 addi	a4, a4, 1
0x80000ac0: fc d7 4e e3 blt	a4, a3, -0x24
0x80000a9c: 00 07 85 93 mv	a1, a5
0x80000aa0: 00 67 fe 63 bgeu	a5, t1, 0x1c
0x80000aa4: 00 ee 88 b3 add	a7, t4, a4
0x80000aa8: 00 08 c8 83 lbu	a7, 0(a7)
0x80000aac: 00 ff 05 b3 add	a1, t5, a5
0x80000ab0: 00 17 87 93 addi	a5, a5, 1
0x80000ab4: 01 15 80 23 sb	a7, 0(a1)
0x80000ab8: 00 07 85 93 mv	a1, a5
0x80000abc: 00 17 07 13 addi	a4, a4, 1
0x80000ac0: fc d7 4e e3 blt	a4, a3, -0x24
0x80000a9c: 00 07 85 93 mv	a1, a5
0x80000aa0: 00 67 fe 63 bgeu	a5, t1, 0x1c
0x80000aa4: 00 ee 88 b3 add	a7, t4, a4
0x80000aa8: 00 08 c8 83 lbu	a7, 0(a7)
0x80000aac: 00 ff 05 b3 add	a1, t5, a5
0x80000ab0: 00 17 87 93 addi	a5, a5, 1
0x80000ab4: 01 15 80 23 sb	a7, 0(a1)
0x80000ab8: 00 07 85 93 mv	a1, a5
0x80000abc: 00 17 07 13 addi	a4, a4, 1
0x80000ac0: fc d7 4e e3 blt	a4, a3, -0x24
0x80000a9c: 00 07 85 93 mv	a1, a5
0x80000aa0: 00 67 fe 63 bgeu	a5, t1, 0x1c
0x80000aa4: 00 ee 88 b3 add	a7, t4, a4
0x80000aa8: 00 08 c8 83 lbu	a7, 0(a7)
0x80000aac: 00 ff 05 b3 add	a1, t5, a5
0x80000ab0: 00 17 87 93 addi	a5, a5, 1
0x80000ab4: 01 15 80 23 sb	a7, 0(a1)
0x80000ab8: 00 07 85 93 mv	a1, a5
0x80000abc: 00 17 07 13 addi	a4, a4, 1
0x80000ac0: fc d7 4e e3 blt	a4, a3, -0x24
0x80000a9c: 00 07 85 93 mv	a1, a5
0x80000aa0: 00 67 fe 63 bgeu	a5, t1, 0x1c
0x80000aa4: 00 ee 88 b3 add	a7, t4, a4
0x80000aa8: 00 08 c8 83 lbu	a7, 0(a7)
0x80000aac: 00 ff 05 b3 add	a1, t5, a5
0x80000ab0: 00 17 87 93 addi	a5, a5, 1
0x80000ab4: 01 15 80 23 sb	a7, 0(a1)
0x80000ab8: 00 07 85 93 mv	a1, a5
0x80000abc: 00 17 07 13 addi	a4, a4, 1
0x80000ac0: fc d7 4e e3 blt	a4, a3, -0x24
0x80000a9c: 00 07 85 93 mv	a1, a5
0x80000aa0: 00 67 fe 63 bgeu	a5, t1, 0x1c
0x80000aa4: 00 ee 88 b3 add	a7, t4, a4
0x80000aa8: 00 08 c8 83 lbu	a7, 0(a7)
0x80000aac: 00 ff 05 b3 add	a1, t5, a5
0x80000ab0: 00 17 87 93 addi	a5, a5, 1
0x80000ab4: 01 15 80 23 sb	a7, 0(a1)
0x80000ab8: 00 07 85 93 mv	a1, a5
0x80000abc: 00 17 07 13 addi	a4, a4, 1
0x80000ac0: fc d7 4e e3 blt	a4, a3, -0x24
0x80000a9c: 00 07 85 93 mv	a1, a5
0x80000aa0: 00 67 fe 63 bgeu	a5, t1, 0x1c
0x80000aa4: 00 ee 88 b3 add	a7, t4, a4
0x80000aa8: 00 08 c8 83 lbu	a7, 0(a7)
0x80000aac: 00 ff 05 b3 add	a1, t5, a5
0x80000ab0: 00 17 87 93 addi	a5, a5, 1
0x80000ab4: 01 15 80 23 sb	a7, 0(a1)
0x80000ab8: 00 07 85 93 mv	a1, a5
0x80000abc: 00 17 07 13 addi	a4, a4, 1
0x80000ac0: fc d7 4e e3 blt	a4, a3, -0x24
0x80000a9c: 00 07 85 93 mv	a1, a5
0x80000aa0: 00 67 fe 63 bgeu	a5, t1, 0x1c
0x80000aa4: 00 ee 88 b3 add	a7, t4, a4
0x80000aa8: 00 08 c8 83 lbu	a7, 0(a7)
0x80000aac: 00 ff 05 b3 add	a1, t5, a5
0x80000ab0: 00 17 87 93 addi	a5, a5, 1
0x80000ab4: 01 15 80 23 sb	a7, 0(a1)
0x80000ab8: 00 07 85 93 mv	a1, a5
0x80000abc: 00 17 07 13 addi	a4, a4, 1
0x80000ac0: fc d7 4e e3 blt	a4, a3, -0x24
0x80000a9c: 00 07 85 93 mv	a1, a5
0x80000aa0: 00 67 fe 63 bgeu	a5, t1, 0x1c
0x80000aa4: 00 ee 88 b3 add	a7, t4, a4
0x80000aa8: 00 08 c8 83 lbu	a7, 0(a7)
0x80000aac: 00 ff 05 b3 add	a1, t5, a5
0x80000ab0: 00 17 87 93 addi	a5, a5, 1
0x80000ab4: 01 15 80 23 sb	a7, 0(a1)
0x80000ab8: 00 07 85 93 mv	a1, a5
0x80000abc: 00 17 07 13 addi	a4, a4, 1
0x80000ac0: fc d7 4e e3 blt	a4, a3, -0x24
0x80000a9c: 00 07 85 93 mv	a1, a5
0x80000aa0: 00 67 fe 63 bgeu	a5, t1, 0x1c
0x80000aa4: 00 ee 88 b3 add	a7, t4, a4
0x80000aa8: 00 08 c8 83 lbu	a7, 0(a7)
0x80000aac: 00 ff 05 b3 add	a1, t5, a5
0x80000ab0: 00 17 87 93 addi	a5, a5, 1
0x80000ab4: 01 15 80 23 sb	a7, 0(a1)
0x80000ab8: 00 07 85 93 mv	a1, a5
0x80000abc: 00 17 07 13 addi	a4, a4, 1
0x80000ac0: fc d7 4e e3 blt	a4, a3, -0x24
0x80000a9c: 00 07 85 93 mv	a1, a5
0x80000aa0: 00 67 fe 63 bgeu	a5, t1, 0x1c
0x80000aa4: 00 ee 88 b3 add	a7, t4, a4
0x80000aa8: 00 08 c8 83 lbu	a7, 0(a7)
0x80000aac: 00 ff 05 b3 add	a1, t5, a5
0x80000ab0: 00 17 87 93 addi	a5, a5, 1
0x80000ab4: 01 15 80 23 sb	a7, 0(a1)
0x80000ab8: 00 07 85 93 mv	a1, a5
0x80000abc: 00 17 07 13 addi	a4, a4, 1
0x80000ac0: fc d7 4e e3 blt	a4, a3, -0x24
0x80000a9c: 00 07 85 93 mv	a1, a5
0x80000aa0: 00 67 fe 63 bgeu	a5, t1, 0x1c
0x80000aa4: 00 ee 88 b3 add	a7, t4, a4
0x80000aa8: 00 08 c8 83 lbu	a7, 0(a7)
0x80000aac: 00 ff 05 b3 add	a1, t5, a5
0x80000ab0: 00 17 87 93 addi	a5, a5, 1
0x80000ab4: 01 15 80 23 sb	a7, 0(a1)
0x80000ab8: 00 07 85 93 mv	a1, a5
0x80000abc: 00 17 07 13 addi	a4, a4, 1
0x80000ac0: fc d7 4e e3 blt	a4, a3, -0x24
0x80000a9c: 00 07 85 93 mv	a1, a5
0x80000aa0: 00 67 fe 63 bgeu	a5, t1, 0x1c
0x80000aa4: 00 ee 88 b3 add	a7, t4, a4
0x80000aa8: 00 08 c8 83 lbu	a7, 0(a7)
0x80000aac: 00 ff 05 b3 add	a1, t5, a5
0x80000ab0: 00 17 87 93 addi	a5, a5, 1
0x80000ab4: 01 15 80 23 sb	a7, 0(a1)
0x80000ab8: 00 07 85 93 mv	a1, a5
0x80000abc: 00 17 07 13 addi	a4, a4, 1
0x80000ac0: fc d7 4e e3 blt	a4, a3, -0x24
0x80000ac4: 00 0f 86 93 mv	a3, t6
0x80000ac8: ba 04 84 e3 beqz	s1, -0x458
0x80000670: 00 18 08 13 addi	a6, a6, 1
0x80000674: de 5f f0 6f j	-0x21c
0x80000458: 01 06 07 33 add	a4, a2, a6
0x8000045c: 00 07 48 83 lbu	a7, 0(a4)
0x80000460: fc 08 98 e3 bnez	a7, -0x30
0x80000430: 00 07 85 93 mv	a1, a5
0x80000434: 00 18 07 13 addi	a4, a6, 1
0x80000438: 06 88 88 63 beq	a7, s0, 0x70
0x8000043c: 00 15 05 13 addi	a0, a0, 1
0x80000440: 00 67 fa 63 bgeu	a5, t1, 0x14
0x80000444: 00 ff 05 b3 add	a1, t5, a5
0x80000448: 00 17 87 93 addi	a5, a5, 1
0x8000044c: 01 15 80 23 sb	a7, 0(a1)
0x80000450: 00 07 85 93 mv	a1, a5
0x80000454: 00 07 08 13 mv	a6, a4
0x80000458: 01 06 07 33 add	a4, a2, a6
0x8000045c: 00 07 48 83 lbu	a7, 0(a4)
0x80000460: fc 08 98 e3 bnez	a7, -0x30
0x80000430: 00 07 85 93 mv	a1, a5
0x80000434: 00 18 07 13 addi	a4, a6, 1
0x80000438: 06 88 88 63 beq	a7, s0, 0x70
0x800004a8: 00 e6 07 33 add	a4, a2, a4
0x800004ac: 00 28 0e 13 addi	t3, a6, 2
0x800004b0: 00 00 0b 13 mv	s6, zero
0x800004b4: 00 00 0f 93 mv	t6, zero
0x800004b8: 00 00 09 13 mv	s2, zero
0x800004bc: 00 00 0a 93 mv	s5, zero
0x800004c0: 00 00 04 93 mv	s1, zero
0x800004c4: 00 07 4e 83 lbu	t4, 0(a4)
0x800004c8: 00 07 03 93 mv	t2, a4
0x800004cc: fe 0e 88 13 addi	a6, t4, -0x20
0x800004d0: 0f f8 78 13 andi	a6, a6, 0xff
0x800004d4: 01 09 ec 63 bltu	s3, a6, 0x18
0x800004ec: 02 a0 07 13 addi	a4, zero, 0x2a
0x800004f0: 06 ee 9c 63 bne	t4, a4, 0x78
0x80000568: fd 0e 82 93 addi	t0, t4, -0x30
0x8000056c: 0f f2 f8 93 andi	a7, t0, 0xff
0x80000570: 00 90 0b 93 addi	s7, zero, 9
0x80000574: ff fe 08 13 addi	a6, t3, -1
0x80000578: 00 00 07 13 mv	a4, zero
0x8000057c: 01 c6 0e 33 add	t3, a2, t3
0x80000580: 00 90 0a 13 addi	s4, zero, 9
0x80000584: f9 1b e8 e3 bltu	s7, a7, -0x70
0x80000514: ff f0 08 93 addi	a7, zero, -1
0x80000518: 0b 9e 86 63 beq	t4, s9, 0xac
0x8000051c: 00 18 0e 13 addi	t3, a6, 1
0x80000520: 01 c6 02 b3 add	t0, a2, t3
0x80000524: 0d ae 8c 63 beq	t4, s10, 0xd8
0x80000528: 06 c0 0a 13 addi	s4, zero, 0x6c
0x8000052c: 15 4e 86 63 beq	t4, s4, 0x14c
0x80000530: 07 a0 0a 13 addi	s4, zero, 0x7a
0x80000534: 19 4e 82 63 beq	t4, s4, 0x184
0x80000538: 7c 8e 8a 63 beq	t4, s0, 0x7d4
0x8000053c: fa 8e 8e 13 addi	t3, t4, -0x58
0x80000540: 0f fe 7e 13 andi	t3, t3, 0xff
0x80000544: 02 00 02 93 addi	t0, zero, 0x20
0x80000548: 0f c2 ec 63 bltu	t0, t3, 0xf8
0x8000054c: 00 00 12 97 auipc	t0, 1
0x80000550: 0c c2 82 93 addi	t0, t0, 0xcc
0x80000554: 00 2e 1e 13 slli	t3, t3, 2
0x80000558: 00 5e 0e 33 add	t3, t3, t0
0x8000055c: 00 0e 2e 03 lw	t3, 0(t3)
0x80000560: 00 5e 0e 33 add	t3, t3, t0
0x80000564: 00 0e 00 67 jr	t3
0x80000748: 00 06 ae 83 lw	t4, 0(a3)
0x8000074c: 00 46 8a 13 addi	s4, a3, 4
0x80000750: 41 fe df 93 srai	t6, t4, 0x1f
0x80000754: 7a 0f cc 63 bltz	t6, 0x7b8
0x80000758: 01 fe e6 b3 or	a3, t4, t6
0x8000075c: 3c 06 96 e3 bnez	a3, 0xbcc
0x80001328: 05 81 2e 23 sw	s8, 0x5c(sp)
0x8000132c: 00 00 06 93 mv	a3, zero
0x80001330: bf 5f f0 6f j	-0x40c
0x80000f24: cc cc d3 b7 lui	t2, 0xccccd
0x80000f28: cc cc db b7 lui	s7, 0xccccd
0x80000f2c: 00 00 02 93 mv	t0, zero
0x80000f30: 01 01 0e 13 addi	t3, sp, 0x10
0x80000f34: 00 50 0c 13 addi	s8, zero, 5
0x80000f38: cc d3 83 93 addi	t2, t2, -0x333
0x80000f3c: cc cb 8b 93 addi	s7, s7, -0x334
0x80000f40: 01 51 20 23 sw	s5, 0(sp)
0x80000f44: 00 91 22 23 sw	s1, 4(sp)
0x80000f48: 01 21 24 23 sw	s2, 8(sp)
0x80000f4c: 01 61 26 23 sw	s6, 0xc(sp)
0x80000f50: 01 fe 84 b3 add	s1, t4, t6
0x80000f54: 01 d4 b9 33 sltu	s2, s1, t4
0x80000f58: 01 24 84 b3 add	s1, s1, s2
0x80000f5c: 03 84 f4 b3 remu	s1, s1, s8
0x80000f60: 00 12 82 93 addi	t0, t0, 1
0x80000f64: 00 5e 0a b3 add	s5, t3, t0
0x80000f68: 40 9e 84 b3 sub	s1, t4, s1
0x80000f6c: 00 9e b9 33 sltu	s2, t4, s1
0x80000f70: 41 2f 89 33 sub	s2, t6, s2
0x80000f74: 02 79 09 33 mul	s2, s2, t2
0x80000f78: 03 74 8f b3 mul	t6, s1, s7
0x80000f7c: 02 74 bb 33 mulhu	s6, s1, t2
0x80000f80: 01 f9 0f b3 add	t6, s2, t6
0x80000f84: 02 74 84 b3 mul	s1, s1, t2
0x80000f88: 01 6f 8f b3 add	t6, t6, s6
0x80000f8c: 01 ff 99 13 slli	s2, t6, 0x1f
0x80000f90: 00 1f df 93 srli	t6, t6, 1
0x80000f94: 00 14 d4 93 srli	s1, s1, 1
0x80000f98: 00 99 64 b3 or	s1, s2, s1
0x80000f9c: 00 24 99 13 slli	s2, s1, 2
0x80000fa0: 00 99 09 33 add	s2, s2, s1
0x80000fa4: 00 19 19 13 slli	s2, s2, 1
0x80000fa8: 41 2e 89 33 sub	s2, t4, s2
0x80000fac: 03 09 09 13 addi	s2, s2, 0x30
0x80000fb0: 00 04 8e 93 mv	t4, s1
0x80000fb4: ff 2a 8f a3 sb	s2, -1(s5)
0x80000fb8: 01 f4 e4 b3 or	s1, s1, t6
0x80000fbc: f8 04 9a e3 bnez	s1, -0x6c
0x80000f50: 01 fe 84 b3 add	s1, t4, t6
0x80000f54: 01 d4 b9 33 sltu	s2, s1, t4
0x80000f58: 01 24 84 b3 add	s1, s1, s2
0x80000f5c: 03 84 f4 b3 remu	s1, s1, s8
0x80000f60: 00 12 82 93 addi	t0, t0, 1
0x80000f64: 00 5e 0a b3 add	s5, t3, t0
0x80000f68: 40 9e 84 b3 sub	s1, t4, s1
0x80000f6c: 00 9e b9 33 sltu	s2, t4, s1
0x80000f70: 41 2f 89 33 sub	s2, t6, s2
0x80000f74: 02 79 09 33 mul	s2, s2, t2
0x80000f78: 03 74 8f b3 mul	t6, s1, s7
0x80000f7c: 02 74 bb 33 mulhu	s6, s1, t2
0x80000f80: 01 f9 0f b3 add	t6, s2, t6
0x80000f84: 02 74 84 b3 mul	s1, s1, t2
0x80000f88: 01 6f 8f b3 add	t6, t6, s6
0x80000f8c: 01 ff 99 13 slli	s2, t6, 0x1f
0x80000f90: 00 1f df 93 srli	t6, t6, 1
0x80000f94: 00 14 d4 93 srli	s1, s1, 1
0x80000f98: 00 99 64 b3 or	s1, s2, s1
0x80000f9c: 00 24 99 13 slli	s2, s1, 2
0x80000fa0: 00 99 09 33 add	s2, s2, s1
0x80000fa4: 00 19 19 13 slli	s2, s2, 1
0x80000fa8: 41 2e 89 33 sub	s2, t4, s2
0x80000fac: 03 09 09 13 addi	s2, s2, 0x30
0x80000fb0: 00 04 8e 93 mv	t4, s1
0x80000fb4: ff 2a 8f a3 sb	s2, -1(s5)
0x80000fb8: 01 f4 e4 b3 or	s1, s1, t6
0x80000fbc: f8 04 9a e3 bnez	s1, -0x6c
0x80000fc0: 00 01 2a 83 lw	s5, 0(sp)
0x80000fc4: 00 41 24 83 lw	s1, 4(sp)
0x80000fc8: 00 81 29 03 lw	s2, 8(sp)
0x80000fcc: 00 c1 2b 03 lw	s6, 0xc(sp)
0x80000fd0: 05 c1 2c 03 lw	s8, 0x5c(sp)
0x80000fd4: fb 12 c4 63 blt	t0, a7, -0x858
0x80000fd8: fd 4f f0 6f j	-0x82c
0x800007ac: 24 06 82 e3 beqz	a3, 0xa44
0x800011f0: 00 0a 06 93 mv	a3, s4
0x800011f4: 02 0a 80 63 beqz	s5, 0x20
0x80001214: 00 02 8e 93 mv	t4, t0
0x80001218: da 09 0a 63 beqz	s2, -0xa4c
0x800007cc: 41 d7 0f b3 sub	t6, a4, t4
0x800007d0: 01 f0 44 63 bgtz	t6, 8
0x800007d4: 00 0e 87 13 mv	a4, t4
0x800007d8: 00 e5 05 33 add	a0, a0, a4
0x800007dc: 1c 04 82 e3 beqz	s1, 0x9c4
0x800011a0: 02 00 0e 13 addi	t3, zero, 0x20
0x800011a4: 00 0b 08 63 beqz	s6, 0x10
0x800011b4: ff ff 87 13 addi	a4, t6, -1
0x800011b8: 1b f0 52 63 blez	t6, 0x1a4
0x8000135c: 00 07 0f 93 mv	t6, a4
0x80001360: c8 0e 92 63 bnez	t4, -0xb7c
0x800007e4: 01 01 0e 13 addi	t3, sp, 0x10
0x800007e8: 01 de 07 33 add	a4, t3, t4
0x800007ec: 00 07 85 93 mv	a1, a5
0x800007f0: 00 67 fc 63 bgeu	a5, t1, 0x18
0x800007f4: ff f7 48 83 lbu	a7, -1(a4)
0x800007f8: 00 ff 05 b3 add	a1, t5, a5
0x800007fc: 00 17 87 93 addi	a5, a5, 1
0x80000800: 01 15 80 23 sb	a7, 0(a1)
0x80000804: 00 07 85 93 mv	a1, a5
0x80000808: ff f7 07 13 addi	a4, a4, -1
0x8000080c: fe ee 10 e3 bne	t3, a4, -0x20
0x800007ec: 00 07 85 93 mv	a1, a5
0x800007f0: 00 67 fc 63 bgeu	a5, t1, 0x18
0x800007f4: ff f7 48 83 lbu	a7, -1(a4)
0x800007f8: 00 ff 05 b3 add	a1, t5, a5
0x800007fc: 00 17 87 93 addi	a5, a5, 1
0x80000800: 01 15 80 23 sb	a7, 0(a1)
0x80000804: 00 07 85 93 mv	a1, a5
0x80000808: ff f7 07 13 addi	a4, a4, -1
0x8000080c: fe ee 10 e3 bne	t3, a4, -0x20
0x80000810: e6 04 80 e3 beqz	s1, -0x1a0
0x80000670: 00 18 08 13 addi	a6, a6, 1
0x80000674: de 5f f0 6f j	-0x21c
0x80000458: 01 06 07 33 add	a4, a2, a6
0x8000045c: 00 07 48 83 lbu	a7, 0(a4)
0x80000460: fc 08 98 e3 bnez	a7, -0x30
0x80000430: 00 07 85 93 mv	a1, a5
0x80000434: 00 18 07 13 addi	a4, a6, 1
0x80000438: 06 88 88 63 beq	a7, s0, 0x70
0x8000043c: 00 15 05 13 addi	a0, a0, 1
0x80000440: 00 67 fa 63 bgeu	a5, t1, 0x14
0x80000444: 00 ff 05 b3 add	a1, t5, a5
0x80000448: 00 17 87 93 addi	a5, a5, 1
0x8000044c: 01 15 80 23 sb	a7, 0(a1)
0x80000450: 00 07 85 93 mv	a1, a5
0x80000454: 00 07 08 13 mv	a6, a4
0x80000458: 01 06 07 33 add	a4, a2, a6
0x8000045c: 00 07 48 83 lbu	a7, 0(a4)
0x80000460: fc 08 98 e3 bnez	a7, -0x30
0x80000464: 00 b3 74 63 bgeu	t1, a1, 8
0x8000046c: 00 bf 0f 33 add	t5, t5, a1
0x80000470: 00 0f 00 23 sb	zero, 0(t5)
0x80000474: 07 c1 24 03 lw	s0, 0x7c(sp)
0x80000478: 07 81 24 83 lw	s1, 0x78(sp)
0x8000047c: 07 41 29 03 lw	s2, 0x74(sp)
0x80000480: 07 01 29 83 lw	s3, 0x70(sp)
0x80000484: 06 c1 2a 03 lw	s4, 0x6c(sp)
0x80000488: 06 81 2a 83 lw	s5, 0x68(sp)
0x8000048c: 06 41 2b 03 lw	s6, 0x64(sp)
0x80000490: 06 01 2b 83 lw	s7, 0x60(sp)
0x80000494: 05 81 2c 83 lw	s9, 0x58(sp)
0x80000498: 05 41 2d 03 lw	s10, 0x54(sp)
0x8000049c: 05 01 2d 83 lw	s11, 0x50(sp)
0x800004a0: 08 01 01 13 addi	sp, sp, 0x80
0x800004a4: 00 00 80 67 ret
0x80001444: 00 c1 27 83 lw	a5, 0xc(sp)
0x80001448: 00 05 04 93 mv	s1, a0
0x8000144c: 00 07 c5 03 lbu	a0, 0(a5)
0x80001450: 00 05 0c 63 beqz	a0, 0x18
0x80001454: 00 17 84 13 addi	s0, a5, 1
0x80001458: d2 5f e0 ef jal	-0x12dc
0x8000017c: a0 00 07 b7 lui	a5, 0xa0000
0x80000180: 3e a7 8c 23 sb	a0, 0x3f8(a5)
0x80000184: 00 00 80 67 ret
0x8000145c: 00 04 45 03 lbu	a0, 0(s0)
0x80001460: 00 14 04 13 addi	s0, s0, 1
0x80001464: fe 05 1a e3 bnez	a0, -0xc
0x80001458: d2 5f e0 ef jal	-0x12dc
0x8000017c: a0 00 07 b7 lui	a5, 0xa0000
0x80000180: 3e a7 8c 23 sb	a0, 0x3f8(a5)
0x80000184: 00 00 80 67 ret
0x8000145c: 00 04 45 03 lbu	a0, 0(s0)
0x80001460: 00 14 04 13 addi	s0, s0, 1
0x80001464: fe 05 1a e3 bnez	a0, -0xc
0x80001458: d2 5f e0 ef jal	-0x12dc
0x8000017c: a0 00 07 b7 lui	a5, 0xa0000
0x80000180: 3e a7 8c 23 sb	a0, 0x3f8(a5)
0x80000184: 00 00 80 67 ret
0x8000145c: 00 04 45 03 lbu	a0, 0(s0)
0x80001460: 00 14 04 13 addi	s0, s0, 1
0x80001464: fe 05 1a e3 bnez	a0, -0xc
0x80001458: d2 5f e0 ef jal	-0x12dc
0x8000017c: a0 00 07 b7 lui	a5, 0xa0000
0x80000180: 3e a7 8c 23 sb	a0, 0x3f8(a5)
0x80000184: 00 00 80 67 ret
0x8000145c: 00 04 45 03 lbu	a0, 0(s0)
0x80001460: 00 14 04 13 addi	s0, s0, 1
0x80001464: fe 05 1a e3 bnez	a0, -0xc
0x80001458: d2 5f e0 ef jal	-0x12dc
0x8000017c: a0 00 07 b7 lui	a5, 0xa0000
0x80000180: 3e a7 8c 23 sb	a0, 0x3f8(a5)
0x80000184: 00 00 80 67 ret
0x8000145c: 00 04 45 03 lbu	a0, 0(s0)
0x80001460: 00 14 04 13 addi	s0, s0, 1
0x80001464: fe 05 1a e3 bnez	a0, -0xc
0x80001458: d2 5f e0 ef jal	-0x12dc
0x8000017c: a0 00 07 b7 lui	a5, 0xa0000
0x80000180: 3e a7 8c 23 sb	a0, 0x3f8(a5)
0x80000184: 00 00 80 67 ret
0x8000145c: 00 04 45 03 lbu	a0, 0(s0)
0x80001460: 00 14 04 13 addi	s0, s0, 1
0x80001464: fe 05 1a e3 bnez	a0, -0xc
0x80001458: d2 5f e0 ef jal	-0x12dc
0x8000017c: a0 00 07 b7 lui	a5, 0xa0000
0x80000180: 3e a7 8c 23 sb	a0, 0x3f8(a5)
0x80000184: 00 00 80 67 ret
0x8000145c: 00 04 45 03 lbu	a0, 0(s0)
0x80001460: 00 14 04 13 addi	s0, s0, 1
0x80001464: fe 05 1a e3 bnez	a0, -0xc
0x80001458: d2 5f e0 ef jal	-0x12dc
0x8000017c: a0 00 07 b7 lui	a5, 0xa0000
0x80000180: 3e a7 8c 23 sb	a0, 0x3f8(a5)
0x80000184: 00 00 80 67 ret
0x8000145c: 00 04 45 03 lbu	a0, 0(s0)
0x80001460: 00 14 04 13 addi	s0, s0, 1
0x80001464: fe 05 1a e3 bnez	a0, -0xc
0x80001458: d2 5f e0 ef jal	-0x12dc
0x8000017c: a0 00 07 b7 lui	a5, 0xa0000
0x80000180: 3e a7 8c 23 sb	a0, 0x3f8(a5)
0x80000184: 00 00 80 67 ret
0x8000145c: 00 04 45 03 lbu	a0, 0(s0)
0x80001460: 00 14 04 13 addi	s0, s0, 1
0x80001464: fe 05 1a e3 bnez	a0, -0xc
0x80001458: d2 5f e0 ef jal	-0x12dc
0x8000017c: a0 00 07 b7 lui	a5, 0xa0000
0x80000180: 3e a7 8c 23 sb	a0, 0x3f8(a5)
0x80000184: 00 00 80 67 ret
0x8000145c: 00 04 45 03 lbu	a0, 0(s0)
0x80001460: 00 14 04 13 addi	s0, s0, 1
0x80001464: fe 05 1a e3 bnez	a0, -0xc
0x80001458: d2 5f e0 ef jal	-0x12dc
0x8000017c: a0 00 07 b7 lui	a5, 0xa0000
0x80000180: 3e a7 8c 23 sb	a0, 0x3f8(a5)
0x80000184: 00 00 80 67 ret
0x8000145c: 00 04 45 03 lbu	a0, 0(s0)
0x80001460: 00 14 04 13 addi	s0, s0, 1
0x80001464: fe 05 1a e3 bnez	a0, -0xc
0x80001458: d2 5f e0 ef jal	-0x12dc
0x8000017c: a0 00 07 b7 lui	a5, 0xa0000
0x80000180: 3e a7 8c 23 sb	a0, 0x3f8(a5)
0x80000184: 00 00 80 67 ret
0x8000145c: 00 04 45 03 lbu	a0, 0(s0)
0x80001460: 00 14 04 13 addi	s0, s0, 1
0x80001464: fe 05 1a e3 bnez	a0, -0xc
0x80001458: d2 5f e0 ef jal	-0x12dc
0x8000017c: a0 00 07 b7 lui	a5, 0xa0000
0x80000180: 3e a7 8c 23 sb	a0, 0x3f8(a5)
0x80000184: 00 00 80 67 ret
0x8000145c: 00 04 45 03 lbu	a0, 0(s0)
0x80001460: 00 14 04 13 addi	s0, s0, 1
0x80001464: fe 05 1a e3 bnez	a0, -0xc
0x80001458: d2 5f e0 ef jal	-0x12dc
0x8000017c: a0 00 07 b7 lui	a5, 0xa0000
0x80000180: 3e a7 8c 23 sb	a0, 0x3f8(a5)
0x80000184: 00 00 80 67 ret
0x8000145c: 00 04 45 03 lbu	a0, 0(s0)
0x80001460: 00 14 04 13 addi	s0, s0, 1
0x80001464: fe 05 1a e3 bnez	a0, -0xc
0x80001458: d2 5f e0 ef jal	-0x12dc
0x8000017c: a0 00 07 b7 lui	a5, 0xa0000
0x80000180: 3e a7 8c 23 sb	a0, 0x3f8(a5)
0x80000184: 00 00 80 67 ret
0x8000145c: 00 04 45 03 lbu	a0, 0(s0)
0x80001460: 00 14 04 13 addi	s0, s0, 1
0x80001464: fe 05 1a e3 bnez	a0, -0xc
0x80001458: d2 5f e0 ef jal	-0x12dc
0x8000017c: a0 00 07 b7 lui	a5, 0xa0000
0x80000180: 3e a7 8c 23 sb	a0, 0x3f8(a5)
0x80000184: 00 00 80 67 ret
0x8000145c: 00 04 45 03 lbu	a0, 0(s0)
0x80001460: 00 14 04 13 addi	s0, s0, 1
0x80001464: fe 05 1a e3 bnez	a0, -0xc
0x80001458: d2 5f e0 ef jal	-0x12dc
0x8000017c: a0 00 07 b7 lui	a5, 0xa0000
0x80000180: 3e a7 8c 23 sb	a0, 0x3f8(a5)
0x80000184: 00 00 80 67 ret
0x8000145c: 00 04 45 03 lbu	a0, 0(s0)
0x80001460: 00 14 04 13 addi	s0, s0, 1
0x80001464: fe 05 1a e3 bnez	a0, -0xc
0x80001458: d2 5f e0 ef jal	-0x12dc
0x8000017c: a0 00 07 b7 lui	a5, 0xa0000
0x80000180: 3e a7 8c 23 sb	a0, 0x3f8(a5)
0x80000184: 00 00 80 67 ret
0x8000145c: 00 04 45 03 lbu	a0, 0(s0)
0x80001460: 00 14 04 13 addi	s0, s0, 1
0x80001464: fe 05 1a e3 bnez	a0, -0xc
0x80001458: d2 5f e0 ef jal	-0x12dc
0x8000017c: a0 00 07 b7 lui	a5, 0xa0000
0x80000180: 3e a7 8c 23 sb	a0, 0x3f8(a5)
0x80000184: 00 00 80 67 ret
0x8000145c: 00 04 45 03 lbu	a0, 0(s0)
0x80001460: 00 14 04 13 addi	s0, s0, 1
0x80001464: fe 05 1a e3 bnez	a0, -0xc
0x80001458: d2 5f e0 ef jal	-0x12dc
0x8000017c: a0 00 07 b7 lui	a5, 0xa0000
0x80000180: 3e a7 8c 23 sb	a0, 0x3f8(a5)
0x80000184: 00 00 80 67 ret
0x8000145c: 00 04 45 03 lbu	a0, 0(s0)
0x80001460: 00 14 04 13 addi	s0, s0, 1
0x80001464: fe 05 1a e3 bnez	a0, -0xc
0x80001458: d2 5f e0 ef jal	-0x12dc
0x8000017c: a0 00 07 b7 lui	a5, 0xa0000
0x80000180: 3e a7 8c 23 sb	a0, 0x3f8(a5)
0x80000184: 00 00 80 67 ret
0x8000145c: 00 04 45 03 lbu	a0, 0(s0)
0x80001460: 00 14 04 13 addi	s0, s0, 1
0x80001464: fe 05 1a e3 bnez	a0, -0xc
0x80001458: d2 5f e0 ef jal	-0x12dc
0x8000017c: a0 00 07 b7 lui	a5, 0xa0000
0x80000180: 3e a7 8c 23 sb	a0, 0x3f8(a5)
0x80000184: 00 00 80 67 ret
0x8000145c: 00 04 45 03 lbu	a0, 0(s0)
0x80001460: 00 14 04 13 addi	s0, s0, 1
0x80001464: fe 05 1a e3 bnez	a0, -0xc
0x80001458: d2 5f e0 ef jal	-0x12dc
0x8000017c: a0 00 07 b7 lui	a5, 0xa0000
0x80000180: 3e a7 8c 23 sb	a0, 0x3f8(a5)
0x80000184: 00 00 80 67 ret
0x8000145c: 00 04 45 03 lbu	a0, 0(s0)
0x80001460: 00 14 04 13 addi	s0, s0, 1
0x80001464: fe 05 1a e3 bnez	a0, -0xc
0x80001458: d2 5f e0 ef jal	-0x12dc
0x8000017c: a0 00 07 b7 lui	a5, 0xa0000
0x80000180: 3e a7 8c 23 sb	a0, 0x3f8(a5)
0x80000184: 00 00 80 67 ret
0x8000145c: 00 04 45 03 lbu	a0, 0(s0)
0x80001460: 00 14 04 13 addi	s0, s0, 1
0x80001464: fe 05 1a e3 bnez	a0, -0xc
0x80001458: d2 5f e0 ef jal	-0x12dc
0x8000017c: a0 00 07 b7 lui	a5, 0xa0000
0x80000180: 3e a7 8c 23 sb	a0, 0x3f8(a5)
0x80000184: 00 00 80 67 ret
0x8000145c: 00 04 45 03 lbu	a0, 0(s0)
0x80001460: 00 14 04 13 addi	s0, s0, 1
0x80001464: fe 05 1a e3 bnez	a0, -0xc
0x80001458: d2 5f e0 ef jal	-0x12dc
0x8000017c: a0 00 07 b7 lui	a5, 0xa0000
0x80000180: 3e a7 8c 23 sb	a0, 0x3f8(a5)
0x80000184: 00 00 80 67 ret
0x8000145c: 00 04 45 03 lbu	a0, 0(s0)
0x80001460: 00 14 04 13 addi	s0, s0, 1
0x80001464: fe 05 1a e3 bnez	a0, -0xc
0x80001458: d2 5f e0 ef jal	-0x12dc
0x8000017c: a0 00 07 b7 lui	a5, 0xa0000
0x80000180: 3e a7 8c 23 sb	a0, 0x3f8(a5)
0x80000184: 00 00 80 67 ret
0x8000145c: 00 04 45 03 lbu	a0, 0(s0)
0x80001460: 00 14 04 13 addi	s0, s0, 1
0x80001464: fe 05 1a e3 bnez	a0, -0xc
0x80001458: d2 5f e0 ef jal	-0x12dc
0x8000017c: a0 00 07 b7 lui	a5, 0xa0000
0x80000180: 3e a7 8c 23 sb	a0, 0x3f8(a5)
0x80000184: 00 00 80 67 ret
0x8000145c: 00 04 45 03 lbu	a0, 0(s0)
0x80001460: 00 14 04 13 addi	s0, s0, 1
0x80001464: fe 05 1a e3 bnez	a0, -0xc
0x80001458: d2 5f e0 ef jal	-0x12dc
0x8000017c: a0 00 07 b7 lui	a5, 0xa0000
0x80000180: 3e a7 8c 23 sb	a0, 0x3f8(a5)
0x80000184: 00 00 80 67 ret
0x8000145c: 00 04 45 03 lbu	a0, 0(s0)
0x80001460: 00 14 04 13 addi	s0, s0, 1
0x80001464: fe 05 1a e3 bnez	a0, -0xc
0x80001458: d2 5f e0 ef jal	-0x12dc
0x8000017c: a0 00 07 b7 lui	a5, 0xa0000
0x80000180: 3e a7 8c 23 sb	a0, 0x3f8(a5)
0x80000184: 00 00 80 67 ret
0x8000145c: 00 04 45 03 lbu	a0, 0(s0)
0x80001460: 00 14 04 13 addi	s0, s0, 1
0x80001464: fe 05 1a e3 bnez	a0, -0xc
0x80001458: d2 5f e0 ef jal	-0x12dc
0x8000017c: a0 00 07 b7 lui	a5, 0xa0000
0x80000180: 3e a7 8c 23 sb	a0, 0x3f8(a5)
0x80000184: 00 00 80 67 ret
0x8000145c: 00 04 45 03 lbu	a0, 0(s0)
0x80001460: 00 14 04 13 addi	s0, s0, 1
0x80001464: fe 05 1a e3 bnez	a0, -0xc
0x80001458: d2 5f e0 ef jal	-0x12dc
0x8000017c: a0 00 07 b7 lui	a5, 0xa0000
0x80000180: 3e a7 8c 23 sb	a0, 0x3f8(a5)
0x80000184: 00 00 80 67 ret
0x8000145c: 00 04 45 03 lbu	a0, 0(s0)
0x80001460: 00 14 04 13 addi	s0, s0, 1
0x80001464: fe 05 1a e3 bnez	a0, -0xc
0x80001458: d2 5f e0 ef jal	-0x12dc
0x8000017c: a0 00 07 b7 lui	a5, 0xa0000
0x80000180: 3e a7 8c 23 sb	a0, 0x3f8(a5)
0x80000184: 00 00 80 67 ret
0x8000145c: 00 04 45 03 lbu	a0, 0(s0)
0x80001460: 00 14 04 13 addi	s0, s0, 1
0x80001464: fe 05 1a e3 bnez	a0, -0xc
0x80001458: d2 5f e0 ef jal	-0x12dc
0x8000017c: a0 00 07 b7 lui	a5, 0xa0000
0x80000180: 3e a7 8c 23 sb	a0, 0x3f8(a5)
0x80000184: 00 00 80 67 ret
0x8000145c: 00 04 45 03 lbu	a0, 0(s0)
0x80001460: 00 14 04 13 addi	s0, s0, 1
0x80001464: fe 05 1a e3 bnez	a0, -0xc
0x80001458: d2 5f e0 ef jal	-0x12dc
0x8000017c: a0 00 07 b7 lui	a5, 0xa0000
0x80000180: 3e a7 8c 23 sb	a0, 0x3f8(a5)
0x80000184: 00 00 80 67 ret
0x8000145c: 00 04 45 03 lbu	a0, 0(s0)
0x80001460: 00 14 04 13 addi	s0, s0, 1
0x80001464: fe 05 1a e3 bnez	a0, -0xc
0x80001458: d2 5f e0 ef jal	-0x12dc
0x8000017c: a0 00 07 b7 lui	a5, 0xa0000
0x80000180: 3e a7 8c 23 sb	a0, 0x3f8(a5)
0x80000184: 00 00 80 67 ret
0x8000145c: 00 04 45 03 lbu	a0, 0(s0)
0x80001460: 00 14 04 13 addi	s0, s0, 1
0x80001464: fe 05 1a e3 bnez	a0, -0xc
0x80001458: d2 5f e0 ef jal	-0x12dc
0x8000017c: a0 00 07 b7 lui	a5, 0xa0000
0x80000180: 3e a7 8c 23 sb	a0, 0x3f8(a5)
0x80000184: 00 00 80 67 ret
0x8000145c: 00 04 45 03 lbu	a0, 0(s0)
0x80001460: 00 14 04 13 addi	s0, s0, 1
0x80001464: fe 05 1a e3 bnez	a0, -0xc
0x80001458: d2 5f e0 ef jal	-0x12dc
0x8000017c: a0 00 07 b7 lui	a5, 0xa0000
0x80000180: 3e a7 8c 23 sb	a0, 0x3f8(a5)
0x80000184: 00 00 80 67 ret
0x8000145c: 00 04 45 03 lbu	a0, 0(s0)
0x80001460: 00 14 04 13 addi	s0, s0, 1
0x80001464: fe 05 1a e3 bnez	a0, -0xc
0x80001458: d2 5f e0 ef jal	-0x12dc
0x8000017c: a0 00 07 b7 lui	a5, 0xa0000
0x80000180: 3e a7 8c 23 sb	a0, 0x3f8(a5)
0x80000184: 00 00 80 67 ret
0x8000145c: 00 04 45 03 lbu	a0, 0(s0)
0x80001460: 00 14 04 13 addi	s0, s0, 1
0x80001464: fe 05 1a e3 bnez	a0, -0xc
0x80001458: d2 5f e0 ef jal	-0x12dc
0x8000017c: a0 00 07 b7 lui	a5, 0xa0000
0x80000180: 3e a7 8c 23 sb	a0, 0x3f8(a5)
0x80000184: 00 00 80 67 ret
0x8000145c: 00 04 45 03 lbu	a0, 0(s0)
0x80001460: 00 14 04 13 addi	s0, s0, 1
0x80001464: fe 05 1a e3 bnez	a0, -0xc
0x80001458: d2 5f e0 ef jal	-0x12dc
0x8000017c: a0 00 07 b7 lui	a5, 0xa0000
0x80000180: 3e a7 8c 23 sb	a0, 0x3f8(a5)
0x80000184: 00 00 80 67 ret
0x8000145c: 00 04 45 03 lbu	a0, 0(s0)
0x80001460: 00 14 04 13 addi	s0, s0, 1
0x80001464: fe 05 1a e3 bnez	a0, -0xc
0x80001458: d2 5f e0 ef jal	-0x12dc
0x8000017c: a0 00 07 b7 lui	a5, 0xa0000
0x80000180: 3e a7 8c 23 sb	a0, 0x3f8(a5)
0x80000184: 00 00 80 67 ret
0x8000145c: 00 04 45 03 lbu	a0, 0(s0)
0x80001460: 00 14 04 13 addi	s0, s0, 1
0x80001464: fe 05 1a e3 bnez	a0, -0xc
0x80001458: d2 5f e0 ef jal	-0x12dc
0x8000017c: a0 00 07 b7 lui	a5, 0xa0000
0x80000180: 3e a7 8c 23 sb	a0, 0x3f8(a5)
0x80000184: 00 00 80 67 ret
0x8000145c: 00 04 45 03 lbu	a0, 0(s0)
0x80001460: 00 14 04 13 addi	s0, s0, 1
0x80001464: fe 05 1a e3 bnez	a0, -0xc
0x80001458: d2 5f e0 ef jal	-0x12dc
0x8000017c: a0 00 07 b7 lui	a5, 0xa0000
0x80000180: 3e a7 8c 23 sb	a0, 0x3f8(a5)
0x80000184: 00 00 80 67 ret
0x8000145c: 00 04 45 03 lbu	a0, 0(s0)
0x80001460: 00 14 04 13 addi	s0, s0, 1
0x80001464: fe 05 1a e3 bnez	a0, -0xc
0x80001458: d2 5f e0 ef jal	-0x12dc
0x8000017c: a0 00 07 b7 lui	a5, 0xa0000
0x80000180: 3e a7 8c 23 sb	a0, 0x3f8(a5)
0x80000184: 00 00 80 67 ret
0x8000145c: 00 04 45 03 lbu	a0, 0(s0)
0x80001460: 00 14 04 13 addi	s0, s0, 1
0x80001464: fe 05 1a e3 bnez	a0, -0xc
0x80001458: d2 5f e0 ef jal	-0x12dc
0x8000017c: a0 00 07 b7 lui	a5, 0xa0000
0x80000180: 3e a7 8c 23 sb	a0, 0x3f8(a5)
0x80000184: 00 00 80 67 ret
0x8000145c: 00 04 45 03 lbu	a0, 0(s0)
0x80001460: 00 14 04 13 addi	s0, s0, 1
0x80001464: fe 05 1a e3 bnez	a0, -0xc
0x80001458: d2 5f e0 ef jal	-0x12dc
0x8000017c: a0 00 07 b7 lui	a5, 0xa0000
0x80000180: 3e a7 8c 23 sb	a0, 0x3f8(a5)
0x80000184: 00 00 80 67 ret
0x8000145c: 00 04 45 03 lbu	a0, 0(s0)
0x80001460: 00 14 04 13 addi	s0, s0, 1
0x80001464: fe 05 1a e3 bnez	a0, -0xc
0x80001458: d2 5f e0 ef jal	-0x12dc
0x8000017c: a0 00 07 b7 lui	a5, 0xa0000
0x80000180: 3e a7 8c 23 sb	a0, 0x3f8(a5)
0x80000184: 00 00 80 67 ret
0x8000145c: 00 04 45 03 lbu	a0, 0(s0)
0x80001460: 00 14 04 13 addi	s0, s0, 1
0x80001464: fe 05 1a e3 bnez	a0, -0xc
0x80001458: d2 5f e0 ef jal	-0x12dc
0x8000017c: a0 00 07 b7 lui	a5, 0xa0000
0x80000180: 3e a7 8c 23 sb	a0, 0x3f8(a5)
0x80000184: 00 00 80 67 ret
0x8000145c: 00 04 45 03 lbu	a0, 0(s0)
0x80001460: 00 14 04 13 addi	s0, s0, 1
0x80001464: fe 05 1a e3 bnez	a0, -0xc
0x80001458: d2 5f e0 ef jal	-0x12dc
0x8000017c: a0 00 07 b7 lui	a5, 0xa0000
0x80000180: 3e a7 8c 23 sb	a0, 0x3f8(a5)
0x80000184: 00 00 80 67 ret
0x8000145c: 00 04 45 03 lbu	a0, 0(s0)
0x80001460: 00 14 04 13 addi	s0, s0, 1
0x80001464: fe 05 1a e3 bnez	a0, -0xc
0x80001458: d2 5f e0 ef jal	-0x12dc
0x8000017c: a0 00 07 b7 lui	a5, 0xa0000
0x80000180: 3e a7 8c 23 sb	a0, 0x3f8(a5)
0x80000184: 00 00 80 67 ret
0x8000145c: 00 04 45 03 lbu	a0, 0(s0)
0x80001460: 00 14 04 13 addi	s0, s0, 1
0x80001464: fe 05 1a e3 bnez	a0, -0xc
0x80001458: d2 5f e0 ef jal	-0x12dc
0x8000017c: a0 00 07 b7 lui	a5, 0xa0000
0x80000180: 3e a7 8c 23 sb	a0, 0x3f8(a5)
0x80000184: 00 00 80 67 ret
0x8000145c: 00 04 45 03 lbu	a0, 0(s0)
0x80001460: 00 14 04 13 addi	s0, s0, 1
0x80001464: fe 05 1a e3 bnez	a0, -0xc
0x80001458: d2 5f e0 ef jal	-0x12dc
0x8000017c: a0 00 07 b7 lui	a5, 0xa0000
0x80000180: 3e a7 8c 23 sb	a0, 0x3f8(a5)
0x80000184: 00 00 80 67 ret
0x8000145c: 00 04 45 03 lbu	a0, 0(s0)
0x80001460: 00 14 04 13 addi	s0, s0, 1
0x80001464: fe 05 1a e3 bnez	a0, -0xc
0x80001458: d2 5f e0 ef jal	-0x12dc
0x8000017c: a0 00 07 b7 lui	a5, 0xa0000
0x80000180: 3e a7 8c 23 sb	a0, 0x3f8(a5)
0x80000184: 00 00 80 67 ret
0x8000145c: 00 04 45 03 lbu	a0, 0(s0)
0x80001460: 00 14 04 13 addi	s0, s0, 1
0x80001464: fe 05 1a e3 bnez	a0, -0xc
0x80001458: d2 5f e0 ef jal	-0x12dc
0x8000017c: a0 00 07 b7 lui	a5, 0xa0000
0x80000180: 3e a7 8c 23 sb	a0, 0x3f8(a5)
0x80000184: 00 00 80 67 ret
0x8000145c: 00 04 45 03 lbu	a0, 0(s0)
0x80001460: 00 14 04 13 addi	s0, s0, 1
0x80001464: fe 05 1a e3 bnez	a0, -0xc
0x80001458: d2 5f e0 ef jal	-0x12dc
0x8000017c: a0 00 07 b7 lui	a5, 0xa0000
0x80000180: 3e a7 8c 23 sb	a0, 0x3f8(a5)
0x80000184: 00 00 80 67 ret
0x8000145c: 00 04 45 03 lbu	a0, 0(s0)
0x80001460: 00 14 04 13 addi	s0, s0, 1
0x80001464: fe 05 1a e3 bnez	a0, -0xc
0x80001458: d2 5f e0 ef jal	-0x12dc
0x8000017c: a0 00 07 b7 lui	a5, 0xa0000
0x80000180: 3e a7 8c 23 sb	a0, 0x3f8(a5)
0x80000184: 00 00 80 67 ret
0x8000145c: 00 04 45 03 lbu	a0, 0(s0)
0x80001460: 00 14 04 13 addi	s0, s0, 1
0x80001464: fe 05 1a e3 bnez	a0, -0xc
0x80001458: d2 5f e0 ef jal	-0x12dc
0x8000017c: a0 00 07 b7 lui	a5, 0xa0000
0x80000180: 3e a7 8c 23 sb	a0, 0x3f8(a5)
0x80000184: 00 00 80 67 ret
0x8000145c: 00 04 45 03 lbu	a0, 0(s0)
0x80001460: 00 14 04 13 addi	s0, s0, 1
0x80001464: fe 05 1a e3 bnez	a0, -0xc
0x80001458: d2 5f e0 ef jal	-0x12dc
0x8000017c: a0 00 07 b7 lui	a5, 0xa0000
0x80000180: 3e a7 8c 23 sb	a0, 0x3f8(a5)
0x80000184: 00 00 80 67 ret
0x8000145c: 00 04 45 03 lbu	a0, 0(s0)
0x80001460: 00 14 04 13 addi	s0, s0, 1
0x80001464: fe 05 1a e3 bnez	a0, -0xc
0x80001458: d2 5f e0 ef jal	-0x12dc
0x8000017c: a0 00 07 b7 lui	a5, 0xa0000
0x80000180: 3e a7 8c 23 sb	a0, 0x3f8(a5)
0x80000184: 00 00 80 67 ret
0x8000145c: 00 04 45 03 lbu	a0, 0(s0)
0x80001460: 00 14 04 13 addi	s0, s0, 1
0x80001464: fe 05 1a e3 bnez	a0, -0xc
0x80001458: d2 5f e0 ef jal	-0x12dc
0x8000017c: a0 00 07 b7 lui	a5, 0xa0000
0x80000180: 3e a7 8c 23 sb	a0, 0x3f8(a5)
0x80000184: 00 00 80 67 ret
0x8000145c: 00 04 45 03 lbu	a0, 0(s0)
0x80001460: 00 14 04 13 addi	s0, s0, 1
0x80001464: fe 05 1a e3 bnez	a0, -0xc
0x80001458: d2 5f e0 ef jal	-0x12dc
0x8000017c: a0 00 07 b7 lui	a5, 0xa0000
0x80000180: 3e a7 8c 23 sb	a0, 0x3f8(a5)
0x80000184: 00 00 80 67 ret
0x8000145c: 00 04 45 03 lbu	a0, 0(s0)
0x80001460: 00 14 04 13 addi	s0, s0, 1
0x80001464: fe 05 1a e3 bnez	a0, -0xc
0x80001458: d2 5f e0 ef jal	-0x12dc
0x8000017c: a0 00 07 b7 lui	a5, 0xa0000
0x80000180: 3e a7 8c 23 sb	a0, 0x3f8(a5)
0x80000184: 00 00 80 67 ret
0x8000145c: 00 04 45 03 lbu	a0, 0(s0)
0x80001460: 00 14 04 13 addi	s0, s0, 1
0x80001464: fe 05 1a e3 bnez	a0, -0xc
0x80001458: d2 5f e0 ef jal	-0x12dc
0x8000017c: a0 00 07 b7 lui	a5, 0xa0000
0x80000180: 3e a7 8c 23 sb	a0, 0x3f8(a5)
0x80000184: 00 00 80 67 ret
0x8000145c: 00 04 45 03 lbu	a0, 0(s0)
0x80001460: 00 14 04 13 addi	s0, s0, 1
0x80001464: fe 05 1a e3 bnez	a0, -0xc
0x80001458: d2 5f e0 ef jal	-0x12dc
0x8000017c: a0 00 07 b7 lui	a5, 0xa0000
0x80000180: 3e a7 8c 23 sb	a0, 0x3f8(a5)
0x80000184: 00 00 80 67 ret
0x8000145c: 00 04 45 03 lbu	a0, 0(s0)
0x80001460: 00 14 04 13 addi	s0, s0, 1
0x80001464: fe 05 1a e3 bnez	a0, -0xc
0x80001458: d2 5f e0 ef jal	-0x12dc
0x8000017c: a0 00 07 b7 lui	a5, 0xa0000
0x80000180: 3e a7 8c 23 sb	a0, 0x3f8(a5)
0x80000184: 00 00 80 67 ret
0x8000145c: 00 04 45 03 lbu	a0, 0(s0)
0x80001460: 00 14 04 13 addi	s0, s0, 1
0x80001464: fe 05 1a e3 bnez	a0, -0xc
0x80001458: d2 5f e0 ef jal	-0x12dc
0x8000017c: a0 00 07 b7 lui	a5, 0xa0000
0x80000180: 3e a7 8c 23 sb	a0, 0x3f8(a5)
0x80000184: 00 00 80 67 ret
0x8000145c: 00 04 45 03 lbu	a0, 0(s0)
0x80001460: 00 14 04 13 addi	s0, s0, 1
0x80001464: fe 05 1a e3 bnez	a0, -0xc
0x80001458: d2 5f e0 ef jal	-0x12dc
0x8000017c: a0 00 07 b7 lui	a5, 0xa0000
0x80000180: 3e a7 8c 23 sb	a0, 0x3f8(a5)
0x80000184: 00 00 80 67 ret
0x8000145c: 00 04 45 03 lbu	a0, 0(s0)
0x80001460: 00 14 04 13 addi	s0, s0, 1
0x80001464: fe 05 1a e3 bnez	a0, -0xc
0x80001458: d2 5f e0 ef jal	-0x12dc
0x8000017c: a0 00 07 b7 lui	a5, 0xa0000
0x80000180: 3e a7 8c 23 sb	a0, 0x3f8(a5)
0x80000184: 00 00 80 67 ret
0x8000145c: 00 04 45 03 lbu	a0, 0(s0)
0x80001460: 00 14 04 13 addi	s0, s0, 1
0x80001464: fe 05 1a e3 bnez	a0, -0xc
0x80001458: d2 5f e0 ef jal	-0x12dc
0x8000017c: a0 00 07 b7 lui	a5, 0xa0000
0x80000180: 3e a7 8c 23 sb	a0, 0x3f8(a5)
0x80000184: 00 00 80 67 ret
0x8000145c: 00 04 45 03 lbu	a0, 0(s0)
0x80001460: 00 14 04 13 addi	s0, s0, 1
0x80001464: fe 05 1a e3 bnez	a0, -0xc
0x80001458: d2 5f e0 ef jal	-0x12dc
0x8000017c: a0 00 07 b7 lui	a5, 0xa0000
0x80000180: 3e a7 8c 23 sb	a0, 0x3f8(a5)
0x80000184: 00 00 80 67 ret
0x8000145c: 00 04 45 03 lbu	a0, 0(s0)
0x80001460: 00 14 04 13 addi	s0, s0, 1
0x80001464: fe 05 1a e3 bnez	a0, -0xc
0x80001458: d2 5f e0 ef jal	-0x12dc
0x8000017c: a0 00 07 b7 lui	a5, 0xa0000
0x80000180: 3e a7 8c 23 sb	a0, 0x3f8(a5)
0x80000184: 00 00 80 67 ret
0x8000145c: 00 04 45 03 lbu	a0, 0(s0)
0x80001460: 00 14 04 13 addi	s0, s0, 1
0x80001464: fe 05 1a e3 bnez	a0, -0xc
0x80001458: d2 5f e0 ef jal	-0x12dc
0x8000017c: a0 00 07 b7 lui	a5, 0xa0000
0x80000180: 3e a7 8c 23 sb	a0, 0x3f8(a5)
0x80000184: 00 00 80 67 ret
0x8000145c: 00 04 45 03 lbu	a0, 0(s0)
0x80001460: 00 14 04 13 addi	s0, s0, 1
0x80001464: fe 05 1a e3 bnez	a0, -0xc
0x80001458: d2 5f e0 ef jal	-0x12dc
0x8000017c: a0 00 07 b7 lui	a5, 0xa0000
0x80000180: 3e a7 8c 23 sb	a0, 0x3f8(a5)
0x80000184: 00 00 80 67 ret
0x8000145c: 00 04 45 03 lbu	a0, 0(s0)
0x80001460: 00 14 04 13 addi	s0, s0, 1
0x80001464: fe 05 1a e3 bnez	a0, -0xc
0x80001458: d2 5f e0 ef jal	-0x12dc
0x8000017c: a0 00 07 b7 lui	a5, 0xa0000
0x80000180: 3e a7 8c 23 sb	a0, 0x3f8(a5)
0x80000184: 00 00 80 67 ret
0x8000145c: 00 04 45 03 lbu	a0, 0(s0)
0x80001460: 00 14 04 13 addi	s0, s0, 1
0x80001464: fe 05 1a e3 bnez	a0, -0xc
0x80001458: d2 5f e0 ef jal	-0x12dc
0x8000017c: a0 00 07 b7 lui	a5, 0xa0000
0x80000180: 3e a7 8c 23 sb	a0, 0x3f8(a5)
0x80000184: 00 00 80 67 ret
0x8000145c: 00 04 45 03 lbu	a0, 0(s0)
0x80001460: 00 14 04 13 addi	s0, s0, 1
0x80001464: fe 05 1a e3 bnez	a0, -0xc
0x80001458: d2 5f e0 ef jal	-0x12dc
0x8000017c: a0 00 07 b7 lui	a5, 0xa0000
0x80000180: 3e a7 8c 23 sb	a0, 0x3f8(a5)
0x80000184: 00 00 80 67 ret
0x8000145c: 00 04 45 03 lbu	a0, 0(s0)
0x80001460: 00 14 04 13 addi	s0, s0, 1
0x80001464: fe 05 1a e3 bnez	a0, -0xc
0x80001458: d2 5f e0 ef jal	-0x12dc
0x8000017c: a0 00 07 b7 lui	a5, 0xa0000
0x80000180: 3e a7 8c 23 sb	a0, 0x3f8(a5)
0x80000184: 00 00 80 67 ret
0x8000145c: 00 04 45 03 lbu	a0, 0(s0)
0x80001460: 00 14 04 13 addi	s0, s0, 1
0x80001464: fe 05 1a e3 bnez	a0, -0xc
0x80001458: d2 5f e0 ef jal	-0x12dc
0x8000017c: a0 00 07 b7 lui	a5, 0xa0000
0x80000180: 3e a7 8c 23 sb	a0, 0x3f8(a5)
0x80000184: 00 00 80 67 ret
0x8000145c: 00 04 45 03 lbu	a0, 0(s0)
0x80001460: 00 14 04 13 addi	s0, s0, 1
0x80001464: fe 05 1a e3 bnez	a0, -0xc
0x80001458: d2 5f e0 ef jal	-0x12dc
0x8000017c: a0 00 07 b7 lui	a5, 0xa0000
0x80000180: 3e a7 8c 23 sb	a0, 0x3f8(a5)
0x80000184: 00 00 80 67 ret
0x8000145c: 00 04 45 03 lbu	a0, 0(s0)
0x80001460: 00 14 04 13 addi	s0, s0, 1
0x80001464: fe 05 1a e3 bnez	a0, -0xc
0x80001458: d2 5f e0 ef jal	-0x12dc
0x8000017c: a0 00 07 b7 lui	a5, 0xa0000
0x80000180: 3e a7 8c 23 sb	a0, 0x3f8(a5)
0x80000184: 00 00 80 67 ret
0x8000145c: 00 04 45 03 lbu	a0, 0(s0)
0x80001460: 00 14 04 13 addi	s0, s0, 1
0x80001464: fe 05 1a e3 bnez	a0, -0xc
0x80001458: d2 5f e0 ef jal	-0x12dc
0x8000017c: a0 00 07 b7 lui	a5, 0xa0000
0x80000180: 3e a7 8c 23 sb	a0, 0x3f8(a5)
0x80000184: 00 00 80 67 ret
0x8000145c: 00 04 45 03 lbu	a0, 0(s0)
0x80001460: 00 14 04 13 addi	s0, s0, 1
0x80001464: fe 05 1a e3 bnez	a0, -0xc
0x80001458: d2 5f e0 ef jal	-0x12dc
0x8000017c: a0 00 07 b7 lui	a5, 0xa0000
0x80000180: 3e a7 8c 23 sb	a0, 0x3f8(a5)
0x80000184: 00 00 80 67 ret
0x8000145c: 00 04 45 03 lbu	a0, 0(s0)
0x80001460: 00 14 04 13 addi	s0, s0, 1
0x80001464: fe 05 1a e3 bnez	a0, -0xc
0x80001458: d2 5f e0 ef jal	-0x12dc
0x8000017c: a0 00 07 b7 lui	a5, 0xa0000
0x80000180: 3e a7 8c 23 sb	a0, 0x3f8(a5)
0x80000184: 00 00 80 67 ret
0x8000145c: 00 04 45 03 lbu	a0, 0(s0)
0x80001460: 00 14 04 13 addi	s0, s0, 1
0x80001464: fe 05 1a e3 bnez	a0, -0xc
0x80001458: d2 5f e0 ef jal	-0x12dc
0x8000017c: a0 00 07 b7 lui	a5, 0xa0000
0x80000180: 3e a7 8c 23 sb	a0, 0x3f8(a5)
0x80000184: 00 00 80 67 ret
0x8000145c: 00 04 45 03 lbu	a0, 0(s0)
0x80001460: 00 14 04 13 addi	s0, s0, 1
0x80001464: fe 05 1a e3 bnez	a0, -0xc
0x80001458: d2 5f e0 ef jal	-0x12dc
0x8000017c: a0 00 07 b7 lui	a5, 0xa0000
0x80000180: 3e a7 8c 23 sb	a0, 0x3f8(a5)
0x80000184: 00 00 80 67 ret
0x8000145c: 00 04 45 03 lbu	a0, 0(s0)
0x80001460: 00 14 04 13 addi	s0, s0, 1
0x80001464: fe 05 1a e3 bnez	a0, -0xc
0x80001458: d2 5f e0 ef jal	-0x12dc
0x8000017c: a0 00 07 b7 lui	a5, 0xa0000
0x80000180: 3e a7 8c 23 sb	a0, 0x3f8(a5)
0x80000184: 00 00 80 67 ret
0x8000145c: 00 04 45 03 lbu	a0, 0(s0)
0x80001460: 00 14 04 13 addi	s0, s0, 1
0x80001464: fe 05 1a e3 bnez	a0, -0xc
0x80001458: d2 5f e0 ef jal	-0x12dc
0x8000017c: a0 00 07 b7 lui	a5, 0xa0000
0x80000180: 3e a7 8c 23 sb	a0, 0x3f8(a5)
0x80000184: 00 00 80 67 ret
0x8000145c: 00 04 45 03 lbu	a0, 0(s0)
0x80001460: 00 14 04 13 addi	s0, s0, 1
0x80001464: fe 05 1a e3 bnez	a0, -0xc
0x80001458: d2 5f e0 ef jal	-0x12dc
0x8000017c: a0 00 07 b7 lui	a5, 0xa0000
0x80000180: 3e a7 8c 23 sb	a0, 0x3f8(a5)
0x80000184: 00 00 80 67 ret
0x8000145c: 00 04 45 03 lbu	a0, 0(s0)
0x80001460: 00 14 04 13 addi	s0, s0, 1
0x80001464: fe 05 1a e3 bnez	a0, -0xc
0x80001468: 00 00 12 b7 lui	t0, 1
0x8000146c: 00 51 01 33 add	sp, sp, t0
0x80001470: 02 c1 20 83 lw	ra, 0x2c(sp)
0x80001474: 00 04 85 13 mv	a0, s1
0x80001478: 02 81 24 03 lw	s0, 0x28(sp)
0x8000147c: 02 41 24 83 lw	s1, 0x24(sp)
0x80001480: 05 01 01 13 addi	sp, sp, 0x50
0x80001484: 00 00 80 67 ret
0x80000240: 00 10 05 13 addi	a0, zero, 1
0x80000244: f4 5f f0 ef jal	-0xbc
0x80000188: 00 05 05 13 mv	a0, a0
0x8000018c: 00 10 00 73 ebreak
[1;34m[src/cpu/cpu-exec.c:201 cpu_exec] nemu: [1;31mHIT BAD TRAP[0m at pc = 0x8000018c[0m
[1;34m[src/cpu/cpu-exec.c:169 statistic] host time spent = 4,000 us[0m
[1;34m[src/cpu/cpu-exec.c:170 statistic] total guest instructions = 2,370[0m
[1;34m[src/cpu/cpu-exec.c:171 statistic] simulation frequency = 592,500 inst/s[0m
