
/home/mubai/ysyx-workbench/am-kernels/kernels/yield-os/build/yield-os-riscv32e-npc.elf:     file format elf32-littleriscv


Disassembly of section .text:

80000000 <_start>:
80000000:	00000413          	li	s0,0
80000004:	00023117          	auipc	sp,0x23
80000008:	ffc10113          	addi	sp,sp,-4 # 80023000 <_end>
8000000c:	19c000ef          	jal	800001a8 <_trm_init>

80000010 <schedule>:
80000010:	00003717          	auipc	a4,0x3
80000014:	95870713          	addi	a4,a4,-1704 # 80002968 <current>
80000018:	00072683          	lw	a3,0(a4)
8000001c:	0000b797          	auipc	a5,0xb
80000020:	95078793          	addi	a5,a5,-1712 # 8000a96c <pcb>
80000024:	00b6a023          	sw	a1,0(a3)
80000028:	00f68863          	beq	a3,a5,80000038 <schedule+0x28>
8000002c:	0007a503          	lw	a0,0(a5)
80000030:	00f72023          	sw	a5,0(a4)
80000034:	00008067          	ret
80000038:	00013797          	auipc	a5,0x13
8000003c:	93478793          	addi	a5,a5,-1740 # 8001296c <pcb+0x8000>
80000040:	0007a503          	lw	a0,0(a5)
80000044:	00f72023          	sw	a5,0(a4)
80000048:	00008067          	ret

8000004c <f>:
8000004c:	00353793          	sltiu	a5,a0,3
80000050:	40f007b3          	neg	a5,a5
80000054:	00f57533          	and	a0,a0,a5
80000058:	00002797          	auipc	a5,0x2
8000005c:	62078793          	addi	a5,a5,1568 # 80002678 <_etext>
80000060:	ff010113          	addi	sp,sp,-16
80000064:	00a787b3          	add	a5,a5,a0
80000068:	00812423          	sw	s0,8(sp)
8000006c:	0007c403          	lbu	s0,0(a5)
80000070:	00112623          	sw	ra,12(sp)
80000074:	00040513          	mv	a0,s0
80000078:	104000ef          	jal	8000017c <putch>
8000007c:	00012023          	sw	zero,0(sp)
80000080:	00012703          	lw	a4,0(sp)
80000084:	000187b7          	lui	a5,0x18
80000088:	69f78793          	addi	a5,a5,1695 # 1869f <_entry_offset+0x1869f>
8000008c:	00e7ce63          	blt	a5,a4,800000a8 <f+0x5c>
80000090:	00078713          	mv	a4,a5
80000094:	00012783          	lw	a5,0(sp)
80000098:	00178793          	addi	a5,a5,1
8000009c:	00f12023          	sw	a5,0(sp)
800000a0:	00012783          	lw	a5,0(sp)
800000a4:	fef758e3          	bge	a4,a5,80000094 <f+0x48>
800000a8:	210000ef          	jal	800002b8 <yield>
800000ac:	fc9ff06f          	j	80000074 <f+0x28>

800000b0 <main>:
800000b0:	fe410113          	addi	sp,sp,-28
800000b4:	00000517          	auipc	a0,0x0
800000b8:	f5c50513          	addi	a0,a0,-164 # 80000010 <schedule>
800000bc:	00112c23          	sw	ra,24(sp)
800000c0:	00812a23          	sw	s0,20(sp)
800000c4:	00912823          	sw	s1,16(sp)
800000c8:	00013417          	auipc	s0,0x13
800000cc:	8a440413          	addi	s0,s0,-1884 # 8001296c <pcb+0x8000>
800000d0:	198000ef          	jal	80000268 <cte_init>
800000d4:	0000b497          	auipc	s1,0xb
800000d8:	89848493          	addi	s1,s1,-1896 # 8000a96c <pcb>
800000dc:	00040593          	mv	a1,s0
800000e0:	00100693          	li	a3,1
800000e4:	00000617          	auipc	a2,0x0
800000e8:	f6860613          	addi	a2,a2,-152 # 8000004c <f>
800000ec:	00048513          	mv	a0,s1
800000f0:	198000ef          	jal	80000288 <kcontext>
800000f4:	00050793          	mv	a5,a0
800000f8:	00200693          	li	a3,2
800000fc:	00000617          	auipc	a2,0x0
80000100:	f5060613          	addi	a2,a2,-176 # 8000004c <f>
80000104:	00040513          	mv	a0,s0
80000108:	0001b597          	auipc	a1,0x1b
8000010c:	86458593          	addi	a1,a1,-1948 # 8001a96c <user_handler>
80000110:	00f4a023          	sw	a5,0(s1)
80000114:	174000ef          	jal	80000288 <kcontext>
80000118:	00a42023          	sw	a0,0(s0)
8000011c:	19c000ef          	jal	800002b8 <yield>
80000120:	00002417          	auipc	s0,0x2
80000124:	55c40413          	addi	s0,s0,1372 # 8000267c <_etext+0x4>
80000128:	04100513          	li	a0,65
8000012c:	050000ef          	jal	8000017c <putch>
80000130:	00144503          	lbu	a0,1(s0)
80000134:	00140413          	addi	s0,s0,1
80000138:	fe051ae3          	bnez	a0,8000012c <main+0x7c>
8000013c:	00002417          	auipc	s0,0x2
80000140:	54c40413          	addi	s0,s0,1356 # 80002688 <_etext+0x10>
80000144:	05300513          	li	a0,83
80000148:	034000ef          	jal	8000017c <putch>
8000014c:	00144503          	lbu	a0,1(s0)
80000150:	00140413          	addi	s0,s0,1
80000154:	fe051ae3          	bnez	a0,80000148 <main+0x98>
80000158:	00002417          	auipc	s0,0x2
8000015c:	54840413          	addi	s0,s0,1352 # 800026a0 <_etext+0x28>
80000160:	02000513          	li	a0,32
80000164:	018000ef          	jal	8000017c <putch>
80000168:	00144503          	lbu	a0,1(s0)
8000016c:	00140413          	addi	s0,s0,1
80000170:	fe051ae3          	bnez	a0,80000164 <main+0xb4>
80000174:	00100513          	li	a0,1
80000178:	024000ef          	jal	8000019c <halt>

8000017c <putch>:
8000017c:	a0000737          	lui	a4,0xa0000
80000180:	3fd70713          	addi	a4,a4,1021 # a00003fd <_end+0x1ffdd3fd>
80000184:	00074783          	lbu	a5,0(a4)
80000188:	0207f793          	andi	a5,a5,32
8000018c:	fe078ce3          	beqz	a5,80000184 <putch+0x8>
80000190:	a00007b7          	lui	a5,0xa0000
80000194:	3ea78c23          	sb	a0,1016(a5) # a00003f8 <_end+0x1ffdd3f8>
80000198:	00008067          	ret

8000019c <halt>:
8000019c:	00050513          	mv	a0,a0
800001a0:	00100073          	ebreak
800001a4:	0000006f          	j	800001a4 <halt+0x8>

800001a8 <_trm_init>:
800001a8:	ff410113          	addi	sp,sp,-12
800001ac:	00002517          	auipc	a0,0x2
800001b0:	5e850513          	addi	a0,a0,1512 # 80002794 <mainargs>
800001b4:	00112423          	sw	ra,8(sp)
800001b8:	ef9ff0ef          	jal	800000b0 <main>
800001bc:	00050513          	mv	a0,a0
800001c0:	00100073          	ebreak
800001c4:	0000006f          	j	800001c4 <_trm_init+0x1c>

800001c8 <__am_irq_handle>:
800001c8:	0001a717          	auipc	a4,0x1a
800001cc:	7a472703          	lw	a4,1956(a4) # 8001a96c <user_handler>
800001d0:	00050593          	mv	a1,a0
800001d4:	06070863          	beqz	a4,80000244 <__am_irq_handle+0x7c>
800001d8:	04052603          	lw	a2,64(a0)
800001dc:	fd410113          	addi	sp,sp,-44
800001e0:	02112423          	sw	ra,40(sp)
800001e4:	00012a23          	sw	zero,20(sp)
800001e8:	00012c23          	sw	zero,24(sp)
800001ec:	00012e23          	sw	zero,28(sp)
800001f0:	00b00793          	li	a5,11
800001f4:	00400693          	li	a3,4
800001f8:	04f60263          	beq	a2,a5,8000023c <__am_irq_handle+0x74>
800001fc:	0485a783          	lw	a5,72(a1)
80000200:	00010513          	mv	a0,sp
80000204:	00478793          	addi	a5,a5,4
80000208:	04f5a423          	sw	a5,72(a1)
8000020c:	01412783          	lw	a5,20(sp)
80000210:	00d12023          	sw	a3,0(sp)
80000214:	00f12223          	sw	a5,4(sp)
80000218:	01812783          	lw	a5,24(sp)
8000021c:	00f12423          	sw	a5,8(sp)
80000220:	01c12783          	lw	a5,28(sp)
80000224:	00f12623          	sw	a5,12(sp)
80000228:	000700e7          	jalr	a4
8000022c:	00050e63          	beqz	a0,80000248 <__am_irq_handle+0x80>
80000230:	02812083          	lw	ra,40(sp)
80000234:	02c10113          	addi	sp,sp,44
80000238:	00008067          	ret
8000023c:	00100693          	li	a3,1
80000240:	fbdff06f          	j	800001fc <__am_irq_handle+0x34>
80000244:	00008067          	ret
80000248:	01000613          	li	a2,16
8000024c:	00002597          	auipc	a1,0x2
80000250:	4a058593          	addi	a1,a1,1184 # 800026ec <_etext+0x74>
80000254:	00002517          	auipc	a0,0x2
80000258:	4dc50513          	addi	a0,a0,1244 # 80002730 <_etext+0xb8>
8000025c:	441010ef          	jal	80001e9c <printf>
80000260:	00100513          	li	a0,1
80000264:	f39ff0ef          	jal	8000019c <halt>

80000268 <cte_init>:
80000268:	00050793          	mv	a5,a0
8000026c:	00000717          	auipc	a4,0x0
80000270:	05c70713          	addi	a4,a4,92 # 800002c8 <__am_asm_trap>
80000274:	30571073          	csrw	mtvec,a4
80000278:	00100513          	li	a0,1
8000027c:	0001a717          	auipc	a4,0x1a
80000280:	6ef72823          	sw	a5,1776(a4) # 8001a96c <user_handler>
80000284:	00008067          	ret

80000288 <kcontext>:
80000288:	000027b7          	lui	a5,0x2
8000028c:	80078793          	addi	a5,a5,-2048 # 1800 <_entry_offset+0x1800>
80000290:	ff810113          	addi	sp,sp,-8
80000294:	fef5aa23          	sw	a5,-12(a1)
80000298:	fe05a823          	sw	zero,-16(a1)
8000029c:	fec5ac23          	sw	a2,-8(a1)
800002a0:	fab5ac23          	sw	a1,-72(a1)
800002a4:	fcd5ac23          	sw	a3,-40(a1)
800002a8:	fe05ae23          	sw	zero,-4(a1)
800002ac:	fb058513          	addi	a0,a1,-80
800002b0:	00810113          	addi	sp,sp,8
800002b4:	00008067          	ret

800002b8 <yield>:
800002b8:	fff00793          	li	a5,-1
800002bc:	00000073          	ecall
800002c0:	00008067          	ret
800002c4:	0000                	.insn	2, 0x
	...

800002c8 <__am_asm_trap>:
800002c8:	fb010113          	addi	sp,sp,-80
800002cc:	00112223          	sw	ra,4(sp)
800002d0:	00312623          	sw	gp,12(sp)
800002d4:	00412823          	sw	tp,16(sp)
800002d8:	00512a23          	sw	t0,20(sp)
800002dc:	00612c23          	sw	t1,24(sp)
800002e0:	00712e23          	sw	t2,28(sp)
800002e4:	02812023          	sw	s0,32(sp)
800002e8:	02912223          	sw	s1,36(sp)
800002ec:	02a12423          	sw	a0,40(sp)
800002f0:	02b12623          	sw	a1,44(sp)
800002f4:	02c12823          	sw	a2,48(sp)
800002f8:	02d12a23          	sw	a3,52(sp)
800002fc:	02e12c23          	sw	a4,56(sp)
80000300:	02f12e23          	sw	a5,60(sp)
80000304:	342022f3          	csrr	t0,mcause
80000308:	30002373          	csrr	t1,mstatus
8000030c:	341023f3          	csrr	t2,mepc
80000310:	04512023          	sw	t0,64(sp)
80000314:	04612223          	sw	t1,68(sp)
80000318:	04712423          	sw	t2,72(sp)
8000031c:	00010513          	mv	a0,sp
80000320:	ea9ff0ef          	jal	800001c8 <__am_irq_handle>
80000324:	00050113          	mv	sp,a0
80000328:	04412303          	lw	t1,68(sp)
8000032c:	04812383          	lw	t2,72(sp)
80000330:	30031073          	csrw	mstatus,t1
80000334:	34139073          	csrw	mepc,t2
80000338:	00412083          	lw	ra,4(sp)
8000033c:	00c12183          	lw	gp,12(sp)
80000340:	01012203          	lw	tp,16(sp)
80000344:	01412283          	lw	t0,20(sp)
80000348:	01812303          	lw	t1,24(sp)
8000034c:	01c12383          	lw	t2,28(sp)
80000350:	02012403          	lw	s0,32(sp)
80000354:	02412483          	lw	s1,36(sp)
80000358:	02812503          	lw	a0,40(sp)
8000035c:	02c12583          	lw	a1,44(sp)
80000360:	03012603          	lw	a2,48(sp)
80000364:	03412683          	lw	a3,52(sp)
80000368:	03812703          	lw	a4,56(sp)
8000036c:	03c12783          	lw	a5,60(sp)
80000370:	05010113          	addi	sp,sp,80
80000374:	30200073          	mret
80000378:	0000                	.insn	2, 0x
	...

8000037c <vsnprintf>:
8000037c:	f1410113          	addi	sp,sp,-236
80000380:	0e112423          	sw	ra,232(sp)
80000384:	00a12623          	sw	a0,12(sp)
80000388:	00c12223          	sw	a2,4(sp)
8000038c:	00d12823          	sw	a3,16(sp)
80000390:	30058ee3          	beqz	a1,80000eac <vsnprintf+0xb30>
80000394:	00100793          	li	a5,1
80000398:	30f586e3          	beq	a1,a5,80000ea4 <vsnprintf+0xb28>
8000039c:	0e912023          	sw	s1,224(sp)
800003a0:	00064783          	lbu	a5,0(a2)
800003a4:	fff58313          	addi	t1,a1,-1
800003a8:	02612823          	sw	t1,48(sp)
800003ac:	00012023          	sw	zero,0(sp)
800003b0:	00000493          	li	s1,0
800003b4:	00000393          	li	t2,0
800003b8:	06078a63          	beqz	a5,8000042c <vsnprintf+0xb0>
800003bc:	0e812223          	sw	s0,228(sp)
800003c0:	00038413          	mv	s0,t2
800003c4:	02500713          	li	a4,37
800003c8:	00040293          	mv	t0,s0
800003cc:	00148693          	addi	a3,s1,1
800003d0:	06e78c63          	beq	a5,a4,80000448 <vsnprintf+0xcc>
800003d4:	00012703          	lw	a4,0(sp)
800003d8:	00170713          	addi	a4,a4,1
800003dc:	00e12023          	sw	a4,0(sp)
800003e0:	00647c63          	bgeu	s0,t1,800003f8 <vsnprintf+0x7c>
800003e4:	00c12703          	lw	a4,12(sp)
800003e8:	008702b3          	add	t0,a4,s0
800003ec:	00140413          	addi	s0,s0,1
800003f0:	00f28023          	sb	a5,0(t0)
800003f4:	00040293          	mv	t0,s0
800003f8:	00068493          	mv	s1,a3
800003fc:	00412783          	lw	a5,4(sp)
80000400:	009787b3          	add	a5,a5,s1
80000404:	0007c783          	lbu	a5,0(a5)
80000408:	fa079ee3          	bnez	a5,800003c4 <vsnprintf+0x48>
8000040c:	03012703          	lw	a4,48(sp)
80000410:	00028793          	mv	a5,t0
80000414:	00577463          	bgeu	a4,t0,8000041c <vsnprintf+0xa0>
80000418:	00070793          	mv	a5,a4
8000041c:	00c12703          	lw	a4,12(sp)
80000420:	0e412403          	lw	s0,228(sp)
80000424:	00f707b3          	add	a5,a4,a5
80000428:	00f12623          	sw	a5,12(sp)
8000042c:	00c12783          	lw	a5,12(sp)
80000430:	00012503          	lw	a0,0(sp)
80000434:	00078023          	sb	zero,0(a5)
80000438:	0e812083          	lw	ra,232(sp)
8000043c:	0e012483          	lw	s1,224(sp)
80000440:	0ec10113          	addi	sp,sp,236
80000444:	00008067          	ret
80000448:	00412783          	lw	a5,4(sp)
8000044c:	00248713          	addi	a4,s1,2
80000450:	02012423          	sw	zero,40(sp)
80000454:	00d786b3          	add	a3,a5,a3
80000458:	02012623          	sw	zero,44(sp)
8000045c:	02012023          	sw	zero,32(sp)
80000460:	02012223          	sw	zero,36(sp)
80000464:	00012c23          	sw	zero,24(sp)
80000468:	0006c603          	lbu	a2,0(a3)
8000046c:	01000593          	li	a1,16
80000470:	00068513          	mv	a0,a3
80000474:	fe060793          	addi	a5,a2,-32
80000478:	0ff7f793          	zext.b	a5,a5
8000047c:	02f5e063          	bltu	a1,a5,8000049c <vsnprintf+0x120>
80000480:	00002597          	auipc	a1,0x2
80000484:	35458593          	addi	a1,a1,852 # 800027d4 <mainargs+0x40>
80000488:	00279793          	slli	a5,a5,0x2
8000048c:	00b787b3          	add	a5,a5,a1
80000490:	0007a783          	lw	a5,0(a5)
80000494:	00b787b3          	add	a5,a5,a1
80000498:	00078067          	jr	a5
8000049c:	00c12423          	sw	a2,8(sp)
800004a0:	02a00693          	li	a3,42
800004a4:	0ad61e63          	bne	a2,a3,80000560 <vsnprintf+0x1e4>
800004a8:	01012783          	lw	a5,16(sp)
800004ac:	0007a483          	lw	s1,0(a5)
800004b0:	00478693          	addi	a3,a5,4
800004b4:	0004d863          	bgez	s1,800004c4 <vsnprintf+0x148>
800004b8:	00100793          	li	a5,1
800004bc:	409004b3          	neg	s1,s1
800004c0:	00f12c23          	sw	a5,24(sp)
800004c4:	00412783          	lw	a5,4(sp)
800004c8:	00070593          	mv	a1,a4
800004cc:	00d12823          	sw	a3,16(sp)
800004d0:	00e78533          	add	a0,a5,a4
800004d4:	00054783          	lbu	a5,0(a0)
800004d8:	00f12423          	sw	a5,8(sp)
800004dc:	fff00793          	li	a5,-1
800004e0:	00f12a23          	sw	a5,20(sp)
800004e4:	00812783          	lw	a5,8(sp)
800004e8:	02e00713          	li	a4,46
800004ec:	0ee78263          	beq	a5,a4,800005d0 <vsnprintf+0x254>
800004f0:	00412703          	lw	a4,4(sp)
800004f4:	00158793          	addi	a5,a1,1
800004f8:	00f12e23          	sw	a5,28(sp)
800004fc:	00f70733          	add	a4,a4,a5
80000500:	00812783          	lw	a5,8(sp)
80000504:	06800693          	li	a3,104
80000508:	12d78663          	beq	a5,a3,80000634 <vsnprintf+0x2b8>
8000050c:	00812783          	lw	a5,8(sp)
80000510:	06c00693          	li	a3,108
80000514:	1ad78663          	beq	a5,a3,800006c0 <vsnprintf+0x344>
80000518:	00812783          	lw	a5,8(sp)
8000051c:	07a00693          	li	a3,122
80000520:	10d786e3          	beq	a5,a3,80000e2c <vsnprintf+0xab0>
80000524:	00050713          	mv	a4,a0
80000528:	00b12e23          	sw	a1,28(sp)
8000052c:	00000513          	li	a0,0
80000530:	00812783          	lw	a5,8(sp)
80000534:	05300593          	li	a1,83
80000538:	fdb78693          	addi	a3,a5,-37
8000053c:	0ff6f693          	zext.b	a3,a3
80000540:	12d5ea63          	bltu	a1,a3,80000674 <vsnprintf+0x2f8>
80000544:	00002797          	auipc	a5,0x2
80000548:	2d478793          	addi	a5,a5,724 # 80002818 <mainargs+0x84>
8000054c:	00269693          	slli	a3,a3,0x2
80000550:	00f686b3          	add	a3,a3,a5
80000554:	0006a683          	lw	a3,0(a3)
80000558:	00f686b3          	add	a3,a3,a5
8000055c:	00068067          	jr	a3
80000560:	fd060693          	addi	a3,a2,-48
80000564:	00412603          	lw	a2,4(sp)
80000568:	0ff6f393          	zext.b	t2,a3
8000056c:	00900793          	li	a5,9
80000570:	fff70593          	addi	a1,a4,-1
80000574:	00000493          	li	s1,0
80000578:	00e60733          	add	a4,a2,a4
8000057c:	00900613          	li	a2,9
80000580:	f477eee3          	bltu	a5,t2,800004dc <vsnprintf+0x160>
80000584:	00048393          	mv	t2,s1
80000588:	00074783          	lbu	a5,0(a4)
8000058c:	00239493          	slli	s1,t2,0x2
80000590:	007484b3          	add	s1,s1,t2
80000594:	00149493          	slli	s1,s1,0x1
80000598:	009683b3          	add	t2,a3,s1
8000059c:	fd078693          	addi	a3,a5,-48
800005a0:	0ff6f493          	zext.b	s1,a3
800005a4:	00070513          	mv	a0,a4
800005a8:	00158593          	addi	a1,a1,1
800005ac:	00170713          	addi	a4,a4,1
800005b0:	fc967ce3          	bgeu	a2,s1,80000588 <vsnprintf+0x20c>
800005b4:	00f12423          	sw	a5,8(sp)
800005b8:	fff00793          	li	a5,-1
800005bc:	00f12a23          	sw	a5,20(sp)
800005c0:	00812783          	lw	a5,8(sp)
800005c4:	02e00713          	li	a4,46
800005c8:	00038493          	mv	s1,t2
800005cc:	f2e792e3          	bne	a5,a4,800004f0 <vsnprintf+0x174>
800005d0:	00412783          	lw	a5,4(sp)
800005d4:	00158613          	addi	a2,a1,1
800005d8:	02a00713          	li	a4,42
800005dc:	00c78533          	add	a0,a5,a2
800005e0:	00054783          	lbu	a5,0(a0)
800005e4:	00f12423          	sw	a5,8(sp)
800005e8:	04e79ae3          	bne	a5,a4,80000e3c <vsnprintf+0xac0>
800005ec:	01012783          	lw	a5,16(sp)
800005f0:	0007a683          	lw	a3,0(a5)
800005f4:	00478713          	addi	a4,a5,4
800005f8:	00d12a23          	sw	a3,20(sp)
800005fc:	2006ce63          	bltz	a3,80000818 <vsnprintf+0x49c>
80000600:	00412783          	lw	a5,4(sp)
80000604:	00258593          	addi	a1,a1,2
80000608:	00e12823          	sw	a4,16(sp)
8000060c:	00b78533          	add	a0,a5,a1
80000610:	00054783          	lbu	a5,0(a0)
80000614:	00412703          	lw	a4,4(sp)
80000618:	06800693          	li	a3,104
8000061c:	00f12423          	sw	a5,8(sp)
80000620:	00158793          	addi	a5,a1,1
80000624:	00f12e23          	sw	a5,28(sp)
80000628:	00f70733          	add	a4,a4,a5
8000062c:	00812783          	lw	a5,8(sp)
80000630:	ecd79ee3          	bne	a5,a3,8000050c <vsnprintf+0x190>
80000634:	00074783          	lbu	a5,0(a4)
80000638:	00100513          	li	a0,1
8000063c:	00f12423          	sw	a5,8(sp)
80000640:	eed798e3          	bne	a5,a3,80000530 <vsnprintf+0x1b4>
80000644:	00412703          	lw	a4,4(sp)
80000648:	00258793          	addi	a5,a1,2
8000064c:	00f12e23          	sw	a5,28(sp)
80000650:	00f70733          	add	a4,a4,a5
80000654:	00074783          	lbu	a5,0(a4)
80000658:	05300593          	li	a1,83
8000065c:	00200513          	li	a0,2
80000660:	00f12423          	sw	a5,8(sp)
80000664:	00812783          	lw	a5,8(sp)
80000668:	fdb78693          	addi	a3,a5,-37
8000066c:	0ff6f693          	zext.b	a3,a3
80000670:	ecd5fae3          	bgeu	a1,a3,80000544 <vsnprintf+0x1c8>
80000674:	00012783          	lw	a5,0(sp)
80000678:	00278793          	addi	a5,a5,2
8000067c:	00f12023          	sw	a5,0(sp)
80000680:	02647a63          	bgeu	s0,t1,800006b4 <vsnprintf+0x338>
80000684:	00c12603          	lw	a2,12(sp)
80000688:	02500693          	li	a3,37
8000068c:	00140293          	addi	t0,s0,1
80000690:	008607b3          	add	a5,a2,s0
80000694:	00d78023          	sb	a3,0(a5)
80000698:	0062e463          	bltu	t0,t1,800006a0 <vsnprintf+0x324>
8000069c:	7f80106f          	j	80001e94 <vsnprintf+0x1b18>
800006a0:	00074783          	lbu	a5,0(a4)
800006a4:	005602b3          	add	t0,a2,t0
800006a8:	00240413          	addi	s0,s0,2
800006ac:	00f28023          	sb	a5,0(t0)
800006b0:	00040293          	mv	t0,s0
800006b4:	01c12783          	lw	a5,28(sp)
800006b8:	00178493          	addi	s1,a5,1
800006bc:	d41ff06f          	j	800003fc <vsnprintf+0x80>
800006c0:	00074783          	lbu	a5,0(a4)
800006c4:	00300513          	li	a0,3
800006c8:	00f12423          	sw	a5,8(sp)
800006cc:	e6d792e3          	bne	a5,a3,80000530 <vsnprintf+0x1b4>
800006d0:	00412703          	lw	a4,4(sp)
800006d4:	00258793          	addi	a5,a1,2
800006d8:	00f12e23          	sw	a5,28(sp)
800006dc:	00f70733          	add	a4,a4,a5
800006e0:	00074783          	lbu	a5,0(a4)
800006e4:	00400513          	li	a0,4
800006e8:	00f12423          	sw	a5,8(sp)
800006ec:	e45ff06f          	j	80000530 <vsnprintf+0x1b4>
800006f0:	00100793          	li	a5,1
800006f4:	02f12623          	sw	a5,44(sp)
800006f8:	00168693          	addi	a3,a3,1
800006fc:	00170713          	addi	a4,a4,1
80000700:	d69ff06f          	j	80000468 <vsnprintf+0xec>
80000704:	00100793          	li	a5,1
80000708:	02f12023          	sw	a5,32(sp)
8000070c:	fedff06f          	j	800006f8 <vsnprintf+0x37c>
80000710:	00100793          	li	a5,1
80000714:	02f12423          	sw	a5,40(sp)
80000718:	fe1ff06f          	j	800006f8 <vsnprintf+0x37c>
8000071c:	00100793          	li	a5,1
80000720:	00f12c23          	sw	a5,24(sp)
80000724:	fd5ff06f          	j	800006f8 <vsnprintf+0x37c>
80000728:	00100793          	li	a5,1
8000072c:	02f12223          	sw	a5,36(sp)
80000730:	fc9ff06f          	j	800006f8 <vsnprintf+0x37c>
80000734:	01012603          	lw	a2,16(sp)
80000738:	7ff00693          	li	a3,2047
8000073c:	00462703          	lw	a4,4(a2)
80000740:	00062383          	lw	t2,0(a2)
80000744:	00860613          	addi	a2,a2,8
80000748:	01475793          	srli	a5,a4,0x14
8000074c:	00c71593          	slli	a1,a4,0xc
80000750:	7ff7f793          	andi	a5,a5,2047
80000754:	00c12423          	sw	a2,8(sp)
80000758:	01f75513          	srli	a0,a4,0x1f
8000075c:	00c5d593          	srli	a1,a1,0xc
80000760:	00d79463          	bne	a5,a3,80000768 <vsnprintf+0x3ec>
80000764:	0440106f          	j	800017a8 <vsnprintf+0x142c>
80000768:	00b3e733          	or	a4,t2,a1
8000076c:	00f76733          	or	a4,a4,a5
80000770:	560716e3          	bnez	a4,800014dc <vsnprintf+0x1160>
80000774:	01412703          	lw	a4,20(sp)
80000778:	000740e3          	bltz	a4,80000f78 <vsnprintf+0xbfc>
8000077c:	00100793          	li	a5,1
80000780:	00070463          	beqz	a4,80000788 <vsnprintf+0x40c>
80000784:	00270793          	addi	a5,a4,2
80000788:	02412703          	lw	a4,36(sp)
8000078c:	02012683          	lw	a3,32(sp)
80000790:	00d76733          	or	a4,a4,a3
80000794:	00a76733          	or	a4,a4,a0
80000798:	00f70733          	add	a4,a4,a5
8000079c:	40e487b3          	sub	a5,s1,a4
800007a0:	00f05463          	blez	a5,800007a8 <vsnprintf+0x42c>
800007a4:	00048713          	mv	a4,s1
800007a8:	00012683          	lw	a3,0(sp)
800007ac:	00e68733          	add	a4,a3,a4
800007b0:	00e12023          	sw	a4,0(sp)
800007b4:	01812703          	lw	a4,24(sp)
800007b8:	000708e3          	beqz	a4,80000fc8 <vsnprintf+0xc4c>
800007bc:	28050ce3          	beqz	a0,80001254 <vsnprintf+0xed8>
800007c0:	24647ce3          	bgeu	s0,t1,80001218 <vsnprintf+0xe9c>
800007c4:	00c12683          	lw	a3,12(sp)
800007c8:	00140713          	addi	a4,s0,1
800007cc:	00070293          	mv	t0,a4
800007d0:	00868433          	add	s0,a3,s0
800007d4:	02d00693          	li	a3,45
800007d8:	00d40023          	sb	a3,0(s0)
800007dc:	2262fce3          	bgeu	t0,t1,80001214 <vsnprintf+0xe98>
800007e0:	00c12683          	lw	a3,12(sp)
800007e4:	00170413          	addi	s0,a4,1
800007e8:	005682b3          	add	t0,a3,t0
800007ec:	03000693          	li	a3,48
800007f0:	00d28023          	sb	a3,0(t0)
800007f4:	01412683          	lw	a3,20(sp)
800007f8:	00040293          	mv	t0,s0
800007fc:	00068463          	beqz	a3,80000804 <vsnprintf+0x488>
80000800:	1b80106f          	j	800019b8 <vsnprintf+0x163c>
80000804:	01812703          	lw	a4,24(sp)
80000808:	760714e3          	bnez	a4,80001770 <vsnprintf+0x13f4>
8000080c:	00812783          	lw	a5,8(sp)
80000810:	00f12823          	sw	a5,16(sp)
80000814:	ea1ff06f          	j	800006b4 <vsnprintf+0x338>
80000818:	fff00793          	li	a5,-1
8000081c:	00f12a23          	sw	a5,20(sp)
80000820:	de1ff06f          	j	80000600 <vsnprintf+0x284>
80000824:	00100713          	li	a4,1
80000828:	0ee502e3          	beq	a0,a4,8000110c <vsnprintf+0xd90>
8000082c:	00200713          	li	a4,2
80000830:	66e508e3          	beq	a0,a4,800016a0 <vsnprintf+0x1324>
80000834:	00300713          	li	a4,3
80000838:	7ce50c63          	beq	a0,a4,80001010 <vsnprintf+0xc94>
8000083c:	00400713          	li	a4,4
80000840:	01012783          	lw	a5,16(sp)
80000844:	00e51463          	bne	a0,a4,8000084c <vsnprintf+0x4d0>
80000848:	06c0106f          	j	800018b4 <vsnprintf+0x1538>
8000084c:	0007a703          	lw	a4,0(a5)
80000850:	00478793          	addi	a5,a5,4
80000854:	00000693          	li	a3,0
80000858:	00f12823          	sw	a5,16(sp)
8000085c:	00002797          	auipc	a5,0x2
80000860:	f0478793          	addi	a5,a5,-252 # 80002760 <_etext+0xe8>
80000864:	00078613          	mv	a2,a5
80000868:	00812783          	lw	a5,8(sp)
8000086c:	07800593          	li	a1,120
80000870:	00b79863          	bne	a5,a1,80000880 <vsnprintf+0x504>
80000874:	00002797          	auipc	a5,0x2
80000878:	ed878793          	addi	a5,a5,-296 # 8000274c <_etext+0xd4>
8000087c:	00078613          	mv	a2,a5
80000880:	00d765b3          	or	a1,a4,a3
80000884:	380594e3          	bnez	a1,8000140c <vsnprintf+0x1090>
80000888:	01412783          	lw	a5,20(sp)
8000088c:	6a0782e3          	beqz	a5,80001730 <vsnprintf+0x13b4>
80000890:	01412783          	lw	a5,20(sp)
80000894:	03000713          	li	a4,48
80000898:	0ae10023          	sb	a4,160(sp)
8000089c:	00100513          	li	a0,1
800008a0:	0a010393          	addi	t2,sp,160
800008a4:	00f54463          	blt	a0,a5,800008ac <vsnprintf+0x530>
800008a8:	3200106f          	j	80001bc8 <vsnprintf+0x184c>
800008ac:	01412683          	lw	a3,20(sp)
800008b0:	00050713          	mv	a4,a0
800008b4:	03000593          	li	a1,48
800008b8:	00170713          	addi	a4,a4,1
800008bc:	00e387b3          	add	a5,t2,a4
800008c0:	feb78fa3          	sb	a1,-1(a5)
800008c4:	fed74ae3          	blt	a4,a3,800008b8 <vsnprintf+0x53c>
800008c8:	01412783          	lw	a5,20(sp)
800008cc:	00150693          	addi	a3,a0,1
800008d0:	00000713          	li	a4,0
800008d4:	00f55663          	bge	a0,a5,800008e0 <vsnprintf+0x564>
800008d8:	fff78713          	addi	a4,a5,-1
800008dc:	40a70733          	sub	a4,a4,a0
800008e0:	00d70533          	add	a0,a4,a3
800008e4:	02c12783          	lw	a5,44(sp)
800008e8:	76078663          	beqz	a5,80001054 <vsnprintf+0xcd8>
800008ec:	0a014683          	lbu	a3,160(sp)
800008f0:	03000713          	li	a4,48
800008f4:	76e68063          	beq	a3,a4,80001054 <vsnprintf+0xcd8>
800008f8:	00812783          	lw	a5,8(sp)
800008fc:	07800713          	li	a4,120
80000900:	00e78663          	beq	a5,a4,8000090c <vsnprintf+0x590>
80000904:	05800793          	li	a5,88
80000908:	00f12423          	sw	a5,8(sp)
8000090c:	08050793          	addi	a5,a0,128
80000910:	06010693          	addi	a3,sp,96
80000914:	00d786b3          	add	a3,a5,a3
80000918:	00812783          	lw	a5,8(sp)
8000091c:	00150713          	addi	a4,a0,1
80000920:	00250513          	addi	a0,a0,2
80000924:	fcf68023          	sb	a5,-64(a3)
80000928:	08070793          	addi	a5,a4,128
8000092c:	06010713          	addi	a4,sp,96
80000930:	00e78733          	add	a4,a5,a4
80000934:	03000793          	li	a5,48
80000938:	fcf70023          	sb	a5,-64(a4)
8000093c:	40a485b3          	sub	a1,s1,a0
80000940:	00012783          	lw	a5,0(sp)
80000944:	00b04463          	bgtz	a1,8000094c <vsnprintf+0x5d0>
80000948:	0b80106f          	j	80001a00 <vsnprintf+0x1684>
8000094c:	009787b3          	add	a5,a5,s1
80000950:	00f12023          	sw	a5,0(sp)
80000954:	01812783          	lw	a5,24(sp)
80000958:	00079463          	bnez	a5,80000960 <vsnprintf+0x5e4>
8000095c:	2900106f          	j	80001bec <vsnprintf+0x1870>
80000960:	00c12683          	lw	a3,12(sp)
80000964:	00a387b3          	add	a5,t2,a0
80000968:	00040293          	mv	t0,s0
8000096c:	00647c63          	bgeu	s0,t1,80000984 <vsnprintf+0x608>
80000970:	fff7c703          	lbu	a4,-1(a5)
80000974:	008682b3          	add	t0,a3,s0
80000978:	00140413          	addi	s0,s0,1
8000097c:	00e28023          	sb	a4,0(t0)
80000980:	00040293          	mv	t0,s0
80000984:	fff78793          	addi	a5,a5,-1
80000988:	fef390e3          	bne	t2,a5,80000968 <vsnprintf+0x5ec>
8000098c:	01812783          	lw	a5,24(sp)
80000990:	d20782e3          	beqz	a5,800006b4 <vsnprintf+0x338>
80000994:	fff58493          	addi	s1,a1,-1
80000998:	d0b05ee3          	blez	a1,800006b4 <vsnprintf+0x338>
8000099c:	00c12683          	lw	a3,12(sp)
800009a0:	02000713          	li	a4,32
800009a4:	fff00793          	li	a5,-1
800009a8:	00040293          	mv	t0,s0
800009ac:	00647a63          	bgeu	s0,t1,800009c0 <vsnprintf+0x644>
800009b0:	008682b3          	add	t0,a3,s0
800009b4:	00140413          	addi	s0,s0,1
800009b8:	00e28023          	sb	a4,0(t0)
800009bc:	00040293          	mv	t0,s0
800009c0:	fff48493          	addi	s1,s1,-1
800009c4:	fef492e3          	bne	s1,a5,800009a8 <vsnprintf+0x62c>
800009c8:	cedff06f          	j	800006b4 <vsnprintf+0x338>
800009cc:	00100793          	li	a5,1
800009d0:	76f50663          	beq	a0,a5,8000113c <vsnprintf+0xdc0>
800009d4:	00200793          	li	a5,2
800009d8:	4ef50ce3          	beq	a0,a5,800016d0 <vsnprintf+0x1354>
800009dc:	00300793          	li	a5,3
800009e0:	00f50663          	beq	a0,a5,800009ec <vsnprintf+0x670>
800009e4:	00400793          	li	a5,4
800009e8:	6af50ae3          	beq	a0,a5,8000189c <vsnprintf+0x1520>
800009ec:	01012783          	lw	a5,16(sp)
800009f0:	0007a703          	lw	a4,0(a5)
800009f4:	00478793          	addi	a5,a5,4
800009f8:	00f12823          	sw	a5,16(sp)
800009fc:	41f75793          	srai	a5,a4,0x1f
80000a00:	7407ca63          	bltz	a5,80001154 <vsnprintf+0xdd8>
80000a04:	00f766b3          	or	a3,a4,a5
80000a08:	00068463          	beqz	a3,80000a10 <vsnprintf+0x694>
80000a0c:	1b40106f          	j	80001bc0 <vsnprintf+0x1844>
80000a10:	01412703          	lw	a4,20(sp)
80000a14:	6c070863          	beqz	a4,800010e4 <vsnprintf+0xd68>
80000a18:	03000793          	li	a5,48
80000a1c:	0af10023          	sb	a5,160(sp)
80000a20:	00100793          	li	a5,1
80000a24:	00078513          	mv	a0,a5
80000a28:	00000613          	li	a2,0
80000a2c:	0a010393          	addi	t2,sp,160
80000a30:	6ae7dc63          	bge	a5,a4,800010e8 <vsnprintf+0xd6c>
80000a34:	01412583          	lw	a1,20(sp)
80000a38:	00050793          	mv	a5,a0
80000a3c:	03000693          	li	a3,48
80000a40:	00178793          	addi	a5,a5,1
80000a44:	00f38733          	add	a4,t2,a5
80000a48:	fed70fa3          	sb	a3,-1(a4)
80000a4c:	feb7cae3          	blt	a5,a1,80000a40 <vsnprintf+0x6c4>
80000a50:	01412583          	lw	a1,20(sp)
80000a54:	00150713          	addi	a4,a0,1
80000a58:	00000793          	li	a5,0
80000a5c:	00b55663          	bge	a0,a1,80000a68 <vsnprintf+0x6ec>
80000a60:	fff58793          	addi	a5,a1,-1
80000a64:	40a787b3          	sub	a5,a5,a0
80000a68:	00e787b3          	add	a5,a5,a4
80000a6c:	00078513          	mv	a0,a5
80000a70:	66060c63          	beqz	a2,800010e8 <vsnprintf+0xd6c>
80000a74:	06010693          	addi	a3,sp,96
80000a78:	08050713          	addi	a4,a0,128
80000a7c:	00d70733          	add	a4,a4,a3
80000a80:	02d00693          	li	a3,45
80000a84:	00150793          	addi	a5,a0,1
80000a88:	fcd70023          	sb	a3,-64(a4)
80000a8c:	40f48733          	sub	a4,s1,a5
80000a90:	00e04463          	bgtz	a4,80000a98 <vsnprintf+0x71c>
80000a94:	00078493          	mv	s1,a5
80000a98:	00012683          	lw	a3,0(sp)
80000a9c:	009686b3          	add	a3,a3,s1
80000aa0:	00d12023          	sw	a3,0(sp)
80000aa4:	01812683          	lw	a3,24(sp)
80000aa8:	1a068ae3          	beqz	a3,8000145c <vsnprintf+0x10e0>
80000aac:	02078e63          	beqz	a5,80000ae8 <vsnprintf+0x76c>
80000ab0:	00c12603          	lw	a2,12(sp)
80000ab4:	0a010393          	addi	t2,sp,160
80000ab8:	00f387b3          	add	a5,t2,a5
80000abc:	00040293          	mv	t0,s0
80000ac0:	00647c63          	bgeu	s0,t1,80000ad8 <vsnprintf+0x75c>
80000ac4:	fff7c683          	lbu	a3,-1(a5)
80000ac8:	008602b3          	add	t0,a2,s0
80000acc:	00140413          	addi	s0,s0,1
80000ad0:	00d28023          	sb	a3,0(t0)
80000ad4:	00040293          	mv	t0,s0
80000ad8:	fff78793          	addi	a5,a5,-1
80000adc:	fef390e3          	bne	t2,a5,80000abc <vsnprintf+0x740>
80000ae0:	01812783          	lw	a5,24(sp)
80000ae4:	bc0788e3          	beqz	a5,800006b4 <vsnprintf+0x338>
80000ae8:	fff70793          	addi	a5,a4,-1
80000aec:	bce054e3          	blez	a4,800006b4 <vsnprintf+0x338>
80000af0:	00c12603          	lw	a2,12(sp)
80000af4:	02000693          	li	a3,32
80000af8:	fff00713          	li	a4,-1
80000afc:	00040293          	mv	t0,s0
80000b00:	00647a63          	bgeu	s0,t1,80000b14 <vsnprintf+0x798>
80000b04:	008602b3          	add	t0,a2,s0
80000b08:	00140413          	addi	s0,s0,1
80000b0c:	00d28023          	sb	a3,0(t0)
80000b10:	00040293          	mv	t0,s0
80000b14:	fff78793          	addi	a5,a5,-1
80000b18:	fee792e3          	bne	a5,a4,80000afc <vsnprintf+0x780>
80000b1c:	b99ff06f          	j	800006b4 <vsnprintf+0x338>
80000b20:	01012783          	lw	a5,16(sp)
80000b24:	0007a703          	lw	a4,0(a5)
80000b28:	00478513          	addi	a0,a5,4
80000b2c:	74070863          	beqz	a4,8000127c <vsnprintf+0xf00>
80000b30:	000037b7          	lui	a5,0x3
80000b34:	07878793          	addi	a5,a5,120 # 3078 <_entry_offset+0x3078>
80000b38:	0af11023          	sh	a5,160(sp)
80000b3c:	00200693          	li	a3,2
80000b40:	0a010393          	addi	t2,sp,160
80000b44:	00002597          	auipc	a1,0x2
80000b48:	c0858593          	addi	a1,a1,-1016 # 8000274c <_etext+0xd4>
80000b4c:	00f77793          	andi	a5,a4,15
80000b50:	00f587b3          	add	a5,a1,a5
80000b54:	0007c603          	lbu	a2,0(a5)
80000b58:	00168693          	addi	a3,a3,1
80000b5c:	00d387b3          	add	a5,t2,a3
80000b60:	fec78fa3          	sb	a2,-1(a5)
80000b64:	00475713          	srli	a4,a4,0x4
80000b68:	fe0712e3          	bnez	a4,80000b4c <vsnprintf+0x7d0>
80000b6c:	40d48733          	sub	a4,s1,a3
80000b70:	78e05263          	blez	a4,800012f4 <vsnprintf+0xf78>
80000b74:	00012683          	lw	a3,0(sp)
80000b78:	009686b3          	add	a3,a3,s1
80000b7c:	00d12023          	sw	a3,0(sp)
80000b80:	01812683          	lw	a3,24(sp)
80000b84:	4a068263          	beqz	a3,80001028 <vsnprintf+0xcac>
80000b88:	00c12603          	lw	a2,12(sp)
80000b8c:	00040293          	mv	t0,s0
80000b90:	00647c63          	bgeu	s0,t1,80000ba8 <vsnprintf+0x82c>
80000b94:	fff7c683          	lbu	a3,-1(a5)
80000b98:	008602b3          	add	t0,a2,s0
80000b9c:	00140413          	addi	s0,s0,1
80000ba0:	00d28023          	sb	a3,0(t0)
80000ba4:	00040293          	mv	t0,s0
80000ba8:	fff78793          	addi	a5,a5,-1
80000bac:	fef390e3          	bne	t2,a5,80000b8c <vsnprintf+0x810>
80000bb0:	01812783          	lw	a5,24(sp)
80000bb4:	00a12823          	sw	a0,16(sp)
80000bb8:	ae078ee3          	beqz	a5,800006b4 <vsnprintf+0x338>
80000bbc:	fff70793          	addi	a5,a4,-1
80000bc0:	aee05ae3          	blez	a4,800006b4 <vsnprintf+0x338>
80000bc4:	00c12603          	lw	a2,12(sp)
80000bc8:	02000693          	li	a3,32
80000bcc:	fff00713          	li	a4,-1
80000bd0:	00040293          	mv	t0,s0
80000bd4:	00647a63          	bgeu	s0,t1,80000be8 <vsnprintf+0x86c>
80000bd8:	008602b3          	add	t0,a2,s0
80000bdc:	00140413          	addi	s0,s0,1
80000be0:	00d28023          	sb	a3,0(t0)
80000be4:	00040293          	mv	t0,s0
80000be8:	fff78793          	addi	a5,a5,-1
80000bec:	fee792e3          	bne	a5,a4,80000bd0 <vsnprintf+0x854>
80000bf0:	00a12823          	sw	a0,16(sp)
80000bf4:	ac1ff06f          	j	800006b4 <vsnprintf+0x338>
80000bf8:	01012603          	lw	a2,16(sp)
80000bfc:	409007b3          	neg	a5,s1
80000c00:	fff48713          	addi	a4,s1,-1
80000c04:	00062683          	lw	a3,0(a2)
80000c08:	41f7d793          	srai	a5,a5,0x1f
80000c0c:	00460593          	addi	a1,a2,4
80000c10:	00012603          	lw	a2,0(sp)
80000c14:	00f777b3          	and	a5,a4,a5
80000c18:	00178793          	addi	a5,a5,1
80000c1c:	00f607b3          	add	a5,a2,a5
80000c20:	00f12023          	sw	a5,0(sp)
80000c24:	01812783          	lw	a5,24(sp)
80000c28:	6e078463          	beqz	a5,80001310 <vsnprintf+0xf94>
80000c2c:	32646a63          	bltu	s0,t1,80000f60 <vsnprintf+0xbe4>
80000c30:	ffe48493          	addi	s1,s1,-2
80000c34:	02e05863          	blez	a4,80000c64 <vsnprintf+0x8e8>
80000c38:	00c12683          	lw	a3,12(sp)
80000c3c:	02000713          	li	a4,32
80000c40:	fff00793          	li	a5,-1
80000c44:	00040293          	mv	t0,s0
80000c48:	00647a63          	bgeu	s0,t1,80000c5c <vsnprintf+0x8e0>
80000c4c:	008682b3          	add	t0,a3,s0
80000c50:	00140413          	addi	s0,s0,1
80000c54:	00e28023          	sb	a4,0(t0)
80000c58:	00040293          	mv	t0,s0
80000c5c:	fff48493          	addi	s1,s1,-1
80000c60:	fef492e3          	bne	s1,a5,80000c44 <vsnprintf+0x8c8>
80000c64:	00b12823          	sw	a1,16(sp)
80000c68:	a4dff06f          	j	800006b4 <vsnprintf+0x338>
80000c6c:	00100793          	li	a5,1
80000c70:	4af50a63          	beq	a0,a5,80001124 <vsnprintf+0xda8>
80000c74:	00200793          	li	a5,2
80000c78:	24f500e3          	beq	a0,a5,800016b8 <vsnprintf+0x133c>
80000c7c:	00300793          	li	a5,3
80000c80:	00f50663          	beq	a0,a5,80000c8c <vsnprintf+0x910>
80000c84:	00400793          	li	a5,4
80000c88:	44f500e3          	beq	a0,a5,800018c8 <vsnprintf+0x154c>
80000c8c:	01012783          	lw	a5,16(sp)
80000c90:	00000693          	li	a3,0
80000c94:	0007a703          	lw	a4,0(a5)
80000c98:	00478793          	addi	a5,a5,4
80000c9c:	00f12823          	sw	a5,16(sp)
80000ca0:	00d767b3          	or	a5,a4,a3
80000ca4:	6c079063          	bnez	a5,80001364 <vsnprintf+0xfe8>
80000ca8:	01412783          	lw	a5,20(sp)
80000cac:	2a0782e3          	beqz	a5,80001750 <vsnprintf+0x13d4>
80000cb0:	03000793          	li	a5,48
80000cb4:	0af10023          	sb	a5,160(sp)
80000cb8:	00100793          	li	a5,1
80000cbc:	01412603          	lw	a2,20(sp)
80000cc0:	0a010393          	addi	t2,sp,160
80000cc4:	00f38733          	add	a4,t2,a5
80000cc8:	03000693          	li	a3,48
80000ccc:	00c383b3          	add	t2,t2,a2
80000cd0:	00c7da63          	bge	a5,a2,80000ce4 <vsnprintf+0x968>
80000cd4:	00d70023          	sb	a3,0(a4)
80000cd8:	00170713          	addi	a4,a4,1
80000cdc:	fe771ce3          	bne	a4,t2,80000cd4 <vsnprintf+0x958>
80000ce0:	01412783          	lw	a5,20(sp)
80000ce4:	40f48733          	sub	a4,s1,a5
80000ce8:	00e04463          	bgtz	a4,80000cf0 <vsnprintf+0x974>
80000cec:	00078493          	mv	s1,a5
80000cf0:	00012683          	lw	a3,0(sp)
80000cf4:	009686b3          	add	a3,a3,s1
80000cf8:	00d12023          	sw	a3,0(sp)
80000cfc:	01812683          	lw	a3,24(sp)
80000d00:	1e0684e3          	beqz	a3,800016e8 <vsnprintf+0x136c>
80000d04:	00c12603          	lw	a2,12(sp)
80000d08:	0a010393          	addi	t2,sp,160
80000d0c:	00f387b3          	add	a5,t2,a5
80000d10:	00040293          	mv	t0,s0
80000d14:	00647c63          	bgeu	s0,t1,80000d2c <vsnprintf+0x9b0>
80000d18:	fff7c683          	lbu	a3,-1(a5)
80000d1c:	008602b3          	add	t0,a2,s0
80000d20:	00140413          	addi	s0,s0,1
80000d24:	00d28023          	sb	a3,0(t0)
80000d28:	00040293          	mv	t0,s0
80000d2c:	fff78793          	addi	a5,a5,-1
80000d30:	fef390e3          	bne	t2,a5,80000d10 <vsnprintf+0x994>
80000d34:	01812783          	lw	a5,24(sp)
80000d38:	96078ee3          	beqz	a5,800006b4 <vsnprintf+0x338>
80000d3c:	fff70493          	addi	s1,a4,-1
80000d40:	96e05ae3          	blez	a4,800006b4 <vsnprintf+0x338>
80000d44:	00c12683          	lw	a3,12(sp)
80000d48:	02000713          	li	a4,32
80000d4c:	fff00793          	li	a5,-1
80000d50:	00040293          	mv	t0,s0
80000d54:	00647a63          	bgeu	s0,t1,80000d68 <vsnprintf+0x9ec>
80000d58:	008682b3          	add	t0,a3,s0
80000d5c:	00140413          	addi	s0,s0,1
80000d60:	00e28023          	sb	a4,0(t0)
80000d64:	00040293          	mv	t0,s0
80000d68:	fff48493          	addi	s1,s1,-1
80000d6c:	fef492e3          	bne	s1,a5,80000d50 <vsnprintf+0x9d4>
80000d70:	945ff06f          	j	800006b4 <vsnprintf+0x338>
80000d74:	01012703          	lw	a4,16(sp)
80000d78:	00072783          	lw	a5,0(a4)
80000d7c:	00470513          	addi	a0,a4,4
80000d80:	56078463          	beqz	a5,800012e8 <vsnprintf+0xf6c>
80000d84:	0007c703          	lbu	a4,0(a5)
80000d88:	6a0700e3          	beqz	a4,80001c28 <vsnprintf+0x18ac>
80000d8c:	01412603          	lw	a2,20(sp)
80000d90:	00000693          	li	a3,0
80000d94:	12d60663          	beq	a2,a3,80000ec0 <vsnprintf+0xb44>
80000d98:	00168693          	addi	a3,a3,1
80000d9c:	00d78733          	add	a4,a5,a3
80000da0:	00074703          	lbu	a4,0(a4)
80000da4:	fe0718e3          	bnez	a4,80000d94 <vsnprintf+0xa18>
80000da8:	40d48733          	sub	a4,s1,a3
80000dac:	20e05063          	blez	a4,80000fac <vsnprintf+0xc30>
80000db0:	00012603          	lw	a2,0(sp)
80000db4:	00960633          	add	a2,a2,s1
80000db8:	00c12023          	sw	a2,0(sp)
80000dbc:	01812603          	lw	a2,24(sp)
80000dc0:	12061463          	bnez	a2,80000ee8 <vsnprintf+0xb6c>
80000dc4:	00c12383          	lw	t2,12(sp)
80000dc8:	fff70713          	addi	a4,a4,-1
80000dcc:	02000593          	li	a1,32
80000dd0:	fff00613          	li	a2,-1
80000dd4:	00040293          	mv	t0,s0
80000dd8:	00647a63          	bgeu	s0,t1,80000dec <vsnprintf+0xa70>
80000ddc:	008382b3          	add	t0,t2,s0
80000de0:	00140413          	addi	s0,s0,1
80000de4:	00b28023          	sb	a1,0(t0)
80000de8:	00040293          	mv	t0,s0
80000dec:	fff70713          	addi	a4,a4,-1
80000df0:	fec712e3          	bne	a4,a2,80000dd4 <vsnprintf+0xa58>
80000df4:	0e069a63          	bnez	a3,80000ee8 <vsnprintf+0xb6c>
80000df8:	00a12823          	sw	a0,16(sp)
80000dfc:	8b9ff06f          	j	800006b4 <vsnprintf+0x338>
80000e00:	00012783          	lw	a5,0(sp)
80000e04:	00178793          	addi	a5,a5,1
80000e08:	00f12023          	sw	a5,0(sp)
80000e0c:	8a6474e3          	bgeu	s0,t1,800006b4 <vsnprintf+0x338>
80000e10:	00c12783          	lw	a5,12(sp)
80000e14:	00140413          	addi	s0,s0,1
80000e18:	005782b3          	add	t0,a5,t0
80000e1c:	02500793          	li	a5,37
80000e20:	00f28023          	sb	a5,0(t0)
80000e24:	00040293          	mv	t0,s0
80000e28:	88dff06f          	j	800006b4 <vsnprintf+0x338>
80000e2c:	00074783          	lbu	a5,0(a4)
80000e30:	00500513          	li	a0,5
80000e34:	00f12423          	sw	a5,8(sp)
80000e38:	ef8ff06f          	j	80000530 <vsnprintf+0x1b4>
80000e3c:	fd078693          	addi	a3,a5,-48
80000e40:	0ff6f793          	zext.b	a5,a3
80000e44:	00900713          	li	a4,9
80000e48:	20f768e3          	bltu	a4,a5,80001858 <vsnprintf+0x14dc>
80000e4c:	00412783          	lw	a5,4(sp)
80000e50:	00258713          	addi	a4,a1,2
80000e54:	00900393          	li	t2,9
80000e58:	00e78733          	add	a4,a5,a4
80000e5c:	00060593          	mv	a1,a2
80000e60:	00000793          	li	a5,0
80000e64:	00912a23          	sw	s1,20(sp)
80000e68:	00074603          	lbu	a2,0(a4)
80000e6c:	00279513          	slli	a0,a5,0x2
80000e70:	00f507b3          	add	a5,a0,a5
80000e74:	00179793          	slli	a5,a5,0x1
80000e78:	00f687b3          	add	a5,a3,a5
80000e7c:	fd060693          	addi	a3,a2,-48
80000e80:	0ff6f493          	zext.b	s1,a3
80000e84:	00070513          	mv	a0,a4
80000e88:	00158593          	addi	a1,a1,1
80000e8c:	00170713          	addi	a4,a4,1
80000e90:	fc93fce3          	bgeu	t2,s1,80000e68 <vsnprintf+0xaec>
80000e94:	01412483          	lw	s1,20(sp)
80000e98:	00c12423          	sw	a2,8(sp)
80000e9c:	00f12a23          	sw	a5,20(sp)
80000ea0:	e50ff06f          	j	800004f0 <vsnprintf+0x174>
80000ea4:	00c12783          	lw	a5,12(sp)
80000ea8:	00078023          	sb	zero,0(a5)
80000eac:	0e812083          	lw	ra,232(sp)
80000eb0:	00012023          	sw	zero,0(sp)
80000eb4:	00012503          	lw	a0,0(sp)
80000eb8:	0ec10113          	addi	sp,sp,236
80000ebc:	00008067          	ret
80000ec0:	01412703          	lw	a4,20(sp)
80000ec4:	00012603          	lw	a2,0(sp)
80000ec8:	40e48733          	sub	a4,s1,a4
80000ecc:	0ae05e63          	blez	a4,80000f88 <vsnprintf+0xc0c>
80000ed0:	00960633          	add	a2,a2,s1
80000ed4:	00c12023          	sw	a2,0(sp)
80000ed8:	01812603          	lw	a2,24(sp)
80000edc:	ee0604e3          	beqz	a2,80000dc4 <vsnprintf+0xa48>
80000ee0:	01412603          	lw	a2,20(sp)
80000ee4:	5e060ce3          	beqz	a2,80001cdc <vsnprintf+0x1960>
80000ee8:	00c12383          	lw	t2,12(sp)
80000eec:	00000613          	li	a2,0
80000ef0:	00040293          	mv	t0,s0
80000ef4:	00647e63          	bgeu	s0,t1,80000f10 <vsnprintf+0xb94>
80000ef8:	00c785b3          	add	a1,a5,a2
80000efc:	0005c583          	lbu	a1,0(a1)
80000f00:	008382b3          	add	t0,t2,s0
80000f04:	00140413          	addi	s0,s0,1
80000f08:	00b28023          	sb	a1,0(t0)
80000f0c:	00040293          	mv	t0,s0
80000f10:	00160613          	addi	a2,a2,1
80000f14:	fcd64ee3          	blt	a2,a3,80000ef0 <vsnprintf+0xb74>
80000f18:	01812783          	lw	a5,24(sp)
80000f1c:	00a12823          	sw	a0,16(sp)
80000f20:	f8078a63          	beqz	a5,800006b4 <vsnprintf+0x338>
80000f24:	fff70493          	addi	s1,a4,-1
80000f28:	f8e05663          	blez	a4,800006b4 <vsnprintf+0x338>
80000f2c:	00c12683          	lw	a3,12(sp)
80000f30:	02000713          	li	a4,32
80000f34:	fff00793          	li	a5,-1
80000f38:	00040293          	mv	t0,s0
80000f3c:	00647a63          	bgeu	s0,t1,80000f50 <vsnprintf+0xbd4>
80000f40:	008682b3          	add	t0,a3,s0
80000f44:	00140413          	addi	s0,s0,1
80000f48:	00e28023          	sb	a4,0(t0)
80000f4c:	00040293          	mv	t0,s0
80000f50:	fff48493          	addi	s1,s1,-1
80000f54:	fef492e3          	bne	s1,a5,80000f38 <vsnprintf+0xbbc>
80000f58:	00a12823          	sw	a0,16(sp)
80000f5c:	f58ff06f          	j	800006b4 <vsnprintf+0x338>
80000f60:	00c12783          	lw	a5,12(sp)
80000f64:	00140413          	addi	s0,s0,1
80000f68:	005782b3          	add	t0,a5,t0
80000f6c:	00d28023          	sb	a3,0(t0)
80000f70:	00040293          	mv	t0,s0
80000f74:	cbdff06f          	j	80000c30 <vsnprintf+0x8b4>
80000f78:	00600713          	li	a4,6
80000f7c:	00800793          	li	a5,8
80000f80:	00e12a23          	sw	a4,20(sp)
80000f84:	805ff06f          	j	80000788 <vsnprintf+0x40c>
80000f88:	01412583          	lw	a1,20(sp)
80000f8c:	00b60633          	add	a2,a2,a1
80000f90:	00c12023          	sw	a2,0(sp)
80000f94:	01812603          	lw	a2,24(sp)
80000f98:	4e0604e3          	beqz	a2,80001c80 <vsnprintf+0x1904>
80000f9c:	01412603          	lw	a2,20(sp)
80000fa0:	f40614e3          	bnez	a2,80000ee8 <vsnprintf+0xb6c>
80000fa4:	00a12823          	sw	a0,16(sp)
80000fa8:	f0cff06f          	j	800006b4 <vsnprintf+0x338>
80000fac:	00012583          	lw	a1,0(sp)
80000fb0:	01812603          	lw	a2,24(sp)
80000fb4:	00d585b3          	add	a1,a1,a3
80000fb8:	00163613          	seqz	a2,a2
80000fbc:	00b12023          	sw	a1,0(sp)
80000fc0:	40c70733          	sub	a4,a4,a2
80000fc4:	f25ff06f          	j	80000ee8 <vsnprintf+0xb6c>
80000fc8:	02812703          	lw	a4,40(sp)
80000fcc:	fff70693          	addi	a3,a4,-1
80000fd0:	ff06f693          	andi	a3,a3,-16
80000fd4:	03068693          	addi	a3,a3,48
80000fd8:	fff78713          	addi	a4,a5,-1
80000fdc:	62f05ae3          	blez	a5,80001e10 <vsnprintf+0x1a94>
80000fe0:	00c12603          	lw	a2,12(sp)
80000fe4:	00070793          	mv	a5,a4
80000fe8:	fff00713          	li	a4,-1
80000fec:	00040293          	mv	t0,s0
80000ff0:	00647a63          	bgeu	s0,t1,80001004 <vsnprintf+0xc88>
80000ff4:	008602b3          	add	t0,a2,s0
80000ff8:	00140413          	addi	s0,s0,1
80000ffc:	00d28023          	sb	a3,0(t0)
80001000:	00040293          	mv	t0,s0
80001004:	fff78793          	addi	a5,a5,-1
80001008:	fee792e3          	bne	a5,a4,80000fec <vsnprintf+0xc70>
8000100c:	fb0ff06f          	j	800007bc <vsnprintf+0x440>
80001010:	01012783          	lw	a5,16(sp)
80001014:	00000693          	li	a3,0
80001018:	0007a703          	lw	a4,0(a5)
8000101c:	00478793          	addi	a5,a5,4
80001020:	00f12823          	sw	a5,16(sp)
80001024:	839ff06f          	j	8000085c <vsnprintf+0x4e0>
80001028:	00c12283          	lw	t0,12(sp)
8000102c:	fff70713          	addi	a4,a4,-1
80001030:	02000593          	li	a1,32
80001034:	fff00613          	li	a2,-1
80001038:	00647863          	bgeu	s0,t1,80001048 <vsnprintf+0xccc>
8000103c:	008286b3          	add	a3,t0,s0
80001040:	00b68023          	sb	a1,0(a3)
80001044:	00140413          	addi	s0,s0,1
80001048:	fff70713          	addi	a4,a4,-1
8000104c:	fec716e3          	bne	a4,a2,80001038 <vsnprintf+0xcbc>
80001050:	b39ff06f          	j	80000b88 <vsnprintf+0x80c>
80001054:	40a485b3          	sub	a1,s1,a0
80001058:	00b04463          	bgtz	a1,80001060 <vsnprintf+0xce4>
8000105c:	00050493          	mv	s1,a0
80001060:	00012783          	lw	a5,0(sp)
80001064:	009787b3          	add	a5,a5,s1
80001068:	00f12023          	sw	a5,0(sp)
8000106c:	01812783          	lw	a5,24(sp)
80001070:	8e0798e3          	bnez	a5,80000960 <vsnprintf+0x5e4>
80001074:	02812783          	lw	a5,40(sp)
80001078:	06078263          	beqz	a5,800010dc <vsnprintf+0xd60>
8000107c:	01412783          	lw	a5,20(sp)
80001080:	03000693          	li	a3,48
80001084:	0407dc63          	bgez	a5,800010dc <vsnprintf+0xd60>
80001088:	fff58793          	addi	a5,a1,-1
8000108c:	58b056e3          	blez	a1,80001e18 <vsnprintf+0x1a9c>
80001090:	00078613          	mv	a2,a5
80001094:	00c12383          	lw	t2,12(sp)
80001098:	fff00713          	li	a4,-1
8000109c:	00040293          	mv	t0,s0
800010a0:	00647a63          	bgeu	s0,t1,800010b4 <vsnprintf+0xd38>
800010a4:	008382b3          	add	t0,t2,s0
800010a8:	00140413          	addi	s0,s0,1
800010ac:	00d28023          	sb	a3,0(t0)
800010b0:	00040293          	mv	t0,s0
800010b4:	fff78793          	addi	a5,a5,-1
800010b8:	fee792e3          	bne	a5,a4,8000109c <vsnprintf+0xd20>
800010bc:	40b605b3          	sub	a1,a2,a1
800010c0:	0a010393          	addi	t2,sp,160
800010c4:	88051ee3          	bnez	a0,80000960 <vsnprintf+0x5e4>
800010c8:	decff06f          	j	800006b4 <vsnprintf+0x338>
800010cc:	01812783          	lw	a5,24(sp)
800010d0:	de079263          	bnez	a5,800006b4 <vsnprintf+0x338>
800010d4:	00048593          	mv	a1,s1
800010d8:	00000513          	li	a0,0
800010dc:	02000693          	li	a3,32
800010e0:	fa9ff06f          	j	80001088 <vsnprintf+0xd0c>
800010e4:	00000513          	li	a0,0
800010e8:	02412783          	lw	a5,36(sp)
800010ec:	3c078463          	beqz	a5,800014b4 <vsnprintf+0x1138>
800010f0:	06010693          	addi	a3,sp,96
800010f4:	08050713          	addi	a4,a0,128
800010f8:	00d70733          	add	a4,a4,a3
800010fc:	02b00693          	li	a3,43
80001100:	00150793          	addi	a5,a0,1
80001104:	fcd70023          	sb	a3,-64(a4)
80001108:	985ff06f          	j	80000a8c <vsnprintf+0x710>
8000110c:	01012783          	lw	a5,16(sp)
80001110:	00000693          	li	a3,0
80001114:	0007d703          	lhu	a4,0(a5)
80001118:	00478793          	addi	a5,a5,4
8000111c:	00f12823          	sw	a5,16(sp)
80001120:	f3cff06f          	j	8000085c <vsnprintf+0x4e0>
80001124:	01012783          	lw	a5,16(sp)
80001128:	00000693          	li	a3,0
8000112c:	0007d703          	lhu	a4,0(a5)
80001130:	00478793          	addi	a5,a5,4
80001134:	00f12823          	sw	a5,16(sp)
80001138:	b69ff06f          	j	80000ca0 <vsnprintf+0x924>
8000113c:	01012783          	lw	a5,16(sp)
80001140:	00079703          	lh	a4,0(a5)
80001144:	00478793          	addi	a5,a5,4
80001148:	00f12823          	sw	a5,16(sp)
8000114c:	41f75793          	srai	a5,a4,0x1f
80001150:	8b1ff06f          	j	80000a00 <vsnprintf+0x684>
80001154:	00e036b3          	snez	a3,a4
80001158:	40f007b3          	neg	a5,a5
8000115c:	40d787b3          	sub	a5,a5,a3
80001160:	40e00733          	neg	a4,a4
80001164:	00100613          	li	a2,1
80001168:	00000693          	li	a3,0
8000116c:	0a010393          	addi	t2,sp,160
80001170:	02912e23          	sw	s1,60(sp)
80001174:	04812023          	sw	s0,64(sp)
80001178:	02c12c23          	sw	a2,56(sp)
8000117c:	00068413          	mv	s0,a3
80001180:	04512223          	sw	t0,68(sp)
80001184:	04612423          	sw	t1,72(sp)
80001188:	00070493          	mv	s1,a4
8000118c:	02712a23          	sw	t2,52(sp)
80001190:	00078593          	mv	a1,a5
80001194:	02f12623          	sw	a5,44(sp)
80001198:	03412783          	lw	a5,52(sp)
8000119c:	00140413          	addi	s0,s0,1
800011a0:	00a00613          	li	a2,10
800011a4:	008783b3          	add	t2,a5,s0
800011a8:	00000693          	li	a3,0
800011ac:	00048513          	mv	a0,s1
800011b0:	00712423          	sw	t2,8(sp)
800011b4:	240010ef          	jal	800023f4 <__moddi3>
800011b8:	02c12783          	lw	a5,44(sp)
800011bc:	00812383          	lw	t2,8(sp)
800011c0:	03050293          	addi	t0,a0,48
800011c4:	00000693          	li	a3,0
800011c8:	00048513          	mv	a0,s1
800011cc:	00078593          	mv	a1,a5
800011d0:	00a00613          	li	a2,10
800011d4:	fe538fa3          	sb	t0,-1(t2)
800011d8:	1a4010ef          	jal	8000237c <__divdi3>
800011dc:	00a5e6b3          	or	a3,a1,a0
800011e0:	00058793          	mv	a5,a1
800011e4:	00050493          	mv	s1,a0
800011e8:	fa0694e3          	bnez	a3,80001190 <vsnprintf+0xe14>
800011ec:	01412783          	lw	a5,20(sp)
800011f0:	00040513          	mv	a0,s0
800011f4:	03812603          	lw	a2,56(sp)
800011f8:	03c12483          	lw	s1,60(sp)
800011fc:	04012403          	lw	s0,64(sp)
80001200:	04412283          	lw	t0,68(sp)
80001204:	04812303          	lw	t1,72(sp)
80001208:	03412383          	lw	t2,52(sp)
8000120c:	82f544e3          	blt	a0,a5,80000a34 <vsnprintf+0x6b8>
80001210:	861ff06f          	j	80000a70 <vsnprintf+0x6f4>
80001214:	00070413          	mv	s0,a4
80001218:	01412703          	lw	a4,20(sp)
8000121c:	de070463          	beqz	a4,80000804 <vsnprintf+0x488>
80001220:	01412603          	lw	a2,20(sp)
80001224:	00c12583          	lw	a1,12(sp)
80001228:	00000713          	li	a4,0
8000122c:	03000693          	li	a3,48
80001230:	00040293          	mv	t0,s0
80001234:	00647a63          	bgeu	s0,t1,80001248 <vsnprintf+0xecc>
80001238:	008582b3          	add	t0,a1,s0
8000123c:	00140413          	addi	s0,s0,1
80001240:	00d28023          	sb	a3,0(t0)
80001244:	00040293          	mv	t0,s0
80001248:	00170713          	addi	a4,a4,1
8000124c:	fec742e3          	blt	a4,a2,80001230 <vsnprintf+0xeb4>
80001250:	db4ff06f          	j	80000804 <vsnprintf+0x488>
80001254:	02412703          	lw	a4,36(sp)
80001258:	5c070c63          	beqz	a4,80001830 <vsnprintf+0x14b4>
8000125c:	fa647ee3          	bgeu	s0,t1,80001218 <vsnprintf+0xe9c>
80001260:	00c12683          	lw	a3,12(sp)
80001264:	00140713          	addi	a4,s0,1
80001268:	00070293          	mv	t0,a4
8000126c:	00868433          	add	s0,a3,s0
80001270:	02b00693          	li	a3,43
80001274:	00d40023          	sb	a3,0(s0)
80001278:	d64ff06f          	j	800007dc <vsnprintf+0x460>
8000127c:	00001597          	auipc	a1,0x1
80001280:	50158593          	addi	a1,a1,1281 # 8000277d <_etext+0x105>
80001284:	00058713          	mv	a4,a1
80001288:	00000793          	li	a5,0
8000128c:	00074603          	lbu	a2,0(a4)
80001290:	00078693          	mv	a3,a5
80001294:	00170713          	addi	a4,a4,1
80001298:	00178793          	addi	a5,a5,1
8000129c:	fe0618e3          	bnez	a2,8000128c <vsnprintf+0xf10>
800012a0:	00012703          	lw	a4,0(sp)
800012a4:	00c12603          	lw	a2,12(sp)
800012a8:	00d586b3          	add	a3,a1,a3
800012ac:	00f707b3          	add	a5,a4,a5
800012b0:	00f12023          	sw	a5,0(sp)
800012b4:	00001797          	auipc	a5,0x1
800012b8:	4c878793          	addi	a5,a5,1224 # 8000277c <_etext+0x104>
800012bc:	00040293          	mv	t0,s0
800012c0:	00647c63          	bgeu	s0,t1,800012d8 <vsnprintf+0xf5c>
800012c4:	0007c703          	lbu	a4,0(a5)
800012c8:	008602b3          	add	t0,a2,s0
800012cc:	00140413          	addi	s0,s0,1
800012d0:	00e28023          	sb	a4,0(t0)
800012d4:	00040293          	mv	t0,s0
800012d8:	00178793          	addi	a5,a5,1
800012dc:	fef690e3          	bne	a3,a5,800012bc <vsnprintf+0xf40>
800012e0:	00a12823          	sw	a0,16(sp)
800012e4:	bd0ff06f          	j	800006b4 <vsnprintf+0x338>
800012e8:	00001797          	auipc	a5,0x1
800012ec:	48c78793          	addi	a5,a5,1164 # 80002774 <_etext+0xfc>
800012f0:	a9dff06f          	j	80000d8c <vsnprintf+0xa10>
800012f4:	00012583          	lw	a1,0(sp)
800012f8:	01812603          	lw	a2,24(sp)
800012fc:	00d586b3          	add	a3,a1,a3
80001300:	00163613          	seqz	a2,a2
80001304:	00d12023          	sw	a3,0(sp)
80001308:	40c70733          	sub	a4,a4,a2
8000130c:	87dff06f          	j	80000b88 <vsnprintf+0x80c>
80001310:	ffe48493          	addi	s1,s1,-2
80001314:	02000613          	li	a2,32
80001318:	fff00793          	li	a5,-1
8000131c:	02e05463          	blez	a4,80001344 <vsnprintf+0xfc8>
80001320:	00c12703          	lw	a4,12(sp)
80001324:	00040293          	mv	t0,s0
80001328:	00647a63          	bgeu	s0,t1,8000133c <vsnprintf+0xfc0>
8000132c:	008702b3          	add	t0,a4,s0
80001330:	00140413          	addi	s0,s0,1
80001334:	00c28023          	sb	a2,0(t0)
80001338:	00040293          	mv	t0,s0
8000133c:	fff48493          	addi	s1,s1,-1
80001340:	fef492e3          	bne	s1,a5,80001324 <vsnprintf+0xfa8>
80001344:	926470e3          	bgeu	s0,t1,80000c64 <vsnprintf+0x8e8>
80001348:	00c12783          	lw	a5,12(sp)
8000134c:	00140413          	addi	s0,s0,1
80001350:	00b12823          	sw	a1,16(sp)
80001354:	005782b3          	add	t0,a5,t0
80001358:	00d28023          	sb	a3,0(t0)
8000135c:	00040293          	mv	t0,s0
80001360:	b54ff06f          	j	800006b4 <vsnprintf+0x338>
80001364:	00000793          	li	a5,0
80001368:	02812a23          	sw	s0,52(sp)
8000136c:	02612e23          	sw	t1,60(sp)
80001370:	0a010393          	addi	t2,sp,160
80001374:	02912623          	sw	s1,44(sp)
80001378:	00078413          	mv	s0,a5
8000137c:	02512c23          	sw	t0,56(sp)
80001380:	00068313          	mv	t1,a3
80001384:	00a00613          	li	a2,10
80001388:	00000693          	li	a3,0
8000138c:	00070513          	mv	a0,a4
80001390:	00030593          	mv	a1,t1
80001394:	00140413          	addi	s0,s0,1
80001398:	008384b3          	add	s1,t2,s0
8000139c:	00712423          	sw	t2,8(sp)
800013a0:	02e12223          	sw	a4,36(sp)
800013a4:	02612023          	sw	t1,32(sp)
800013a8:	0e0010ef          	jal	80002488 <__umoddi3>
800013ac:	02012303          	lw	t1,32(sp)
800013b0:	02412703          	lw	a4,36(sp)
800013b4:	03050293          	addi	t0,a0,48
800013b8:	00030593          	mv	a1,t1
800013bc:	00070513          	mv	a0,a4
800013c0:	fe548fa3          	sb	t0,-1(s1)
800013c4:	00a00613          	li	a2,10
800013c8:	00000693          	li	a3,0
800013cc:	02e12023          	sw	a4,32(sp)
800013d0:	00030493          	mv	s1,t1
800013d4:	0ac010ef          	jal	80002480 <__udivdi3>
800013d8:	00812383          	lw	t2,8(sp)
800013dc:	00050713          	mv	a4,a0
800013e0:	00058313          	mv	t1,a1
800013e4:	fa0490e3          	bnez	s1,80001384 <vsnprintf+0x1008>
800013e8:	02012783          	lw	a5,32(sp)
800013ec:	00900693          	li	a3,9
800013f0:	f8f6eae3          	bltu	a3,a5,80001384 <vsnprintf+0x1008>
800013f4:	00040793          	mv	a5,s0
800013f8:	02c12483          	lw	s1,44(sp)
800013fc:	03412403          	lw	s0,52(sp)
80001400:	03812283          	lw	t0,56(sp)
80001404:	03c12303          	lw	t1,60(sp)
80001408:	8b5ff06f          	j	80000cbc <vsnprintf+0x940>
8000140c:	02912023          	sw	s1,32(sp)
80001410:	00000513          	li	a0,0
80001414:	0a010393          	addi	t2,sp,160
80001418:	00060493          	mv	s1,a2
8000141c:	00f77793          	andi	a5,a4,15
80001420:	00f487b3          	add	a5,s1,a5
80001424:	0007c603          	lbu	a2,0(a5)
80001428:	01c69593          	slli	a1,a3,0x1c
8000142c:	00150513          	addi	a0,a0,1
80001430:	00475713          	srli	a4,a4,0x4
80001434:	00a387b3          	add	a5,t2,a0
80001438:	00e5e733          	or	a4,a1,a4
8000143c:	0046d693          	srli	a3,a3,0x4
80001440:	fec78fa3          	sb	a2,-1(a5)
80001444:	00d767b3          	or	a5,a4,a3
80001448:	fc079ae3          	bnez	a5,8000141c <vsnprintf+0x10a0>
8000144c:	01412783          	lw	a5,20(sp)
80001450:	02012483          	lw	s1,32(sp)
80001454:	c4f54c63          	blt	a0,a5,800008ac <vsnprintf+0x530>
80001458:	c8cff06f          	j	800008e4 <vsnprintf+0x568>
8000145c:	02812603          	lw	a2,40(sp)
80001460:	02000693          	li	a3,32
80001464:	00060a63          	beqz	a2,80001478 <vsnprintf+0x10fc>
80001468:	01412683          	lw	a3,20(sp)
8000146c:	41f6d693          	srai	a3,a3,0x1f
80001470:	0106f693          	andi	a3,a3,16
80001474:	02068693          	addi	a3,a3,32
80001478:	fff70613          	addi	a2,a4,-1
8000147c:	02e05ae3          	blez	a4,80001cb0 <vsnprintf+0x1934>
80001480:	00c12583          	lw	a1,12(sp)
80001484:	00060713          	mv	a4,a2
80001488:	fff00613          	li	a2,-1
8000148c:	00040293          	mv	t0,s0
80001490:	00647a63          	bgeu	s0,t1,800014a4 <vsnprintf+0x1128>
80001494:	008582b3          	add	t0,a1,s0
80001498:	00140413          	addi	s0,s0,1
8000149c:	00d28023          	sb	a3,0(t0)
800014a0:	00040293          	mv	t0,s0
800014a4:	fff70713          	addi	a4,a4,-1
800014a8:	fec712e3          	bne	a4,a2,8000148c <vsnprintf+0x1110>
800014ac:	e0079263          	bnez	a5,80000ab0 <vsnprintf+0x734>
800014b0:	a04ff06f          	j	800006b4 <vsnprintf+0x338>
800014b4:	02012683          	lw	a3,32(sp)
800014b8:	00050793          	mv	a5,a0
800014bc:	dc068863          	beqz	a3,80000a8c <vsnprintf+0x710>
800014c0:	08050713          	addi	a4,a0,128
800014c4:	06010693          	addi	a3,sp,96
800014c8:	00d706b3          	add	a3,a4,a3
800014cc:	02000713          	li	a4,32
800014d0:	00150793          	addi	a5,a0,1
800014d4:	fce68023          	sb	a4,-64(a3)
800014d8:	db4ff06f          	j	80000a8c <vsnprintf+0x710>
800014dc:	01412683          	lw	a3,20(sp)
800014e0:	c0178713          	addi	a4,a5,-1023
800014e4:	02e12a23          	sw	a4,52(sp)
800014e8:	3e06cc63          	bltz	a3,800018e0 <vsnprintf+0x1564>
800014ec:	03412703          	lw	a4,52(sp)
800014f0:	76074063          	bltz	a4,80001c50 <vsnprintf+0x18d4>
800014f4:	001006b7          	lui	a3,0x100
800014f8:	00b6e633          	or	a2,a3,a1
800014fc:	03412683          	lw	a3,52(sp)
80001500:	03400713          	li	a4,52
80001504:	52d75263          	bge	a4,a3,80001a28 <vsnprintf+0x16ac>
80001508:	bcd78693          	addi	a3,a5,-1075
8000150c:	03f00713          	li	a4,63
80001510:	12d76ce3          	bltu	a4,a3,80001e48 <vsnprintf+0x1acc>
80001514:	bad78793          	addi	a5,a5,-1107
80001518:	7c07c663          	bltz	a5,80001ce4 <vsnprintf+0x1968>
8000151c:	00f397b3          	sll	a5,t2,a5
80001520:	00000713          	li	a4,0
80001524:	00f766b3          	or	a3,a4,a5
80001528:	50069c63          	bnez	a3,80001a40 <vsnprintf+0x16c4>
8000152c:	03000793          	li	a5,48
80001530:	06f10023          	sb	a5,96(sp)
80001534:	01412783          	lw	a5,20(sp)
80001538:	72078463          	beqz	a5,80001c60 <vsnprintf+0x18e4>
8000153c:	00100793          	li	a5,1
80001540:	02f12623          	sw	a5,44(sp)
80001544:	06010793          	addi	a5,sp,96
80001548:	00f12823          	sw	a5,16(sp)
8000154c:	01412603          	lw	a2,20(sp)
80001550:	0a010713          	addi	a4,sp,160
80001554:	00000793          	li	a5,0
80001558:	03000693          	li	a3,48
8000155c:	00d70023          	sb	a3,0(a4)
80001560:	00178793          	addi	a5,a5,1
80001564:	00170713          	addi	a4,a4,1
80001568:	fec7cae3          	blt	a5,a2,8000155c <vsnprintf+0x11e0>
8000156c:	01412583          	lw	a1,20(sp)
80001570:	01412783          	lw	a5,20(sp)
80001574:	02c12703          	lw	a4,44(sp)
80001578:	00078a63          	beqz	a5,8000158c <vsnprintf+0x1210>
8000157c:	01412783          	lw	a5,20(sp)
80001580:	00178713          	addi	a4,a5,1
80001584:	02c12783          	lw	a5,44(sp)
80001588:	00f70733          	add	a4,a4,a5
8000158c:	02012683          	lw	a3,32(sp)
80001590:	02412783          	lw	a5,36(sp)
80001594:	00d7e7b3          	or	a5,a5,a3
80001598:	00a7e7b3          	or	a5,a5,a0
8000159c:	00e787b3          	add	a5,a5,a4
800015a0:	40f486b3          	sub	a3,s1,a5
800015a4:	00d05463          	blez	a3,800015ac <vsnprintf+0x1230>
800015a8:	00048793          	mv	a5,s1
800015ac:	00012703          	lw	a4,0(sp)
800015b0:	00f707b3          	add	a5,a4,a5
800015b4:	00f12023          	sw	a5,0(sp)
800015b8:	01812783          	lw	a5,24(sp)
800015bc:	08078e63          	beqz	a5,80001658 <vsnprintf+0x12dc>
800015c0:	2a050263          	beqz	a0,80001864 <vsnprintf+0x14e8>
800015c4:	00647c63          	bgeu	s0,t1,800015dc <vsnprintf+0x1260>
800015c8:	00c12783          	lw	a5,12(sp)
800015cc:	00140413          	addi	s0,s0,1
800015d0:	005782b3          	add	t0,a5,t0
800015d4:	02d00793          	li	a5,45
800015d8:	00f28023          	sb	a5,0(t0)
800015dc:	01012783          	lw	a5,16(sp)
800015e0:	02c12703          	lw	a4,44(sp)
800015e4:	00c12503          	lw	a0,12(sp)
800015e8:	00f70733          	add	a4,a4,a5
800015ec:	00040293          	mv	t0,s0
800015f0:	00647c63          	bgeu	s0,t1,80001608 <vsnprintf+0x128c>
800015f4:	0007c603          	lbu	a2,0(a5)
800015f8:	008502b3          	add	t0,a0,s0
800015fc:	00140413          	addi	s0,s0,1
80001600:	00c28023          	sb	a2,0(t0)
80001604:	00040293          	mv	t0,s0
80001608:	00178793          	addi	a5,a5,1
8000160c:	fee790e3          	bne	a5,a4,800015ec <vsnprintf+0x1270>
80001610:	01412783          	lw	a5,20(sp)
80001614:	54079c63          	bnez	a5,80001b6c <vsnprintf+0x17f0>
80001618:	01812783          	lw	a5,24(sp)
8000161c:	9e078863          	beqz	a5,8000080c <vsnprintf+0x490>
80001620:	fff68793          	addi	a5,a3,-1 # fffff <_entry_offset+0xfffff>
80001624:	9ed05463          	blez	a3,8000080c <vsnprintf+0x490>
80001628:	00c12603          	lw	a2,12(sp)
8000162c:	02000693          	li	a3,32
80001630:	fff00713          	li	a4,-1
80001634:	00040293          	mv	t0,s0
80001638:	00647a63          	bgeu	s0,t1,8000164c <vsnprintf+0x12d0>
8000163c:	008602b3          	add	t0,a2,s0
80001640:	00140413          	addi	s0,s0,1
80001644:	00d28023          	sb	a3,0(t0)
80001648:	00040293          	mv	t0,s0
8000164c:	fff78793          	addi	a5,a5,-1
80001650:	fee792e3          	bne	a5,a4,80001634 <vsnprintf+0x12b8>
80001654:	9b8ff06f          	j	8000080c <vsnprintf+0x490>
80001658:	02812783          	lw	a5,40(sp)
8000165c:	fff78793          	addi	a5,a5,-1
80001660:	ff07f713          	andi	a4,a5,-16
80001664:	03070713          	addi	a4,a4,48
80001668:	fff68793          	addi	a5,a3,-1
8000166c:	02d050e3          	blez	a3,80001e8c <vsnprintf+0x1b10>
80001670:	00c12603          	lw	a2,12(sp)
80001674:	00078693          	mv	a3,a5
80001678:	fff00793          	li	a5,-1
8000167c:	00040293          	mv	t0,s0
80001680:	00647a63          	bgeu	s0,t1,80001694 <vsnprintf+0x1318>
80001684:	008602b3          	add	t0,a2,s0
80001688:	00140413          	addi	s0,s0,1
8000168c:	00e28023          	sb	a4,0(t0)
80001690:	00040293          	mv	t0,s0
80001694:	fff68693          	addi	a3,a3,-1
80001698:	fef692e3          	bne	a3,a5,8000167c <vsnprintf+0x1300>
8000169c:	f25ff06f          	j	800015c0 <vsnprintf+0x1244>
800016a0:	01012783          	lw	a5,16(sp)
800016a4:	00000693          	li	a3,0
800016a8:	0007c703          	lbu	a4,0(a5)
800016ac:	00478793          	addi	a5,a5,4
800016b0:	00f12823          	sw	a5,16(sp)
800016b4:	9a8ff06f          	j	8000085c <vsnprintf+0x4e0>
800016b8:	01012783          	lw	a5,16(sp)
800016bc:	00000693          	li	a3,0
800016c0:	0007c703          	lbu	a4,0(a5)
800016c4:	00478793          	addi	a5,a5,4
800016c8:	00f12823          	sw	a5,16(sp)
800016cc:	dd4ff06f          	j	80000ca0 <vsnprintf+0x924>
800016d0:	01012683          	lw	a3,16(sp)
800016d4:	00000793          	li	a5,0
800016d8:	0006c703          	lbu	a4,0(a3)
800016dc:	00468693          	addi	a3,a3,4
800016e0:	00d12823          	sw	a3,16(sp)
800016e4:	b20ff06f          	j	80000a04 <vsnprintf+0x688>
800016e8:	02812683          	lw	a3,40(sp)
800016ec:	18069e63          	bnez	a3,80001888 <vsnprintf+0x150c>
800016f0:	00070493          	mv	s1,a4
800016f4:	02000693          	li	a3,32
800016f8:	fff48713          	addi	a4,s1,-1
800016fc:	02905663          	blez	s1,80001728 <vsnprintf+0x13ac>
80001700:	00c12583          	lw	a1,12(sp)
80001704:	fff00613          	li	a2,-1
80001708:	00040293          	mv	t0,s0
8000170c:	00647a63          	bgeu	s0,t1,80001720 <vsnprintf+0x13a4>
80001710:	008582b3          	add	t0,a1,s0
80001714:	00140413          	addi	s0,s0,1
80001718:	00d28023          	sb	a3,0(t0)
8000171c:	00040293          	mv	t0,s0
80001720:	fff70713          	addi	a4,a4,-1
80001724:	fec712e3          	bne	a4,a2,80001708 <vsnprintf+0x138c>
80001728:	dc079e63          	bnez	a5,80000d04 <vsnprintf+0x988>
8000172c:	f89fe06f          	j	800006b4 <vsnprintf+0x338>
80001730:	98905ee3          	blez	s1,800010cc <vsnprintf+0xd50>
80001734:	00012783          	lw	a5,0(sp)
80001738:	009787b3          	add	a5,a5,s1
8000173c:	00f12023          	sw	a5,0(sp)
80001740:	01812783          	lw	a5,24(sp)
80001744:	980788e3          	beqz	a5,800010d4 <vsnprintf+0xd58>
80001748:	fff48493          	addi	s1,s1,-1
8000174c:	a50ff06f          	j	8000099c <vsnprintf+0x620>
80001750:	28905263          	blez	s1,800019d4 <vsnprintf+0x1658>
80001754:	00012783          	lw	a5,0(sp)
80001758:	009787b3          	add	a5,a5,s1
8000175c:	00f12023          	sw	a5,0(sp)
80001760:	01812783          	lw	a5,24(sp)
80001764:	26078e63          	beqz	a5,800019e0 <vsnprintf+0x1664>
80001768:	fff48493          	addi	s1,s1,-1
8000176c:	dd8ff06f          	j	80000d44 <vsnprintf+0x9c8>
80001770:	fff78713          	addi	a4,a5,-1
80001774:	88f05c63          	blez	a5,8000080c <vsnprintf+0x490>
80001778:	00c12603          	lw	a2,12(sp)
8000177c:	02000693          	li	a3,32
80001780:	fff00793          	li	a5,-1
80001784:	00040293          	mv	t0,s0
80001788:	00647a63          	bgeu	s0,t1,8000179c <vsnprintf+0x1420>
8000178c:	008602b3          	add	t0,a2,s0
80001790:	00140413          	addi	s0,s0,1
80001794:	00d28023          	sb	a3,0(t0)
80001798:	00040293          	mv	t0,s0
8000179c:	fff70713          	addi	a4,a4,-1
800017a0:	fef712e3          	bne	a4,a5,80001784 <vsnprintf+0x1408>
800017a4:	868ff06f          	j	8000080c <vsnprintf+0x490>
800017a8:	00b3e7b3          	or	a5,t2,a1
800017ac:	00001697          	auipc	a3,0x1
800017b0:	fe468693          	addi	a3,a3,-28 # 80002790 <_etext+0x118>
800017b4:	00079c63          	bnez	a5,800017cc <vsnprintf+0x1450>
800017b8:	00001697          	auipc	a3,0x1
800017bc:	fd068693          	addi	a3,a3,-48 # 80002788 <_etext+0x110>
800017c0:	00051663          	bnez	a0,800017cc <vsnprintf+0x1450>
800017c4:	00001697          	auipc	a3,0x1
800017c8:	fc068693          	addi	a3,a3,-64 # 80002784 <_etext+0x10c>
800017cc:	00000793          	li	a5,0
800017d0:	00078713          	mv	a4,a5
800017d4:	00178793          	addi	a5,a5,1
800017d8:	00f68633          	add	a2,a3,a5
800017dc:	00064603          	lbu	a2,0(a2)
800017e0:	fe0618e3          	bnez	a2,800017d0 <vsnprintf+0x1454>
800017e4:	00012603          	lw	a2,0(sp)
800017e8:	00f607b3          	add	a5,a2,a5
800017ec:	00f12023          	sw	a5,0(sp)
800017f0:	80647e63          	bgeu	s0,t1,8000080c <vsnprintf+0x490>
800017f4:	00140793          	addi	a5,s0,1
800017f8:	00c12503          	lw	a0,12(sp)
800017fc:	00e78733          	add	a4,a5,a4
80001800:	00c0006f          	j	8000180c <vsnprintf+0x1490>
80001804:	0267f263          	bgeu	a5,t1,80001828 <vsnprintf+0x14ac>
80001808:	00178793          	addi	a5,a5,1
8000180c:	40578633          	sub	a2,a5,t0
80001810:	00c68633          	add	a2,a3,a2
80001814:	fff64583          	lbu	a1,-1(a2)
80001818:	00f50633          	add	a2,a0,a5
8000181c:	00078413          	mv	s0,a5
80001820:	feb60fa3          	sb	a1,-1(a2)
80001824:	fef710e3          	bne	a4,a5,80001804 <vsnprintf+0x1488>
80001828:	00040293          	mv	t0,s0
8000182c:	fe1fe06f          	j	8000080c <vsnprintf+0x490>
80001830:	02012703          	lw	a4,32(sp)
80001834:	1c070263          	beqz	a4,800019f8 <vsnprintf+0x167c>
80001838:	9e6470e3          	bgeu	s0,t1,80001218 <vsnprintf+0xe9c>
8000183c:	00c12683          	lw	a3,12(sp)
80001840:	00140713          	addi	a4,s0,1
80001844:	00070293          	mv	t0,a4
80001848:	00868433          	add	s0,a3,s0
8000184c:	02000693          	li	a3,32
80001850:	00d40023          	sb	a3,0(s0)
80001854:	f89fe06f          	j	800007dc <vsnprintf+0x460>
80001858:	00060593          	mv	a1,a2
8000185c:	00012a23          	sw	zero,20(sp)
80001860:	c91fe06f          	j	800004f0 <vsnprintf+0x174>
80001864:	02412783          	lw	a5,36(sp)
80001868:	38078e63          	beqz	a5,80001c04 <vsnprintf+0x1888>
8000186c:	d66478e3          	bgeu	s0,t1,800015dc <vsnprintf+0x1260>
80001870:	00c12783          	lw	a5,12(sp)
80001874:	00140413          	addi	s0,s0,1
80001878:	005782b3          	add	t0,a5,t0
8000187c:	02b00793          	li	a5,43
80001880:	00f28023          	sb	a5,0(t0)
80001884:	d59ff06f          	j	800015dc <vsnprintf+0x1260>
80001888:	01412683          	lw	a3,20(sp)
8000188c:	e606d2e3          	bgez	a3,800016f0 <vsnprintf+0x1374>
80001890:	00070493          	mv	s1,a4
80001894:	03000693          	li	a3,48
80001898:	e61ff06f          	j	800016f8 <vsnprintf+0x137c>
8000189c:	01012683          	lw	a3,16(sp)
800018a0:	0006a703          	lw	a4,0(a3)
800018a4:	0046a783          	lw	a5,4(a3)
800018a8:	00868693          	addi	a3,a3,8
800018ac:	00d12823          	sw	a3,16(sp)
800018b0:	950ff06f          	j	80000a00 <vsnprintf+0x684>
800018b4:	0007a703          	lw	a4,0(a5)
800018b8:	0047a683          	lw	a3,4(a5)
800018bc:	00878793          	addi	a5,a5,8
800018c0:	00f12823          	sw	a5,16(sp)
800018c4:	f99fe06f          	j	8000085c <vsnprintf+0x4e0>
800018c8:	01012783          	lw	a5,16(sp)
800018cc:	0007a703          	lw	a4,0(a5)
800018d0:	0047a683          	lw	a3,4(a5)
800018d4:	00878793          	addi	a5,a5,8
800018d8:	00f12823          	sw	a5,16(sp)
800018dc:	bc4ff06f          	j	80000ca0 <vsnprintf+0x924>
800018e0:	00600693          	li	a3,6
800018e4:	00d12a23          	sw	a3,20(sp)
800018e8:	c00756e3          	bgez	a4,800014f4 <vsnprintf+0x1178>
800018ec:	03000793          	li	a5,48
800018f0:	06f10023          	sb	a5,96(sp)
800018f4:	03412703          	lw	a4,52(sp)
800018f8:	01412603          	lw	a2,20(sp)
800018fc:	001007b7          	lui	a5,0x100
80001900:	40e00733          	neg	a4,a4
80001904:	02e12623          	sw	a4,44(sp)
80001908:	02612c23          	sw	t1,56(sp)
8000190c:	02c12303          	lw	t1,44(sp)
80001910:	0a010693          	addi	a3,sp,160
80001914:	00038713          	mv	a4,t2
80001918:	00b7e3b3          	or	t2,a5,a1
8000191c:	fff78793          	addi	a5,a5,-1 # fffff <_entry_offset+0xfffff>
80001920:	00c68633          	add	a2,a3,a2
80001924:	00f12823          	sw	a5,16(sp)
80001928:	02a12a23          	sw	a0,52(sp)
8000192c:	00068593          	mv	a1,a3
80001930:	00271793          	slli	a5,a4,0x2
80001934:	01e75513          	srli	a0,a4,0x1e
80001938:	00239693          	slli	a3,t2,0x2
8000193c:	00e78733          	add	a4,a5,a4
80001940:	00d566b3          	or	a3,a0,a3
80001944:	00f737b3          	sltu	a5,a4,a5
80001948:	007686b3          	add	a3,a3,t2
8000194c:	00d787b3          	add	a5,a5,a3
80001950:	00179793          	slli	a5,a5,0x1
80001954:	01f75693          	srli	a3,a4,0x1f
80001958:	00f6e7b3          	or	a5,a3,a5
8000195c:	00171713          	slli	a4,a4,0x1
80001960:	00605c63          	blez	t1,80001978 <vsnprintf+0x15fc>
80001964:	01f79693          	slli	a3,a5,0x1f
80001968:	00175713          	srli	a4,a4,0x1
8000196c:	00e6e733          	or	a4,a3,a4
80001970:	0017d793          	srli	a5,a5,0x1
80001974:	fff30313          	addi	t1,t1,-1
80001978:	0147d693          	srli	a3,a5,0x14
8000197c:	00f6f693          	andi	a3,a3,15
80001980:	03068693          	addi	a3,a3,48
80001984:	00d58023          	sb	a3,0(a1)
80001988:	01012683          	lw	a3,16(sp)
8000198c:	00158593          	addi	a1,a1,1
80001990:	00d7f3b3          	and	t2,a5,a3
80001994:	f8c59ee3          	bne	a1,a2,80001930 <vsnprintf+0x15b4>
80001998:	00100793          	li	a5,1
8000199c:	02f12623          	sw	a5,44(sp)
800019a0:	06010793          	addi	a5,sp,96
800019a4:	03412503          	lw	a0,52(sp)
800019a8:	03812303          	lw	t1,56(sp)
800019ac:	01412583          	lw	a1,20(sp)
800019b0:	00f12823          	sw	a5,16(sp)
800019b4:	bc9ff06f          	j	8000157c <vsnprintf+0x1200>
800019b8:	866474e3          	bgeu	s0,t1,80001220 <vsnprintf+0xea4>
800019bc:	00c12683          	lw	a3,12(sp)
800019c0:	008682b3          	add	t0,a3,s0
800019c4:	00270413          	addi	s0,a4,2
800019c8:	02e00713          	li	a4,46
800019cc:	00e28023          	sb	a4,0(t0)
800019d0:	851ff06f          	j	80001220 <vsnprintf+0xea4>
800019d4:	01812783          	lw	a5,24(sp)
800019d8:	00078463          	beqz	a5,800019e0 <vsnprintf+0x1664>
800019dc:	cd9fe06f          	j	800006b4 <vsnprintf+0x338>
800019e0:	02812783          	lw	a5,40(sp)
800019e4:	00048713          	mv	a4,s1
800019e8:	d00784e3          	beqz	a5,800016f0 <vsnprintf+0x1374>
800019ec:	00000793          	li	a5,0
800019f0:	02000693          	li	a3,32
800019f4:	d05ff06f          	j	800016f8 <vsnprintf+0x137c>
800019f8:	00040713          	mv	a4,s0
800019fc:	de1fe06f          	j	800007dc <vsnprintf+0x460>
80001a00:	00a787b3          	add	a5,a5,a0
80001a04:	00f12023          	sw	a5,0(sp)
80001a08:	01812783          	lw	a5,24(sp)
80001a0c:	00078463          	beqz	a5,80001a14 <vsnprintf+0x1698>
80001a10:	f51fe06f          	j	80000960 <vsnprintf+0x5e4>
80001a14:	02812783          	lw	a5,40(sp)
80001a18:	e6079263          	bnez	a5,8000107c <vsnprintf+0xd00>
80001a1c:	fff58593          	addi	a1,a1,-1
80001a20:	0a010393          	addi	t2,sp,160
80001a24:	f3dfe06f          	j	80000960 <vsnprintf+0x5e4>
80001a28:	03412783          	lw	a5,52(sp)
80001a2c:	40f706b3          	sub	a3,a4,a5
80001a30:	fe068793          	addi	a5,a3,-32
80001a34:	2407ce63          	bltz	a5,80001c90 <vsnprintf+0x1914>
80001a38:	00f65733          	srl	a4,a2,a5
80001a3c:	00000793          	li	a5,0
80001a40:	00000693          	li	a3,0
80001a44:	06010613          	addi	a2,sp,96
80001a48:	04912423          	sw	s1,72(sp)
80001a4c:	04812823          	sw	s0,80(sp)
80001a50:	04612c23          	sw	t1,88(sp)
80001a54:	00c12823          	sw	a2,16(sp)
80001a58:	04a12223          	sw	a0,68(sp)
80001a5c:	04b12623          	sw	a1,76(sp)
80001a60:	04512a23          	sw	t0,84(sp)
80001a64:	00068313          	mv	t1,a3
80001a68:	04712e23          	sw	t2,92(sp)
80001a6c:	00070413          	mv	s0,a4
80001a70:	00078493          	mv	s1,a5
80001a74:	01012783          	lw	a5,16(sp)
80001a78:	02612e23          	sw	t1,60(sp)
80001a7c:	00130313          	addi	t1,t1,1
80001a80:	006782b3          	add	t0,a5,t1
80001a84:	00a00613          	li	a2,10
80001a88:	00000693          	li	a3,0
80001a8c:	00040513          	mv	a0,s0
80001a90:	00048593          	mv	a1,s1
80001a94:	02612c23          	sw	t1,56(sp)
80001a98:	02512623          	sw	t0,44(sp)
80001a9c:	1ed000ef          	jal	80002488 <__umoddi3>
80001aa0:	02c12283          	lw	t0,44(sp)
80001aa4:	03050093          	addi	ra,a0,48
80001aa8:	00048593          	mv	a1,s1
80001aac:	00040513          	mv	a0,s0
80001ab0:	fe128fa3          	sb	ra,-1(t0)
80001ab4:	00a00613          	li	a2,10
80001ab8:	00000693          	li	a3,0
80001abc:	04812023          	sw	s0,64(sp)
80001ac0:	02912623          	sw	s1,44(sp)
80001ac4:	1bd000ef          	jal	80002480 <__udivdi3>
80001ac8:	02c12283          	lw	t0,44(sp)
80001acc:	03812303          	lw	t1,56(sp)
80001ad0:	00050413          	mv	s0,a0
80001ad4:	00058493          	mv	s1,a1
80001ad8:	f8029ee3          	bnez	t0,80001a74 <vsnprintf+0x16f8>
80001adc:	04012783          	lw	a5,64(sp)
80001ae0:	00900693          	li	a3,9
80001ae4:	f8f6e8e3          	bltu	a3,a5,80001a74 <vsnprintf+0x16f8>
80001ae8:	03c12603          	lw	a2,60(sp)
80001aec:	02612623          	sw	t1,44(sp)
80001af0:	04412503          	lw	a0,68(sp)
80001af4:	04812483          	lw	s1,72(sp)
80001af8:	04c12583          	lw	a1,76(sp)
80001afc:	05012403          	lw	s0,80(sp)
80001b00:	05412283          	lw	t0,84(sp)
80001b04:	05812303          	lw	t1,88(sp)
80001b08:	05c12383          	lw	t2,92(sp)
80001b0c:	04060663          	beqz	a2,80001b58 <vsnprintf+0x17dc>
80001b10:	01012783          	lw	a5,16(sp)
80001b14:	02b12e23          	sw	a1,60(sp)
80001b18:	02a12c23          	sw	a0,56(sp)
80001b1c:	00078693          	mv	a3,a5
80001b20:	00c78733          	add	a4,a5,a2
80001b24:	00060593          	mv	a1,a2
80001b28:	00000793          	li	a5,0
80001b2c:	00074503          	lbu	a0,0(a4)
80001b30:	0006c603          	lbu	a2,0(a3)
80001b34:	00178793          	addi	a5,a5,1
80001b38:	00a68023          	sb	a0,0(a3)
80001b3c:	00c70023          	sb	a2,0(a4)
80001b40:	40f58633          	sub	a2,a1,a5
80001b44:	00168693          	addi	a3,a3,1
80001b48:	fff70713          	addi	a4,a4,-1
80001b4c:	fec7c0e3          	blt	a5,a2,80001b2c <vsnprintf+0x17b0>
80001b50:	03812503          	lw	a0,56(sp)
80001b54:	03c12583          	lw	a1,60(sp)
80001b58:	01412783          	lw	a5,20(sp)
80001b5c:	1a079463          	bnez	a5,80001d04 <vsnprintf+0x1988>
80001b60:	02c12703          	lw	a4,44(sp)
80001b64:	00000593          	li	a1,0
80001b68:	a25ff06f          	j	8000158c <vsnprintf+0x1210>
80001b6c:	00647e63          	bgeu	s0,t1,80001b88 <vsnprintf+0x180c>
80001b70:	00c12783          	lw	a5,12(sp)
80001b74:	00140413          	addi	s0,s0,1
80001b78:	005782b3          	add	t0,a5,t0
80001b7c:	02e00793          	li	a5,46
80001b80:	00f28023          	sb	a5,0(t0)
80001b84:	00040293          	mv	t0,s0
80001b88:	a80588e3          	beqz	a1,80001618 <vsnprintf+0x129c>
80001b8c:	0a010793          	addi	a5,sp,160
80001b90:	00b78733          	add	a4,a5,a1
80001b94:	00c12583          	lw	a1,12(sp)
80001b98:	00040293          	mv	t0,s0
80001b9c:	00647c63          	bgeu	s0,t1,80001bb4 <vsnprintf+0x1838>
80001ba0:	0007c603          	lbu	a2,0(a5)
80001ba4:	008582b3          	add	t0,a1,s0
80001ba8:	00140413          	addi	s0,s0,1
80001bac:	00c28023          	sb	a2,0(t0)
80001bb0:	00040293          	mv	t0,s0
80001bb4:	00178793          	addi	a5,a5,1
80001bb8:	fee790e3          	bne	a5,a4,80001b98 <vsnprintf+0x181c>
80001bbc:	a5dff06f          	j	80001618 <vsnprintf+0x129c>
80001bc0:	00000613          	li	a2,0
80001bc4:	da4ff06f          	j	80001168 <vsnprintf+0xdec>
80001bc8:	fff48593          	addi	a1,s1,-1
80001bcc:	0eb05a63          	blez	a1,80001cc0 <vsnprintf+0x1944>
80001bd0:	00012783          	lw	a5,0(sp)
80001bd4:	009787b3          	add	a5,a5,s1
80001bd8:	00f12023          	sw	a5,0(sp)
80001bdc:	01812783          	lw	a5,24(sp)
80001be0:	00078663          	beqz	a5,80001bec <vsnprintf+0x1870>
80001be4:	00078513          	mv	a0,a5
80001be8:	d79fe06f          	j	80000960 <vsnprintf+0x5e4>
80001bec:	02812783          	lw	a5,40(sp)
80001bf0:	c8079663          	bnez	a5,8000107c <vsnprintf+0xd00>
80001bf4:	fff58793          	addi	a5,a1,-1
80001bf8:	00078613          	mv	a2,a5
80001bfc:	02000693          	li	a3,32
80001c00:	c94ff06f          	j	80001094 <vsnprintf+0xd18>
80001c04:	02012783          	lw	a5,32(sp)
80001c08:	9c078ae3          	beqz	a5,800015dc <vsnprintf+0x1260>
80001c0c:	9c6478e3          	bgeu	s0,t1,800015dc <vsnprintf+0x1260>
80001c10:	00c12783          	lw	a5,12(sp)
80001c14:	00140413          	addi	s0,s0,1
80001c18:	005782b3          	add	t0,a5,t0
80001c1c:	02000793          	li	a5,32
80001c20:	00f28023          	sb	a5,0(t0)
80001c24:	9b9ff06f          	j	800015dc <vsnprintf+0x1260>
80001c28:	00a12823          	sw	a0,16(sp)
80001c2c:	00904463          	bgtz	s1,80001c34 <vsnprintf+0x18b8>
80001c30:	a85fe06f          	j	800006b4 <vsnprintf+0x338>
80001c34:	00012703          	lw	a4,0(sp)
80001c38:	00970733          	add	a4,a4,s1
80001c3c:	00e12023          	sw	a4,0(sp)
80001c40:	01812703          	lw	a4,24(sp)
80001c44:	22070e63          	beqz	a4,80001e80 <vsnprintf+0x1b04>
80001c48:	fff48493          	addi	s1,s1,-1
80001c4c:	ae0ff06f          	j	80000f2c <vsnprintf+0xbb0>
80001c50:	03000793          	li	a5,48
80001c54:	06f10023          	sb	a5,96(sp)
80001c58:	01412783          	lw	a5,20(sp)
80001c5c:	c8079ce3          	bnez	a5,800018f4 <vsnprintf+0x1578>
80001c60:	00100793          	li	a5,1
80001c64:	02f12623          	sw	a5,44(sp)
80001c68:	06010793          	addi	a5,sp,96
80001c6c:	00100713          	li	a4,1
80001c70:	00012a23          	sw	zero,20(sp)
80001c74:	00000593          	li	a1,0
80001c78:	00f12823          	sw	a5,16(sp)
80001c7c:	911ff06f          	j	8000158c <vsnprintf+0x1210>
80001c80:	fff70713          	addi	a4,a4,-1
80001c84:	a6059263          	bnez	a1,80000ee8 <vsnprintf+0xb6c>
80001c88:	00a12823          	sw	a0,16(sp)
80001c8c:	a29fe06f          	j	800006b4 <vsnprintf+0x338>
80001c90:	01f00793          	li	a5,31
80001c94:	00161713          	slli	a4,a2,0x1
80001c98:	40d787b3          	sub	a5,a5,a3
80001c9c:	00f717b3          	sll	a5,a4,a5
80001ca0:	00d3d733          	srl	a4,t2,a3
80001ca4:	00e7e733          	or	a4,a5,a4
80001ca8:	00d657b3          	srl	a5,a2,a3
80001cac:	d95ff06f          	j	80001a40 <vsnprintf+0x16c4>
80001cb0:	00060713          	mv	a4,a2
80001cb4:	00078463          	beqz	a5,80001cbc <vsnprintf+0x1940>
80001cb8:	df9fe06f          	j	80000ab0 <vsnprintf+0x734>
80001cbc:	9f9fe06f          	j	800006b4 <vsnprintf+0x338>
80001cc0:	00012783          	lw	a5,0(sp)
80001cc4:	00178793          	addi	a5,a5,1
80001cc8:	00f12023          	sw	a5,0(sp)
80001ccc:	01812783          	lw	a5,24(sp)
80001cd0:	d40782e3          	beqz	a5,80001a14 <vsnprintf+0x1698>
80001cd4:	00078513          	mv	a0,a5
80001cd8:	c89fe06f          	j	80000960 <vsnprintf+0x5e4>
80001cdc:	fff70493          	addi	s1,a4,-1
80001ce0:	a4cff06f          	j	80000f2c <vsnprintf+0xbb0>
80001ce4:	01f00793          	li	a5,31
80001ce8:	40d787b3          	sub	a5,a5,a3
80001cec:	0013d713          	srli	a4,t2,0x1
80001cf0:	00f75733          	srl	a4,a4,a5
80001cf4:	00d617b3          	sll	a5,a2,a3
80001cf8:	00f767b3          	or	a5,a4,a5
80001cfc:	00d39733          	sll	a4,t2,a3
80001d00:	825ff06f          	j	80001524 <vsnprintf+0x11a8>
80001d04:	03412703          	lw	a4,52(sp)
80001d08:	03300793          	li	a5,51
80001d0c:	84e7c0e3          	blt	a5,a4,8000154c <vsnprintf+0x11d0>
80001d10:	03400793          	li	a5,52
80001d14:	40e787b3          	sub	a5,a5,a4
80001d18:	fe078713          	addi	a4,a5,-32
80001d1c:	02f12a23          	sw	a5,52(sp)
80001d20:	04e12223          	sw	a4,68(sp)
80001d24:	0e074e63          	bltz	a4,80001e20 <vsnprintf+0x1aa4>
80001d28:	fff00793          	li	a5,-1
80001d2c:	00e79733          	sll	a4,a5,a4
80001d30:	00000793          	li	a5,0
80001d34:	fff7c613          	not	a2,a5
80001d38:	00c3f7b3          	and	a5,t2,a2
80001d3c:	04f12023          	sw	a5,64(sp)
80001d40:	03412783          	lw	a5,52(sp)
80001d44:	fff74713          	not	a4,a4
80001d48:	01412383          	lw	t2,20(sp)
80001d4c:	02e12e23          	sw	a4,60(sp)
80001d50:	00e5f5b3          	and	a1,a1,a4
80001d54:	01f00713          	li	a4,31
80001d58:	40f70733          	sub	a4,a4,a5
80001d5c:	0a010693          	addi	a3,sp,160
80001d60:	04912623          	sw	s1,76(sp)
80001d64:	04812823          	sw	s0,80(sp)
80001d68:	04512a23          	sw	t0,84(sp)
80001d6c:	03c12483          	lw	s1,60(sp)
80001d70:	04012783          	lw	a5,64(sp)
80001d74:	04412283          	lw	t0,68(sp)
80001d78:	007683b3          	add	t2,a3,t2
80001d7c:	02e12c23          	sw	a4,56(sp)
80001d80:	04a12423          	sw	a0,72(sp)
80001d84:	00060413          	mv	s0,a2
80001d88:	0180006f          	j	80001da0 <vsnprintf+0x1a24>
80001d8c:	00575633          	srl	a2,a4,t0
80001d90:	03060613          	addi	a2,a2,48
80001d94:	00c68023          	sb	a2,0(a3)
80001d98:	00168693          	addi	a3,a3,1
80001d9c:	04d38e63          	beq	t2,a3,80001df8 <vsnprintf+0x1a7c>
80001da0:	00279713          	slli	a4,a5,0x2
80001da4:	01e7d513          	srli	a0,a5,0x1e
80001da8:	00259613          	slli	a2,a1,0x2
80001dac:	00f707b3          	add	a5,a4,a5
80001db0:	00c56633          	or	a2,a0,a2
80001db4:	00b605b3          	add	a1,a2,a1
80001db8:	00e7b733          	sltu	a4,a5,a4
80001dbc:	00b70733          	add	a4,a4,a1
80001dc0:	01f7d613          	srli	a2,a5,0x1f
80001dc4:	00171713          	slli	a4,a4,0x1
80001dc8:	00e66733          	or	a4,a2,a4
80001dcc:	00179613          	slli	a2,a5,0x1
80001dd0:	00c477b3          	and	a5,s0,a2
80001dd4:	00e4f5b3          	and	a1,s1,a4
80001dd8:	fa02dae3          	bgez	t0,80001d8c <vsnprintf+0x1a10>
80001ddc:	03812503          	lw	a0,56(sp)
80001de0:	00171713          	slli	a4,a4,0x1
80001de4:	00a71733          	sll	a4,a4,a0
80001de8:	03412503          	lw	a0,52(sp)
80001dec:	00a65633          	srl	a2,a2,a0
80001df0:	00c76633          	or	a2,a4,a2
80001df4:	f9dff06f          	j	80001d90 <vsnprintf+0x1a14>
80001df8:	04812503          	lw	a0,72(sp)
80001dfc:	04c12483          	lw	s1,76(sp)
80001e00:	05012403          	lw	s0,80(sp)
80001e04:	05412283          	lw	t0,84(sp)
80001e08:	01412583          	lw	a1,20(sp)
80001e0c:	f70ff06f          	j	8000157c <vsnprintf+0x1200>
80001e10:	00070793          	mv	a5,a4
80001e14:	9a9fe06f          	j	800007bc <vsnprintf+0x440>
80001e18:	00078593          	mv	a1,a5
80001e1c:	aa4ff06f          	j	800010c0 <vsnprintf+0xd44>
80001e20:	03412603          	lw	a2,52(sp)
80001e24:	fff00693          	li	a3,-1
80001e28:	01f00793          	li	a5,31
80001e2c:	0016d713          	srli	a4,a3,0x1
80001e30:	40c787b3          	sub	a5,a5,a2
80001e34:	00f757b3          	srl	a5,a4,a5
80001e38:	00c69733          	sll	a4,a3,a2
80001e3c:	00e7e733          	or	a4,a5,a4
80001e40:	00c697b3          	sll	a5,a3,a2
80001e44:	ef1ff06f          	j	80001d34 <vsnprintf+0x19b8>
80001e48:	03100793          	li	a5,49
80001e4c:	06f10023          	sb	a5,96(sp)
80001e50:	07010693          	addi	a3,sp,112
80001e54:	06110793          	addi	a5,sp,97
80001e58:	03000713          	li	a4,48
80001e5c:	00e78023          	sb	a4,0(a5)
80001e60:	00178793          	addi	a5,a5,1
80001e64:	fef69ce3          	bne	a3,a5,80001e5c <vsnprintf+0x1ae0>
80001e68:	01000793          	li	a5,16
80001e6c:	02f12623          	sw	a5,44(sp)
80001e70:	06010793          	addi	a5,sp,96
80001e74:	00000593          	li	a1,0
80001e78:	00f12823          	sw	a5,16(sp)
80001e7c:	ef4ff06f          	j	80001570 <vsnprintf+0x11f4>
80001e80:	00048713          	mv	a4,s1
80001e84:	00000693          	li	a3,0
80001e88:	f3dfe06f          	j	80000dc4 <vsnprintf+0xa48>
80001e8c:	00078693          	mv	a3,a5
80001e90:	f30ff06f          	j	800015c0 <vsnprintf+0x1244>
80001e94:	00028413          	mv	s0,t0
80001e98:	81dfe06f          	j	800006b4 <vsnprintf+0x338>

80001e9c <printf>:
80001e9c:	fd810113          	addi	sp,sp,-40
80001ea0:	fffff2b7          	lui	t0,0xfffff
80001ea4:	00112823          	sw	ra,16(sp)
80001ea8:	00912423          	sw	s1,8(sp)
80001eac:	00812623          	sw	s0,12(sp)
80001eb0:	00510133          	add	sp,sp,t0
80001eb4:	000012b7          	lui	t0,0x1
80001eb8:	fffff337          	lui	t1,0xfffff
80001ebc:	00428393          	addi	t2,t0,4 # 1004 <_entry_offset+0x1004>
80001ec0:	006383b3          	add	t2,t2,t1
80001ec4:	00410313          	addi	t1,sp,4
80001ec8:	00410093          	addi	ra,sp,4
80001ecc:	00638333          	add	t1,t2,t1
80001ed0:	01028393          	addi	t2,t0,16
80001ed4:	00612023          	sw	t1,0(sp)
80001ed8:	001383b3          	add	t2,t2,ra
80001edc:	00b3a023          	sw	a1,0(t2)
80001ee0:	01428593          	addi	a1,t0,20
80001ee4:	001585b3          	add	a1,a1,ra
80001ee8:	00c5a023          	sw	a2,0(a1)
80001eec:	01828613          	addi	a2,t0,24
80001ef0:	00160633          	add	a2,a2,ra
80001ef4:	01c28393          	addi	t2,t0,28
80001ef8:	00d62023          	sw	a3,0(a2)
80001efc:	001383b3          	add	t2,t2,ra
80001f00:	00050613          	mv	a2,a0
80001f04:	00012503          	lw	a0,0(sp)
80001f08:	00e3a023          	sw	a4,0(t2)
80001f0c:	02028713          	addi	a4,t0,32
80001f10:	00170733          	add	a4,a4,ra
80001f14:	00f72023          	sw	a5,0(a4)
80001f18:	00012783          	lw	a5,0(sp)
80001f1c:	01428313          	addi	t1,t0,20
80001f20:	00230333          	add	t1,t1,sp
80001f24:	00030693          	mv	a3,t1
80001f28:	000015b7          	lui	a1,0x1
80001f2c:	fe67ae23          	sw	t1,-4(a5)
80001f30:	c4cfe0ef          	jal	8000037c <vsnprintf>
80001f34:	00012783          	lw	a5,0(sp)
80001f38:	00050493          	mv	s1,a0
80001f3c:	0007c503          	lbu	a0,0(a5)
80001f40:	00050c63          	beqz	a0,80001f58 <printf+0xbc>
80001f44:	00178413          	addi	s0,a5,1
80001f48:	a34fe0ef          	jal	8000017c <putch>
80001f4c:	00044503          	lbu	a0,0(s0)
80001f50:	00140413          	addi	s0,s0,1
80001f54:	fe051ae3          	bnez	a0,80001f48 <printf+0xac>
80001f58:	000012b7          	lui	t0,0x1
80001f5c:	00510133          	add	sp,sp,t0
80001f60:	01012083          	lw	ra,16(sp)
80001f64:	00048513          	mv	a0,s1
80001f68:	00c12403          	lw	s0,12(sp)
80001f6c:	00812483          	lw	s1,8(sp)
80001f70:	02810113          	addi	sp,sp,40
80001f74:	00008067          	ret

80001f78 <__udivmoddi4>:
80001f78:	fdc10113          	addi	sp,sp,-36
80001f7c:	00812e23          	sw	s0,28(sp)
80001f80:	02112023          	sw	ra,32(sp)
80001f84:	00060413          	mv	s0,a2
80001f88:	00050293          	mv	t0,a0
80001f8c:	00070613          	mv	a2,a4
80001f90:	04059663          	bnez	a1,80001fdc <__udivmoddi4+0x64>
80001f94:	20069e63          	bnez	a3,800021b0 <__udivmoddi4+0x238>
80001f98:	00e12023          	sw	a4,0(sp)
80001f9c:	02070063          	beqz	a4,80001fbc <__udivmoddi4+0x44>
80001fa0:	00040593          	mv	a1,s0
80001fa4:	00a12223          	sw	a0,4(sp)
80001fa8:	66c000ef          	jal	80002614 <__umodsi3>
80001fac:	00012603          	lw	a2,0(sp)
80001fb0:	00412283          	lw	t0,4(sp)
80001fb4:	00a62023          	sw	a0,0(a2)
80001fb8:	00062223          	sw	zero,4(a2)
80001fbc:	00040593          	mv	a1,s0
80001fc0:	00028513          	mv	a0,t0
80001fc4:	608000ef          	jal	800025cc <__hidden___udivsi3>
80001fc8:	00000593          	li	a1,0
80001fcc:	02012083          	lw	ra,32(sp)
80001fd0:	01c12403          	lw	s0,28(sp)
80001fd4:	02410113          	addi	sp,sp,36
80001fd8:	00008067          	ret
80001fdc:	00912c23          	sw	s1,24(sp)
80001fe0:	00058313          	mv	t1,a1
80001fe4:	00040493          	mv	s1,s0
80001fe8:	08041a63          	bnez	s0,8000207c <__udivmoddi4+0x104>
80001fec:	22068e63          	beqz	a3,80002228 <__udivmoddi4+0x2b0>
80001ff0:	2c050663          	beqz	a0,800022bc <__udivmoddi4+0x344>
80001ff4:	fff68793          	addi	a5,a3,-1
80001ff8:	00d7f5b3          	and	a1,a5,a3
80001ffc:	32058063          	beqz	a1,8000231c <__udivmoddi4+0x3a4>
80002000:	00a12823          	sw	a0,16(sp)
80002004:	00068513          	mv	a0,a3
80002008:	00612a23          	sw	t1,20(sp)
8000200c:	00c12623          	sw	a2,12(sp)
80002010:	00612023          	sw	t1,0(sp)
80002014:	00d12423          	sw	a3,8(sp)
80002018:	4a4000ef          	jal	800024bc <__clzsi2>
8000201c:	00012703          	lw	a4,0(sp)
80002020:	00050793          	mv	a5,a0
80002024:	00f12023          	sw	a5,0(sp)
80002028:	00070513          	mv	a0,a4
8000202c:	00e12223          	sw	a4,4(sp)
80002030:	48c000ef          	jal	800024bc <__clzsi2>
80002034:	00012783          	lw	a5,0(sp)
80002038:	00412703          	lw	a4,4(sp)
8000203c:	00812683          	lw	a3,8(sp)
80002040:	40a78533          	sub	a0,a5,a0
80002044:	01e00793          	li	a5,30
80002048:	00c12603          	lw	a2,12(sp)
8000204c:	01012283          	lw	t0,16(sp)
80002050:	01412303          	lw	t1,20(sp)
80002054:	1ca7ec63          	bltu	a5,a0,8000222c <__udivmoddi4+0x2b4>
80002058:	00150393          	addi	t2,a0,1
8000205c:	02000513          	li	a0,32
80002060:	40750533          	sub	a0,a0,t2
80002064:	00a71333          	sll	t1,a4,a0
80002068:	0072d5b3          	srl	a1,t0,t2
8000206c:	007757b3          	srl	a5,a4,t2
80002070:	00a29533          	sll	a0,t0,a0
80002074:	00b36733          	or	a4,t1,a1
80002078:	0800006f          	j	800020f8 <__udivmoddi4+0x180>
8000207c:	14068663          	beqz	a3,800021c8 <__udivmoddi4+0x250>
80002080:	00a12423          	sw	a0,8(sp)
80002084:	00068513          	mv	a0,a3
80002088:	00c12223          	sw	a2,4(sp)
8000208c:	00b12623          	sw	a1,12(sp)
80002090:	00b12023          	sw	a1,0(sp)
80002094:	00d12823          	sw	a3,16(sp)
80002098:	424000ef          	jal	800024bc <__clzsi2>
8000209c:	00012703          	lw	a4,0(sp)
800020a0:	00050493          	mv	s1,a0
800020a4:	00070513          	mv	a0,a4
800020a8:	414000ef          	jal	800024bc <__clzsi2>
800020ac:	40a48533          	sub	a0,s1,a0
800020b0:	01f00793          	li	a5,31
800020b4:	00412603          	lw	a2,4(sp)
800020b8:	00812283          	lw	t0,8(sp)
800020bc:	00c12303          	lw	t1,12(sp)
800020c0:	16a7e663          	bltu	a5,a0,8000222c <__udivmoddi4+0x2b4>
800020c4:	00150393          	addi	t2,a0,1
800020c8:	02000793          	li	a5,32
800020cc:	00012703          	lw	a4,0(sp)
800020d0:	01012683          	lw	a3,16(sp)
800020d4:	00028513          	mv	a0,t0
800020d8:	26f38a63          	beq	t2,a5,8000234c <__udivmoddi4+0x3d4>
800020dc:	407785b3          	sub	a1,a5,t2
800020e0:	0072d333          	srl	t1,t0,t2
800020e4:	00b712b3          	sll	t0,a4,a1
800020e8:	007757b3          	srl	a5,a4,t2
800020ec:	00b51533          	sll	a0,a0,a1
800020f0:	0062e733          	or	a4,t0,t1
800020f4:	00000493          	li	s1,0
800020f8:	00c12223          	sw	a2,4(sp)
800020fc:	00068613          	mv	a2,a3
80002100:	00012023          	sw	zero,0(sp)
80002104:	00078693          	mv	a3,a5
80002108:	00060793          	mv	a5,a2
8000210c:	01f55593          	srli	a1,a0,0x1f
80002110:	00171613          	slli	a2,a4,0x1
80002114:	00b66633          	or	a2,a2,a1
80002118:	01f75713          	srli	a4,a4,0x1f
8000211c:	00169693          	slli	a3,a3,0x1
80002120:	00e6e6b3          	or	a3,a3,a4
80002124:	40c40733          	sub	a4,s0,a2
80002128:	40d78333          	sub	t1,a5,a3
8000212c:	00e435b3          	sltu	a1,s0,a4
80002130:	40b305b3          	sub	a1,t1,a1
80002134:	00173713          	seqz	a4,a4
80002138:	40e585b3          	sub	a1,a1,a4
8000213c:	41f5d313          	srai	t1,a1,0x1f
80002140:	00837733          	and	a4,t1,s0
80002144:	00f37333          	and	t1,t1,a5
80002148:	406686b3          	sub	a3,a3,t1
8000214c:	00012303          	lw	t1,0(sp)
80002150:	40e60733          	sub	a4,a2,a4
80002154:	01f5d593          	srli	a1,a1,0x1f
80002158:	01f4d293          	srli	t0,s1,0x1f
8000215c:	00151513          	slli	a0,a0,0x1
80002160:	00149493          	slli	s1,s1,0x1
80002164:	00e63633          	sltu	a2,a2,a4
80002168:	fff38393          	addi	t2,t2,-1
8000216c:	00b12023          	sw	a1,0(sp)
80002170:	0064e4b3          	or	s1,s1,t1
80002174:	00556533          	or	a0,a0,t0
80002178:	40c686b3          	sub	a3,a3,a2
8000217c:	f80398e3          	bnez	t2,8000210c <__udivmoddi4+0x194>
80002180:	00412603          	lw	a2,4(sp)
80002184:	00060663          	beqz	a2,80002190 <__udivmoddi4+0x218>
80002188:	00e62023          	sw	a4,0(a2)
8000218c:	00d62223          	sw	a3,4(a2)
80002190:	00012703          	lw	a4,0(sp)
80002194:	01f4d313          	srli	t1,s1,0x1f
80002198:	00151793          	slli	a5,a0,0x1
8000219c:	00149513          	slli	a0,s1,0x1
800021a0:	00e56533          	or	a0,a0,a4
800021a4:	01812483          	lw	s1,24(sp)
800021a8:	00f365b3          	or	a1,t1,a5
800021ac:	e21ff06f          	j	80001fcc <__udivmoddi4+0x54>
800021b0:	00070663          	beqz	a4,800021bc <__udivmoddi4+0x244>
800021b4:	00a62023          	sw	a0,0(a2)
800021b8:	00072223          	sw	zero,4(a4)
800021bc:	00000513          	li	a0,0
800021c0:	00000593          	li	a1,0
800021c4:	e09ff06f          	j	80001fcc <__udivmoddi4+0x54>
800021c8:	fff40593          	addi	a1,s0,-1
800021cc:	0085f533          	and	a0,a1,s0
800021d0:	06051863          	bnez	a0,80002240 <__udivmoddi4+0x2c8>
800021d4:	00060863          	beqz	a2,800021e4 <__udivmoddi4+0x26c>
800021d8:	0055f5b3          	and	a1,a1,t0
800021dc:	00b62023          	sw	a1,0(a2)
800021e0:	00062223          	sw	zero,4(a2)
800021e4:	00100793          	li	a5,1
800021e8:	10f40e63          	beq	s0,a5,80002304 <__udivmoddi4+0x38c>
800021ec:	00040513          	mv	a0,s0
800021f0:	00612223          	sw	t1,4(sp)
800021f4:	00512023          	sw	t0,0(sp)
800021f8:	354000ef          	jal	8000254c <__ctzsi2>
800021fc:	00412303          	lw	t1,4(sp)
80002200:	00012283          	lw	t0,0(sp)
80002204:	02000713          	li	a4,32
80002208:	40a70733          	sub	a4,a4,a0
8000220c:	00050793          	mv	a5,a0
80002210:	00e31733          	sll	a4,t1,a4
80002214:	00a2d2b3          	srl	t0,t0,a0
80002218:	01812483          	lw	s1,24(sp)
8000221c:	00576533          	or	a0,a4,t0
80002220:	00f355b3          	srl	a1,t1,a5
80002224:	da9ff06f          	j	80001fcc <__udivmoddi4+0x54>
80002228:	00100073          	ebreak
8000222c:	0e060463          	beqz	a2,80002314 <__udivmoddi4+0x39c>
80002230:	01812483          	lw	s1,24(sp)
80002234:	00562023          	sw	t0,0(a2)
80002238:	00662223          	sw	t1,4(a2)
8000223c:	f81ff06f          	j	800021bc <__udivmoddi4+0x244>
80002240:	00040513          	mv	a0,s0
80002244:	00d12823          	sw	a3,16(sp)
80002248:	00512623          	sw	t0,12(sp)
8000224c:	00c12423          	sw	a2,8(sp)
80002250:	00612023          	sw	t1,0(sp)
80002254:	00d12223          	sw	a3,4(sp)
80002258:	264000ef          	jal	800024bc <__clzsi2>
8000225c:	00012703          	lw	a4,0(sp)
80002260:	00050493          	mv	s1,a0
80002264:	00070513          	mv	a0,a4
80002268:	254000ef          	jal	800024bc <__clzsi2>
8000226c:	00c12283          	lw	t0,12(sp)
80002270:	40a485b3          	sub	a1,s1,a0
80002274:	02158393          	addi	t2,a1,33 # 1021 <_entry_offset+0x1021>
80002278:	02000313          	li	t1,32
8000227c:	00012703          	lw	a4,0(sp)
80002280:	00412783          	lw	a5,4(sp)
80002284:	00812603          	lw	a2,8(sp)
80002288:	01012683          	lw	a3,16(sp)
8000228c:	00028513          	mv	a0,t0
80002290:	00000493          	li	s1,0
80002294:	e66382e3          	beq	t2,t1,800020f8 <__udivmoddi4+0x180>
80002298:	01f00293          	li	t0,31
8000229c:	0a72ee63          	bltu	t0,t2,80002358 <__udivmoddi4+0x3e0>
800022a0:	40730333          	sub	t1,t1,t2
800022a4:	007555b3          	srl	a1,a0,t2
800022a8:	007757b3          	srl	a5,a4,t2
800022ac:	00671733          	sll	a4,a4,t1
800022b0:	00b76733          	or	a4,a4,a1
800022b4:	00651533          	sll	a0,a0,t1
800022b8:	e41ff06f          	j	800020f8 <__udivmoddi4+0x180>
800022bc:	00c12023          	sw	a2,0(sp)
800022c0:	02060663          	beqz	a2,800022ec <__udivmoddi4+0x374>
800022c4:	00068593          	mv	a1,a3
800022c8:	00030513          	mv	a0,t1
800022cc:	00d12423          	sw	a3,8(sp)
800022d0:	00612223          	sw	t1,4(sp)
800022d4:	340000ef          	jal	80002614 <__umodsi3>
800022d8:	00012603          	lw	a2,0(sp)
800022dc:	00812683          	lw	a3,8(sp)
800022e0:	00412303          	lw	t1,4(sp)
800022e4:	00062023          	sw	zero,0(a2)
800022e8:	00a62223          	sw	a0,4(a2)
800022ec:	00068593          	mv	a1,a3
800022f0:	00030513          	mv	a0,t1
800022f4:	2d8000ef          	jal	800025cc <__hidden___udivsi3>
800022f8:	00000593          	li	a1,0
800022fc:	01812483          	lw	s1,24(sp)
80002300:	ccdff06f          	j	80001fcc <__udivmoddi4+0x54>
80002304:	01812483          	lw	s1,24(sp)
80002308:	00028513          	mv	a0,t0
8000230c:	00030593          	mv	a1,t1
80002310:	cbdff06f          	j	80001fcc <__udivmoddi4+0x54>
80002314:	01812483          	lw	s1,24(sp)
80002318:	ea5ff06f          	j	800021bc <__udivmoddi4+0x244>
8000231c:	00060863          	beqz	a2,8000232c <__udivmoddi4+0x3b4>
80002320:	0067f7b3          	and	a5,a5,t1
80002324:	00a62023          	sw	a0,0(a2)
80002328:	00f62223          	sw	a5,4(a2)
8000232c:	00068513          	mv	a0,a3
80002330:	00612023          	sw	t1,0(sp)
80002334:	218000ef          	jal	8000254c <__ctzsi2>
80002338:	00012303          	lw	t1,0(sp)
8000233c:	01812483          	lw	s1,24(sp)
80002340:	00000593          	li	a1,0
80002344:	00a35533          	srl	a0,t1,a0
80002348:	c85ff06f          	j	80001fcc <__udivmoddi4+0x54>
8000234c:	00000793          	li	a5,0
80002350:	00000493          	li	s1,0
80002354:	da5ff06f          	j	800020f8 <__udivmoddi4+0x180>
80002358:	04000493          	li	s1,64
8000235c:	407484b3          	sub	s1,s1,t2
80002360:	00158593          	addi	a1,a1,1
80002364:	009712b3          	sll	t0,a4,s1
80002368:	00b55333          	srl	t1,a0,a1
8000236c:	009514b3          	sll	s1,a0,s1
80002370:	00b75733          	srl	a4,a4,a1
80002374:	0062e533          	or	a0,t0,t1
80002378:	d81ff06f          	j	800020f8 <__udivmoddi4+0x180>

8000237c <__divdi3>:
8000237c:	41f5d313          	srai	t1,a1,0x1f
80002380:	41f6d793          	srai	a5,a3,0x1f
80002384:	006542b3          	xor	t0,a0,t1
80002388:	00f643b3          	xor	t2,a2,a5
8000238c:	40f38633          	sub	a2,t2,a5
80002390:	40628533          	sub	a0,t0,t1
80002394:	0065c5b3          	xor	a1,a1,t1
80002398:	00f6c6b3          	xor	a3,a3,a5
8000239c:	00c3b3b3          	sltu	t2,t2,a2
800023a0:	40f686b3          	sub	a3,a3,a5
800023a4:	00a2b2b3          	sltu	t0,t0,a0
800023a8:	406585b3          	sub	a1,a1,t1
800023ac:	ff410113          	addi	sp,sp,-12
800023b0:	00000713          	li	a4,0
800023b4:	407686b3          	sub	a3,a3,t2
800023b8:	405585b3          	sub	a1,a1,t0
800023bc:	00812223          	sw	s0,4(sp)
800023c0:	00112423          	sw	ra,8(sp)
800023c4:	00f34433          	xor	s0,t1,a5
800023c8:	bb1ff0ef          	jal	80001f78 <__udivmoddi4>
800023cc:	00854733          	xor	a4,a0,s0
800023d0:	0085c5b3          	xor	a1,a1,s0
800023d4:	40870533          	sub	a0,a4,s0
800023d8:	00812083          	lw	ra,8(sp)
800023dc:	408585b3          	sub	a1,a1,s0
800023e0:	00412403          	lw	s0,4(sp)
800023e4:	00a73733          	sltu	a4,a4,a0
800023e8:	40e585b3          	sub	a1,a1,a4
800023ec:	00c10113          	addi	sp,sp,12
800023f0:	00008067          	ret

800023f4 <__moddi3>:
800023f4:	fe810113          	addi	sp,sp,-24
800023f8:	00812823          	sw	s0,16(sp)
800023fc:	41f6d313          	srai	t1,a3,0x1f
80002400:	41f5d413          	srai	s0,a1,0x1f
80002404:	00854733          	xor	a4,a0,s0
80002408:	006647b3          	xor	a5,a2,t1
8000240c:	00912623          	sw	s1,12(sp)
80002410:	40870533          	sub	a0,a4,s0
80002414:	40678633          	sub	a2,a5,t1
80002418:	0066c6b3          	xor	a3,a3,t1
8000241c:	0085c5b3          	xor	a1,a1,s0
80002420:	00710493          	addi	s1,sp,7
80002424:	ff84f493          	andi	s1,s1,-8
80002428:	00c7b7b3          	sltu	a5,a5,a2
8000242c:	406686b3          	sub	a3,a3,t1
80002430:	408585b3          	sub	a1,a1,s0
80002434:	00a73333          	sltu	t1,a4,a0
80002438:	40f686b3          	sub	a3,a3,a5
8000243c:	00048713          	mv	a4,s1
80002440:	406585b3          	sub	a1,a1,t1
80002444:	00112a23          	sw	ra,20(sp)
80002448:	b31ff0ef          	jal	80001f78 <__udivmoddi4>
8000244c:	0004a783          	lw	a5,0(s1)
80002450:	0044a583          	lw	a1,4(s1)
80002454:	01412083          	lw	ra,20(sp)
80002458:	0087c7b3          	xor	a5,a5,s0
8000245c:	0085c5b3          	xor	a1,a1,s0
80002460:	40878533          	sub	a0,a5,s0
80002464:	408585b3          	sub	a1,a1,s0
80002468:	01012403          	lw	s0,16(sp)
8000246c:	00a7b7b3          	sltu	a5,a5,a0
80002470:	00c12483          	lw	s1,12(sp)
80002474:	40f585b3          	sub	a1,a1,a5
80002478:	01810113          	addi	sp,sp,24
8000247c:	00008067          	ret

80002480 <__udivdi3>:
80002480:	00000713          	li	a4,0
80002484:	af5ff06f          	j	80001f78 <__udivmoddi4>

80002488 <__umoddi3>:
80002488:	fe810113          	addi	sp,sp,-24
8000248c:	00812823          	sw	s0,16(sp)
80002490:	00710413          	addi	s0,sp,7
80002494:	ff847413          	andi	s0,s0,-8
80002498:	00040713          	mv	a4,s0
8000249c:	00112a23          	sw	ra,20(sp)
800024a0:	ad9ff0ef          	jal	80001f78 <__udivmoddi4>
800024a4:	00042503          	lw	a0,0(s0)
800024a8:	00442583          	lw	a1,4(s0)
800024ac:	01412083          	lw	ra,20(sp)
800024b0:	01012403          	lw	s0,16(sp)
800024b4:	01810113          	addi	sp,sp,24
800024b8:	00008067          	ret

800024bc <__clzsi2>:
800024bc:	000105b7          	lui	a1,0x10
800024c0:	00b535b3          	sltu	a1,a0,a1
800024c4:	00459593          	slli	a1,a1,0x4
800024c8:	01000793          	li	a5,16
800024cc:	40b787b3          	sub	a5,a5,a1
800024d0:	00010737          	lui	a4,0x10
800024d4:	00f557b3          	srl	a5,a0,a5
800024d8:	f0070713          	addi	a4,a4,-256 # ff00 <_entry_offset+0xff00>
800024dc:	00e7f733          	and	a4,a5,a4
800024e0:	00173713          	seqz	a4,a4
800024e4:	00371713          	slli	a4,a4,0x3
800024e8:	00800693          	li	a3,8
800024ec:	40e686b3          	sub	a3,a3,a4
800024f0:	00d7d7b3          	srl	a5,a5,a3
800024f4:	0f07f693          	andi	a3,a5,240
800024f8:	0016b693          	seqz	a3,a3
800024fc:	00269693          	slli	a3,a3,0x2
80002500:	00400613          	li	a2,4
80002504:	40d60633          	sub	a2,a2,a3
80002508:	00c7d7b3          	srl	a5,a5,a2
8000250c:	00c7f613          	andi	a2,a5,12
80002510:	00163613          	seqz	a2,a2
80002514:	00200513          	li	a0,2
80002518:	00161613          	slli	a2,a2,0x1
8000251c:	40c50333          	sub	t1,a0,a2
80002520:	0067d7b3          	srl	a5,a5,t1
80002524:	0017d313          	srli	t1,a5,0x1
80002528:	00b70733          	add	a4,a4,a1
8000252c:	00137593          	andi	a1,t1,1
80002530:	00e686b3          	add	a3,a3,a4
80002534:	40f50533          	sub	a0,a0,a5
80002538:	00058463          	beqz	a1,80002540 <__clzsi2+0x84>
8000253c:	00000513          	li	a0,0
80002540:	00d606b3          	add	a3,a2,a3
80002544:	00d50533          	add	a0,a0,a3
80002548:	00008067          	ret

8000254c <__ctzsi2>:
8000254c:	01051593          	slli	a1,a0,0x10
80002550:	0105d593          	srli	a1,a1,0x10
80002554:	0015b593          	seqz	a1,a1
80002558:	00459593          	slli	a1,a1,0x4
8000255c:	00b557b3          	srl	a5,a0,a1
80002560:	0ff7f613          	zext.b	a2,a5
80002564:	00163613          	seqz	a2,a2
80002568:	00361613          	slli	a2,a2,0x3
8000256c:	00c7d7b3          	srl	a5,a5,a2
80002570:	00f7f693          	andi	a3,a5,15
80002574:	0016b693          	seqz	a3,a3
80002578:	00269693          	slli	a3,a3,0x2
8000257c:	00d7d7b3          	srl	a5,a5,a3
80002580:	0037f713          	andi	a4,a5,3
80002584:	00173713          	seqz	a4,a4
80002588:	00171713          	slli	a4,a4,0x1
8000258c:	00e7d7b3          	srl	a5,a5,a4
80002590:	0017d513          	srli	a0,a5,0x1
80002594:	fff7c793          	not	a5,a5
80002598:	00b60633          	add	a2,a2,a1
8000259c:	0017f793          	andi	a5,a5,1
800025a0:	00157593          	andi	a1,a0,1
800025a4:	00200513          	li	a0,2
800025a8:	40b50533          	sub	a0,a0,a1
800025ac:	00c686b3          	add	a3,a3,a2
800025b0:	40f007b3          	neg	a5,a5
800025b4:	00f577b3          	and	a5,a0,a5
800025b8:	00d70533          	add	a0,a4,a3
800025bc:	00a78533          	add	a0,a5,a0
800025c0:	00008067          	ret

800025c4 <__divsi3>:
800025c4:	06054063          	bltz	a0,80002624 <__umodsi3+0x10>
800025c8:	0605c663          	bltz	a1,80002634 <__umodsi3+0x20>

800025cc <__hidden___udivsi3>:
800025cc:	00058613          	mv	a2,a1
800025d0:	00050593          	mv	a1,a0
800025d4:	fff00513          	li	a0,-1
800025d8:	02060c63          	beqz	a2,80002610 <__hidden___udivsi3+0x44>
800025dc:	00100693          	li	a3,1
800025e0:	00b67a63          	bgeu	a2,a1,800025f4 <__hidden___udivsi3+0x28>
800025e4:	00c05863          	blez	a2,800025f4 <__hidden___udivsi3+0x28>
800025e8:	00161613          	slli	a2,a2,0x1
800025ec:	00169693          	slli	a3,a3,0x1
800025f0:	feb66ae3          	bltu	a2,a1,800025e4 <__hidden___udivsi3+0x18>
800025f4:	00000513          	li	a0,0
800025f8:	00c5e663          	bltu	a1,a2,80002604 <__hidden___udivsi3+0x38>
800025fc:	40c585b3          	sub	a1,a1,a2
80002600:	00d56533          	or	a0,a0,a3
80002604:	0016d693          	srli	a3,a3,0x1
80002608:	00165613          	srli	a2,a2,0x1
8000260c:	fe0696e3          	bnez	a3,800025f8 <__hidden___udivsi3+0x2c>
80002610:	00008067          	ret

80002614 <__umodsi3>:
80002614:	00008293          	mv	t0,ra
80002618:	fb5ff0ef          	jal	800025cc <__hidden___udivsi3>
8000261c:	00058513          	mv	a0,a1
80002620:	00028067          	jr	t0 # 1000 <_entry_offset+0x1000>
80002624:	40a00533          	neg	a0,a0
80002628:	00b04863          	bgtz	a1,80002638 <__umodsi3+0x24>
8000262c:	40b005b3          	neg	a1,a1
80002630:	f9dff06f          	j	800025cc <__hidden___udivsi3>
80002634:	40b005b3          	neg	a1,a1
80002638:	00008293          	mv	t0,ra
8000263c:	f91ff0ef          	jal	800025cc <__hidden___udivsi3>
80002640:	40a00533          	neg	a0,a0
80002644:	00028067          	jr	t0

80002648 <__modsi3>:
80002648:	00008293          	mv	t0,ra
8000264c:	0005ca63          	bltz	a1,80002660 <__modsi3+0x18>
80002650:	00054c63          	bltz	a0,80002668 <__modsi3+0x20>
80002654:	f79ff0ef          	jal	800025cc <__hidden___udivsi3>
80002658:	00058513          	mv	a0,a1
8000265c:	00028067          	jr	t0
80002660:	40b005b3          	neg	a1,a1
80002664:	fe0558e3          	bgez	a0,80002654 <__modsi3+0xc>
80002668:	40a00533          	neg	a0,a0
8000266c:	f61ff0ef          	jal	800025cc <__hidden___udivsi3>
80002670:	40b00533          	neg	a0,a1
80002674:	00028067          	jr	t0
