[1;34m[src/utils/log.c:30 init_log] Log is written to /home/mubai/ysyx-workbench/am-kernels/kernels/hello/build/nemu-log.txt[0m
[1;34m[src/memory/paddr.c:112 init_mem] physical memory area [0x80000000, 0x87ffffff][0m
[1;34m[src/device/io/mmio.c:50 add_mmio_map] Add mmio map 'serial' at [0xa00003f8, 0xa00003ff][0m
[1;34m[src/device/io/mmio.c:50 add_mmio_map] Add mmio map 'rtc' at [0xa0000048, 0xa000004f][0m
[1;34m[src/device/io/mmio.c:50 add_mmio_map] Add mmio map 'vgactl' at [0xa0000100, 0xa0000107][0m
[1;34m[src/device/io/mmio.c:50 add_mmio_map] Add mmio map 'vmem' at [0xa1000000, 0xa10752ff][0m
[1;34m[src/device/io/mmio.c:50 add_mmio_map] Add mmio map 'keyboard' at [0xa0000060, 0xa0000063][0m
[1;34m[src/device/io/mmio.c:50 add_mmio_map] Add mmio map 'audio' at [0xa0000200, 0xa0000217][0m
[1;34m[src/device/io/mmio.c:50 add_mmio_map] Add mmio map 'audio-sbuf' at [0xa1200000, 0xa120ffff][0m
[1;34m[src/monitor/monitor.c:215 load_img] The image is /home/mubai/ysyx-workbench/am-kernels/kernels/hello/build/hello-riscv32-nemu.bin, size = 11756[0m
[1;34m[src/cpu/difftest/dut.c:84 init_difftest] Differential testing: [1;32mON[0m[0m
[1;34m[src/cpu/difftest/dut.c:85 init_difftest] The result of every instruction will be compared with /home/mubai/ysyx-workbench/nemu/tools/spike-diff/build/riscv32-spike-so. This will help you a lot for debugging, but also significantly reduce the performance. If it is not necessary, you can turn it off in menuconfig.[0m
[1;34m[src/monitor/monitor.c:34 welcome] Trace: [1;32mON[0m[0m
[1;34m[src/monitor/monitor.c:35 welcome] Itrace: [1;32mON[0m[0m
[1;34m[src/monitor/monitor.c:36 welcome] Ftrace: [1;31mOFF[0m[0m
[1;34m[src/monitor/monitor.c:37 welcome] Mtrace: [1;31mOFF[0m[0m
[1;34m[src/monitor/monitor.c:38 welcome] Dtrace: [1;31mOFF[0m[0m
[1;34m[src/monitor/monitor.c:39 welcome] Etrace: [1;31mOFF[0m[0m
[1;34m[src/monitor/monitor.c:40 welcome] If trace is enabled, a log file will be generated to record the trace. This may lead to a large log file. If it is not necessary, you can disable it in menuconfig[0m
[1;34m[src/monitor/monitor.c:43 welcome] Build time: 10:50:00, Aug  2 2025[0m
0x80000000: 00 00 04 13 mv	s0, zero
0x80000004: 00 00 b1 17 auipc	sp, 0xb
0x80000008: ff c1 01 13 addi	sp, sp, -4
0x8000000c: 3b 00 00 ef jal	0x3b0
0x800003bc: ff 01 01 13 addi	sp, sp, -0x10
0x800003c0: 00 00 15 17 auipc	a0, 1
0x800003c4: 70 85 05 13 addi	a0, a0, 0x708
0x800003c8: 00 11 26 23 sw	ra, 0xc(sp)
0x800003cc: e5 5f f0 ef jal	-0x1ac
0x80000220: fe 01 01 13 addi	sp, sp, -0x20
0x80000224: 00 81 2c 23 sw	s0, 0x18(sp)
0x80000228: 00 11 2e 23 sw	ra, 0x1c(sp)
0x8000022c: 00 00 14 17 auipc	s0, 1
0x80000230: 64 c4 04 13 addi	s0, s0, 0x64c
0x80000234: 04 80 05 13 addi	a0, zero, 0x48
0x80000238: 16 c0 00 ef jal	0x16c
0x800003a4: a0 00 07 b7 lui	a5, 0xa0000
0x800003a8: 3e a7 8c 23 sb	a0, 0x3f8(a5)
0x800003ac: 00 00 80 67 ret
0x8000023c: 00 14 45 03 lbu	a0, 1(s0)
0x80000240: 00 14 04 13 addi	s0, s0, 1
0x80000244: fe 05 1a e3 bnez	a0, -0xc
0x80000238: 16 c0 00 ef jal	0x16c
0x800003a4: a0 00 07 b7 lui	a5, 0xa0000
0x800003a8: 3e a7 8c 23 sb	a0, 0x3f8(a5)
0x800003ac: 00 00 80 67 ret
0x8000023c: 00 14 45 03 lbu	a0, 1(s0)
0x80000240: 00 14 04 13 addi	s0, s0, 1
0x80000244: fe 05 1a e3 bnez	a0, -0xc
0x80000238: 16 c0 00 ef jal	0x16c
0x800003a4: a0 00 07 b7 lui	a5, 0xa0000
0x800003a8: 3e a7 8c 23 sb	a0, 0x3f8(a5)
0x800003ac: 00 00 80 67 ret
0x8000023c: 00 14 45 03 lbu	a0, 1(s0)
0x80000240: 00 14 04 13 addi	s0, s0, 1
0x80000244: fe 05 1a e3 bnez	a0, -0xc
0x80000238: 16 c0 00 ef jal	0x16c
0x800003a4: a0 00 07 b7 lui	a5, 0xa0000
0x800003a8: 3e a7 8c 23 sb	a0, 0x3f8(a5)
0x800003ac: 00 00 80 67 ret
0x8000023c: 00 14 45 03 lbu	a0, 1(s0)
0x80000240: 00 14 04 13 addi	s0, s0, 1
0x80000244: fe 05 1a e3 bnez	a0, -0xc
0x80000238: 16 c0 00 ef jal	0x16c
0x800003a4: a0 00 07 b7 lui	a5, 0xa0000
0x800003a8: 3e a7 8c 23 sb	a0, 0x3f8(a5)
0x800003ac: 00 00 80 67 ret
0x8000023c: 00 14 45 03 lbu	a0, 1(s0)
0x80000240: 00 14 04 13 addi	s0, s0, 1
0x80000244: fe 05 1a e3 bnez	a0, -0xc
0x80000238: 16 c0 00 ef jal	0x16c
0x800003a4: a0 00 07 b7 lui	a5, 0xa0000
0x800003a8: 3e a7 8c 23 sb	a0, 0x3f8(a5)
0x800003ac: 00 00 80 67 ret
0x8000023c: 00 14 45 03 lbu	a0, 1(s0)
0x80000240: 00 14 04 13 addi	s0, s0, 1
0x80000244: fe 05 1a e3 bnez	a0, -0xc
0x80000238: 16 c0 00 ef jal	0x16c
0x800003a4: a0 00 07 b7 lui	a5, 0xa0000
0x800003a8: 3e a7 8c 23 sb	a0, 0x3f8(a5)
0x800003ac: 00 00 80 67 ret
0x8000023c: 00 14 45 03 lbu	a0, 1(s0)
0x80000240: 00 14 04 13 addi	s0, s0, 1
0x80000244: fe 05 1a e3 bnez	a0, -0xc
0x80000238: 16 c0 00 ef jal	0x16c
0x800003a4: a0 00 07 b7 lui	a5, 0xa0000
0x800003a8: 3e a7 8c 23 sb	a0, 0x3f8(a5)
0x800003ac: 00 00 80 67 ret
0x8000023c: 00 14 45 03 lbu	a0, 1(s0)
0x80000240: 00 14 04 13 addi	s0, s0, 1
0x80000244: fe 05 1a e3 bnez	a0, -0xc
0x80000238: 16 c0 00 ef jal	0x16c
0x800003a4: a0 00 07 b7 lui	a5, 0xa0000
0x800003a8: 3e a7 8c 23 sb	a0, 0x3f8(a5)
0x800003ac: 00 00 80 67 ret
0x8000023c: 00 14 45 03 lbu	a0, 1(s0)
0x80000240: 00 14 04 13 addi	s0, s0, 1
0x80000244: fe 05 1a e3 bnez	a0, -0xc
0x80000238: 16 c0 00 ef jal	0x16c
0x800003a4: a0 00 07 b7 lui	a5, 0xa0000
0x800003a8: 3e a7 8c 23 sb	a0, 0x3f8(a5)
0x800003ac: 00 00 80 67 ret
0x8000023c: 00 14 45 03 lbu	a0, 1(s0)
0x80000240: 00 14 04 13 addi	s0, s0, 1
0x80000244: fe 05 1a e3 bnez	a0, -0xc
0x80000238: 16 c0 00 ef jal	0x16c
0x800003a4: a0 00 07 b7 lui	a5, 0xa0000
0x800003a8: 3e a7 8c 23 sb	a0, 0x3f8(a5)
0x800003ac: 00 00 80 67 ret
0x8000023c: 00 14 45 03 lbu	a0, 1(s0)
0x80000240: 00 14 04 13 addi	s0, s0, 1
0x80000244: fe 05 1a e3 bnez	a0, -0xc
0x80000238: 16 c0 00 ef jal	0x16c
0x800003a4: a0 00 07 b7 lui	a5, 0xa0000
0x800003a8: 3e a7 8c 23 sb	a0, 0x3f8(a5)
0x800003ac: 00 00 80 67 ret
0x8000023c: 00 14 45 03 lbu	a0, 1(s0)
0x80000240: 00 14 04 13 addi	s0, s0, 1
0x80000244: fe 05 1a e3 bnez	a0, -0xc
0x80000238: 16 c0 00 ef jal	0x16c
0x800003a4: a0 00 07 b7 lui	a5, 0xa0000
0x800003a8: 3e a7 8c 23 sb	a0, 0x3f8(a5)
0x800003ac: 00 00 80 67 ret
0x8000023c: 00 14 45 03 lbu	a0, 1(s0)
0x80000240: 00 14 04 13 addi	s0, s0, 1
0x80000244: fe 05 1a e3 bnez	a0, -0xc
0x80000238: 16 c0 00 ef jal	0x16c
0x800003a4: a0 00 07 b7 lui	a5, 0xa0000
0x800003a8: 3e a7 8c 23 sb	a0, 0x3f8(a5)
0x800003ac: 00 00 80 67 ret
0x8000023c: 00 14 45 03 lbu	a0, 1(s0)
0x80000240: 00 14 04 13 addi	s0, s0, 1
0x80000244: fe 05 1a e3 bnez	a0, -0xc
0x80000238: 16 c0 00 ef jal	0x16c
0x800003a4: a0 00 07 b7 lui	a5, 0xa0000
0x800003a8: 3e a7 8c 23 sb	a0, 0x3f8(a5)
0x800003ac: 00 00 80 67 ret
0x8000023c: 00 14 45 03 lbu	a0, 1(s0)
0x80000240: 00 14 04 13 addi	s0, s0, 1
0x80000244: fe 05 1a e3 bnez	a0, -0xc
0x80000238: 16 c0 00 ef jal	0x16c
0x800003a4: a0 00 07 b7 lui	a5, 0xa0000
0x800003a8: 3e a7 8c 23 sb	a0, 0x3f8(a5)
0x800003ac: 00 00 80 67 ret
0x8000023c: 00 14 45 03 lbu	a0, 1(s0)
0x80000240: 00 14 04 13 addi	s0, s0, 1
0x80000244: fe 05 1a e3 bnez	a0, -0xc
0x80000238: 16 c0 00 ef jal	0x16c
0x800003a4: a0 00 07 b7 lui	a5, 0xa0000
0x800003a8: 3e a7 8c 23 sb	a0, 0x3f8(a5)
0x800003ac: 00 00 80 67 ret
0x8000023c: 00 14 45 03 lbu	a0, 1(s0)
0x80000240: 00 14 04 13 addi	s0, s0, 1
0x80000244: fe 05 1a e3 bnez	a0, -0xc
0x80000238: 16 c0 00 ef jal	0x16c
0x800003a4: a0 00 07 b7 lui	a5, 0xa0000
0x800003a8: 3e a7 8c 23 sb	a0, 0x3f8(a5)
0x800003ac: 00 00 80 67 ret
0x8000023c: 00 14 45 03 lbu	a0, 1(s0)
0x80000240: 00 14 04 13 addi	s0, s0, 1
0x80000244: fe 05 1a e3 bnez	a0, -0xc
0x80000238: 16 c0 00 ef jal	0x16c
0x800003a4: a0 00 07 b7 lui	a5, 0xa0000
0x800003a8: 3e a7 8c 23 sb	a0, 0x3f8(a5)
0x800003ac: 00 00 80 67 ret
0x8000023c: 00 14 45 03 lbu	a0, 1(s0)
0x80000240: 00 14 04 13 addi	s0, s0, 1
0x80000244: fe 05 1a e3 bnez	a0, -0xc
0x80000238: 16 c0 00 ef jal	0x16c
0x800003a4: a0 00 07 b7 lui	a5, 0xa0000
0x800003a8: 3e a7 8c 23 sb	a0, 0x3f8(a5)
0x800003ac: 00 00 80 67 ret
0x8000023c: 00 14 45 03 lbu	a0, 1(s0)
0x80000240: 00 14 04 13 addi	s0, s0, 1
0x80000244: fe 05 1a e3 bnez	a0, -0xc
0x80000238: 16 c0 00 ef jal	0x16c
0x800003a4: a0 00 07 b7 lui	a5, 0xa0000
0x800003a8: 3e a7 8c 23 sb	a0, 0x3f8(a5)
0x800003ac: 00 00 80 67 ret
0x8000023c: 00 14 45 03 lbu	a0, 1(s0)
0x80000240: 00 14 04 13 addi	s0, s0, 1
0x80000244: fe 05 1a e3 bnez	a0, -0xc
0x80000238: 16 c0 00 ef jal	0x16c
0x800003a4: a0 00 07 b7 lui	a5, 0xa0000
0x800003a8: 3e a7 8c 23 sb	a0, 0x3f8(a5)
0x800003ac: 00 00 80 67 ret
0x8000023c: 00 14 45 03 lbu	a0, 1(s0)
0x80000240: 00 14 04 13 addi	s0, s0, 1
0x80000244: fe 05 1a e3 bnez	a0, -0xc
0x80000238: 16 c0 00 ef jal	0x16c
0x800003a4: a0 00 07 b7 lui	a5, 0xa0000
0x800003a8: 3e a7 8c 23 sb	a0, 0x3f8(a5)
0x800003ac: 00 00 80 67 ret
0x8000023c: 00 14 45 03 lbu	a0, 1(s0)
0x80000240: 00 14 04 13 addi	s0, s0, 1
0x80000244: fe 05 1a e3 bnez	a0, -0xc
0x80000238: 16 c0 00 ef jal	0x16c
0x800003a4: a0 00 07 b7 lui	a5, 0xa0000
0x800003a8: 3e a7 8c 23 sb	a0, 0x3f8(a5)
0x800003ac: 00 00 80 67 ret
0x8000023c: 00 14 45 03 lbu	a0, 1(s0)
0x80000240: 00 14 04 13 addi	s0, s0, 1
0x80000244: fe 05 1a e3 bnez	a0, -0xc
0x80000248: 00 00 14 17 auipc	s0, 1
0x8000024c: 64 c4 04 13 addi	s0, s0, 0x64c
0x80000250: 05 40 05 13 addi	a0, zero, 0x54
0x80000254: 15 00 00 ef jal	0x150
0x800003a4: a0 00 07 b7 lui	a5, 0xa0000
0x800003a8: 3e a7 8c 23 sb	a0, 0x3f8(a5)
0x800003ac: 00 00 80 67 ret
0x80000258: 00 14 45 03 lbu	a0, 1(s0)
0x8000025c: 00 14 04 13 addi	s0, s0, 1
0x80000260: fe 05 1a e3 bnez	a0, -0xc
0x80000254: 15 00 00 ef jal	0x150
0x800003a4: a0 00 07 b7 lui	a5, 0xa0000
0x800003a8: 3e a7 8c 23 sb	a0, 0x3f8(a5)
0x800003ac: 00 00 80 67 ret
0x80000258: 00 14 45 03 lbu	a0, 1(s0)
0x8000025c: 00 14 04 13 addi	s0, s0, 1
0x80000260: fe 05 1a e3 bnez	a0, -0xc
0x80000254: 15 00 00 ef jal	0x150
0x800003a4: a0 00 07 b7 lui	a5, 0xa0000
0x800003a8: 3e a7 8c 23 sb	a0, 0x3f8(a5)
0x800003ac: 00 00 80 67 ret
0x80000258: 00 14 45 03 lbu	a0, 1(s0)
0x8000025c: 00 14 04 13 addi	s0, s0, 1
0x80000260: fe 05 1a e3 bnez	a0, -0xc
0x80000254: 15 00 00 ef jal	0x150
0x800003a4: a0 00 07 b7 lui	a5, 0xa0000
0x800003a8: 3e a7 8c 23 sb	a0, 0x3f8(a5)
0x800003ac: 00 00 80 67 ret
0x80000258: 00 14 45 03 lbu	a0, 1(s0)
0x8000025c: 00 14 04 13 addi	s0, s0, 1
0x80000260: fe 05 1a e3 bnez	a0, -0xc
0x80000254: 15 00 00 ef jal	0x150
0x800003a4: a0 00 07 b7 lui	a5, 0xa0000
0x800003a8: 3e a7 8c 23 sb	a0, 0x3f8(a5)
0x800003ac: 00 00 80 67 ret
0x80000258: 00 14 45 03 lbu	a0, 1(s0)
0x8000025c: 00 14 04 13 addi	s0, s0, 1
0x80000260: fe 05 1a e3 bnez	a0, -0xc
0x80000254: 15 00 00 ef jal	0x150
0x800003a4: a0 00 07 b7 lui	a5, 0xa0000
0x800003a8: 3e a7 8c 23 sb	a0, 0x3f8(a5)
0x800003ac: 00 00 80 67 ret
0x80000258: 00 14 45 03 lbu	a0, 1(s0)
0x8000025c: 00 14 04 13 addi	s0, s0, 1
0x80000260: fe 05 1a e3 bnez	a0, -0xc
0x80000254: 15 00 00 ef jal	0x150
0x800003a4: a0 00 07 b7 lui	a5, 0xa0000
0x800003a8: 3e a7 8c 23 sb	a0, 0x3f8(a5)
0x800003ac: 00 00 80 67 ret
0x80000258: 00 14 45 03 lbu	a0, 1(s0)
0x8000025c: 00 14 04 13 addi	s0, s0, 1
0x80000260: fe 05 1a e3 bnez	a0, -0xc
0x80000254: 15 00 00 ef jal	0x150
0x800003a4: a0 00 07 b7 lui	a5, 0xa0000
0x800003a8: 3e a7 8c 23 sb	a0, 0x3f8(a5)
0x800003ac: 00 00 80 67 ret
0x80000258: 00 14 45 03 lbu	a0, 1(s0)
0x8000025c: 00 14 04 13 addi	s0, s0, 1
0x80000260: fe 05 1a e3 bnez	a0, -0xc
0x80000254: 15 00 00 ef jal	0x150
0x800003a4: a0 00 07 b7 lui	a5, 0xa0000
0x800003a8: 3e a7 8c 23 sb	a0, 0x3f8(a5)
0x800003ac: 00 00 80 67 ret
0x80000258: 00 14 45 03 lbu	a0, 1(s0)
0x8000025c: 00 14 04 13 addi	s0, s0, 1
0x80000260: fe 05 1a e3 bnez	a0, -0xc
0x80000254: 15 00 00 ef jal	0x150
0x800003a4: a0 00 07 b7 lui	a5, 0xa0000
0x800003a8: 3e a7 8c 23 sb	a0, 0x3f8(a5)
0x800003ac: 00 00 80 67 ret
0x80000258: 00 14 45 03 lbu	a0, 1(s0)
0x8000025c: 00 14 04 13 addi	s0, s0, 1
0x80000260: fe 05 1a e3 bnez	a0, -0xc
0x80000254: 15 00 00 ef jal	0x150
0x800003a4: a0 00 07 b7 lui	a5, 0xa0000
0x800003a8: 3e a7 8c 23 sb	a0, 0x3f8(a5)
0x800003ac: 00 00 80 67 ret
0x80000258: 00 14 45 03 lbu	a0, 1(s0)
0x8000025c: 00 14 04 13 addi	s0, s0, 1
0x80000260: fe 05 1a e3 bnez	a0, -0xc
0x80000254: 15 00 00 ef jal	0x150
0x800003a4: a0 00 07 b7 lui	a5, 0xa0000
0x800003a8: 3e a7 8c 23 sb	a0, 0x3f8(a5)
0x800003ac: 00 00 80 67 ret
0x80000258: 00 14 45 03 lbu	a0, 1(s0)
0x8000025c: 00 14 04 13 addi	s0, s0, 1
0x80000260: fe 05 1a e3 bnez	a0, -0xc
0x80000254: 15 00 00 ef jal	0x150
0x800003a4: a0 00 07 b7 lui	a5, 0xa0000
0x800003a8: 3e a7 8c 23 sb	a0, 0x3f8(a5)
0x800003ac: 00 00 80 67 ret
0x80000258: 00 14 45 03 lbu	a0, 1(s0)
0x8000025c: 00 14 04 13 addi	s0, s0, 1
0x80000260: fe 05 1a e3 bnez	a0, -0xc
0x80000254: 15 00 00 ef jal	0x150
0x800003a4: a0 00 07 b7 lui	a5, 0xa0000
0x800003a8: 3e a7 8c 23 sb	a0, 0x3f8(a5)
0x800003ac: 00 00 80 67 ret
0x80000258: 00 14 45 03 lbu	a0, 1(s0)
0x8000025c: 00 14 04 13 addi	s0, s0, 1
0x80000260: fe 05 1a e3 bnez	a0, -0xc
0x80000254: 15 00 00 ef jal	0x150
0x800003a4: a0 00 07 b7 lui	a5, 0xa0000
0x800003a8: 3e a7 8c 23 sb	a0, 0x3f8(a5)
0x800003ac: 00 00 80 67 ret
0x80000258: 00 14 45 03 lbu	a0, 1(s0)
0x8000025c: 00 14 04 13 addi	s0, s0, 1
0x80000260: fe 05 1a e3 bnez	a0, -0xc
0x80000254: 15 00 00 ef jal	0x150
0x800003a4: a0 00 07 b7 lui	a5, 0xa0000
0x800003a8: 3e a7 8c 23 sb	a0, 0x3f8(a5)
0x800003ac: 00 00 80 67 ret
0x80000258: 00 14 45 03 lbu	a0, 1(s0)
0x8000025c: 00 14 04 13 addi	s0, s0, 1
0x80000260: fe 05 1a e3 bnez	a0, -0xc
0x80000254: 15 00 00 ef jal	0x150
0x800003a4: a0 00 07 b7 lui	a5, 0xa0000
0x800003a8: 3e a7 8c 23 sb	a0, 0x3f8(a5)
0x800003ac: 00 00 80 67 ret
0x80000258: 00 14 45 03 lbu	a0, 1(s0)
0x8000025c: 00 14 04 13 addi	s0, s0, 1
0x80000260: fe 05 1a e3 bnez	a0, -0xc
0x80000254: 15 00 00 ef jal	0x150
0x800003a4: a0 00 07 b7 lui	a5, 0xa0000
0x800003a8: 3e a7 8c 23 sb	a0, 0x3f8(a5)
0x800003ac: 00 00 80 67 ret
0x80000258: 00 14 45 03 lbu	a0, 1(s0)
0x8000025c: 00 14 04 13 addi	s0, s0, 1
0x80000260: fe 05 1a e3 bnez	a0, -0xc
0x80000254: 15 00 00 ef jal	0x150
0x800003a4: a0 00 07 b7 lui	a5, 0xa0000
0x800003a8: 3e a7 8c 23 sb	a0, 0x3f8(a5)
0x800003ac: 00 00 80 67 ret
0x80000258: 00 14 45 03 lbu	a0, 1(s0)
0x8000025c: 00 14 04 13 addi	s0, s0, 1
0x80000260: fe 05 1a e3 bnez	a0, -0xc
0x80000254: 15 00 00 ef jal	0x150
0x800003a4: a0 00 07 b7 lui	a5, 0xa0000
0x800003a8: 3e a7 8c 23 sb	a0, 0x3f8(a5)
0x800003ac: 00 00 80 67 ret
0x80000258: 00 14 45 03 lbu	a0, 1(s0)
0x8000025c: 00 14 04 13 addi	s0, s0, 1
0x80000260: fe 05 1a e3 bnez	a0, -0xc
0x80000254: 15 00 00 ef jal	0x150
0x800003a4: a0 00 07 b7 lui	a5, 0xa0000
0x800003a8: 3e a7 8c 23 sb	a0, 0x3f8(a5)
0x800003ac: 00 00 80 67 ret
0x80000258: 00 14 45 03 lbu	a0, 1(s0)
0x8000025c: 00 14 04 13 addi	s0, s0, 1
0x80000260: fe 05 1a e3 bnez	a0, -0xc
0x80000254: 15 00 00 ef jal	0x150
0x800003a4: a0 00 07 b7 lui	a5, 0xa0000
0x800003a8: 3e a7 8c 23 sb	a0, 0x3f8(a5)
0x800003ac: 00 00 80 67 ret
0x80000258: 00 14 45 03 lbu	a0, 1(s0)
0x8000025c: 00 14 04 13 addi	s0, s0, 1
0x80000260: fe 05 1a e3 bnez	a0, -0xc
0x80000254: 15 00 00 ef jal	0x150
0x800003a4: a0 00 07 b7 lui	a5, 0xa0000
0x800003a8: 3e a7 8c 23 sb	a0, 0x3f8(a5)
0x800003ac: 00 00 80 67 ret
0x80000258: 00 14 45 03 lbu	a0, 1(s0)
0x8000025c: 00 14 04 13 addi	s0, s0, 1
0x80000260: fe 05 1a e3 bnez	a0, -0xc
0x80000254: 15 00 00 ef jal	0x150
0x800003a4: a0 00 07 b7 lui	a5, 0xa0000
0x800003a8: 3e a7 8c 23 sb	a0, 0x3f8(a5)
0x800003ac: 00 00 80 67 ret
0x80000258: 00 14 45 03 lbu	a0, 1(s0)
0x8000025c: 00 14 04 13 addi	s0, s0, 1
0x80000260: fe 05 1a e3 bnez	a0, -0xc
0x80000254: 15 00 00 ef jal	0x150
0x800003a4: a0 00 07 b7 lui	a5, 0xa0000
0x800003a8: 3e a7 8c 23 sb	a0, 0x3f8(a5)
0x800003ac: 00 00 80 67 ret
0x80000258: 00 14 45 03 lbu	a0, 1(s0)
0x8000025c: 00 14 04 13 addi	s0, s0, 1
0x80000260: fe 05 1a e3 bnez	a0, -0xc
0x80000254: 15 00 00 ef jal	0x150
0x800003a4: a0 00 07 b7 lui	a5, 0xa0000
0x800003a8: 3e a7 8c 23 sb	a0, 0x3f8(a5)
0x800003ac: 00 00 80 67 ret
0x80000258: 00 14 45 03 lbu	a0, 1(s0)
0x8000025c: 00 14 04 13 addi	s0, s0, 1
0x80000260: fe 05 1a e3 bnez	a0, -0xc
0x80000254: 15 00 00 ef jal	0x150
0x800003a4: a0 00 07 b7 lui	a5, 0xa0000
0x800003a8: 3e a7 8c 23 sb	a0, 0x3f8(a5)
0x800003ac: 00 00 80 67 ret
0x80000258: 00 14 45 03 lbu	a0, 1(s0)
0x8000025c: 00 14 04 13 addi	s0, s0, 1
0x80000260: fe 05 1a e3 bnez	a0, -0xc
0x80000254: 15 00 00 ef jal	0x150
0x800003a4: a0 00 07 b7 lui	a5, 0xa0000
0x800003a8: 3e a7 8c 23 sb	a0, 0x3f8(a5)
0x800003ac: 00 00 80 67 ret
0x80000258: 00 14 45 03 lbu	a0, 1(s0)
0x8000025c: 00 14 04 13 addi	s0, s0, 1
0x80000260: fe 05 1a e3 bnez	a0, -0xc
0x80000254: 15 00 00 ef jal	0x150
0x800003a4: a0 00 07 b7 lui	a5, 0xa0000
0x800003a8: 3e a7 8c 23 sb	a0, 0x3f8(a5)
0x800003ac: 00 00 80 67 ret
0x80000258: 00 14 45 03 lbu	a0, 1(s0)
0x8000025c: 00 14 04 13 addi	s0, s0, 1
0x80000260: fe 05 1a e3 bnez	a0, -0xc
0x80000254: 15 00 00 ef jal	0x150
0x800003a4: a0 00 07 b7 lui	a5, 0xa0000
0x800003a8: 3e a7 8c 23 sb	a0, 0x3f8(a5)
0x800003ac: 00 00 80 67 ret
0x80000258: 00 14 45 03 lbu	a0, 1(s0)
0x8000025c: 00 14 04 13 addi	s0, s0, 1
0x80000260: fe 05 1a e3 bnez	a0, -0xc
0x80000254: 15 00 00 ef jal	0x150
0x800003a4: a0 00 07 b7 lui	a5, 0xa0000
0x800003a8: 3e a7 8c 23 sb	a0, 0x3f8(a5)
0x800003ac: 00 00 80 67 ret
0x80000258: 00 14 45 03 lbu	a0, 1(s0)
0x8000025c: 00 14 04 13 addi	s0, s0, 1
0x80000260: fe 05 1a e3 bnez	a0, -0xc
0x80000254: 15 00 00 ef jal	0x150
0x800003a4: a0 00 07 b7 lui	a5, 0xa0000
0x800003a8: 3e a7 8c 23 sb	a0, 0x3f8(a5)
0x800003ac: 00 00 80 67 ret
0x80000258: 00 14 45 03 lbu	a0, 1(s0)
0x8000025c: 00 14 04 13 addi	s0, s0, 1
0x80000260: fe 05 1a e3 bnez	a0, -0xc
0x80000254: 15 00 00 ef jal	0x150
0x800003a4: a0 00 07 b7 lui	a5, 0xa0000
0x800003a8: 3e a7 8c 23 sb	a0, 0x3f8(a5)
0x800003ac: 00 00 80 67 ret
0x80000258: 00 14 45 03 lbu	a0, 1(s0)
0x8000025c: 00 14 04 13 addi	s0, s0, 1
0x80000260: fe 05 1a e3 bnez	a0, -0xc
0x80000254: 15 00 00 ef jal	0x150
0x800003a4: a0 00 07 b7 lui	a5, 0xa0000
0x800003a8: 3e a7 8c 23 sb	a0, 0x3f8(a5)
0x800003ac: 00 00 80 67 ret
0x80000258: 00 14 45 03 lbu	a0, 1(s0)
0x8000025c: 00 14 04 13 addi	s0, s0, 1
0x80000260: fe 05 1a e3 bnez	a0, -0xc
0x80000254: 15 00 00 ef jal	0x150
0x800003a4: a0 00 07 b7 lui	a5, 0xa0000
0x800003a8: 3e a7 8c 23 sb	a0, 0x3f8(a5)
0x800003ac: 00 00 80 67 ret
0x80000258: 00 14 45 03 lbu	a0, 1(s0)
0x8000025c: 00 14 04 13 addi	s0, s0, 1
0x80000260: fe 05 1a e3 bnez	a0, -0xc
0x80000254: 15 00 00 ef jal	0x150
0x800003a4: a0 00 07 b7 lui	a5, 0xa0000
0x800003a8: 3e a7 8c 23 sb	a0, 0x3f8(a5)
0x800003ac: 00 00 80 67 ret
0x80000258: 00 14 45 03 lbu	a0, 1(s0)
0x8000025c: 00 14 04 13 addi	s0, s0, 1
0x80000260: fe 05 1a e3 bnez	a0, -0xc
0x80000254: 15 00 00 ef jal	0x150
0x800003a4: a0 00 07 b7 lui	a5, 0xa0000
0x800003a8: 3e a7 8c 23 sb	a0, 0x3f8(a5)
0x800003ac: 00 00 80 67 ret
0x80000258: 00 14 45 03 lbu	a0, 1(s0)
0x8000025c: 00 14 04 13 addi	s0, s0, 1
0x80000260: fe 05 1a e3 bnez	a0, -0xc
0x80000254: 15 00 00 ef jal	0x150
0x800003a4: a0 00 07 b7 lui	a5, 0xa0000
0x800003a8: 3e a7 8c 23 sb	a0, 0x3f8(a5)
0x800003ac: 00 00 80 67 ret
0x80000258: 00 14 45 03 lbu	a0, 1(s0)
0x8000025c: 00 14 04 13 addi	s0, s0, 1
0x80000260: fe 05 1a e3 bnez	a0, -0xc
0x80000254: 15 00 00 ef jal	0x150
0x800003a4: a0 00 07 b7 lui	a5, 0xa0000
0x800003a8: 3e a7 8c 23 sb	a0, 0x3f8(a5)
0x800003ac: 00 00 80 67 ret
0x80000258: 00 14 45 03 lbu	a0, 1(s0)
0x8000025c: 00 14 04 13 addi	s0, s0, 1
0x80000260: fe 05 1a e3 bnez	a0, -0xc
0x80000254: 15 00 00 ef jal	0x150
0x800003a4: a0 00 07 b7 lui	a5, 0xa0000
0x800003a8: 3e a7 8c 23 sb	a0, 0x3f8(a5)
0x800003ac: 00 00 80 67 ret
0x80000258: 00 14 45 03 lbu	a0, 1(s0)
0x8000025c: 00 14 04 13 addi	s0, s0, 1
0x80000260: fe 05 1a e3 bnez	a0, -0xc
0x80000254: 15 00 00 ef jal	0x150
0x800003a4: a0 00 07 b7 lui	a5, 0xa0000
0x800003a8: 3e a7 8c 23 sb	a0, 0x3f8(a5)
0x800003ac: 00 00 80 67 ret
0x80000258: 00 14 45 03 lbu	a0, 1(s0)
0x8000025c: 00 14 04 13 addi	s0, s0, 1
0x80000260: fe 05 1a e3 bnez	a0, -0xc
0x80000254: 15 00 00 ef jal	0x150
0x800003a4: a0 00 07 b7 lui	a5, 0xa0000
0x800003a8: 3e a7 8c 23 sb	a0, 0x3f8(a5)
0x800003ac: 00 00 80 67 ret
0x80000258: 00 14 45 03 lbu	a0, 1(s0)
0x8000025c: 00 14 04 13 addi	s0, s0, 1
0x80000260: fe 05 1a e3 bnez	a0, -0xc
0x80000254: 15 00 00 ef jal	0x150
0x800003a4: a0 00 07 b7 lui	a5, 0xa0000
0x800003a8: 3e a7 8c 23 sb	a0, 0x3f8(a5)
0x800003ac: 00 00 80 67 ret
0x80000258: 00 14 45 03 lbu	a0, 1(s0)
0x8000025c: 00 14 04 13 addi	s0, s0, 1
0x80000260: fe 05 1a e3 bnez	a0, -0xc
0x80000254: 15 00 00 ef jal	0x150
0x800003a4: a0 00 07 b7 lui	a5, 0xa0000
0x800003a8: 3e a7 8c 23 sb	a0, 0x3f8(a5)
0x800003ac: 00 00 80 67 ret
0x80000258: 00 14 45 03 lbu	a0, 1(s0)
0x8000025c: 00 14 04 13 addi	s0, s0, 1
0x80000260: fe 05 1a e3 bnez	a0, -0xc
0x80000254: 15 00 00 ef jal	0x150
0x800003a4: a0 00 07 b7 lui	a5, 0xa0000
0x800003a8: 3e a7 8c 23 sb	a0, 0x3f8(a5)
0x800003ac: 00 00 80 67 ret
0x80000258: 00 14 45 03 lbu	a0, 1(s0)
0x8000025c: 00 14 04 13 addi	s0, s0, 1
0x80000260: fe 05 1a e3 bnez	a0, -0xc
0x80000254: 15 00 00 ef jal	0x150
0x800003a4: a0 00 07 b7 lui	a5, 0xa0000
0x800003a8: 3e a7 8c 23 sb	a0, 0x3f8(a5)
0x800003ac: 00 00 80 67 ret
0x80000258: 00 14 45 03 lbu	a0, 1(s0)
0x8000025c: 00 14 04 13 addi	s0, s0, 1
0x80000260: fe 05 1a e3 bnez	a0, -0xc
0x80000254: 15 00 00 ef jal	0x150
0x800003a4: a0 00 07 b7 lui	a5, 0xa0000
0x800003a8: 3e a7 8c 23 sb	a0, 0x3f8(a5)
0x800003ac: 00 00 80 67 ret
0x80000258: 00 14 45 03 lbu	a0, 1(s0)
0x8000025c: 00 14 04 13 addi	s0, s0, 1
0x80000260: fe 05 1a e3 bnez	a0, -0xc
0x80000254: 15 00 00 ef jal	0x150
0x800003a4: a0 00 07 b7 lui	a5, 0xa0000
0x800003a8: 3e a7 8c 23 sb	a0, 0x3f8(a5)
0x800003ac: 00 00 80 67 ret
0x80000258: 00 14 45 03 lbu	a0, 1(s0)
0x8000025c: 00 14 04 13 addi	s0, s0, 1
0x80000260: fe 05 1a e3 bnez	a0, -0xc
0x80000254: 15 00 00 ef jal	0x150
0x800003a4: a0 00 07 b7 lui	a5, 0xa0000
0x800003a8: 3e a7 8c 23 sb	a0, 0x3f8(a5)
0x800003ac: 00 00 80 67 ret
0x80000258: 00 14 45 03 lbu	a0, 1(s0)
0x8000025c: 00 14 04 13 addi	s0, s0, 1
0x80000260: fe 05 1a e3 bnez	a0, -0xc
0x80000254: 15 00 00 ef jal	0x150
0x800003a4: a0 00 07 b7 lui	a5, 0xa0000
0x800003a8: 3e a7 8c 23 sb	a0, 0x3f8(a5)
0x800003ac: 00 00 80 67 ret
0x80000258: 00 14 45 03 lbu	a0, 1(s0)
0x8000025c: 00 14 04 13 addi	s0, s0, 1
0x80000260: fe 05 1a e3 bnez	a0, -0xc
0x80000264: 00 00 05 17 auipc	a0, 0
0x80000268: da c5 05 13 addi	a0, a0, -0x254
0x8000026c: 20 40 00 ef jal	0x204
0x80000470: 00 05 07 93 mv	a5, a0
0x80000474: 00 00 07 17 auipc	a4, 0
0x80000478: 10 c7 07 13 addi	a4, a4, 0x10c
0x8000047c: 30 57 10 73 csrw	mtvec, a4
0x80000480: 00 10 05 13 addi	a0, zero, 1
0x80000484: 00 00 37 17 auipc	a4, 3
0x80000488: 96 f7 22 23 sw	a5, -0x69c(a4)
0x8000048c: 00 00 80 67 ret
0x80000270: 00 00 16 97 auipc	a3, 1
0x80000274: 74 06 86 93 addi	a3, a3, 0x740
0x80000278: 00 00 06 17 auipc	a2, 0
0x8000027c: ed c6 06 13 addi	a2, a2, -0x124
0x80000280: 00 00 25 17 auipc	a0, 2
0x80000284: b6 05 05 13 addi	a0, a0, -0x4a0
0x80000288: 00 00 35 97 auipc	a1, 3
0x8000028c: b5 85 85 93 addi	a1, a1, -0x4a8
0x80000290: 20 00 00 ef jal	0x200
0x80000490: fd 01 01 13 addi	sp, sp, -0x30
0x80000494: 01 31 2e 23 sw	s3, 0x1c(sp)
0x80000498: f7 05 89 93 addi	s3, a1, -0x90
0x8000049c: 02 81 24 23 sw	s0, 0x28(sp)
0x800004a0: 02 91 22 23 sw	s1, 0x24(sp)
0x800004a4: 00 05 84 13 mv	s0, a1
0x800004a8: 00 06 04 93 mv	s1, a2
0x800004ac: 00 09 85 13 mv	a0, s3
0x800004b0: 09 00 06 13 addi	a2, zero, 0x90
0x800004b4: 00 00 05 93 mv	a1, zero
0x800004b8: 03 21 20 23 sw	s2, 0x20(sp)
0x800004bc: 02 11 26 23 sw	ra, 0x2c(sp)
0x800004c0: 00 06 89 13 mv	s2, a3
0x800004c4: 20 c0 00 ef jal	0x20c
0x800006d0: 0f f5 f5 93 andi	a1, a1, 0xff
0x800006d4: 00 c5 07 33 add	a4, a0, a2
0x800006d8: 00 05 07 93 mv	a5, a0
0x800006dc: 00 06 08 63 beqz	a2, 0x10
0x800006e0: 00 17 87 93 addi	a5, a5, 1
0x800006e4: fe b7 8f a3 sb	a1, -1(a5)
0x800006e8: fe f7 1c e3 bne	a4, a5, -8
0x800006e0: 00 17 87 93 addi	a5, a5, 1
0x800006e4: fe b7 8f a3 sb	a1, -1(a5)
0x800006e8: fe f7 1c e3 bne	a4, a5, -8
0x800006e0: 00 17 87 93 addi	a5, a5, 1
0x800006e4: fe b7 8f a3 sb	a1, -1(a5)
0x800006e8: fe f7 1c e3 bne	a4, a5, -8
0x800006e0: 00 17 87 93 addi	a5, a5, 1
0x800006e4: fe b7 8f a3 sb	a1, -1(a5)
0x800006e8: fe f7 1c e3 bne	a4, a5, -8
0x800006e0: 00 17 87 93 addi	a5, a5, 1
0x800006e4: fe b7 8f a3 sb	a1, -1(a5)
0x800006e8: fe f7 1c e3 bne	a4, a5, -8
0x800006e0: 00 17 87 93 addi	a5, a5, 1
0x800006e4: fe b7 8f a3 sb	a1, -1(a5)
0x800006e8: fe f7 1c e3 bne	a4, a5, -8
0x800006e0: 00 17 87 93 addi	a5, a5, 1
0x800006e4: fe b7 8f a3 sb	a1, -1(a5)
0x800006e8: fe f7 1c e3 bne	a4, a5, -8
0x800006e0: 00 17 87 93 addi	a5, a5, 1
0x800006e4: fe b7 8f a3 sb	a1, -1(a5)
0x800006e8: fe f7 1c e3 bne	a4, a5, -8
0x800006e0: 00 17 87 93 addi	a5, a5, 1
0x800006e4: fe b7 8f a3 sb	a1, -1(a5)
0x800006e8: fe f7 1c e3 bne	a4, a5, -8
0x800006e0: 00 17 87 93 addi	a5, a5, 1
0x800006e4: fe b7 8f a3 sb	a1, -1(a5)
0x800006e8: fe f7 1c e3 bne	a4, a5, -8
0x800006e0: 00 17 87 93 addi	a5, a5, 1
0x800006e4: fe b7 8f a3 sb	a1, -1(a5)
0x800006e8: fe f7 1c e3 bne	a4, a5, -8
0x800006e0: 00 17 87 93 addi	a5, a5, 1
0x800006e4: fe b7 8f a3 sb	a1, -1(a5)
0x800006e8: fe f7 1c e3 bne	a4, a5, -8
0x800006e0: 00 17 87 93 addi	a5, a5, 1
0x800006e4: fe b7 8f a3 sb	a1, -1(a5)
0x800006e8: fe f7 1c e3 bne	a4, a5, -8
0x800006e0: 00 17 87 93 addi	a5, a5, 1
0x800006e4: fe b7 8f a3 sb	a1, -1(a5)
0x800006e8: fe f7 1c e3 bne	a4, a5, -8
0x800006e0: 00 17 87 93 addi	a5, a5, 1
0x800006e4: fe b7 8f a3 sb	a1, -1(a5)
0x800006e8: fe f7 1c e3 bne	a4, a5, -8
0x800006e0: 00 17 87 93 addi	a5, a5, 1
0x800006e4: fe b7 8f a3 sb	a1, -1(a5)
0x800006e8: fe f7 1c e3 bne	a4, a5, -8
0x800006e0: 00 17 87 93 addi	a5, a5, 1
0x800006e4: fe b7 8f a3 sb	a1, -1(a5)
0x800006e8: fe f7 1c e3 bne	a4, a5, -8
0x800006e0: 00 17 87 93 addi	a5, a5, 1
0x800006e4: fe b7 8f a3 sb	a1, -1(a5)
0x800006e8: fe f7 1c e3 bne	a4, a5, -8
0x800006e0: 00 17 87 93 addi	a5, a5, 1
0x800006e4: fe b7 8f a3 sb	a1, -1(a5)
0x800006e8: fe f7 1c e3 bne	a4, a5, -8
0x800006e0: 00 17 87 93 addi	a5, a5, 1
0x800006e4: fe b7 8f a3 sb	a1, -1(a5)
0x800006e8: fe f7 1c e3 bne	a4, a5, -8
0x800006e0: 00 17 87 93 addi	a5, a5, 1
0x800006e4: fe b7 8f a3 sb	a1, -1(a5)
0x800006e8: fe f7 1c e3 bne	a4, a5, -8
0x800006e0: 00 17 87 93 addi	a5, a5, 1
0x800006e4: fe b7 8f a3 sb	a1, -1(a5)
0x800006e8: fe f7 1c e3 bne	a4, a5, -8
0x800006e0: 00 17 87 93 addi	a5, a5, 1
0x800006e4: fe b7 8f a3 sb	a1, -1(a5)
0x800006e8: fe f7 1c e3 bne	a4, a5, -8
0x800006e0: 00 17 87 93 addi	a5, a5, 1
0x800006e4: fe b7 8f a3 sb	a1, -1(a5)
0x800006e8: fe f7 1c e3 bne	a4, a5, -8
0x800006e0: 00 17 87 93 addi	a5, a5, 1
0x800006e4: fe b7 8f a3 sb	a1, -1(a5)
0x800006e8: fe f7 1c e3 bne	a4, a5, -8
0x800006e0: 00 17 87 93 addi	a5, a5, 1
0x800006e4: fe b7 8f a3 sb	a1, -1(a5)
0x800006e8: fe f7 1c e3 bne	a4, a5, -8
0x800006e0: 00 17 87 93 addi	a5, a5, 1
0x800006e4: fe b7 8f a3 sb	a1, -1(a5)
0x800006e8: fe f7 1c e3 bne	a4, a5, -8
0x800006e0: 00 17 87 93 addi	a5, a5, 1
0x800006e4: fe b7 8f a3 sb	a1, -1(a5)
0x800006e8: fe f7 1c e3 bne	a4, a5, -8
0x800006e0: 00 17 87 93 addi	a5, a5, 1
0x800006e4: fe b7 8f a3 sb	a1, -1(a5)
0x800006e8: fe f7 1c e3 bne	a4, a5, -8
0x800006e0: 00 17 87 93 addi	a5, a5, 1
0x800006e4: fe b7 8f a3 sb	a1, -1(a5)
0x800006e8: fe f7 1c e3 bne	a4, a5, -8
0x800006e0: 00 17 87 93 addi	a5, a5, 1
0x800006e4: fe b7 8f a3 sb	a1, -1(a5)
0x800006e8: fe f7 1c e3 bne	a4, a5, -8
0x800006e0: 00 17 87 93 addi	a5, a5, 1
0x800006e4: fe b7 8f a3 sb	a1, -1(a5)
0x800006e8: fe f7 1c e3 bne	a4, a5, -8
0x800006e0: 00 17 87 93 addi	a5, a5, 1
0x800006e4: fe b7 8f a3 sb	a1, -1(a5)
0x800006e8: fe f7 1c e3 bne	a4, a5, -8
0x800006e0: 00 17 87 93 addi	a5, a5, 1
0x800006e4: fe b7 8f a3 sb	a1, -1(a5)
0x800006e8: fe f7 1c e3 bne	a4, a5, -8
0x800006e0: 00 17 87 93 addi	a5, a5, 1
0x800006e4: fe b7 8f a3 sb	a1, -1(a5)
0x800006e8: fe f7 1c e3 bne	a4, a5, -8
0x800006e0: 00 17 87 93 addi	a5, a5, 1
0x800006e4: fe b7 8f a3 sb	a1, -1(a5)
0x800006e8: fe f7 1c e3 bne	a4, a5, -8
0x800006e0: 00 17 87 93 addi	a5, a5, 1
0x800006e4: fe b7 8f a3 sb	a1, -1(a5)
0x800006e8: fe f7 1c e3 bne	a4, a5, -8
0x800006e0: 00 17 87 93 addi	a5, a5, 1
0x800006e4: fe b7 8f a3 sb	a1, -1(a5)
0x800006e8: fe f7 1c e3 bne	a4, a5, -8
0x800006e0: 00 17 87 93 addi	a5, a5, 1
0x800006e4: fe b7 8f a3 sb	a1, -1(a5)
0x800006e8: fe f7 1c e3 bne	a4, a5, -8
0x800006e0: 00 17 87 93 addi	a5, a5, 1
0x800006e4: fe b7 8f a3 sb	a1, -1(a5)
0x800006e8: fe f7 1c e3 bne	a4, a5, -8
0x800006e0: 00 17 87 93 addi	a5, a5, 1
0x800006e4: fe b7 8f a3 sb	a1, -1(a5)
0x800006e8: fe f7 1c e3 bne	a4, a5, -8
0x800006e0: 00 17 87 93 addi	a5, a5, 1
0x800006e4: fe b7 8f a3 sb	a1, -1(a5)
0x800006e8: fe f7 1c e3 bne	a4, a5, -8
0x800006e0: 00 17 87 93 addi	a5, a5, 1
0x800006e4: fe b7 8f a3 sb	a1, -1(a5)
0x800006e8: fe f7 1c e3 bne	a4, a5, -8
0x800006e0: 00 17 87 93 addi	a5, a5, 1
0x800006e4: fe b7 8f a3 sb	a1, -1(a5)
0x800006e8: fe f7 1c e3 bne	a4, a5, -8
0x800006e0: 00 17 87 93 addi	a5, a5, 1
0x800006e4: fe b7 8f a3 sb	a1, -1(a5)
0x800006e8: fe f7 1c e3 bne	a4, a5, -8
0x800006e0: 00 17 87 93 addi	a5, a5, 1
0x800006e4: fe b7 8f a3 sb	a1, -1(a5)
0x800006e8: fe f7 1c e3 bne	a4, a5, -8
0x800006e0: 00 17 87 93 addi	a5, a5, 1
0x800006e4: fe b7 8f a3 sb	a1, -1(a5)
0x800006e8: fe f7 1c e3 bne	a4, a5, -8
0x800006e0: 00 17 87 93 addi	a5, a5, 1
0x800006e4: fe b7 8f a3 sb	a1, -1(a5)
0x800006e8: fe f7 1c e3 bne	a4, a5, -8
0x800006e0: 00 17 87 93 addi	a5, a5, 1
0x800006e4: fe b7 8f a3 sb	a1, -1(a5)
0x800006e8: fe f7 1c e3 bne	a4, a5, -8
0x800006e0: 00 17 87 93 addi	a5, a5, 1
0x800006e4: fe b7 8f a3 sb	a1, -1(a5)
0x800006e8: fe f7 1c e3 bne	a4, a5, -8
0x800006e0: 00 17 87 93 addi	a5, a5, 1
0x800006e4: fe b7 8f a3 sb	a1, -1(a5)
0x800006e8: fe f7 1c e3 bne	a4, a5, -8
0x800006e0: 00 17 87 93 addi	a5, a5, 1
0x800006e4: fe b7 8f a3 sb	a1, -1(a5)
0x800006e8: fe f7 1c e3 bne	a4, a5, -8
0x800006e0: 00 17 87 93 addi	a5, a5, 1
0x800006e4: fe b7 8f a3 sb	a1, -1(a5)
0x800006e8: fe f7 1c e3 bne	a4, a5, -8
0x800006e0: 00 17 87 93 addi	a5, a5, 1
0x800006e4: fe b7 8f a3 sb	a1, -1(a5)
0x800006e8: fe f7 1c e3 bne	a4, a5, -8
0x800006e0: 00 17 87 93 addi	a5, a5, 1
0x800006e4: fe b7 8f a3 sb	a1, -1(a5)
0x800006e8: fe f7 1c e3 bne	a4, a5, -8
0x800006e0: 00 17 87 93 addi	a5, a5, 1
0x800006e4: fe b7 8f a3 sb	a1, -1(a5)
0x800006e8: fe f7 1c e3 bne	a4, a5, -8
0x800006e0: 00 17 87 93 addi	a5, a5, 1
0x800006e4: fe b7 8f a3 sb	a1, -1(a5)
0x800006e8: fe f7 1c e3 bne	a4, a5, -8
0x800006e0: 00 17 87 93 addi	a5, a5, 1
0x800006e4: fe b7 8f a3 sb	a1, -1(a5)
0x800006e8: fe f7 1c e3 bne	a4, a5, -8
0x800006e0: 00 17 87 93 addi	a5, a5, 1
0x800006e4: fe b7 8f a3 sb	a1, -1(a5)
0x800006e8: fe f7 1c e3 bne	a4, a5, -8
0x800006e0: 00 17 87 93 addi	a5, a5, 1
0x800006e4: fe b7 8f a3 sb	a1, -1(a5)
0x800006e8: fe f7 1c e3 bne	a4, a5, -8
0x800006e0: 00 17 87 93 addi	a5, a5, 1
0x800006e4: fe b7 8f a3 sb	a1, -1(a5)
0x800006e8: fe f7 1c e3 bne	a4, a5, -8
0x800006e0: 00 17 87 93 addi	a5, a5, 1
0x800006e4: fe b7 8f a3 sb	a1, -1(a5)
0x800006e8: fe f7 1c e3 bne	a4, a5, -8
0x800006e0: 00 17 87 93 addi	a5, a5, 1
0x800006e4: fe b7 8f a3 sb	a1, -1(a5)
0x800006e8: fe f7 1c e3 bne	a4, a5, -8
0x800006e0: 00 17 87 93 addi	a5, a5, 1
0x800006e4: fe b7 8f a3 sb	a1, -1(a5)
0x800006e8: fe f7 1c e3 bne	a4, a5, -8
0x800006e0: 00 17 87 93 addi	a5, a5, 1
0x800006e4: fe b7 8f a3 sb	a1, -1(a5)
0x800006e8: fe f7 1c e3 bne	a4, a5, -8
0x800006e0: 00 17 87 93 addi	a5, a5, 1
0x800006e4: fe b7 8f a3 sb	a1, -1(a5)
0x800006e8: fe f7 1c e3 bne	a4, a5, -8
0x800006e0: 00 17 87 93 addi	a5, a5, 1
0x800006e4: fe b7 8f a3 sb	a1, -1(a5)
0x800006e8: fe f7 1c e3 bne	a4, a5, -8
0x800006e0: 00 17 87 93 addi	a5, a5, 1
0x800006e4: fe b7 8f a3 sb	a1, -1(a5)
0x800006e8: fe f7 1c e3 bne	a4, a5, -8
0x800006e0: 00 17 87 93 addi	a5, a5, 1
0x800006e4: fe b7 8f a3 sb	a1, -1(a5)
0x800006e8: fe f7 1c e3 bne	a4, a5, -8
0x800006e0: 00 17 87 93 addi	a5, a5, 1
0x800006e4: fe b7 8f a3 sb	a1, -1(a5)
0x800006e8: fe f7 1c e3 bne	a4, a5, -8
0x800006e0: 00 17 87 93 addi	a5, a5, 1
0x800006e4: fe b7 8f a3 sb	a1, -1(a5)
0x800006e8: fe f7 1c e3 bne	a4, a5, -8
0x800006e0: 00 17 87 93 addi	a5, a5, 1
0x800006e4: fe b7 8f a3 sb	a1, -1(a5)
0x800006e8: fe f7 1c e3 bne	a4, a5, -8
0x800006e0: 00 17 87 93 addi	a5, a5, 1
0x800006e4: fe b7 8f a3 sb	a1, -1(a5)
0x800006e8: fe f7 1c e3 bne	a4, a5, -8
0x800006e0: 00 17 87 93 addi	a5, a5, 1
0x800006e4: fe b7 8f a3 sb	a1, -1(a5)
0x800006e8: fe f7 1c e3 bne	a4, a5, -8
0x800006e0: 00 17 87 93 addi	a5, a5, 1
0x800006e4: fe b7 8f a3 sb	a1, -1(a5)
0x800006e8: fe f7 1c e3 bne	a4, a5, -8
0x800006e0: 00 17 87 93 addi	a5, a5, 1
0x800006e4: fe b7 8f a3 sb	a1, -1(a5)
0x800006e8: fe f7 1c e3 bne	a4, a5, -8
0x800006e0: 00 17 87 93 addi	a5, a5, 1
0x800006e4: fe b7 8f a3 sb	a1, -1(a5)
0x800006e8: fe f7 1c e3 bne	a4, a5, -8
0x800006e0: 00 17 87 93 addi	a5, a5, 1
0x800006e4: fe b7 8f a3 sb	a1, -1(a5)
0x800006e8: fe f7 1c e3 bne	a4, a5, -8
0x800006e0: 00 17 87 93 addi	a5, a5, 1
0x800006e4: fe b7 8f a3 sb	a1, -1(a5)
0x800006e8: fe f7 1c e3 bne	a4, a5, -8
0x800006e0: 00 17 87 93 addi	a5, a5, 1
0x800006e4: fe b7 8f a3 sb	a1, -1(a5)
0x800006e8: fe f7 1c e3 bne	a4, a5, -8
0x800006e0: 00 17 87 93 addi	a5, a5, 1
0x800006e4: fe b7 8f a3 sb	a1, -1(a5)
0x800006e8: fe f7 1c e3 bne	a4, a5, -8
0x800006e0: 00 17 87 93 addi	a5, a5, 1
0x800006e4: fe b7 8f a3 sb	a1, -1(a5)
0x800006e8: fe f7 1c e3 bne	a4, a5, -8
0x800006e0: 00 17 87 93 addi	a5, a5, 1
0x800006e4: fe b7 8f a3 sb	a1, -1(a5)
0x800006e8: fe f7 1c e3 bne	a4, a5, -8
0x800006e0: 00 17 87 93 addi	a5, a5, 1
0x800006e4: fe b7 8f a3 sb	a1, -1(a5)
0x800006e8: fe f7 1c e3 bne	a4, a5, -8
0x800006e0: 00 17 87 93 addi	a5, a5, 1
0x800006e4: fe b7 8f a3 sb	a1, -1(a5)
0x800006e8: fe f7 1c e3 bne	a4, a5, -8
0x800006e0: 00 17 87 93 addi	a5, a5, 1
0x800006e4: fe b7 8f a3 sb	a1, -1(a5)
0x800006e8: fe f7 1c e3 bne	a4, a5, -8
0x800006e0: 00 17 87 93 addi	a5, a5, 1
0x800006e4: fe b7 8f a3 sb	a1, -1(a5)
0x800006e8: fe f7 1c e3 bne	a4, a5, -8
0x800006e0: 00 17 87 93 addi	a5, a5, 1
0x800006e4: fe b7 8f a3 sb	a1, -1(a5)
0x800006e8: fe f7 1c e3 bne	a4, a5, -8
0x800006e0: 00 17 87 93 addi	a5, a5, 1
0x800006e4: fe b7 8f a3 sb	a1, -1(a5)
0x800006e8: fe f7 1c e3 bne	a4, a5, -8
0x800006e0: 00 17 87 93 addi	a5, a5, 1
0x800006e4: fe b7 8f a3 sb	a1, -1(a5)
0x800006e8: fe f7 1c e3 bne	a4, a5, -8
0x800006e0: 00 17 87 93 addi	a5, a5, 1
0x800006e4: fe b7 8f a3 sb	a1, -1(a5)
0x800006e8: fe f7 1c e3 bne	a4, a5, -8
0x800006e0: 00 17 87 93 addi	a5, a5, 1
0x800006e4: fe b7 8f a3 sb	a1, -1(a5)
0x800006e8: fe f7 1c e3 bne	a4, a5, -8
0x800006e0: 00 17 87 93 addi	a5, a5, 1
0x800006e4: fe b7 8f a3 sb	a1, -1(a5)
0x800006e8: fe f7 1c e3 bne	a4, a5, -8
0x800006e0: 00 17 87 93 addi	a5, a5, 1
0x800006e4: fe b7 8f a3 sb	a1, -1(a5)
0x800006e8: fe f7 1c e3 bne	a4, a5, -8
0x800006e0: 00 17 87 93 addi	a5, a5, 1
0x800006e4: fe b7 8f a3 sb	a1, -1(a5)
0x800006e8: fe f7 1c e3 bne	a4, a5, -8
0x800006e0: 00 17 87 93 addi	a5, a5, 1
0x800006e4: fe b7 8f a3 sb	a1, -1(a5)
0x800006e8: fe f7 1c e3 bne	a4, a5, -8
0x800006e0: 00 17 87 93 addi	a5, a5, 1
0x800006e4: fe b7 8f a3 sb	a1, -1(a5)
0x800006e8: fe f7 1c e3 bne	a4, a5, -8
0x800006e0: 00 17 87 93 addi	a5, a5, 1
0x800006e4: fe b7 8f a3 sb	a1, -1(a5)
0x800006e8: fe f7 1c e3 bne	a4, a5, -8
0x800006e0: 00 17 87 93 addi	a5, a5, 1
0x800006e4: fe b7 8f a3 sb	a1, -1(a5)
0x800006e8: fe f7 1c e3 bne	a4, a5, -8
0x800006e0: 00 17 87 93 addi	a5, a5, 1
0x800006e4: fe b7 8f a3 sb	a1, -1(a5)
0x800006e8: fe f7 1c e3 bne	a4, a5, -8
0x800006e0: 00 17 87 93 addi	a5, a5, 1
0x800006e4: fe b7 8f a3 sb	a1, -1(a5)
0x800006e8: fe f7 1c e3 bne	a4, a5, -8
0x800006e0: 00 17 87 93 addi	a5, a5, 1
0x800006e4: fe b7 8f a3 sb	a1, -1(a5)
0x800006e8: fe f7 1c e3 bne	a4, a5, -8
0x800006e0: 00 17 87 93 addi	a5, a5, 1
0x800006e4: fe b7 8f a3 sb	a1, -1(a5)
0x800006e8: fe f7 1c e3 bne	a4, a5, -8
0x800006e0: 00 17 87 93 addi	a5, a5, 1
0x800006e4: fe b7 8f a3 sb	a1, -1(a5)
0x800006e8: fe f7 1c e3 bne	a4, a5, -8
0x800006e0: 00 17 87 93 addi	a5, a5, 1
0x800006e4: fe b7 8f a3 sb	a1, -1(a5)
0x800006e8: fe f7 1c e3 bne	a4, a5, -8
0x800006e0: 00 17 87 93 addi	a5, a5, 1
0x800006e4: fe b7 8f a3 sb	a1, -1(a5)
0x800006e8: fe f7 1c e3 bne	a4, a5, -8
0x800006e0: 00 17 87 93 addi	a5, a5, 1
0x800006e4: fe b7 8f a3 sb	a1, -1(a5)
0x800006e8: fe f7 1c e3 bne	a4, a5, -8
0x800006e0: 00 17 87 93 addi	a5, a5, 1
0x800006e4: fe b7 8f a3 sb	a1, -1(a5)
0x800006e8: fe f7 1c e3 bne	a4, a5, -8
0x800006e0: 00 17 87 93 addi	a5, a5, 1
0x800006e4: fe b7 8f a3 sb	a1, -1(a5)
0x800006e8: fe f7 1c e3 bne	a4, a5, -8
0x800006e0: 00 17 87 93 addi	a5, a5, 1
0x800006e4: fe b7 8f a3 sb	a1, -1(a5)
0x800006e8: fe f7 1c e3 bne	a4, a5, -8
0x800006e0: 00 17 87 93 addi	a5, a5, 1
0x800006e4: fe b7 8f a3 sb	a1, -1(a5)
0x800006e8: fe f7 1c e3 bne	a4, a5, -8
0x800006e0: 00 17 87 93 addi	a5, a5, 1
0x800006e4: fe b7 8f a3 sb	a1, -1(a5)
0x800006e8: fe f7 1c e3 bne	a4, a5, -8
0x800006e0: 00 17 87 93 addi	a5, a5, 1
0x800006e4: fe b7 8f a3 sb	a1, -1(a5)
0x800006e8: fe f7 1c e3 bne	a4, a5, -8
0x800006e0: 00 17 87 93 addi	a5, a5, 1
0x800006e4: fe b7 8f a3 sb	a1, -1(a5)
0x800006e8: fe f7 1c e3 bne	a4, a5, -8
0x800006e0: 00 17 87 93 addi	a5, a5, 1
0x800006e4: fe b7 8f a3 sb	a1, -1(a5)
0x800006e8: fe f7 1c e3 bne	a4, a5, -8
0x800006e0: 00 17 87 93 addi	a5, a5, 1
0x800006e4: fe b7 8f a3 sb	a1, -1(a5)
0x800006e8: fe f7 1c e3 bne	a4, a5, -8
0x800006e0: 00 17 87 93 addi	a5, a5, 1
0x800006e4: fe b7 8f a3 sb	a1, -1(a5)
0x800006e8: fe f7 1c e3 bne	a4, a5, -8
0x800006e0: 00 17 87 93 addi	a5, a5, 1
0x800006e4: fe b7 8f a3 sb	a1, -1(a5)
0x800006e8: fe f7 1c e3 bne	a4, a5, -8
0x800006e0: 00 17 87 93 addi	a5, a5, 1
0x800006e4: fe b7 8f a3 sb	a1, -1(a5)
0x800006e8: fe f7 1c e3 bne	a4, a5, -8
0x800006e0: 00 17 87 93 addi	a5, a5, 1
0x800006e4: fe b7 8f a3 sb	a1, -1(a5)
0x800006e8: fe f7 1c e3 bne	a4, a5, -8
0x800006e0: 00 17 87 93 addi	a5, a5, 1
0x800006e4: fe b7 8f a3 sb	a1, -1(a5)
0x800006e8: fe f7 1c e3 bne	a4, a5, -8
0x800006e0: 00 17 87 93 addi	a5, a5, 1
0x800006e4: fe b7 8f a3 sb	a1, -1(a5)
0x800006e8: fe f7 1c e3 bne	a4, a5, -8
0x800006e0: 00 17 87 93 addi	a5, a5, 1
0x800006e4: fe b7 8f a3 sb	a1, -1(a5)
0x800006e8: fe f7 1c e3 bne	a4, a5, -8
0x800006e0: 00 17 87 93 addi	a5, a5, 1
0x800006e4: fe b7 8f a3 sb	a1, -1(a5)
0x800006e8: fe f7 1c e3 bne	a4, a5, -8
0x800006e0: 00 17 87 93 addi	a5, a5, 1
0x800006e4: fe b7 8f a3 sb	a1, -1(a5)
0x800006e8: fe f7 1c e3 bne	a4, a5, -8
0x800006e0: 00 17 87 93 addi	a5, a5, 1
0x800006e4: fe b7 8f a3 sb	a1, -1(a5)
0x800006e8: fe f7 1c e3 bne	a4, a5, -8
0x800006e0: 00 17 87 93 addi	a5, a5, 1
0x800006e4: fe b7 8f a3 sb	a1, -1(a5)
0x800006e8: fe f7 1c e3 bne	a4, a5, -8
0x800006e0: 00 17 87 93 addi	a5, a5, 1
0x800006e4: fe b7 8f a3 sb	a1, -1(a5)
0x800006e8: fe f7 1c e3 bne	a4, a5, -8
0x800006e0: 00 17 87 93 addi	a5, a5, 1
0x800006e4: fe b7 8f a3 sb	a1, -1(a5)
0x800006e8: fe f7 1c e3 bne	a4, a5, -8
0x800006e0: 00 17 87 93 addi	a5, a5, 1
0x800006e4: fe b7 8f a3 sb	a1, -1(a5)
0x800006e8: fe f7 1c e3 bne	a4, a5, -8
0x800006e0: 00 17 87 93 addi	a5, a5, 1
0x800006e4: fe b7 8f a3 sb	a1, -1(a5)
0x800006e8: fe f7 1c e3 bne	a4, a5, -8
0x800006e0: 00 17 87 93 addi	a5, a5, 1
0x800006e4: fe b7 8f a3 sb	a1, -1(a5)
0x800006e8: fe f7 1c e3 bne	a4, a5, -8
0x800006e0: 00 17 87 93 addi	a5, a5, 1
0x800006e4: fe b7 8f a3 sb	a1, -1(a5)
0x800006e8: fe f7 1c e3 bne	a4, a5, -8
0x800006e0: 00 17 87 93 addi	a5, a5, 1
0x800006e4: fe b7 8f a3 sb	a1, -1(a5)
0x800006e8: fe f7 1c e3 bne	a4, a5, -8
0x800006e0: 00 17 87 93 addi	a5, a5, 1
0x800006e4: fe b7 8f a3 sb	a1, -1(a5)
0x800006e8: fe f7 1c e3 bne	a4, a5, -8
0x800006e0: 00 17 87 93 addi	a5, a5, 1
0x800006e4: fe b7 8f a3 sb	a1, -1(a5)
0x800006e8: fe f7 1c e3 bne	a4, a5, -8
0x800006e0: 00 17 87 93 addi	a5, a5, 1
0x800006e4: fe b7 8f a3 sb	a1, -1(a5)
0x800006e8: fe f7 1c e3 bne	a4, a5, -8
0x800006e0: 00 17 87 93 addi	a5, a5, 1
0x800006e4: fe b7 8f a3 sb	a1, -1(a5)
0x800006e8: fe f7 1c e3 bne	a4, a5, -8
0x800006e0: 00 17 87 93 addi	a5, a5, 1
0x800006e4: fe b7 8f a3 sb	a1, -1(a5)
0x800006e8: fe f7 1c e3 bne	a4, a5, -8
0x800006e0: 00 17 87 93 addi	a5, a5, 1
0x800006e4: fe b7 8f a3 sb	a1, -1(a5)
0x800006e8: fe f7 1c e3 bne	a4, a5, -8
0x800006e0: 00 17 87 93 addi	a5, a5, 1
0x800006e4: fe b7 8f a3 sb	a1, -1(a5)
0x800006e8: fe f7 1c e3 bne	a4, a5, -8
0x800006e0: 00 17 87 93 addi	a5, a5, 1
0x800006e4: fe b7 8f a3 sb	a1, -1(a5)
0x800006e8: fe f7 1c e3 bne	a4, a5, -8
0x800006e0: 00 17 87 93 addi	a5, a5, 1
0x800006e4: fe b7 8f a3 sb	a1, -1(a5)
0x800006e8: fe f7 1c e3 bne	a4, a5, -8
0x800006e0: 00 17 87 93 addi	a5, a5, 1
0x800006e4: fe b7 8f a3 sb	a1, -1(a5)
0x800006e8: fe f7 1c e3 bne	a4, a5, -8
0x800006ec: 00 00 80 67 ret
0x800004c8: 00 00 27 b7 lui	a5, 2
0x800004cc: 80 07 87 93 addi	a5, a5, -0x800
0x800004d0: 00 00 07 17 auipc	a4, 0
0x800004d4: 1e c7 07 13 addi	a4, a4, 0x1ec
0x800004d8: fb 24 2a 23 sw	s2, -0x4c(s0)
0x800004dc: f6 94 2a 23 sw	s1, -0x8c(s0)
0x800004e0: 02 c1 20 83 lw	ra, 0x2c(sp)
0x800004e4: fe e4 2c 23 sw	a4, -8(s0)
0x800004e8: fe f4 2a 23 sw	a5, -0xc(s0)
0x800004ec: 02 81 24 03 lw	s0, 0x28(sp)
0x800004f0: 02 41 24 83 lw	s1, 0x24(sp)
0x800004f4: 02 01 29 03 lw	s2, 0x20(sp)
0x800004f8: 00 09 85 13 mv	a0, s3
0x800004fc: 01 c1 29 83 lw	s3, 0x1c(sp)
0x80000500: 03 01 01 13 addi	sp, sp, 0x30
0x80000504: 00 00 80 67 ret
0x80000294: 00 00 37 97 auipc	a5, 3
0x80000298: b4 a7 a8 23 sw	a0, -0x4b0(a5)
0x8000029c: 0e 05 04 63 beqz	a0, 0xe8
0x800002a0: 00 00 14 17 auipc	s0, 1
0x800002a4: 62 84 04 13 addi	s0, s0, 0x628
0x800002a8: 04 30 05 13 addi	a0, zero, 0x43
0x800002ac: 0f 80 00 ef jal	0xf8
0x800003a4: a0 00 07 b7 lui	a5, 0xa0000
0x800003a8: 3e a7 8c 23 sb	a0, 0x3f8(a5)
0x800003ac: 00 00 80 67 ret
0x800002b0: 00 14 45 03 lbu	a0, 1(s0)
0x800002b4: 00 14 04 13 addi	s0, s0, 1
0x800002b8: fe 05 1a e3 bnez	a0, -0xc
0x800002ac: 0f 80 00 ef jal	0xf8
0x800003a4: a0 00 07 b7 lui	a5, 0xa0000
0x800003a8: 3e a7 8c 23 sb	a0, 0x3f8(a5)
0x800003ac: 00 00 80 67 ret
0x800002b0: 00 14 45 03 lbu	a0, 1(s0)
0x800002b4: 00 14 04 13 addi	s0, s0, 1
0x800002b8: fe 05 1a e3 bnez	a0, -0xc
0x800002ac: 0f 80 00 ef jal	0xf8
0x800003a4: a0 00 07 b7 lui	a5, 0xa0000
0x800003a8: 3e a7 8c 23 sb	a0, 0x3f8(a5)
0x800003ac: 00 00 80 67 ret
0x800002b0: 00 14 45 03 lbu	a0, 1(s0)
0x800002b4: 00 14 04 13 addi	s0, s0, 1
0x800002b8: fe 05 1a e3 bnez	a0, -0xc
0x800002ac: 0f 80 00 ef jal	0xf8
0x800003a4: a0 00 07 b7 lui	a5, 0xa0000
0x800003a8: 3e a7 8c 23 sb	a0, 0x3f8(a5)
0x800003ac: 00 00 80 67 ret
0x800002b0: 00 14 45 03 lbu	a0, 1(s0)
0x800002b4: 00 14 04 13 addi	s0, s0, 1
0x800002b8: fe 05 1a e3 bnez	a0, -0xc
0x800002ac: 0f 80 00 ef jal	0xf8
0x800003a4: a0 00 07 b7 lui	a5, 0xa0000
0x800003a8: 3e a7 8c 23 sb	a0, 0x3f8(a5)
0x800003ac: 00 00 80 67 ret
0x800002b0: 00 14 45 03 lbu	a0, 1(s0)
0x800002b4: 00 14 04 13 addi	s0, s0, 1
0x800002b8: fe 05 1a e3 bnez	a0, -0xc
0x800002ac: 0f 80 00 ef jal	0xf8
0x800003a4: a0 00 07 b7 lui	a5, 0xa0000
0x800003a8: 3e a7 8c 23 sb	a0, 0x3f8(a5)
0x800003ac: 00 00 80 67 ret
0x800002b0: 00 14 45 03 lbu	a0, 1(s0)
0x800002b4: 00 14 04 13 addi	s0, s0, 1
0x800002b8: fe 05 1a e3 bnez	a0, -0xc
0x800002ac: 0f 80 00 ef jal	0xf8
0x800003a4: a0 00 07 b7 lui	a5, 0xa0000
0x800003a8: 3e a7 8c 23 sb	a0, 0x3f8(a5)
0x800003ac: 00 00 80 67 ret
0x800002b0: 00 14 45 03 lbu	a0, 1(s0)
0x800002b4: 00 14 04 13 addi	s0, s0, 1
0x800002b8: fe 05 1a e3 bnez	a0, -0xc
0x800002ac: 0f 80 00 ef jal	0xf8
0x800003a4: a0 00 07 b7 lui	a5, 0xa0000
0x800003a8: 3e a7 8c 23 sb	a0, 0x3f8(a5)
0x800003ac: 00 00 80 67 ret
0x800002b0: 00 14 45 03 lbu	a0, 1(s0)
0x800002b4: 00 14 04 13 addi	s0, s0, 1
0x800002b8: fe 05 1a e3 bnez	a0, -0xc
0x800002ac: 0f 80 00 ef jal	0xf8
0x800003a4: a0 00 07 b7 lui	a5, 0xa0000
0x800003a8: 3e a7 8c 23 sb	a0, 0x3f8(a5)
0x800003ac: 00 00 80 67 ret
0x800002b0: 00 14 45 03 lbu	a0, 1(s0)
0x800002b4: 00 14 04 13 addi	s0, s0, 1
0x800002b8: fe 05 1a e3 bnez	a0, -0xc
0x800002ac: 0f 80 00 ef jal	0xf8
0x800003a4: a0 00 07 b7 lui	a5, 0xa0000
0x800003a8: 3e a7 8c 23 sb	a0, 0x3f8(a5)
0x800003ac: 00 00 80 67 ret
0x800002b0: 00 14 45 03 lbu	a0, 1(s0)
0x800002b4: 00 14 04 13 addi	s0, s0, 1
0x800002b8: fe 05 1a e3 bnez	a0, -0xc
0x800002ac: 0f 80 00 ef jal	0xf8
0x800003a4: a0 00 07 b7 lui	a5, 0xa0000
0x800003a8: 3e a7 8c 23 sb	a0, 0x3f8(a5)
0x800003ac: 00 00 80 67 ret
0x800002b0: 00 14 45 03 lbu	a0, 1(s0)
0x800002b4: 00 14 04 13 addi	s0, s0, 1
0x800002b8: fe 05 1a e3 bnez	a0, -0xc
0x800002ac: 0f 80 00 ef jal	0xf8
0x800003a4: a0 00 07 b7 lui	a5, 0xa0000
0x800003a8: 3e a7 8c 23 sb	a0, 0x3f8(a5)
0x800003ac: 00 00 80 67 ret
0x800002b0: 00 14 45 03 lbu	a0, 1(s0)
0x800002b4: 00 14 04 13 addi	s0, s0, 1
0x800002b8: fe 05 1a e3 bnez	a0, -0xc
0x800002ac: 0f 80 00 ef jal	0xf8
0x800003a4: a0 00 07 b7 lui	a5, 0xa0000
0x800003a8: 3e a7 8c 23 sb	a0, 0x3f8(a5)
0x800003ac: 00 00 80 67 ret
0x800002b0: 00 14 45 03 lbu	a0, 1(s0)
0x800002b4: 00 14 04 13 addi	s0, s0, 1
0x800002b8: fe 05 1a e3 bnez	a0, -0xc
0x800002ac: 0f 80 00 ef jal	0xf8
0x800003a4: a0 00 07 b7 lui	a5, 0xa0000
0x800003a8: 3e a7 8c 23 sb	a0, 0x3f8(a5)
0x800003ac: 00 00 80 67 ret
0x800002b0: 00 14 45 03 lbu	a0, 1(s0)
0x800002b4: 00 14 04 13 addi	s0, s0, 1
0x800002b8: fe 05 1a e3 bnez	a0, -0xc
0x800002ac: 0f 80 00 ef jal	0xf8
0x800003a4: a0 00 07 b7 lui	a5, 0xa0000
0x800003a8: 3e a7 8c 23 sb	a0, 0x3f8(a5)
0x800003ac: 00 00 80 67 ret
0x800002b0: 00 14 45 03 lbu	a0, 1(s0)
0x800002b4: 00 14 04 13 addi	s0, s0, 1
0x800002b8: fe 05 1a e3 bnez	a0, -0xc
0x800002ac: 0f 80 00 ef jal	0xf8
0x800003a4: a0 00 07 b7 lui	a5, 0xa0000
0x800003a8: 3e a7 8c 23 sb	a0, 0x3f8(a5)
0x800003ac: 00 00 80 67 ret
0x800002b0: 00 14 45 03 lbu	a0, 1(s0)
0x800002b4: 00 14 04 13 addi	s0, s0, 1
0x800002b8: fe 05 1a e3 bnez	a0, -0xc
0x800002ac: 0f 80 00 ef jal	0xf8
0x800003a4: a0 00 07 b7 lui	a5, 0xa0000
0x800003a8: 3e a7 8c 23 sb	a0, 0x3f8(a5)
0x800003ac: 00 00 80 67 ret
0x800002b0: 00 14 45 03 lbu	a0, 1(s0)
0x800002b4: 00 14 04 13 addi	s0, s0, 1
0x800002b8: fe 05 1a e3 bnez	a0, -0xc
0x800002ac: 0f 80 00 ef jal	0xf8
0x800003a4: a0 00 07 b7 lui	a5, 0xa0000
0x800003a8: 3e a7 8c 23 sb	a0, 0x3f8(a5)
0x800003ac: 00 00 80 67 ret
0x800002b0: 00 14 45 03 lbu	a0, 1(s0)
0x800002b4: 00 14 04 13 addi	s0, s0, 1
0x800002b8: fe 05 1a e3 bnez	a0, -0xc
0x800002ac: 0f 80 00 ef jal	0xf8
0x800003a4: a0 00 07 b7 lui	a5, 0xa0000
0x800003a8: 3e a7 8c 23 sb	a0, 0x3f8(a5)
0x800003ac: 00 00 80 67 ret
0x800002b0: 00 14 45 03 lbu	a0, 1(s0)
0x800002b4: 00 14 04 13 addi	s0, s0, 1
0x800002b8: fe 05 1a e3 bnez	a0, -0xc
0x800002ac: 0f 80 00 ef jal	0xf8
0x800003a4: a0 00 07 b7 lui	a5, 0xa0000
0x800003a8: 3e a7 8c 23 sb	a0, 0x3f8(a5)
0x800003ac: 00 00 80 67 ret
0x800002b0: 00 14 45 03 lbu	a0, 1(s0)
0x800002b4: 00 14 04 13 addi	s0, s0, 1
0x800002b8: fe 05 1a e3 bnez	a0, -0xc
0x800002ac: 0f 80 00 ef jal	0xf8
0x800003a4: a0 00 07 b7 lui	a5, 0xa0000
0x800003a8: 3e a7 8c 23 sb	a0, 0x3f8(a5)
0x800003ac: 00 00 80 67 ret
0x800002b0: 00 14 45 03 lbu	a0, 1(s0)
0x800002b4: 00 14 04 13 addi	s0, s0, 1
0x800002b8: fe 05 1a e3 bnez	a0, -0xc
0x800002ac: 0f 80 00 ef jal	0xf8
0x800003a4: a0 00 07 b7 lui	a5, 0xa0000
0x800003a8: 3e a7 8c 23 sb	a0, 0x3f8(a5)
0x800003ac: 00 00 80 67 ret
0x800002b0: 00 14 45 03 lbu	a0, 1(s0)
0x800002b4: 00 14 04 13 addi	s0, s0, 1
0x800002b8: fe 05 1a e3 bnez	a0, -0xc
0x800002ac: 0f 80 00 ef jal	0xf8
0x800003a4: a0 00 07 b7 lui	a5, 0xa0000
0x800003a8: 3e a7 8c 23 sb	a0, 0x3f8(a5)
0x800003ac: 00 00 80 67 ret
0x800002b0: 00 14 45 03 lbu	a0, 1(s0)
0x800002b4: 00 14 04 13 addi	s0, s0, 1
0x800002b8: fe 05 1a e3 bnez	a0, -0xc
0x800002ac: 0f 80 00 ef jal	0xf8
0x800003a4: a0 00 07 b7 lui	a5, 0xa0000
0x800003a8: 3e a7 8c 23 sb	a0, 0x3f8(a5)
0x800003ac: 00 00 80 67 ret
0x800002b0: 00 14 45 03 lbu	a0, 1(s0)
0x800002b4: 00 14 04 13 addi	s0, s0, 1
0x800002b8: fe 05 1a e3 bnez	a0, -0xc
0x800002ac: 0f 80 00 ef jal	0xf8
0x800003a4: a0 00 07 b7 lui	a5, 0xa0000
0x800003a8: 3e a7 8c 23 sb	a0, 0x3f8(a5)
0x800003ac: 00 00 80 67 ret
0x800002b0: 00 14 45 03 lbu	a0, 1(s0)
0x800002b4: 00 14 04 13 addi	s0, s0, 1
0x800002b8: fe 05 1a e3 bnez	a0, -0xc
0x800002ac: 0f 80 00 ef jal	0xf8
0x800003a4: a0 00 07 b7 lui	a5, 0xa0000
0x800003a8: 3e a7 8c 23 sb	a0, 0x3f8(a5)
0x800003ac: 00 00 80 67 ret
0x800002b0: 00 14 45 03 lbu	a0, 1(s0)
0x800002b4: 00 14 04 13 addi	s0, s0, 1
0x800002b8: fe 05 1a e3 bnez	a0, -0xc
0x800002ac: 0f 80 00 ef jal	0xf8
0x800003a4: a0 00 07 b7 lui	a5, 0xa0000
0x800003a8: 3e a7 8c 23 sb	a0, 0x3f8(a5)
0x800003ac: 00 00 80 67 ret
0x800002b0: 00 14 45 03 lbu	a0, 1(s0)
0x800002b4: 00 14 04 13 addi	s0, s0, 1
0x800002b8: fe 05 1a e3 bnez	a0, -0xc
0x800002ac: 0f 80 00 ef jal	0xf8
0x800003a4: a0 00 07 b7 lui	a5, 0xa0000
0x800003a8: 3e a7 8c 23 sb	a0, 0x3f8(a5)
0x800003ac: 00 00 80 67 ret
0x800002b0: 00 14 45 03 lbu	a0, 1(s0)
0x800002b4: 00 14 04 13 addi	s0, s0, 1
0x800002b8: fe 05 1a e3 bnez	a0, -0xc
0x800002ac: 0f 80 00 ef jal	0xf8
0x800003a4: a0 00 07 b7 lui	a5, 0xa0000
0x800003a8: 3e a7 8c 23 sb	a0, 0x3f8(a5)
0x800003ac: 00 00 80 67 ret
0x800002b0: 00 14 45 03 lbu	a0, 1(s0)
0x800002b4: 00 14 04 13 addi	s0, s0, 1
0x800002b8: fe 05 1a e3 bnez	a0, -0xc
0x800002bc: 00 00 14 17 auipc	s0, 1
0x800002c0: 62 c4 04 13 addi	s0, s0, 0x62c
0x800002c4: 04 d0 05 13 addi	a0, zero, 0x4d
0x800002c8: 0d c0 00 ef jal	0xdc
0x800003a4: a0 00 07 b7 lui	a5, 0xa0000
0x800003a8: 3e a7 8c 23 sb	a0, 0x3f8(a5)
0x800003ac: 00 00 80 67 ret
0x800002cc: 00 14 45 03 lbu	a0, 1(s0)
0x800002d0: 00 14 04 13 addi	s0, s0, 1
0x800002d4: fe 05 1a e3 bnez	a0, -0xc
0x800002c8: 0d c0 00 ef jal	0xdc
0x800003a4: a0 00 07 b7 lui	a5, 0xa0000
0x800003a8: 3e a7 8c 23 sb	a0, 0x3f8(a5)
0x800003ac: 00 00 80 67 ret
0x800002cc: 00 14 45 03 lbu	a0, 1(s0)
0x800002d0: 00 14 04 13 addi	s0, s0, 1
0x800002d4: fe 05 1a e3 bnez	a0, -0xc
0x800002c8: 0d c0 00 ef jal	0xdc
0x800003a4: a0 00 07 b7 lui	a5, 0xa0000
0x800003a8: 3e a7 8c 23 sb	a0, 0x3f8(a5)
0x800003ac: 00 00 80 67 ret
0x800002cc: 00 14 45 03 lbu	a0, 1(s0)
0x800002d0: 00 14 04 13 addi	s0, s0, 1
0x800002d4: fe 05 1a e3 bnez	a0, -0xc
0x800002c8: 0d c0 00 ef jal	0xdc
0x800003a4: a0 00 07 b7 lui	a5, 0xa0000
0x800003a8: 3e a7 8c 23 sb	a0, 0x3f8(a5)
0x800003ac: 00 00 80 67 ret
0x800002cc: 00 14 45 03 lbu	a0, 1(s0)
0x800002d0: 00 14 04 13 addi	s0, s0, 1
0x800002d4: fe 05 1a e3 bnez	a0, -0xc
0x800002c8: 0d c0 00 ef jal	0xdc
0x800003a4: a0 00 07 b7 lui	a5, 0xa0000
0x800003a8: 3e a7 8c 23 sb	a0, 0x3f8(a5)
0x800003ac: 00 00 80 67 ret
0x800002cc: 00 14 45 03 lbu	a0, 1(s0)
0x800002d0: 00 14 04 13 addi	s0, s0, 1
0x800002d4: fe 05 1a e3 bnez	a0, -0xc
0x800002c8: 0d c0 00 ef jal	0xdc
0x800003a4: a0 00 07 b7 lui	a5, 0xa0000
0x800003a8: 3e a7 8c 23 sb	a0, 0x3f8(a5)
0x800003ac: 00 00 80 67 ret
0x800002cc: 00 14 45 03 lbu	a0, 1(s0)
0x800002d0: 00 14 04 13 addi	s0, s0, 1
0x800002d4: fe 05 1a e3 bnez	a0, -0xc
0x800002c8: 0d c0 00 ef jal	0xdc
0x800003a4: a0 00 07 b7 lui	a5, 0xa0000
0x800003a8: 3e a7 8c 23 sb	a0, 0x3f8(a5)
0x800003ac: 00 00 80 67 ret
0x800002cc: 00 14 45 03 lbu	a0, 1(s0)
0x800002d0: 00 14 04 13 addi	s0, s0, 1
0x800002d4: fe 05 1a e3 bnez	a0, -0xc
0x800002c8: 0d c0 00 ef jal	0xdc
0x800003a4: a0 00 07 b7 lui	a5, 0xa0000
0x800003a8: 3e a7 8c 23 sb	a0, 0x3f8(a5)
0x800003ac: 00 00 80 67 ret
0x800002cc: 00 14 45 03 lbu	a0, 1(s0)
0x800002d0: 00 14 04 13 addi	s0, s0, 1
0x800002d4: fe 05 1a e3 bnez	a0, -0xc
0x800002c8: 0d c0 00 ef jal	0xdc
0x800003a4: a0 00 07 b7 lui	a5, 0xa0000
0x800003a8: 3e a7 8c 23 sb	a0, 0x3f8(a5)
0x800003ac: 00 00 80 67 ret
0x800002cc: 00 14 45 03 lbu	a0, 1(s0)
0x800002d0: 00 14 04 13 addi	s0, s0, 1
0x800002d4: fe 05 1a e3 bnez	a0, -0xc
0x800002c8: 0d c0 00 ef jal	0xdc
0x800003a4: a0 00 07 b7 lui	a5, 0xa0000
0x800003a8: 3e a7 8c 23 sb	a0, 0x3f8(a5)
0x800003ac: 00 00 80 67 ret
0x800002cc: 00 14 45 03 lbu	a0, 1(s0)
0x800002d0: 00 14 04 13 addi	s0, s0, 1
0x800002d4: fe 05 1a e3 bnez	a0, -0xc
0x800002c8: 0d c0 00 ef jal	0xdc
0x800003a4: a0 00 07 b7 lui	a5, 0xa0000
0x800003a8: 3e a7 8c 23 sb	a0, 0x3f8(a5)
0x800003ac: 00 00 80 67 ret
0x800002cc: 00 14 45 03 lbu	a0, 1(s0)
0x800002d0: 00 14 04 13 addi	s0, s0, 1
0x800002d4: fe 05 1a e3 bnez	a0, -0xc
0x800002c8: 0d c0 00 ef jal	0xdc
0x800003a4: a0 00 07 b7 lui	a5, 0xa0000
0x800003a8: 3e a7 8c 23 sb	a0, 0x3f8(a5)
0x800003ac: 00 00 80 67 ret
0x800002cc: 00 14 45 03 lbu	a0, 1(s0)
0x800002d0: 00 14 04 13 addi	s0, s0, 1
0x800002d4: fe 05 1a e3 bnez	a0, -0xc
0x800002c8: 0d c0 00 ef jal	0xdc
0x800003a4: a0 00 07 b7 lui	a5, 0xa0000
0x800003a8: 3e a7 8c 23 sb	a0, 0x3f8(a5)
0x800003ac: 00 00 80 67 ret
0x800002cc: 00 14 45 03 lbu	a0, 1(s0)
0x800002d0: 00 14 04 13 addi	s0, s0, 1
0x800002d4: fe 05 1a e3 bnez	a0, -0xc
0x800002c8: 0d c0 00 ef jal	0xdc
0x800003a4: a0 00 07 b7 lui	a5, 0xa0000
0x800003a8: 3e a7 8c 23 sb	a0, 0x3f8(a5)
0x800003ac: 00 00 80 67 ret
0x800002cc: 00 14 45 03 lbu	a0, 1(s0)
0x800002d0: 00 14 04 13 addi	s0, s0, 1
0x800002d4: fe 05 1a e3 bnez	a0, -0xc
0x800002c8: 0d c0 00 ef jal	0xdc
0x800003a4: a0 00 07 b7 lui	a5, 0xa0000
0x800003a8: 3e a7 8c 23 sb	a0, 0x3f8(a5)
0x800003ac: 00 00 80 67 ret
0x800002cc: 00 14 45 03 lbu	a0, 1(s0)
0x800002d0: 00 14 04 13 addi	s0, s0, 1
0x800002d4: fe 05 1a e3 bnez	a0, -0xc
0x800002c8: 0d c0 00 ef jal	0xdc
0x800003a4: a0 00 07 b7 lui	a5, 0xa0000
0x800003a8: 3e a7 8c 23 sb	a0, 0x3f8(a5)
0x800003ac: 00 00 80 67 ret
0x800002cc: 00 14 45 03 lbu	a0, 1(s0)
0x800002d0: 00 14 04 13 addi	s0, s0, 1
0x800002d4: fe 05 1a e3 bnez	a0, -0xc
0x800002c8: 0d c0 00 ef jal	0xdc
0x800003a4: a0 00 07 b7 lui	a5, 0xa0000
0x800003a8: 3e a7 8c 23 sb	a0, 0x3f8(a5)
0x800003ac: 00 00 80 67 ret
0x800002cc: 00 14 45 03 lbu	a0, 1(s0)
0x800002d0: 00 14 04 13 addi	s0, s0, 1
0x800002d4: fe 05 1a e3 bnez	a0, -0xc
0x800002c8: 0d c0 00 ef jal	0xdc
0x800003a4: a0 00 07 b7 lui	a5, 0xa0000
0x800003a8: 3e a7 8c 23 sb	a0, 0x3f8(a5)
0x800003ac: 00 00 80 67 ret
0x800002cc: 00 14 45 03 lbu	a0, 1(s0)
0x800002d0: 00 14 04 13 addi	s0, s0, 1
0x800002d4: fe 05 1a e3 bnez	a0, -0xc
0x800002c8: 0d c0 00 ef jal	0xdc
0x800003a4: a0 00 07 b7 lui	a5, 0xa0000
0x800003a8: 3e a7 8c 23 sb	a0, 0x3f8(a5)
0x800003ac: 00 00 80 67 ret
0x800002cc: 00 14 45 03 lbu	a0, 1(s0)
0x800002d0: 00 14 04 13 addi	s0, s0, 1
0x800002d4: fe 05 1a e3 bnez	a0, -0xc
0x800002c8: 0d c0 00 ef jal	0xdc
0x800003a4: a0 00 07 b7 lui	a5, 0xa0000
0x800003a8: 3e a7 8c 23 sb	a0, 0x3f8(a5)
0x800003ac: 00 00 80 67 ret
0x800002cc: 00 14 45 03 lbu	a0, 1(s0)
0x800002d0: 00 14 04 13 addi	s0, s0, 1
0x800002d4: fe 05 1a e3 bnez	a0, -0xc
0x800002c8: 0d c0 00 ef jal	0xdc
0x800003a4: a0 00 07 b7 lui	a5, 0xa0000
0x800003a8: 3e a7 8c 23 sb	a0, 0x3f8(a5)
0x800003ac: 00 00 80 67 ret
0x800002cc: 00 14 45 03 lbu	a0, 1(s0)
0x800002d0: 00 14 04 13 addi	s0, s0, 1
0x800002d4: fe 05 1a e3 bnez	a0, -0xc
0x800002c8: 0d c0 00 ef jal	0xdc
0x800003a4: a0 00 07 b7 lui	a5, 0xa0000
0x800003a8: 3e a7 8c 23 sb	a0, 0x3f8(a5)
0x800003ac: 00 00 80 67 ret
0x800002cc: 00 14 45 03 lbu	a0, 1(s0)
0x800002d0: 00 14 04 13 addi	s0, s0, 1
0x800002d4: fe 05 1a e3 bnez	a0, -0xc
0x800002c8: 0d c0 00 ef jal	0xdc
0x800003a4: a0 00 07 b7 lui	a5, 0xa0000
0x800003a8: 3e a7 8c 23 sb	a0, 0x3f8(a5)
0x800003ac: 00 00 80 67 ret
0x800002cc: 00 14 45 03 lbu	a0, 1(s0)
0x800002d0: 00 14 04 13 addi	s0, s0, 1
0x800002d4: fe 05 1a e3 bnez	a0, -0xc
0x800002c8: 0d c0 00 ef jal	0xdc
0x800003a4: a0 00 07 b7 lui	a5, 0xa0000
0x800003a8: 3e a7 8c 23 sb	a0, 0x3f8(a5)
0x800003ac: 00 00 80 67 ret
0x800002cc: 00 14 45 03 lbu	a0, 1(s0)
0x800002d0: 00 14 04 13 addi	s0, s0, 1
0x800002d4: fe 05 1a e3 bnez	a0, -0xc
0x800002c8: 0d c0 00 ef jal	0xdc
0x800003a4: a0 00 07 b7 lui	a5, 0xa0000
0x800003a8: 3e a7 8c 23 sb	a0, 0x3f8(a5)
0x800003ac: 00 00 80 67 ret
0x800002cc: 00 14 45 03 lbu	a0, 1(s0)
0x800002d0: 00 14 04 13 addi	s0, s0, 1
0x800002d4: fe 05 1a e3 bnez	a0, -0xc
0x800002c8: 0d c0 00 ef jal	0xdc
0x800003a4: a0 00 07 b7 lui	a5, 0xa0000
0x800003a8: 3e a7 8c 23 sb	a0, 0x3f8(a5)
0x800003ac: 00 00 80 67 ret
0x800002cc: 00 14 45 03 lbu	a0, 1(s0)
0x800002d0: 00 14 04 13 addi	s0, s0, 1
0x800002d4: fe 05 1a e3 bnez	a0, -0xc
0x800002c8: 0d c0 00 ef jal	0xdc
0x800003a4: a0 00 07 b7 lui	a5, 0xa0000
0x800003a8: 3e a7 8c 23 sb	a0, 0x3f8(a5)
0x800003ac: 00 00 80 67 ret
0x800002cc: 00 14 45 03 lbu	a0, 1(s0)
0x800002d0: 00 14 04 13 addi	s0, s0, 1
0x800002d4: fe 05 1a e3 bnez	a0, -0xc
0x800002c8: 0d c0 00 ef jal	0xdc
0x800003a4: a0 00 07 b7 lui	a5, 0xa0000
0x800003a8: 3e a7 8c 23 sb	a0, 0x3f8(a5)
0x800003ac: 00 00 80 67 ret
0x800002cc: 00 14 45 03 lbu	a0, 1(s0)
0x800002d0: 00 14 04 13 addi	s0, s0, 1
0x800002d4: fe 05 1a e3 bnez	a0, -0xc
0x800002c8: 0d c0 00 ef jal	0xdc
0x800003a4: a0 00 07 b7 lui	a5, 0xa0000
0x800003a8: 3e a7 8c 23 sb	a0, 0x3f8(a5)
0x800003ac: 00 00 80 67 ret
0x800002cc: 00 14 45 03 lbu	a0, 1(s0)
0x800002d0: 00 14 04 13 addi	s0, s0, 1
0x800002d4: fe 05 1a e3 bnez	a0, -0xc
0x800002c8: 0d c0 00 ef jal	0xdc
0x800003a4: a0 00 07 b7 lui	a5, 0xa0000
0x800003a8: 3e a7 8c 23 sb	a0, 0x3f8(a5)
0x800003ac: 00 00 80 67 ret
0x800002cc: 00 14 45 03 lbu	a0, 1(s0)
0x800002d0: 00 14 04 13 addi	s0, s0, 1
0x800002d4: fe 05 1a e3 bnez	a0, -0xc
0x800002c8: 0d c0 00 ef jal	0xdc
0x800003a4: a0 00 07 b7 lui	a5, 0xa0000
0x800003a8: 3e a7 8c 23 sb	a0, 0x3f8(a5)
0x800003ac: 00 00 80 67 ret
0x800002cc: 00 14 45 03 lbu	a0, 1(s0)
0x800002d0: 00 14 04 13 addi	s0, s0, 1
0x800002d4: fe 05 1a e3 bnez	a0, -0xc
0x800002c8: 0d c0 00 ef jal	0xdc
0x800003a4: a0 00 07 b7 lui	a5, 0xa0000
0x800003a8: 3e a7 8c 23 sb	a0, 0x3f8(a5)
0x800003ac: 00 00 80 67 ret
0x800002cc: 00 14 45 03 lbu	a0, 1(s0)
0x800002d0: 00 14 04 13 addi	s0, s0, 1
0x800002d4: fe 05 1a e3 bnez	a0, -0xc
0x800002c8: 0d c0 00 ef jal	0xdc
0x800003a4: a0 00 07 b7 lui	a5, 0xa0000
0x800003a8: 3e a7 8c 23 sb	a0, 0x3f8(a5)
0x800003ac: 00 00 80 67 ret
0x800002cc: 00 14 45 03 lbu	a0, 1(s0)
0x800002d0: 00 14 04 13 addi	s0, s0, 1
0x800002d4: fe 05 1a e3 bnez	a0, -0xc
0x800002c8: 0d c0 00 ef jal	0xdc
0x800003a4: a0 00 07 b7 lui	a5, 0xa0000
0x800003a8: 3e a7 8c 23 sb	a0, 0x3f8(a5)
0x800003ac: 00 00 80 67 ret
0x800002cc: 00 14 45 03 lbu	a0, 1(s0)
0x800002d0: 00 14 04 13 addi	s0, s0, 1
0x800002d4: fe 05 1a e3 bnez	a0, -0xc
0x800002c8: 0d c0 00 ef jal	0xdc
0x800003a4: a0 00 07 b7 lui	a5, 0xa0000
0x800003a8: 3e a7 8c 23 sb	a0, 0x3f8(a5)
0x800003ac: 00 00 80 67 ret
0x800002cc: 00 14 45 03 lbu	a0, 1(s0)
0x800002d0: 00 14 04 13 addi	s0, s0, 1
0x800002d4: fe 05 1a e3 bnez	a0, -0xc
0x800002d8: 23 00 00 ef jal	0x230
0x80000508: ff f0 08 93 addi	a7, zero, -1
0x8000050c: 00 00 00 73 ecall
0x80000580: f7 41 01 13 addi	sp, sp, -0x8c
0x80000584: 00 11 22 23 sw	ra, 4(sp)
0x80000588: 00 31 26 23 sw	gp, 0xc(sp)
0x8000058c: 00 41 28 23 sw	tp, 0x10(sp)
0x80000590: 00 51 2a 23 sw	t0, 0x14(sp)
0x80000594: 00 61 2c 23 sw	t1, 0x18(sp)
0x80000598: 00 71 2e 23 sw	t2, 0x1c(sp)
0x8000059c: 02 81 20 23 sw	s0, 0x20(sp)
0x800005a0: 02 91 22 23 sw	s1, 0x24(sp)
0x800005a4: 02 a1 24 23 sw	a0, 0x28(sp)
0x800005a8: 02 b1 26 23 sw	a1, 0x2c(sp)
0x800005ac: 02 c1 28 23 sw	a2, 0x30(sp)
0x800005b0: 02 d1 2a 23 sw	a3, 0x34(sp)
0x800005b4: 02 e1 2c 23 sw	a4, 0x38(sp)
0x800005b8: 02 f1 2e 23 sw	a5, 0x3c(sp)
0x800005bc: 05 01 20 23 sw	a6, 0x40(sp)
0x800005c0: 05 11 22 23 sw	a7, 0x44(sp)
0x800005c4: 05 21 24 23 sw	s2, 0x48(sp)
0x800005c8: 05 31 26 23 sw	s3, 0x4c(sp)
0x800005cc: 05 41 28 23 sw	s4, 0x50(sp)
0x800005d0: 05 51 2a 23 sw	s5, 0x54(sp)
0x800005d4: 05 61 2c 23 sw	s6, 0x58(sp)
0x800005d8: 05 71 2e 23 sw	s7, 0x5c(sp)
0x800005dc: 07 81 20 23 sw	s8, 0x60(sp)
0x800005e0: 07 91 22 23 sw	s9, 0x64(sp)
0x800005e4: 07 a1 24 23 sw	s10, 0x68(sp)
0x800005e8: 07 b1 26 23 sw	s11, 0x6c(sp)
0x800005ec: 07 c1 28 23 sw	t3, 0x70(sp)
0x800005f0: 07 d1 2a 23 sw	t4, 0x74(sp)
0x800005f4: 07 e1 2c 23 sw	t5, 0x78(sp)
0x800005f8: 07 f1 2e 23 sw	t6, 0x7c(sp)
0x800005fc: 34 20 22 f3 csrr	t0, mcause
0x80000600: 30 00 23 73 csrr	t1, mstatus
0x80000604: 34 10 23 f3 csrr	t2, mepc
0x80000608: 08 51 20 23 sw	t0, 0x80(sp)
0x8000060c: 08 61 22 23 sw	t1, 0x84(sp)
0x80000610: 08 71 24 23 sw	t2, 0x88(sp)
0x80000614: 00 02 05 37 lui	a0, 0x20
0x80000618: 00 a3 63 33 or	t1, t1, a0
0x8000061c: 30 03 10 73 csrw	mstatus, t1
0x80000620: 00 01 05 13 mv	a0, sp
0x80000624: db 9f f0 ef jal	-0x248
0x800003dc: 00 00 37 97 auipc	a5, 3
0x800003e0: a0 c7 a7 83 lw	a5, -0x5f4(a5)
0x800003e4: 00 05 05 93 mv	a1, a0
0x800003e8: 06 07 82 63 beqz	a5, 0x64
0x800003ec: 08 05 26 03 lw	a2, 0x80(a0)
0x800003f0: fd 01 01 13 addi	sp, sp, -0x30
0x800003f4: 02 11 26 23 sw	ra, 0x2c(sp)
0x800003f8: 00 01 2a 23 sw	zero, 0x14(sp)
0x800003fc: 00 01 2c 23 sw	zero, 0x18(sp)
0x80000400: 00 01 2e 23 sw	zero, 0x1c(sp)
0x80000404: 00 b0 06 93 addi	a3, zero, 0xb
0x80000408: 00 40 07 13 addi	a4, zero, 4
0x8000040c: 02 d6 0c 63 beq	a2, a3, 0x38
0x80000444: 00 10 07 13 addi	a4, zero, 1
0x80000448: fc 9f f0 6f j	-0x38
0x80000410: 00 e1 20 23 sw	a4, 0(sp)
0x80000414: 01 41 27 03 lw	a4, 0x14(sp)
0x80000418: 00 01 05 13 mv	a0, sp
0x8000041c: 00 e1 22 23 sw	a4, 4(sp)
0x80000420: 01 81 27 03 lw	a4, 0x18(sp)
0x80000424: 00 e1 24 23 sw	a4, 8(sp)
0x80000428: 01 c1 27 03 lw	a4, 0x1c(sp)
0x8000042c: 00 e1 26 23 sw	a4, 0xc(sp)
0x80000430: 00 07 80 e7 jalr	a5
0x80000010: fe 01 01 13 addi	sp, sp, -0x20
0x80000014: 01 21 28 23 sw	s2, 0x10(sp)
0x80000018: 00 00 39 17 auipc	s2, 3
0x8000001c: dc 89 09 13 addi	s2, s2, -0x238
0x80000020: 00 09 27 83 lw	a5, 0(s2)
0x80000024: 00 81 2c 23 sw	s0, 0x18(sp)
0x80000028: 00 91 2a 23 sw	s1, 0x14(sp)
0x8000002c: 01 31 26 23 sw	s3, 0xc(sp)
0x80000030: 00 11 2e 23 sw	ra, 0x1c(sp)
0x80000034: 00 17 87 93 addi	a5, a5, 1
0x80000038: 00 05 09 93 mv	s3, a0
0x8000003c: 00 05 84 93 mv	s1, a1
0x80000040: 00 f9 20 23 sw	a5, 0(s2)
0x80000044: 00 00 14 17 auipc	s0, 1
0x80000048: 77 44 04 13 addi	s0, s0, 0x774
0x8000004c: 05 30 05 13 addi	a0, zero, 0x53
0x80000050: 35 40 00 ef jal	0x354
0x800003a4: a0 00 07 b7 lui	a5, 0xa0000
0x800003a8: 3e a7 8c 23 sb	a0, 0x3f8(a5)
0x800003ac: 00 00 80 67 ret
0x80000054: 00 14 45 03 lbu	a0, 1(s0)
0x80000058: 00 14 04 13 addi	s0, s0, 1
0x8000005c: fe 05 1a e3 bnez	a0, -0xc
0x80000050: 35 40 00 ef jal	0x354
0x800003a4: a0 00 07 b7 lui	a5, 0xa0000
0x800003a8: 3e a7 8c 23 sb	a0, 0x3f8(a5)
0x800003ac: 00 00 80 67 ret
0x80000054: 00 14 45 03 lbu	a0, 1(s0)
0x80000058: 00 14 04 13 addi	s0, s0, 1
0x8000005c: fe 05 1a e3 bnez	a0, -0xc
0x80000050: 35 40 00 ef jal	0x354
0x800003a4: a0 00 07 b7 lui	a5, 0xa0000
0x800003a8: 3e a7 8c 23 sb	a0, 0x3f8(a5)
0x800003ac: 00 00 80 67 ret
0x80000054: 00 14 45 03 lbu	a0, 1(s0)
0x80000058: 00 14 04 13 addi	s0, s0, 1
0x8000005c: fe 05 1a e3 bnez	a0, -0xc
0x80000050: 35 40 00 ef jal	0x354
0x800003a4: a0 00 07 b7 lui	a5, 0xa0000
0x800003a8: 3e a7 8c 23 sb	a0, 0x3f8(a5)
0x800003ac: 00 00 80 67 ret
0x80000054: 00 14 45 03 lbu	a0, 1(s0)
0x80000058: 00 14 04 13 addi	s0, s0, 1
0x8000005c: fe 05 1a e3 bnez	a0, -0xc
0x80000050: 35 40 00 ef jal	0x354
0x800003a4: a0 00 07 b7 lui	a5, 0xa0000
0x800003a8: 3e a7 8c 23 sb	a0, 0x3f8(a5)
0x800003ac: 00 00 80 67 ret
0x80000054: 00 14 45 03 lbu	a0, 1(s0)
0x80000058: 00 14 04 13 addi	s0, s0, 1
0x8000005c: fe 05 1a e3 bnez	a0, -0xc
0x80000050: 35 40 00 ef jal	0x354
0x800003a4: a0 00 07 b7 lui	a5, 0xa0000
0x800003a8: 3e a7 8c 23 sb	a0, 0x3f8(a5)
0x800003ac: 00 00 80 67 ret
0x80000054: 00 14 45 03 lbu	a0, 1(s0)
0x80000058: 00 14 04 13 addi	s0, s0, 1
0x8000005c: fe 05 1a e3 bnez	a0, -0xc
0x80000050: 35 40 00 ef jal	0x354
0x800003a4: a0 00 07 b7 lui	a5, 0xa0000
0x800003a8: 3e a7 8c 23 sb	a0, 0x3f8(a5)
0x800003ac: 00 00 80 67 ret
0x80000054: 00 14 45 03 lbu	a0, 1(s0)
0x80000058: 00 14 04 13 addi	s0, s0, 1
0x8000005c: fe 05 1a e3 bnez	a0, -0xc
0x80000050: 35 40 00 ef jal	0x354
0x800003a4: a0 00 07 b7 lui	a5, 0xa0000
0x800003a8: 3e a7 8c 23 sb	a0, 0x3f8(a5)
0x800003ac: 00 00 80 67 ret
0x80000054: 00 14 45 03 lbu	a0, 1(s0)
0x80000058: 00 14 04 13 addi	s0, s0, 1
0x8000005c: fe 05 1a e3 bnez	a0, -0xc
0x80000050: 35 40 00 ef jal	0x354
0x800003a4: a0 00 07 b7 lui	a5, 0xa0000
0x800003a8: 3e a7 8c 23 sb	a0, 0x3f8(a5)
0x800003ac: 00 00 80 67 ret
0x80000054: 00 14 45 03 lbu	a0, 1(s0)
0x80000058: 00 14 04 13 addi	s0, s0, 1
0x8000005c: fe 05 1a e3 bnez	a0, -0xc
0x80000050: 35 40 00 ef jal	0x354
0x800003a4: a0 00 07 b7 lui	a5, 0xa0000
0x800003a8: 3e a7 8c 23 sb	a0, 0x3f8(a5)
0x800003ac: 00 00 80 67 ret
0x80000054: 00 14 45 03 lbu	a0, 1(s0)
0x80000058: 00 14 04 13 addi	s0, s0, 1
0x8000005c: fe 05 1a e3 bnez	a0, -0xc
0x80000050: 35 40 00 ef jal	0x354
0x800003a4: a0 00 07 b7 lui	a5, 0xa0000
0x800003a8: 3e a7 8c 23 sb	a0, 0x3f8(a5)
0x800003ac: 00 00 80 67 ret
0x80000054: 00 14 45 03 lbu	a0, 1(s0)
0x80000058: 00 14 04 13 addi	s0, s0, 1
0x8000005c: fe 05 1a e3 bnez	a0, -0xc
0x80000050: 35 40 00 ef jal	0x354
0x800003a4: a0 00 07 b7 lui	a5, 0xa0000
0x800003a8: 3e a7 8c 23 sb	a0, 0x3f8(a5)
0x800003ac: 00 00 80 67 ret
0x80000054: 00 14 45 03 lbu	a0, 1(s0)
0x80000058: 00 14 04 13 addi	s0, s0, 1
0x8000005c: fe 05 1a e3 bnez	a0, -0xc
0x80000050: 35 40 00 ef jal	0x354
0x800003a4: a0 00 07 b7 lui	a5, 0xa0000
0x800003a8: 3e a7 8c 23 sb	a0, 0x3f8(a5)
0x800003ac: 00 00 80 67 ret
0x80000054: 00 14 45 03 lbu	a0, 1(s0)
0x80000058: 00 14 04 13 addi	s0, s0, 1
0x8000005c: fe 05 1a e3 bnez	a0, -0xc
0x80000050: 35 40 00 ef jal	0x354
0x800003a4: a0 00 07 b7 lui	a5, 0xa0000
0x800003a8: 3e a7 8c 23 sb	a0, 0x3f8(a5)
0x800003ac: 00 00 80 67 ret
0x80000054: 00 14 45 03 lbu	a0, 1(s0)
0x80000058: 00 14 04 13 addi	s0, s0, 1
0x8000005c: fe 05 1a e3 bnez	a0, -0xc
0x80000050: 35 40 00 ef jal	0x354
0x800003a4: a0 00 07 b7 lui	a5, 0xa0000
0x800003a8: 3e a7 8c 23 sb	a0, 0x3f8(a5)
0x800003ac: 00 00 80 67 ret
0x80000054: 00 14 45 03 lbu	a0, 1(s0)
0x80000058: 00 14 04 13 addi	s0, s0, 1
0x8000005c: fe 05 1a e3 bnez	a0, -0xc
0x80000050: 35 40 00 ef jal	0x354
0x800003a4: a0 00 07 b7 lui	a5, 0xa0000
0x800003a8: 3e a7 8c 23 sb	a0, 0x3f8(a5)
0x800003ac: 00 00 80 67 ret
0x80000054: 00 14 45 03 lbu	a0, 1(s0)
0x80000058: 00 14 04 13 addi	s0, s0, 1
0x8000005c: fe 05 1a e3 bnez	a0, -0xc
0x80000050: 35 40 00 ef jal	0x354
0x800003a4: a0 00 07 b7 lui	a5, 0xa0000
0x800003a8: 3e a7 8c 23 sb	a0, 0x3f8(a5)
0x800003ac: 00 00 80 67 ret
0x80000054: 00 14 45 03 lbu	a0, 1(s0)
0x80000058: 00 14 04 13 addi	s0, s0, 1
0x8000005c: fe 05 1a e3 bnez	a0, -0xc
0x80000060: 00 09 25 03 lw	a0, 0(s2)
0x80000064: 00 00 14 17 auipc	s0, 1
0x80000068: 76 84 04 13 addi	s0, s0, 0x768
0x8000006c: 03 05 05 13 addi	a0, a0, 0x30
0x80000070: 0f f5 75 13 andi	a0, a0, 0xff
0x80000074: 33 00 00 ef jal	0x330
0x800003a4: a0 00 07 b7 lui	a5, 0xa0000
0x800003a8: 3e a7 8c 23 sb	a0, 0x3f8(a5)
0x800003ac: 00 00 80 67 ret
0x80000078: 02 c0 05 13 addi	a0, zero, 0x2c
0x8000007c: 32 80 00 ef jal	0x328
0x800003a4: a0 00 07 b7 lui	a5, 0xa0000
0x800003a8: 3e a7 8c 23 sb	a0, 0x3f8(a5)
0x800003ac: 00 00 80 67 ret
0x80000080: 00 14 45 03 lbu	a0, 1(s0)
0x80000084: 00 14 04 13 addi	s0, s0, 1
0x80000088: fe 05 1a e3 bnez	a0, -0xc
0x8000007c: 32 80 00 ef jal	0x328
0x800003a4: a0 00 07 b7 lui	a5, 0xa0000
0x800003a8: 3e a7 8c 23 sb	a0, 0x3f8(a5)
0x800003ac: 00 00 80 67 ret
0x80000080: 00 14 45 03 lbu	a0, 1(s0)
0x80000084: 00 14 04 13 addi	s0, s0, 1
0x80000088: fe 05 1a e3 bnez	a0, -0xc
0x8000007c: 32 80 00 ef jal	0x328
0x800003a4: a0 00 07 b7 lui	a5, 0xa0000
0x800003a8: 3e a7 8c 23 sb	a0, 0x3f8(a5)
0x800003ac: 00 00 80 67 ret
0x80000080: 00 14 45 03 lbu	a0, 1(s0)
0x80000084: 00 14 04 13 addi	s0, s0, 1
0x80000088: fe 05 1a e3 bnez	a0, -0xc
0x8000007c: 32 80 00 ef jal	0x328
0x800003a4: a0 00 07 b7 lui	a5, 0xa0000
0x800003a8: 3e a7 8c 23 sb	a0, 0x3f8(a5)
0x800003ac: 00 00 80 67 ret
0x80000080: 00 14 45 03 lbu	a0, 1(s0)
0x80000084: 00 14 04 13 addi	s0, s0, 1
0x80000088: fe 05 1a e3 bnez	a0, -0xc
0x8000007c: 32 80 00 ef jal	0x328
0x800003a4: a0 00 07 b7 lui	a5, 0xa0000
0x800003a8: 3e a7 8c 23 sb	a0, 0x3f8(a5)
0x800003ac: 00 00 80 67 ret
0x80000080: 00 14 45 03 lbu	a0, 1(s0)
0x80000084: 00 14 04 13 addi	s0, s0, 1
0x80000088: fe 05 1a e3 bnez	a0, -0xc
0x8000007c: 32 80 00 ef jal	0x328
0x800003a4: a0 00 07 b7 lui	a5, 0xa0000
0x800003a8: 3e a7 8c 23 sb	a0, 0x3f8(a5)
0x800003ac: 00 00 80 67 ret
0x80000080: 00 14 45 03 lbu	a0, 1(s0)
0x80000084: 00 14 04 13 addi	s0, s0, 1
0x80000088: fe 05 1a e3 bnez	a0, -0xc
0x8000007c: 32 80 00 ef jal	0x328
0x800003a4: a0 00 07 b7 lui	a5, 0xa0000
0x800003a8: 3e a7 8c 23 sb	a0, 0x3f8(a5)
0x800003ac: 00 00 80 67 ret
0x80000080: 00 14 45 03 lbu	a0, 1(s0)
0x80000084: 00 14 04 13 addi	s0, s0, 1
0x80000088: fe 05 1a e3 bnez	a0, -0xc
0x8000007c: 32 80 00 ef jal	0x328
0x800003a4: a0 00 07 b7 lui	a5, 0xa0000
0x800003a8: 3e a7 8c 23 sb	a0, 0x3f8(a5)
0x800003ac: 00 00 80 67 ret
0x80000080: 00 14 45 03 lbu	a0, 1(s0)
0x80000084: 00 14 04 13 addi	s0, s0, 1
0x80000088: fe 05 1a e3 bnez	a0, -0xc
0x8000007c: 32 80 00 ef jal	0x328
0x800003a4: a0 00 07 b7 lui	a5, 0xa0000
0x800003a8: 3e a7 8c 23 sb	a0, 0x3f8(a5)
0x800003ac: 00 00 80 67 ret
0x80000080: 00 14 45 03 lbu	a0, 1(s0)
0x80000084: 00 14 04 13 addi	s0, s0, 1
0x80000088: fe 05 1a e3 bnez	a0, -0xc
0x8000008c: 00 09 a5 03 lw	a0, 0(s3)
0x80000090: 03 05 05 13 addi	a0, a0, 0x30
0x80000094: 0f f5 75 13 andi	a0, a0, 0xff
0x80000098: 30 c0 00 ef jal	0x30c
0x800003a4: a0 00 07 b7 lui	a5, 0xa0000
0x800003a8: 3e a7 8c 23 sb	a0, 0x3f8(a5)
0x800003ac: 00 00 80 67 ret
0x8000009c: 00 a0 05 13 addi	a0, zero, 0xa
0x800000a0: 30 40 00 ef jal	0x304
0x800003a4: a0 00 07 b7 lui	a5, 0xa0000
0x800003a8: 3e a7 8c 23 sb	a0, 0x3f8(a5)
0x800003ac: 00 00 80 67 ret
0x800000a4: 00 09 27 83 lw	a5, 0(s2)
0x800000a8: 00 10 07 13 addi	a4, zero, 1
0x800000ac: 06 e7 84 63 beq	a5, a4, 0x68
0x80000114: 00 00 14 17 auipc	s0, 1
0x80000118: 6c 44 04 13 addi	s0, s0, 0x6c4
0x8000011c: 05 30 05 13 addi	a0, zero, 0x53
0x80000120: 28 40 00 ef jal	0x284
0x800003a4: a0 00 07 b7 lui	a5, 0xa0000
0x800003a8: 3e a7 8c 23 sb	a0, 0x3f8(a5)
0x800003ac: 00 00 80 67 ret
0x80000124: 00 14 45 03 lbu	a0, 1(s0)
0x80000128: 00 14 04 13 addi	s0, s0, 1
0x8000012c: fe 05 1a e3 bnez	a0, -0xc
0x80000120: 28 40 00 ef jal	0x284
0x800003a4: a0 00 07 b7 lui	a5, 0xa0000
0x800003a8: 3e a7 8c 23 sb	a0, 0x3f8(a5)
0x800003ac: 00 00 80 67 ret
0x80000124: 00 14 45 03 lbu	a0, 1(s0)
0x80000128: 00 14 04 13 addi	s0, s0, 1
0x8000012c: fe 05 1a e3 bnez	a0, -0xc
0x80000120: 28 40 00 ef jal	0x284
0x800003a4: a0 00 07 b7 lui	a5, 0xa0000
0x800003a8: 3e a7 8c 23 sb	a0, 0x3f8(a5)
0x800003ac: 00 00 80 67 ret
0x80000124: 00 14 45 03 lbu	a0, 1(s0)
0x80000128: 00 14 04 13 addi	s0, s0, 1
0x8000012c: fe 05 1a e3 bnez	a0, -0xc
0x80000120: 28 40 00 ef jal	0x284
0x800003a4: a0 00 07 b7 lui	a5, 0xa0000
0x800003a8: 3e a7 8c 23 sb	a0, 0x3f8(a5)
0x800003ac: 00 00 80 67 ret
0x80000124: 00 14 45 03 lbu	a0, 1(s0)
0x80000128: 00 14 04 13 addi	s0, s0, 1
0x8000012c: fe 05 1a e3 bnez	a0, -0xc
0x80000120: 28 40 00 ef jal	0x284
0x800003a4: a0 00 07 b7 lui	a5, 0xa0000
0x800003a8: 3e a7 8c 23 sb	a0, 0x3f8(a5)
0x800003ac: 00 00 80 67 ret
0x80000124: 00 14 45 03 lbu	a0, 1(s0)
0x80000128: 00 14 04 13 addi	s0, s0, 1
0x8000012c: fe 05 1a e3 bnez	a0, -0xc
0x80000120: 28 40 00 ef jal	0x284
0x800003a4: a0 00 07 b7 lui	a5, 0xa0000
0x800003a8: 3e a7 8c 23 sb	a0, 0x3f8(a5)
0x800003ac: 00 00 80 67 ret
0x80000124: 00 14 45 03 lbu	a0, 1(s0)
0x80000128: 00 14 04 13 addi	s0, s0, 1
0x8000012c: fe 05 1a e3 bnez	a0, -0xc
0x80000120: 28 40 00 ef jal	0x284
0x800003a4: a0 00 07 b7 lui	a5, 0xa0000
0x800003a8: 3e a7 8c 23 sb	a0, 0x3f8(a5)
0x800003ac: 00 00 80 67 ret
0x80000124: 00 14 45 03 lbu	a0, 1(s0)
0x80000128: 00 14 04 13 addi	s0, s0, 1
0x8000012c: fe 05 1a e3 bnez	a0, -0xc
0x80000120: 28 40 00 ef jal	0x284
0x800003a4: a0 00 07 b7 lui	a5, 0xa0000
0x800003a8: 3e a7 8c 23 sb	a0, 0x3f8(a5)
0x800003ac: 00 00 80 67 ret
0x80000124: 00 14 45 03 lbu	a0, 1(s0)
0x80000128: 00 14 04 13 addi	s0, s0, 1
0x8000012c: fe 05 1a e3 bnez	a0, -0xc
0x80000120: 28 40 00 ef jal	0x284
0x800003a4: a0 00 07 b7 lui	a5, 0xa0000
0x800003a8: 3e a7 8c 23 sb	a0, 0x3f8(a5)
0x800003ac: 00 00 80 67 ret
0x80000124: 00 14 45 03 lbu	a0, 1(s0)
0x80000128: 00 14 04 13 addi	s0, s0, 1
0x8000012c: fe 05 1a e3 bnez	a0, -0xc
0x80000120: 28 40 00 ef jal	0x284
0x800003a4: a0 00 07 b7 lui	a5, 0xa0000
0x800003a8: 3e a7 8c 23 sb	a0, 0x3f8(a5)
0x800003ac: 00 00 80 67 ret
0x80000124: 00 14 45 03 lbu	a0, 1(s0)
0x80000128: 00 14 04 13 addi	s0, s0, 1
0x8000012c: fe 05 1a e3 bnez	a0, -0xc
0x80000120: 28 40 00 ef jal	0x284
0x800003a4: a0 00 07 b7 lui	a5, 0xa0000
0x800003a8: 3e a7 8c 23 sb	a0, 0x3f8(a5)
0x800003ac: 00 00 80 67 ret
0x80000124: 00 14 45 03 lbu	a0, 1(s0)
0x80000128: 00 14 04 13 addi	s0, s0, 1
0x8000012c: fe 05 1a e3 bnez	a0, -0xc
0x80000120: 28 40 00 ef jal	0x284
0x800003a4: a0 00 07 b7 lui	a5, 0xa0000
0x800003a8: 3e a7 8c 23 sb	a0, 0x3f8(a5)
0x800003ac: 00 00 80 67 ret
0x80000124: 00 14 45 03 lbu	a0, 1(s0)
0x80000128: 00 14 04 13 addi	s0, s0, 1
0x8000012c: fe 05 1a e3 bnez	a0, -0xc
0x80000120: 28 40 00 ef jal	0x284
0x800003a4: a0 00 07 b7 lui	a5, 0xa0000
0x800003a8: 3e a7 8c 23 sb	a0, 0x3f8(a5)
0x800003ac: 00 00 80 67 ret
0x80000124: 00 14 45 03 lbu	a0, 1(s0)
0x80000128: 00 14 04 13 addi	s0, s0, 1
0x8000012c: fe 05 1a e3 bnez	a0, -0xc
0x80000120: 28 40 00 ef jal	0x284
0x800003a4: a0 00 07 b7 lui	a5, 0xa0000
0x800003a8: 3e a7 8c 23 sb	a0, 0x3f8(a5)
0x800003ac: 00 00 80 67 ret
0x80000124: 00 14 45 03 lbu	a0, 1(s0)
0x80000128: 00 14 04 13 addi	s0, s0, 1
0x8000012c: fe 05 1a e3 bnez	a0, -0xc
0x80000120: 28 40 00 ef jal	0x284
0x800003a4: a0 00 07 b7 lui	a5, 0xa0000
0x800003a8: 3e a7 8c 23 sb	a0, 0x3f8(a5)
0x800003ac: 00 00 80 67 ret
0x80000124: 00 14 45 03 lbu	a0, 1(s0)
0x80000128: 00 14 04 13 addi	s0, s0, 1
0x8000012c: fe 05 1a e3 bnez	a0, -0xc
0x80000120: 28 40 00 ef jal	0x284
0x800003a4: a0 00 07 b7 lui	a5, 0xa0000
0x800003a8: 3e a7 8c 23 sb	a0, 0x3f8(a5)
0x800003ac: 00 00 80 67 ret
0x80000124: 00 14 45 03 lbu	a0, 1(s0)
0x80000128: 00 14 04 13 addi	s0, s0, 1
0x8000012c: fe 05 1a e3 bnez	a0, -0xc
0x80000120: 28 40 00 ef jal	0x284
0x800003a4: a0 00 07 b7 lui	a5, 0xa0000
0x800003a8: 3e a7 8c 23 sb	a0, 0x3f8(a5)
0x800003ac: 00 00 80 67 ret
0x80000124: 00 14 45 03 lbu	a0, 1(s0)
0x80000128: 00 14 04 13 addi	s0, s0, 1
0x8000012c: fe 05 1a e3 bnez	a0, -0xc
0x80000120: 28 40 00 ef jal	0x284
0x800003a4: a0 00 07 b7 lui	a5, 0xa0000
0x800003a8: 3e a7 8c 23 sb	a0, 0x3f8(a5)
0x800003ac: 00 00 80 67 ret
0x80000124: 00 14 45 03 lbu	a0, 1(s0)
0x80000128: 00 14 04 13 addi	s0, s0, 1
0x8000012c: fe 05 1a e3 bnez	a0, -0xc
0x80000130: 01 c1 20 83 lw	ra, 0x1c(sp)
0x80000134: 01 81 24 03 lw	s0, 0x18(sp)
0x80000138: 01 41 24 83 lw	s1, 0x14(sp)
0x8000013c: 01 01 29 03 lw	s2, 0x10(sp)
0x80000140: 00 c1 29 83 lw	s3, 0xc(sp)
0x80000144: 00 00 35 17 auipc	a0, 3
0x80000148: ca 05 25 03 lw	a0, -0x360(a0)
0x8000014c: 02 01 01 13 addi	sp, sp, 0x20
0x80000150: 00 00 80 67 ret
0x80000434: 00 05 0e 63 beqz	a0, 0x1c
0x80000438: 02 c1 20 83 lw	ra, 0x2c(sp)
0x8000043c: 03 01 01 13 addi	sp, sp, 0x30
0x80000440: 00 00 80 67 ret
0x80000628: 00 05 01 13 mv	sp, a0
0x8000062c: 08 41 23 03 lw	t1, 0x84(sp)
0x80000630: 08 81 23 83 lw	t2, 0x88(sp)
0x80000634: 30 03 10 73 csrw	mstatus, t1
0x80000638: 34 13 90 73 csrw	mepc, t2
0x8000063c: 00 41 20 83 lw	ra, 4(sp)
0x80000640: 00 c1 21 83 lw	gp, 0xc(sp)
0x80000644: 01 01 22 03 lw	tp, 0x10(sp)
0x80000648: 01 41 22 83 lw	t0, 0x14(sp)
0x8000064c: 01 81 23 03 lw	t1, 0x18(sp)
0x80000650: 01 c1 23 83 lw	t2, 0x1c(sp)
0x80000654: 02 01 24 03 lw	s0, 0x20(sp)
0x80000658: 02 41 24 83 lw	s1, 0x24(sp)
0x8000065c: 02 81 25 03 lw	a0, 0x28(sp)
0x80000660: 02 c1 25 83 lw	a1, 0x2c(sp)
0x80000664: 03 01 26 03 lw	a2, 0x30(sp)
0x80000668: 03 41 26 83 lw	a3, 0x34(sp)
0x8000066c: 03 81 27 03 lw	a4, 0x38(sp)
0x80000670: 03 c1 27 83 lw	a5, 0x3c(sp)
0x80000674: 04 01 28 03 lw	a6, 0x40(sp)
0x80000678: 04 41 28 83 lw	a7, 0x44(sp)
0x8000067c: 04 81 29 03 lw	s2, 0x48(sp)
0x80000680: 04 c1 29 83 lw	s3, 0x4c(sp)
0x80000684: 05 01 2a 03 lw	s4, 0x50(sp)
0x80000688: 05 41 2a 83 lw	s5, 0x54(sp)
0x8000068c: 05 81 2b 03 lw	s6, 0x58(sp)
0x80000690: 05 c1 2b 83 lw	s7, 0x5c(sp)
0x80000694: 06 01 2c 03 lw	s8, 0x60(sp)
0x80000698: 06 41 2c 83 lw	s9, 0x64(sp)
0x8000069c: 06 81 2d 03 lw	s10, 0x68(sp)
0x800006a0: 06 c1 2d 83 lw	s11, 0x6c(sp)
0x800006a4: 07 01 2e 03 lw	t3, 0x70(sp)
0x800006a8: 07 41 2e 83 lw	t4, 0x74(sp)
0x800006ac: 07 81 2f 03 lw	t5, 0x78(sp)
0x800006b0: 07 c1 2f 83 lw	t6, 0x7c(sp)
0x800006b4: 08 c1 01 13 addi	sp, sp, 0x8c
0x800006b8: 30 20 00 73 mret
0x800006bc: 00 08 85 13 mv	a0, a7
0x800006c0: 00 00 82 93 mv	t0, ra
0x800006c4: 00 00 00 97 auipc	ra, 0
0x800006c8: e5 00 80 93 addi	ra, ra, -0x1b0
0x800006cc: 00 02 80 67 jr	t0
0x80000154: ff 01 01 13 addi	sp, sp, -0x10
0x80000158: 00 81 24 23 sw	s0, 8(sp)
0x8000015c: 00 91 22 23 sw	s1, 4(sp)
0x80000160: 00 05 04 13 mv	s0, a0
0x80000164: 00 11 26 23 sw	ra, 0xc(sp)
0x80000168: 01 21 20 23 sw	s2, 0(sp)
0x8000016c: 00 00 14 97 auipc	s1, 1
0x80000170: 6c 04 84 93 addi	s1, s1, 0x6c0
0x80000174: 05 40 05 13 addi	a0, zero, 0x54
0x80000178: 22 c0 00 ef jal	0x22c
0x800003a4: a0 00 07 b7 lui	a5, 0xa0000
0x800003a8: 3e a7 8c 23 sb	a0, 0x3f8(a5)
0x800003ac: 00 00 80 67 ret
0x8000017c: 00 14 c5 03 lbu	a0, 1(s1)
0x80000180: 00 14 84 93 addi	s1, s1, 1
0x80000184: fe 05 1a e3 bnez	a0, -0xc
0x80000178: 22 c0 00 ef jal	0x22c
0x800003a4: a0 00 07 b7 lui	a5, 0xa0000
0x800003a8: 3e a7 8c 23 sb	a0, 0x3f8(a5)
0x800003ac: 00 00 80 67 ret
0x8000017c: 00 14 c5 03 lbu	a0, 1(s1)
0x80000180: 00 14 84 93 addi	s1, s1, 1
0x80000184: fe 05 1a e3 bnez	a0, -0xc
0x80000178: 22 c0 00 ef jal	0x22c
0x800003a4: a0 00 07 b7 lui	a5, 0xa0000
0x800003a8: 3e a7 8c 23 sb	a0, 0x3f8(a5)
0x800003ac: 00 00 80 67 ret
0x8000017c: 00 14 c5 03 lbu	a0, 1(s1)
0x80000180: 00 14 84 93 addi	s1, s1, 1
0x80000184: fe 05 1a e3 bnez	a0, -0xc
0x80000178: 22 c0 00 ef jal	0x22c
0x800003a4: a0 00 07 b7 lui	a5, 0xa0000
0x800003a8: 3e a7 8c 23 sb	a0, 0x3f8(a5)
0x800003ac: 00 00 80 67 ret
0x8000017c: 00 14 c5 03 lbu	a0, 1(s1)
0x80000180: 00 14 84 93 addi	s1, s1, 1
0x80000184: fe 05 1a e3 bnez	a0, -0xc
0x80000178: 22 c0 00 ef jal	0x22c
0x800003a4: a0 00 07 b7 lui	a5, 0xa0000
0x800003a8: 3e a7 8c 23 sb	a0, 0x3f8(a5)
0x800003ac: 00 00 80 67 ret
0x8000017c: 00 14 c5 03 lbu	a0, 1(s1)
0x80000180: 00 14 84 93 addi	s1, s1, 1
0x80000184: fe 05 1a e3 bnez	a0, -0xc
0x80000178: 22 c0 00 ef jal	0x22c
0x800003a4: a0 00 07 b7 lui	a5, 0xa0000
0x800003a8: 3e a7 8c 23 sb	a0, 0x3f8(a5)
0x800003ac: 00 00 80 67 ret
0x8000017c: 00 14 c5 03 lbu	a0, 1(s1)
0x80000180: 00 14 84 93 addi	s1, s1, 1
0x80000184: fe 05 1a e3 bnez	a0, -0xc
0x80000178: 22 c0 00 ef jal	0x22c
0x800003a4: a0 00 07 b7 lui	a5, 0xa0000
0x800003a8: 3e a7 8c 23 sb	a0, 0x3f8(a5)
0x800003ac: 00 00 80 67 ret
0x8000017c: 00 14 c5 03 lbu	a0, 1(s1)
0x80000180: 00 14 84 93 addi	s1, s1, 1
0x80000184: fe 05 1a e3 bnez	a0, -0xc
0x80000178: 22 c0 00 ef jal	0x22c
0x800003a4: a0 00 07 b7 lui	a5, 0xa0000
0x800003a8: 3e a7 8c 23 sb	a0, 0x3f8(a5)
0x800003ac: 00 00 80 67 ret
0x8000017c: 00 14 c5 03 lbu	a0, 1(s1)
0x80000180: 00 14 84 93 addi	s1, s1, 1
0x80000184: fe 05 1a e3 bnez	a0, -0xc
0x80000178: 22 c0 00 ef jal	0x22c
0x800003a4: a0 00 07 b7 lui	a5, 0xa0000
0x800003a8: 3e a7 8c 23 sb	a0, 0x3f8(a5)
0x800003ac: 00 00 80 67 ret
0x8000017c: 00 14 c5 03 lbu	a0, 1(s1)
0x80000180: 00 14 84 93 addi	s1, s1, 1
0x80000184: fe 05 1a e3 bnez	a0, -0xc
0x80000178: 22 c0 00 ef jal	0x22c
0x800003a4: a0 00 07 b7 lui	a5, 0xa0000
0x800003a8: 3e a7 8c 23 sb	a0, 0x3f8(a5)
0x800003ac: 00 00 80 67 ret
0x8000017c: 00 14 c5 03 lbu	a0, 1(s1)
0x80000180: 00 14 84 93 addi	s1, s1, 1
0x80000184: fe 05 1a e3 bnez	a0, -0xc
0x80000178: 22 c0 00 ef jal	0x22c
0x800003a4: a0 00 07 b7 lui	a5, 0xa0000
0x800003a8: 3e a7 8c 23 sb	a0, 0x3f8(a5)
0x800003ac: 00 00 80 67 ret
0x8000017c: 00 14 c5 03 lbu	a0, 1(s1)
0x80000180: 00 14 84 93 addi	s1, s1, 1
0x80000184: fe 05 1a e3 bnez	a0, -0xc
0x80000178: 22 c0 00 ef jal	0x22c
0x800003a4: a0 00 07 b7 lui	a5, 0xa0000
0x800003a8: 3e a7 8c 23 sb	a0, 0x3f8(a5)
0x800003ac: 00 00 80 67 ret
0x8000017c: 00 14 c5 03 lbu	a0, 1(s1)
0x80000180: 00 14 84 93 addi	s1, s1, 1
0x80000184: fe 05 1a e3 bnez	a0, -0xc
0x80000178: 22 c0 00 ef jal	0x22c
0x800003a4: a0 00 07 b7 lui	a5, 0xa0000
0x800003a8: 3e a7 8c 23 sb	a0, 0x3f8(a5)
0x800003ac: 00 00 80 67 ret
0x8000017c: 00 14 c5 03 lbu	a0, 1(s1)
0x80000180: 00 14 84 93 addi	s1, s1, 1
0x80000184: fe 05 1a e3 bnez	a0, -0xc
0x80000178: 22 c0 00 ef jal	0x22c
0x800003a4: a0 00 07 b7 lui	a5, 0xa0000
0x800003a8: 3e a7 8c 23 sb	a0, 0x3f8(a5)
0x800003ac: 00 00 80 67 ret
0x8000017c: 00 14 c5 03 lbu	a0, 1(s1)
0x80000180: 00 14 84 93 addi	s1, s1, 1
0x80000184: fe 05 1a e3 bnez	a0, -0xc
0x80000178: 22 c0 00 ef jal	0x22c
0x800003a4: a0 00 07 b7 lui	a5, 0xa0000
0x800003a8: 3e a7 8c 23 sb	a0, 0x3f8(a5)
0x800003ac: 00 00 80 67 ret
0x8000017c: 00 14 c5 03 lbu	a0, 1(s1)
0x80000180: 00 14 84 93 addi	s1, s1, 1
0x80000184: fe 05 1a e3 bnez	a0, -0xc
0x80000178: 22 c0 00 ef jal	0x22c
0x800003a4: a0 00 07 b7 lui	a5, 0xa0000
0x800003a8: 3e a7 8c 23 sb	a0, 0x3f8(a5)
0x800003ac: 00 00 80 67 ret
0x8000017c: 00 14 c5 03 lbu	a0, 1(s1)
0x80000180: 00 14 84 93 addi	s1, s1, 1
0x80000184: fe 05 1a e3 bnez	a0, -0xc
0x80000178: 22 c0 00 ef jal	0x22c
0x800003a4: a0 00 07 b7 lui	a5, 0xa0000
0x800003a8: 3e a7 8c 23 sb	a0, 0x3f8(a5)
0x800003ac: 00 00 80 67 ret
0x8000017c: 00 14 c5 03 lbu	a0, 1(s1)
0x80000180: 00 14 84 93 addi	s1, s1, 1
0x80000184: fe 05 1a e3 bnez	a0, -0xc
0x80000178: 22 c0 00 ef jal	0x22c
0x800003a4: a0 00 07 b7 lui	a5, 0xa0000
0x800003a8: 3e a7 8c 23 sb	a0, 0x3f8(a5)
0x800003ac: 00 00 80 67 ret
0x8000017c: 00 14 c5 03 lbu	a0, 1(s1)
0x80000180: 00 14 84 93 addi	s1, s1, 1
0x80000184: fe 05 1a e3 bnez	a0, -0xc
0x80000178: 22 c0 00 ef jal	0x22c
0x800003a4: a0 00 07 b7 lui	a5, 0xa0000
0x800003a8: 3e a7 8c 23 sb	a0, 0x3f8(a5)
0x800003ac: 00 00 80 67 ret
0x8000017c: 00 14 c5 03 lbu	a0, 1(s1)
0x80000180: 00 14 84 93 addi	s1, s1, 1
0x80000184: fe 05 1a e3 bnez	a0, -0xc
0x80000178: 22 c0 00 ef jal	0x22c
0x800003a4: a0 00 07 b7 lui	a5, 0xa0000
0x800003a8: 3e a7 8c 23 sb	a0, 0x3f8(a5)
0x800003ac: 00 00 80 67 ret
0x8000017c: 00 14 c5 03 lbu	a0, 1(s1)
0x80000180: 00 14 84 93 addi	s1, s1, 1
0x80000184: fe 05 1a e3 bnez	a0, -0xc
0x80000178: 22 c0 00 ef jal	0x22c
0x800003a4: a0 00 07 b7 lui	a5, 0xa0000
0x800003a8: 3e a7 8c 23 sb	a0, 0x3f8(a5)
0x800003ac: 00 00 80 67 ret
0x8000017c: 00 14 c5 03 lbu	a0, 1(s1)
0x80000180: 00 14 84 93 addi	s1, s1, 1
0x80000184: fe 05 1a e3 bnez	a0, -0xc
0x80000178: 22 c0 00 ef jal	0x22c
0x800003a4: a0 00 07 b7 lui	a5, 0xa0000
0x800003a8: 3e a7 8c 23 sb	a0, 0x3f8(a5)
0x800003ac: 00 00 80 67 ret
0x8000017c: 00 14 c5 03 lbu	a0, 1(s1)
0x80000180: 00 14 84 93 addi	s1, s1, 1
0x80000184: fe 05 1a e3 bnez	a0, -0xc
0x80000178: 22 c0 00 ef jal	0x22c
0x800003a4: a0 00 07 b7 lui	a5, 0xa0000
0x800003a8: 3e a7 8c 23 sb	a0, 0x3f8(a5)
0x800003ac: 00 00 80 67 ret
0x8000017c: 00 14 c5 03 lbu	a0, 1(s1)
0x80000180: 00 14 84 93 addi	s1, s1, 1
0x80000184: fe 05 1a e3 bnez	a0, -0xc
0x80000178: 22 c0 00 ef jal	0x22c
0x800003a4: a0 00 07 b7 lui	a5, 0xa0000
0x800003a8: 3e a7 8c 23 sb	a0, 0x3f8(a5)
0x800003ac: 00 00 80 67 ret
0x8000017c: 00 14 c5 03 lbu	a0, 1(s1)
0x80000180: 00 14 84 93 addi	s1, s1, 1
0x80000184: fe 05 1a e3 bnez	a0, -0xc
0x80000178: 22 c0 00 ef jal	0x22c
0x800003a4: a0 00 07 b7 lui	a5, 0xa0000
0x800003a8: 3e a7 8c 23 sb	a0, 0x3f8(a5)
0x800003ac: 00 00 80 67 ret
0x8000017c: 00 14 c5 03 lbu	a0, 1(s1)
0x80000180: 00 14 84 93 addi	s1, s1, 1
0x80000184: fe 05 1a e3 bnez	a0, -0xc
0x80000178: 22 c0 00 ef jal	0x22c
0x800003a4: a0 00 07 b7 lui	a5, 0xa0000
0x800003a8: 3e a7 8c 23 sb	a0, 0x3f8(a5)
0x800003ac: 00 00 80 67 ret
0x8000017c: 00 14 c5 03 lbu	a0, 1(s1)
0x80000180: 00 14 84 93 addi	s1, s1, 1
0x80000184: fe 05 1a e3 bnez	a0, -0xc
0x80000178: 22 c0 00 ef jal	0x22c
0x800003a4: a0 00 07 b7 lui	a5, 0xa0000
0x800003a8: 3e a7 8c 23 sb	a0, 0x3f8(a5)
0x800003ac: 00 00 80 67 ret
0x8000017c: 00 14 c5 03 lbu	a0, 1(s1)
0x80000180: 00 14 84 93 addi	s1, s1, 1
0x80000184: fe 05 1a e3 bnez	a0, -0xc
0x80000178: 22 c0 00 ef jal	0x22c
0x800003a4: a0 00 07 b7 lui	a5, 0xa0000
0x800003a8: 3e a7 8c 23 sb	a0, 0x3f8(a5)
0x800003ac: 00 00 80 67 ret
0x8000017c: 00 14 c5 03 lbu	a0, 1(s1)
0x80000180: 00 14 84 93 addi	s1, s1, 1
0x80000184: fe 05 1a e3 bnez	a0, -0xc
0x80000178: 22 c0 00 ef jal	0x22c
0x800003a4: a0 00 07 b7 lui	a5, 0xa0000
0x800003a8: 3e a7 8c 23 sb	a0, 0x3f8(a5)
0x800003ac: 00 00 80 67 ret
0x8000017c: 00 14 c5 03 lbu	a0, 1(s1)
0x80000180: 00 14 84 93 addi	s1, s1, 1
0x80000184: fe 05 1a e3 bnez	a0, -0xc
0x80000188: 00 04 45 03 lbu	a0, 0(s0)
0x8000018c: 00 05 0a 63 beqz	a0, 0x14
0x80000190: 21 40 00 ef jal	0x214
0x800003a4: a0 00 07 b7 lui	a5, 0xa0000
0x800003a8: 3e a7 8c 23 sb	a0, 0x3f8(a5)
0x800003ac: 00 00 80 67 ret
0x80000194: 00 14 45 03 lbu	a0, 1(s0)
0x80000198: 00 14 04 13 addi	s0, s0, 1
0x8000019c: fe 05 1a e3 bnez	a0, -0xc
0x80000190: 21 40 00 ef jal	0x214
0x800003a4: a0 00 07 b7 lui	a5, 0xa0000
0x800003a8: 3e a7 8c 23 sb	a0, 0x3f8(a5)
0x800003ac: 00 00 80 67 ret
0x80000194: 00 14 45 03 lbu	a0, 1(s0)
0x80000198: 00 14 04 13 addi	s0, s0, 1
0x8000019c: fe 05 1a e3 bnez	a0, -0xc
0x80000190: 21 40 00 ef jal	0x214
0x800003a4: a0 00 07 b7 lui	a5, 0xa0000
0x800003a8: 3e a7 8c 23 sb	a0, 0x3f8(a5)
0x800003ac: 00 00 80 67 ret
0x80000194: 00 14 45 03 lbu	a0, 1(s0)
0x80000198: 00 14 04 13 addi	s0, s0, 1
0x8000019c: fe 05 1a e3 bnez	a0, -0xc
0x80000190: 21 40 00 ef jal	0x214
0x800003a4: a0 00 07 b7 lui	a5, 0xa0000
0x800003a8: 3e a7 8c 23 sb	a0, 0x3f8(a5)
0x800003ac: 00 00 80 67 ret
0x80000194: 00 14 45 03 lbu	a0, 1(s0)
0x80000198: 00 14 04 13 addi	s0, s0, 1
0x8000019c: fe 05 1a e3 bnez	a0, -0xc
0x80000190: 21 40 00 ef jal	0x214
0x800003a4: a0 00 07 b7 lui	a5, 0xa0000
0x800003a8: 3e a7 8c 23 sb	a0, 0x3f8(a5)
0x800003ac: 00 00 80 67 ret
0x80000194: 00 14 45 03 lbu	a0, 1(s0)
0x80000198: 00 14 04 13 addi	s0, s0, 1
0x8000019c: fe 05 1a e3 bnez	a0, -0xc
0x80000190: 21 40 00 ef jal	0x214
0x800003a4: a0 00 07 b7 lui	a5, 0xa0000
0x800003a8: 3e a7 8c 23 sb	a0, 0x3f8(a5)
0x800003ac: 00 00 80 67 ret
0x80000194: 00 14 45 03 lbu	a0, 1(s0)
0x80000198: 00 14 04 13 addi	s0, s0, 1
0x8000019c: fe 05 1a e3 bnez	a0, -0xc
0x80000190: 21 40 00 ef jal	0x214
0x800003a4: a0 00 07 b7 lui	a5, 0xa0000
0x800003a8: 3e a7 8c 23 sb	a0, 0x3f8(a5)
0x800003ac: 00 00 80 67 ret
0x80000194: 00 14 45 03 lbu	a0, 1(s0)
0x80000198: 00 14 04 13 addi	s0, s0, 1
0x8000019c: fe 05 1a e3 bnez	a0, -0xc
0x80000190: 21 40 00 ef jal	0x214
0x800003a4: a0 00 07 b7 lui	a5, 0xa0000
0x800003a8: 3e a7 8c 23 sb	a0, 0x3f8(a5)
0x800003ac: 00 00 80 67 ret
0x80000194: 00 14 45 03 lbu	a0, 1(s0)
0x80000198: 00 14 04 13 addi	s0, s0, 1
0x8000019c: fe 05 1a e3 bnez	a0, -0xc
0x80000190: 21 40 00 ef jal	0x214
0x800003a4: a0 00 07 b7 lui	a5, 0xa0000
0x800003a8: 3e a7 8c 23 sb	a0, 0x3f8(a5)
0x800003ac: 00 00 80 67 ret
0x80000194: 00 14 45 03 lbu	a0, 1(s0)
0x80000198: 00 14 04 13 addi	s0, s0, 1
0x8000019c: fe 05 1a e3 bnez	a0, -0xc
0x80000190: 21 40 00 ef jal	0x214
0x800003a4: a0 00 07 b7 lui	a5, 0xa0000
0x800003a8: 3e a7 8c 23 sb	a0, 0x3f8(a5)
0x800003ac: 00 00 80 67 ret
0x80000194: 00 14 45 03 lbu	a0, 1(s0)
0x80000198: 00 14 04 13 addi	s0, s0, 1
0x8000019c: fe 05 1a e3 bnez	a0, -0xc
0x800001a0: 00 a0 05 13 addi	a0, zero, 0xa
0x800001a4: 20 00 00 ef jal	0x200
0x800003a4: a0 00 07 b7 lui	a5, 0xa0000
0x800003a8: 3e a7 8c 23 sb	a0, 0x3f8(a5)
0x800003ac: 00 00 80 67 ret
0x800001a8: 03 00 04 93 addi	s1, zero, 0x30
0x800001ac: 03 30 09 13 addi	s2, zero, 0x33
0x800001b0: 00 00 14 17 auipc	s0, 1
0x800001b4: 69 c4 04 13 addi	s0, s0, 0x69c
0x800001b8: 05 40 05 13 addi	a0, zero, 0x54
0x800001bc: 1e 80 00 ef jal	0x1e8
0x800003a4: a0 00 07 b7 lui	a5, 0xa0000
0x800003a8: 3e a7 8c 23 sb	a0, 0x3f8(a5)
0x800003ac: 00 00 80 67 ret
0x800001c0: 00 14 45 03 lbu	a0, 1(s0)
0x800001c4: 00 14 04 13 addi	s0, s0, 1
0x800001c8: fe 05 1a e3 bnez	a0, -0xc
0x800001bc: 1e 80 00 ef jal	0x1e8
0x800003a4: a0 00 07 b7 lui	a5, 0xa0000
0x800003a8: 3e a7 8c 23 sb	a0, 0x3f8(a5)
0x800003ac: 00 00 80 67 ret
0x800001c0: 00 14 45 03 lbu	a0, 1(s0)
0x800001c4: 00 14 04 13 addi	s0, s0, 1
0x800001c8: fe 05 1a e3 bnez	a0, -0xc
0x800001bc: 1e 80 00 ef jal	0x1e8
0x800003a4: a0 00 07 b7 lui	a5, 0xa0000
0x800003a8: 3e a7 8c 23 sb	a0, 0x3f8(a5)
0x800003ac: 00 00 80 67 ret
0x800001c0: 00 14 45 03 lbu	a0, 1(s0)
0x800001c4: 00 14 04 13 addi	s0, s0, 1
0x800001c8: fe 05 1a e3 bnez	a0, -0xc
0x800001bc: 1e 80 00 ef jal	0x1e8
0x800003a4: a0 00 07 b7 lui	a5, 0xa0000
0x800003a8: 3e a7 8c 23 sb	a0, 0x3f8(a5)
0x800003ac: 00 00 80 67 ret
0x800001c0: 00 14 45 03 lbu	a0, 1(s0)
0x800001c4: 00 14 04 13 addi	s0, s0, 1
0x800001c8: fe 05 1a e3 bnez	a0, -0xc
0x800001bc: 1e 80 00 ef jal	0x1e8
0x800003a4: a0 00 07 b7 lui	a5, 0xa0000
0x800003a8: 3e a7 8c 23 sb	a0, 0x3f8(a5)
0x800003ac: 00 00 80 67 ret
0x800001c0: 00 14 45 03 lbu	a0, 1(s0)
0x800001c4: 00 14 04 13 addi	s0, s0, 1
0x800001c8: fe 05 1a e3 bnez	a0, -0xc
0x800001bc: 1e 80 00 ef jal	0x1e8
0x800003a4: a0 00 07 b7 lui	a5, 0xa0000
0x800003a8: 3e a7 8c 23 sb	a0, 0x3f8(a5)
0x800003ac: 00 00 80 67 ret
0x800001c0: 00 14 45 03 lbu	a0, 1(s0)
0x800001c4: 00 14 04 13 addi	s0, s0, 1
0x800001c8: fe 05 1a e3 bnez	a0, -0xc
0x800001bc: 1e 80 00 ef jal	0x1e8
0x800003a4: a0 00 07 b7 lui	a5, 0xa0000
0x800003a8: 3e a7 8c 23 sb	a0, 0x3f8(a5)
0x800003ac: 00 00 80 67 ret
0x800001c0: 00 14 45 03 lbu	a0, 1(s0)
0x800001c4: 00 14 04 13 addi	s0, s0, 1
0x800001c8: fe 05 1a e3 bnez	a0, -0xc
0x800001bc: 1e 80 00 ef jal	0x1e8
0x800003a4: a0 00 07 b7 lui	a5, 0xa0000
0x800003a8: 3e a7 8c 23 sb	a0, 0x3f8(a5)
0x800003ac: 00 00 80 67 ret
0x800001c0: 00 14 45 03 lbu	a0, 1(s0)
0x800001c4: 00 14 04 13 addi	s0, s0, 1
0x800001c8: fe 05 1a e3 bnez	a0, -0xc
0x800001bc: 1e 80 00 ef jal	0x1e8
0x800003a4: a0 00 07 b7 lui	a5, 0xa0000
0x800003a8: 3e a7 8c 23 sb	a0, 0x3f8(a5)
0x800003ac: 00 00 80 67 ret
0x800001c0: 00 14 45 03 lbu	a0, 1(s0)
0x800001c4: 00 14 04 13 addi	s0, s0, 1
0x800001c8: fe 05 1a e3 bnez	a0, -0xc
0x800001bc: 1e 80 00 ef jal	0x1e8
0x800003a4: a0 00 07 b7 lui	a5, 0xa0000
0x800003a8: 3e a7 8c 23 sb	a0, 0x3f8(a5)
0x800003ac: 00 00 80 67 ret
0x800001c0: 00 14 45 03 lbu	a0, 1(s0)
0x800001c4: 00 14 04 13 addi	s0, s0, 1
0x800001c8: fe 05 1a e3 bnez	a0, -0xc
0x800001bc: 1e 80 00 ef jal	0x1e8
0x800003a4: a0 00 07 b7 lui	a5, 0xa0000
0x800003a8: 3e a7 8c 23 sb	a0, 0x3f8(a5)
0x800003ac: 00 00 80 67 ret
0x800001c0: 00 14 45 03 lbu	a0, 1(s0)
0x800001c4: 00 14 04 13 addi	s0, s0, 1
0x800001c8: fe 05 1a e3 bnez	a0, -0xc
0x800001bc: 1e 80 00 ef jal	0x1e8
0x800003a4: a0 00 07 b7 lui	a5, 0xa0000
0x800003a8: 3e a7 8c 23 sb	a0, 0x3f8(a5)
0x800003ac: 00 00 80 67 ret
0x800001c0: 00 14 45 03 lbu	a0, 1(s0)
0x800001c4: 00 14 04 13 addi	s0, s0, 1
0x800001c8: fe 05 1a e3 bnez	a0, -0xc
0x800001bc: 1e 80 00 ef jal	0x1e8
0x800003a4: a0 00 07 b7 lui	a5, 0xa0000
0x800003a8: 3e a7 8c 23 sb	a0, 0x3f8(a5)
0x800003ac: 00 00 80 67 ret
0x800001c0: 00 14 45 03 lbu	a0, 1(s0)
0x800001c4: 00 14 04 13 addi	s0, s0, 1
0x800001c8: fe 05 1a e3 bnez	a0, -0xc
0x800001bc: 1e 80 00 ef jal	0x1e8
0x800003a4: a0 00 07 b7 lui	a5, 0xa0000
0x800003a8: 3e a7 8c 23 sb	a0, 0x3f8(a5)
0x800003ac: 00 00 80 67 ret
0x800001c0: 00 14 45 03 lbu	a0, 1(s0)
0x800001c4: 00 14 04 13 addi	s0, s0, 1
0x800001c8: fe 05 1a e3 bnez	a0, -0xc
0x800001bc: 1e 80 00 ef jal	0x1e8
0x800003a4: a0 00 07 b7 lui	a5, 0xa0000
0x800003a8: 3e a7 8c 23 sb	a0, 0x3f8(a5)
0x800003ac: 00 00 80 67 ret
0x800001c0: 00 14 45 03 lbu	a0, 1(s0)
0x800001c4: 00 14 04 13 addi	s0, s0, 1
0x800001c8: fe 05 1a e3 bnez	a0, -0xc
0x800001cc: 00 04 85 13 mv	a0, s1
0x800001d0: 1d 40 00 ef jal	0x1d4
0x800003a4: a0 00 07 b7 lui	a5, 0xa0000
0x800003a8: 3e a7 8c 23 sb	a0, 0x3f8(a5)
0x800003ac: 00 00 80 67 ret
0x800001d4: 00 14 84 93 addi	s1, s1, 1
0x800001d8: 00 a0 05 13 addi	a0, zero, 0xa
0x800001dc: 0f f4 f4 93 andi	s1, s1, 0xff
0x800001e0: 1c 40 00 ef jal	0x1c4
0x800003a4: a0 00 07 b7 lui	a5, 0xa0000
0x800003a8: 3e a7 8c 23 sb	a0, 0x3f8(a5)
0x800003ac: 00 00 80 67 ret
0x800001e4: 32 40 00 ef jal	0x324
0x80000508: ff f0 08 93 addi	a7, zero, -1
0x8000050c: 00 00 00 73 ecall
0x80000580: f7 41 01 13 addi	sp, sp, -0x8c
0x80000584: 00 11 22 23 sw	ra, 4(sp)
0x80000588: 00 31 26 23 sw	gp, 0xc(sp)
0x8000058c: 00 41 28 23 sw	tp, 0x10(sp)
0x80000590: 00 51 2a 23 sw	t0, 0x14(sp)
0x80000594: 00 61 2c 23 sw	t1, 0x18(sp)
0x80000598: 00 71 2e 23 sw	t2, 0x1c(sp)
0x8000059c: 02 81 20 23 sw	s0, 0x20(sp)
0x800005a0: 02 91 22 23 sw	s1, 0x24(sp)
0x800005a4: 02 a1 24 23 sw	a0, 0x28(sp)
0x800005a8: 02 b1 26 23 sw	a1, 0x2c(sp)
0x800005ac: 02 c1 28 23 sw	a2, 0x30(sp)
0x800005b0: 02 d1 2a 23 sw	a3, 0x34(sp)
0x800005b4: 02 e1 2c 23 sw	a4, 0x38(sp)
0x800005b8: 02 f1 2e 23 sw	a5, 0x3c(sp)
0x800005bc: 05 01 20 23 sw	a6, 0x40(sp)
0x800005c0: 05 11 22 23 sw	a7, 0x44(sp)
0x800005c4: 05 21 24 23 sw	s2, 0x48(sp)
0x800005c8: 05 31 26 23 sw	s3, 0x4c(sp)
0x800005cc: 05 41 28 23 sw	s4, 0x50(sp)
0x800005d0: 05 51 2a 23 sw	s5, 0x54(sp)
0x800005d4: 05 61 2c 23 sw	s6, 0x58(sp)
0x800005d8: 05 71 2e 23 sw	s7, 0x5c(sp)
0x800005dc: 07 81 20 23 sw	s8, 0x60(sp)
0x800005e0: 07 91 22 23 sw	s9, 0x64(sp)
0x800005e4: 07 a1 24 23 sw	s10, 0x68(sp)
0x800005e8: 07 b1 26 23 sw	s11, 0x6c(sp)
0x800005ec: 07 c1 28 23 sw	t3, 0x70(sp)
0x800005f0: 07 d1 2a 23 sw	t4, 0x74(sp)
0x800005f4: 07 e1 2c 23 sw	t5, 0x78(sp)
0x800005f8: 07 f1 2e 23 sw	t6, 0x7c(sp)
0x800005fc: 34 20 22 f3 csrr	t0, mcause
0x80000600: 30 00 23 73 csrr	t1, mstatus
0x80000604: 34 10 23 f3 csrr	t2, mepc
0x80000608: 08 51 20 23 sw	t0, 0x80(sp)
0x8000060c: 08 61 22 23 sw	t1, 0x84(sp)
0x80000610: 08 71 24 23 sw	t2, 0x88(sp)
0x80000614: 00 02 05 37 lui	a0, 0x20
0x80000618: 00 a3 63 33 or	t1, t1, a0
0x8000061c: 30 03 10 73 csrw	mstatus, t1
0x80000620: 00 01 05 13 mv	a0, sp
0x80000624: db 9f f0 ef jal	-0x248
0x800003dc: 00 00 37 97 auipc	a5, 3
0x800003e0: a0 c7 a7 83 lw	a5, -0x5f4(a5)
0x800003e4: 00 05 05 93 mv	a1, a0
0x800003e8: 06 07 82 63 beqz	a5, 0x64
0x800003ec: 08 05 26 03 lw	a2, 0x80(a0)
0x800003f0: fd 01 01 13 addi	sp, sp, -0x30
0x800003f4: 02 11 26 23 sw	ra, 0x2c(sp)
0x800003f8: 00 01 2a 23 sw	zero, 0x14(sp)
0x800003fc: 00 01 2c 23 sw	zero, 0x18(sp)
0x80000400: 00 01 2e 23 sw	zero, 0x1c(sp)
0x80000404: 00 b0 06 93 addi	a3, zero, 0xb
0x80000408: 00 40 07 13 addi	a4, zero, 4
0x8000040c: 02 d6 0c 63 beq	a2, a3, 0x38
0x80000444: 00 10 07 13 addi	a4, zero, 1
0x80000448: fc 9f f0 6f j	-0x38
0x80000410: 00 e1 20 23 sw	a4, 0(sp)
0x80000414: 01 41 27 03 lw	a4, 0x14(sp)
0x80000418: 00 01 05 13 mv	a0, sp
0x8000041c: 00 e1 22 23 sw	a4, 4(sp)
0x80000420: 01 81 27 03 lw	a4, 0x18(sp)
0x80000424: 00 e1 24 23 sw	a4, 8(sp)
0x80000428: 01 c1 27 03 lw	a4, 0x1c(sp)
0x8000042c: 00 e1 26 23 sw	a4, 0xc(sp)
0x80000430: 00 07 80 e7 jalr	a5
0x80000010: fe 01 01 13 addi	sp, sp, -0x20
0x80000014: 01 21 28 23 sw	s2, 0x10(sp)
0x80000018: 00 00 39 17 auipc	s2, 3
0x8000001c: dc 89 09 13 addi	s2, s2, -0x238
0x80000020: 00 09 27 83 lw	a5, 0(s2)
0x80000024: 00 81 2c 23 sw	s0, 0x18(sp)
0x80000028: 00 91 2a 23 sw	s1, 0x14(sp)
0x8000002c: 01 31 26 23 sw	s3, 0xc(sp)
0x80000030: 00 11 2e 23 sw	ra, 0x1c(sp)
0x80000034: 00 17 87 93 addi	a5, a5, 1
0x80000038: 00 05 09 93 mv	s3, a0
0x8000003c: 00 05 84 93 mv	s1, a1
0x80000040: 00 f9 20 23 sw	a5, 0(s2)
0x80000044: 00 00 14 17 auipc	s0, 1
0x80000048: 77 44 04 13 addi	s0, s0, 0x774
0x8000004c: 05 30 05 13 addi	a0, zero, 0x53
0x80000050: 35 40 00 ef jal	0x354
0x800003a4: a0 00 07 b7 lui	a5, 0xa0000
0x800003a8: 3e a7 8c 23 sb	a0, 0x3f8(a5)
0x800003ac: 00 00 80 67 ret
0x80000054: 00 14 45 03 lbu	a0, 1(s0)
0x80000058: 00 14 04 13 addi	s0, s0, 1
0x8000005c: fe 05 1a e3 bnez	a0, -0xc
0x80000050: 35 40 00 ef jal	0x354
0x800003a4: a0 00 07 b7 lui	a5, 0xa0000
0x800003a8: 3e a7 8c 23 sb	a0, 0x3f8(a5)
0x800003ac: 00 00 80 67 ret
0x80000054: 00 14 45 03 lbu	a0, 1(s0)
0x80000058: 00 14 04 13 addi	s0, s0, 1
0x8000005c: fe 05 1a e3 bnez	a0, -0xc
0x80000050: 35 40 00 ef jal	0x354
0x800003a4: a0 00 07 b7 lui	a5, 0xa0000
0x800003a8: 3e a7 8c 23 sb	a0, 0x3f8(a5)
0x800003ac: 00 00 80 67 ret
0x80000054: 00 14 45 03 lbu	a0, 1(s0)
0x80000058: 00 14 04 13 addi	s0, s0, 1
0x8000005c: fe 05 1a e3 bnez	a0, -0xc
0x80000050: 35 40 00 ef jal	0x354
0x800003a4: a0 00 07 b7 lui	a5, 0xa0000
0x800003a8: 3e a7 8c 23 sb	a0, 0x3f8(a5)
0x800003ac: 00 00 80 67 ret
0x80000054: 00 14 45 03 lbu	a0, 1(s0)
0x80000058: 00 14 04 13 addi	s0, s0, 1
0x8000005c: fe 05 1a e3 bnez	a0, -0xc
0x80000050: 35 40 00 ef jal	0x354
0x800003a4: a0 00 07 b7 lui	a5, 0xa0000
0x800003a8: 3e a7 8c 23 sb	a0, 0x3f8(a5)
0x800003ac: 00 00 80 67 ret
0x80000054: 00 14 45 03 lbu	a0, 1(s0)
0x80000058: 00 14 04 13 addi	s0, s0, 1
0x8000005c: fe 05 1a e3 bnez	a0, -0xc
0x80000050: 35 40 00 ef jal	0x354
0x800003a4: a0 00 07 b7 lui	a5, 0xa0000
0x800003a8: 3e a7 8c 23 sb	a0, 0x3f8(a5)
0x800003ac: 00 00 80 67 ret
0x80000054: 00 14 45 03 lbu	a0, 1(s0)
0x80000058: 00 14 04 13 addi	s0, s0, 1
0x8000005c: fe 05 1a e3 bnez	a0, -0xc
0x80000050: 35 40 00 ef jal	0x354
0x800003a4: a0 00 07 b7 lui	a5, 0xa0000
0x800003a8: 3e a7 8c 23 sb	a0, 0x3f8(a5)
0x800003ac: 00 00 80 67 ret
0x80000054: 00 14 45 03 lbu	a0, 1(s0)
0x80000058: 00 14 04 13 addi	s0, s0, 1
0x8000005c: fe 05 1a e3 bnez	a0, -0xc
0x80000050: 35 40 00 ef jal	0x354
0x800003a4: a0 00 07 b7 lui	a5, 0xa0000
0x800003a8: 3e a7 8c 23 sb	a0, 0x3f8(a5)
0x800003ac: 00 00 80 67 ret
0x80000054: 00 14 45 03 lbu	a0, 1(s0)
0x80000058: 00 14 04 13 addi	s0, s0, 1
0x8000005c: fe 05 1a e3 bnez	a0, -0xc
0x80000050: 35 40 00 ef jal	0x354
0x800003a4: a0 00 07 b7 lui	a5, 0xa0000
0x800003a8: 3e a7 8c 23 sb	a0, 0x3f8(a5)
0x800003ac: 00 00 80 67 ret
0x80000054: 00 14 45 03 lbu	a0, 1(s0)
0x80000058: 00 14 04 13 addi	s0, s0, 1
0x8000005c: fe 05 1a e3 bnez	a0, -0xc
0x80000050: 35 40 00 ef jal	0x354
0x800003a4: a0 00 07 b7 lui	a5, 0xa0000
0x800003a8: 3e a7 8c 23 sb	a0, 0x3f8(a5)
0x800003ac: 00 00 80 67 ret
0x80000054: 00 14 45 03 lbu	a0, 1(s0)
0x80000058: 00 14 04 13 addi	s0, s0, 1
0x8000005c: fe 05 1a e3 bnez	a0, -0xc
0x80000050: 35 40 00 ef jal	0x354
0x800003a4: a0 00 07 b7 lui	a5, 0xa0000
0x800003a8: 3e a7 8c 23 sb	a0, 0x3f8(a5)
0x800003ac: 00 00 80 67 ret
0x80000054: 00 14 45 03 lbu	a0, 1(s0)
0x80000058: 00 14 04 13 addi	s0, s0, 1
0x8000005c: fe 05 1a e3 bnez	a0, -0xc
0x80000050: 35 40 00 ef jal	0x354
0x800003a4: a0 00 07 b7 lui	a5, 0xa0000
0x800003a8: 3e a7 8c 23 sb	a0, 0x3f8(a5)
0x800003ac: 00 00 80 67 ret
0x80000054: 00 14 45 03 lbu	a0, 1(s0)
0x80000058: 00 14 04 13 addi	s0, s0, 1
0x8000005c: fe 05 1a e3 bnez	a0, -0xc
0x80000050: 35 40 00 ef jal	0x354
0x800003a4: a0 00 07 b7 lui	a5, 0xa0000
0x800003a8: 3e a7 8c 23 sb	a0, 0x3f8(a5)
0x800003ac: 00 00 80 67 ret
0x80000054: 00 14 45 03 lbu	a0, 1(s0)
0x80000058: 00 14 04 13 addi	s0, s0, 1
0x8000005c: fe 05 1a e3 bnez	a0, -0xc
0x80000050: 35 40 00 ef jal	0x354
0x800003a4: a0 00 07 b7 lui	a5, 0xa0000
0x800003a8: 3e a7 8c 23 sb	a0, 0x3f8(a5)
0x800003ac: 00 00 80 67 ret
0x80000054: 00 14 45 03 lbu	a0, 1(s0)
0x80000058: 00 14 04 13 addi	s0, s0, 1
0x8000005c: fe 05 1a e3 bnez	a0, -0xc
0x80000050: 35 40 00 ef jal	0x354
0x800003a4: a0 00 07 b7 lui	a5, 0xa0000
0x800003a8: 3e a7 8c 23 sb	a0, 0x3f8(a5)
0x800003ac: 00 00 80 67 ret
0x80000054: 00 14 45 03 lbu	a0, 1(s0)
0x80000058: 00 14 04 13 addi	s0, s0, 1
0x8000005c: fe 05 1a e3 bnez	a0, -0xc
0x80000050: 35 40 00 ef jal	0x354
0x800003a4: a0 00 07 b7 lui	a5, 0xa0000
0x800003a8: 3e a7 8c 23 sb	a0, 0x3f8(a5)
0x800003ac: 00 00 80 67 ret
0x80000054: 00 14 45 03 lbu	a0, 1(s0)
0x80000058: 00 14 04 13 addi	s0, s0, 1
0x8000005c: fe 05 1a e3 bnez	a0, -0xc
0x80000050: 35 40 00 ef jal	0x354
0x800003a4: a0 00 07 b7 lui	a5, 0xa0000
0x800003a8: 3e a7 8c 23 sb	a0, 0x3f8(a5)
0x800003ac: 00 00 80 67 ret
0x80000054: 00 14 45 03 lbu	a0, 1(s0)
0x80000058: 00 14 04 13 addi	s0, s0, 1
0x8000005c: fe 05 1a e3 bnez	a0, -0xc
0x80000060: 00 09 25 03 lw	a0, 0(s2)
0x80000064: 00 00 14 17 auipc	s0, 1
0x80000068: 76 84 04 13 addi	s0, s0, 0x768
0x8000006c: 03 05 05 13 addi	a0, a0, 0x30
0x80000070: 0f f5 75 13 andi	a0, a0, 0xff
0x80000074: 33 00 00 ef jal	0x330
0x800003a4: a0 00 07 b7 lui	a5, 0xa0000
0x800003a8: 3e a7 8c 23 sb	a0, 0x3f8(a5)
0x800003ac: 00 00 80 67 ret
0x80000078: 02 c0 05 13 addi	a0, zero, 0x2c
0x8000007c: 32 80 00 ef jal	0x328
0x800003a4: a0 00 07 b7 lui	a5, 0xa0000
0x800003a8: 3e a7 8c 23 sb	a0, 0x3f8(a5)
0x800003ac: 00 00 80 67 ret
0x80000080: 00 14 45 03 lbu	a0, 1(s0)
0x80000084: 00 14 04 13 addi	s0, s0, 1
0x80000088: fe 05 1a e3 bnez	a0, -0xc
0x8000007c: 32 80 00 ef jal	0x328
0x800003a4: a0 00 07 b7 lui	a5, 0xa0000
0x800003a8: 3e a7 8c 23 sb	a0, 0x3f8(a5)
0x800003ac: 00 00 80 67 ret
0x80000080: 00 14 45 03 lbu	a0, 1(s0)
0x80000084: 00 14 04 13 addi	s0, s0, 1
0x80000088: fe 05 1a e3 bnez	a0, -0xc
0x8000007c: 32 80 00 ef jal	0x328
0x800003a4: a0 00 07 b7 lui	a5, 0xa0000
0x800003a8: 3e a7 8c 23 sb	a0, 0x3f8(a5)
0x800003ac: 00 00 80 67 ret
0x80000080: 00 14 45 03 lbu	a0, 1(s0)
0x80000084: 00 14 04 13 addi	s0, s0, 1
0x80000088: fe 05 1a e3 bnez	a0, -0xc
0x8000007c: 32 80 00 ef jal	0x328
0x800003a4: a0 00 07 b7 lui	a5, 0xa0000
0x800003a8: 3e a7 8c 23 sb	a0, 0x3f8(a5)
0x800003ac: 00 00 80 67 ret
0x80000080: 00 14 45 03 lbu	a0, 1(s0)
0x80000084: 00 14 04 13 addi	s0, s0, 1
0x80000088: fe 05 1a e3 bnez	a0, -0xc
0x8000007c: 32 80 00 ef jal	0x328
0x800003a4: a0 00 07 b7 lui	a5, 0xa0000
0x800003a8: 3e a7 8c 23 sb	a0, 0x3f8(a5)
0x800003ac: 00 00 80 67 ret
0x80000080: 00 14 45 03 lbu	a0, 1(s0)
0x80000084: 00 14 04 13 addi	s0, s0, 1
0x80000088: fe 05 1a e3 bnez	a0, -0xc
0x8000007c: 32 80 00 ef jal	0x328
0x800003a4: a0 00 07 b7 lui	a5, 0xa0000
0x800003a8: 3e a7 8c 23 sb	a0, 0x3f8(a5)
0x800003ac: 00 00 80 67 ret
0x80000080: 00 14 45 03 lbu	a0, 1(s0)
0x80000084: 00 14 04 13 addi	s0, s0, 1
0x80000088: fe 05 1a e3 bnez	a0, -0xc
0x8000007c: 32 80 00 ef jal	0x328
0x800003a4: a0 00 07 b7 lui	a5, 0xa0000
0x800003a8: 3e a7 8c 23 sb	a0, 0x3f8(a5)
0x800003ac: 00 00 80 67 ret
0x80000080: 00 14 45 03 lbu	a0, 1(s0)
0x80000084: 00 14 04 13 addi	s0, s0, 1
0x80000088: fe 05 1a e3 bnez	a0, -0xc
0x8000007c: 32 80 00 ef jal	0x328
0x800003a4: a0 00 07 b7 lui	a5, 0xa0000
0x800003a8: 3e a7 8c 23 sb	a0, 0x3f8(a5)
0x800003ac: 00 00 80 67 ret
0x80000080: 00 14 45 03 lbu	a0, 1(s0)
0x80000084: 00 14 04 13 addi	s0, s0, 1
0x80000088: fe 05 1a e3 bnez	a0, -0xc
0x8000007c: 32 80 00 ef jal	0x328
0x800003a4: a0 00 07 b7 lui	a5, 0xa0000
0x800003a8: 3e a7 8c 23 sb	a0, 0x3f8(a5)
0x800003ac: 00 00 80 67 ret
0x80000080: 00 14 45 03 lbu	a0, 1(s0)
0x80000084: 00 14 04 13 addi	s0, s0, 1
0x80000088: fe 05 1a e3 bnez	a0, -0xc
0x8000008c: 00 09 a5 03 lw	a0, 0(s3)
0x80000090: 03 05 05 13 addi	a0, a0, 0x30
0x80000094: 0f f5 75 13 andi	a0, a0, 0xff
0x80000098: 30 c0 00 ef jal	0x30c
0x800003a4: a0 00 07 b7 lui	a5, 0xa0000
0x800003a8: 3e a7 8c 23 sb	a0, 0x3f8(a5)
0x800003ac: 00 00 80 67 ret
0x8000009c: 00 a0 05 13 addi	a0, zero, 0xa
0x800000a0: 30 40 00 ef jal	0x304
0x800003a4: a0 00 07 b7 lui	a5, 0xa0000
0x800003a8: 3e a7 8c 23 sb	a0, 0x3f8(a5)
0x800003ac: 00 00 80 67 ret
0x800000a4: 00 09 27 83 lw	a5, 0(s2)
0x800000a8: 00 10 07 13 addi	a4, zero, 1
0x800000ac: 06 e7 84 63 beq	a5, a4, 0x68
0x800000b0: 00 40 07 13 addi	a4, zero, 4
0x800000b4: 04 f7 40 63 blt	a4, a5, 0x40
0x800000b8: 00 00 14 17 auipc	s0, 1
0x800000bc: 73 44 04 13 addi	s0, s0, 0x734
0x800000c0: 05 40 05 13 addi	a0, zero, 0x54
0x800000c4: 2e 00 00 ef jal	0x2e0
0x800003a4: a0 00 07 b7 lui	a5, 0xa0000
0x800003a8: 3e a7 8c 23 sb	a0, 0x3f8(a5)
0x800003ac: 00 00 80 67 ret
0x800000c8: 00 14 45 03 lbu	a0, 1(s0)
0x800000cc: 00 14 04 13 addi	s0, s0, 1
0x800000d0: fe 05 1a e3 bnez	a0, -0xc
0x800000c4: 2e 00 00 ef jal	0x2e0
0x800003a4: a0 00 07 b7 lui	a5, 0xa0000
0x800003a8: 3e a7 8c 23 sb	a0, 0x3f8(a5)
0x800003ac: 00 00 80 67 ret
0x800000c8: 00 14 45 03 lbu	a0, 1(s0)
0x800000cc: 00 14 04 13 addi	s0, s0, 1
0x800000d0: fe 05 1a e3 bnez	a0, -0xc
0x800000c4: 2e 00 00 ef jal	0x2e0
0x800003a4: a0 00 07 b7 lui	a5, 0xa0000
0x800003a8: 3e a7 8c 23 sb	a0, 0x3f8(a5)
0x800003ac: 00 00 80 67 ret
0x800000c8: 00 14 45 03 lbu	a0, 1(s0)
0x800000cc: 00 14 04 13 addi	s0, s0, 1
0x800000d0: fe 05 1a e3 bnez	a0, -0xc
0x800000c4: 2e 00 00 ef jal	0x2e0
0x800003a4: a0 00 07 b7 lui	a5, 0xa0000
0x800003a8: 3e a7 8c 23 sb	a0, 0x3f8(a5)
0x800003ac: 00 00 80 67 ret
0x800000c8: 00 14 45 03 lbu	a0, 1(s0)
0x800000cc: 00 14 04 13 addi	s0, s0, 1
0x800000d0: fe 05 1a e3 bnez	a0, -0xc
0x800000c4: 2e 00 00 ef jal	0x2e0
0x800003a4: a0 00 07 b7 lui	a5, 0xa0000
0x800003a8: 3e a7 8c 23 sb	a0, 0x3f8(a5)
0x800003ac: 00 00 80 67 ret
0x800000c8: 00 14 45 03 lbu	a0, 1(s0)
0x800000cc: 00 14 04 13 addi	s0, s0, 1
0x800000d0: fe 05 1a e3 bnez	a0, -0xc
0x800000c4: 2e 00 00 ef jal	0x2e0
0x800003a4: a0 00 07 b7 lui	a5, 0xa0000
0x800003a8: 3e a7 8c 23 sb	a0, 0x3f8(a5)
0x800003ac: 00 00 80 67 ret
0x800000c8: 00 14 45 03 lbu	a0, 1(s0)
0x800000cc: 00 14 04 13 addi	s0, s0, 1
0x800000d0: fe 05 1a e3 bnez	a0, -0xc
0x800000c4: 2e 00 00 ef jal	0x2e0
0x800003a4: a0 00 07 b7 lui	a5, 0xa0000
0x800003a8: 3e a7 8c 23 sb	a0, 0x3f8(a5)
0x800003ac: 00 00 80 67 ret
0x800000c8: 00 14 45 03 lbu	a0, 1(s0)
0x800000cc: 00 14 04 13 addi	s0, s0, 1
0x800000d0: fe 05 1a e3 bnez	a0, -0xc
0x800000c4: 2e 00 00 ef jal	0x2e0
0x800003a4: a0 00 07 b7 lui	a5, 0xa0000
0x800003a8: 3e a7 8c 23 sb	a0, 0x3f8(a5)
0x800003ac: 00 00 80 67 ret
0x800000c8: 00 14 45 03 lbu	a0, 1(s0)
0x800000cc: 00 14 04 13 addi	s0, s0, 1
0x800000d0: fe 05 1a e3 bnez	a0, -0xc
0x800000c4: 2e 00 00 ef jal	0x2e0
0x800003a4: a0 00 07 b7 lui	a5, 0xa0000
0x800003a8: 3e a7 8c 23 sb	a0, 0x3f8(a5)
0x800003ac: 00 00 80 67 ret
0x800000c8: 00 14 45 03 lbu	a0, 1(s0)
0x800000cc: 00 14 04 13 addi	s0, s0, 1
0x800000d0: fe 05 1a e3 bnez	a0, -0xc
0x800000c4: 2e 00 00 ef jal	0x2e0
0x800003a4: a0 00 07 b7 lui	a5, 0xa0000
0x800003a8: 3e a7 8c 23 sb	a0, 0x3f8(a5)
0x800003ac: 00 00 80 67 ret
0x800000c8: 00 14 45 03 lbu	a0, 1(s0)
0x800000cc: 00 14 04 13 addi	s0, s0, 1
0x800000d0: fe 05 1a e3 bnez	a0, -0xc
0x800000c4: 2e 00 00 ef jal	0x2e0
0x800003a4: a0 00 07 b7 lui	a5, 0xa0000
0x800003a8: 3e a7 8c 23 sb	a0, 0x3f8(a5)
0x800003ac: 00 00 80 67 ret
0x800000c8: 00 14 45 03 lbu	a0, 1(s0)
0x800000cc: 00 14 04 13 addi	s0, s0, 1
0x800000d0: fe 05 1a e3 bnez	a0, -0xc
0x800000c4: 2e 00 00 ef jal	0x2e0
0x800003a4: a0 00 07 b7 lui	a5, 0xa0000
0x800003a8: 3e a7 8c 23 sb	a0, 0x3f8(a5)
0x800003ac: 00 00 80 67 ret
0x800000c8: 00 14 45 03 lbu	a0, 1(s0)
0x800000cc: 00 14 04 13 addi	s0, s0, 1
0x800000d0: fe 05 1a e3 bnez	a0, -0xc
0x800000c4: 2e 00 00 ef jal	0x2e0
0x800003a4: a0 00 07 b7 lui	a5, 0xa0000
0x800003a8: 3e a7 8c 23 sb	a0, 0x3f8(a5)
0x800003ac: 00 00 80 67 ret
0x800000c8: 00 14 45 03 lbu	a0, 1(s0)
0x800000cc: 00 14 04 13 addi	s0, s0, 1
0x800000d0: fe 05 1a e3 bnez	a0, -0xc
0x800000c4: 2e 00 00 ef jal	0x2e0
0x800003a4: a0 00 07 b7 lui	a5, 0xa0000
0x800003a8: 3e a7 8c 23 sb	a0, 0x3f8(a5)
0x800003ac: 00 00 80 67 ret
0x800000c8: 00 14 45 03 lbu	a0, 1(s0)
0x800000cc: 00 14 04 13 addi	s0, s0, 1
0x800000d0: fe 05 1a e3 bnez	a0, -0xc
0x800000c4: 2e 00 00 ef jal	0x2e0
0x800003a4: a0 00 07 b7 lui	a5, 0xa0000
0x800003a8: 3e a7 8c 23 sb	a0, 0x3f8(a5)
0x800003ac: 00 00 80 67 ret
0x800000c8: 00 14 45 03 lbu	a0, 1(s0)
0x800000cc: 00 14 04 13 addi	s0, s0, 1
0x800000d0: fe 05 1a e3 bnez	a0, -0xc
0x800000c4: 2e 00 00 ef jal	0x2e0
0x800003a4: a0 00 07 b7 lui	a5, 0xa0000
0x800003a8: 3e a7 8c 23 sb	a0, 0x3f8(a5)
0x800003ac: 00 00 80 67 ret
0x800000c8: 00 14 45 03 lbu	a0, 1(s0)
0x800000cc: 00 14 04 13 addi	s0, s0, 1
0x800000d0: fe 05 1a e3 bnez	a0, -0xc
0x800000c4: 2e 00 00 ef jal	0x2e0
0x800003a4: a0 00 07 b7 lui	a5, 0xa0000
0x800003a8: 3e a7 8c 23 sb	a0, 0x3f8(a5)
0x800003ac: 00 00 80 67 ret
0x800000c8: 00 14 45 03 lbu	a0, 1(s0)
0x800000cc: 00 14 04 13 addi	s0, s0, 1
0x800000d0: fe 05 1a e3 bnez	a0, -0xc
0x800000c4: 2e 00 00 ef jal	0x2e0
0x800003a4: a0 00 07 b7 lui	a5, 0xa0000
0x800003a8: 3e a7 8c 23 sb	a0, 0x3f8(a5)
0x800003ac: 00 00 80 67 ret
0x800000c8: 00 14 45 03 lbu	a0, 1(s0)
0x800000cc: 00 14 04 13 addi	s0, s0, 1
0x800000d0: fe 05 1a e3 bnez	a0, -0xc
0x800000c4: 2e 00 00 ef jal	0x2e0
0x800003a4: a0 00 07 b7 lui	a5, 0xa0000
0x800003a8: 3e a7 8c 23 sb	a0, 0x3f8(a5)
0x800003ac: 00 00 80 67 ret
0x800000c8: 00 14 45 03 lbu	a0, 1(s0)
0x800000cc: 00 14 04 13 addi	s0, s0, 1
0x800000d0: fe 05 1a e3 bnez	a0, -0xc
0x800000c4: 2e 00 00 ef jal	0x2e0
0x800003a4: a0 00 07 b7 lui	a5, 0xa0000
0x800003a8: 3e a7 8c 23 sb	a0, 0x3f8(a5)
0x800003ac: 00 00 80 67 ret
0x800000c8: 00 14 45 03 lbu	a0, 1(s0)
0x800000cc: 00 14 04 13 addi	s0, s0, 1
0x800000d0: fe 05 1a e3 bnez	a0, -0xc
0x800000c4: 2e 00 00 ef jal	0x2e0
0x800003a4: a0 00 07 b7 lui	a5, 0xa0000
0x800003a8: 3e a7 8c 23 sb	a0, 0x3f8(a5)
0x800003ac: 00 00 80 67 ret
0x800000c8: 00 14 45 03 lbu	a0, 1(s0)
0x800000cc: 00 14 04 13 addi	s0, s0, 1
0x800000d0: fe 05 1a e3 bnez	a0, -0xc
0x800000c4: 2e 00 00 ef jal	0x2e0
0x800003a4: a0 00 07 b7 lui	a5, 0xa0000
0x800003a8: 3e a7 8c 23 sb	a0, 0x3f8(a5)
0x800003ac: 00 00 80 67 ret
0x800000c8: 00 14 45 03 lbu	a0, 1(s0)
0x800000cc: 00 14 04 13 addi	s0, s0, 1
0x800000d0: fe 05 1a e3 bnez	a0, -0xc
0x800000c4: 2e 00 00 ef jal	0x2e0
0x800003a4: a0 00 07 b7 lui	a5, 0xa0000
0x800003a8: 3e a7 8c 23 sb	a0, 0x3f8(a5)
0x800003ac: 00 00 80 67 ret
0x800000c8: 00 14 45 03 lbu	a0, 1(s0)
0x800000cc: 00 14 04 13 addi	s0, s0, 1
0x800000d0: fe 05 1a e3 bnez	a0, -0xc
0x800000c4: 2e 00 00 ef jal	0x2e0
0x800003a4: a0 00 07 b7 lui	a5, 0xa0000
0x800003a8: 3e a7 8c 23 sb	a0, 0x3f8(a5)
0x800003ac: 00 00 80 67 ret
0x800000c8: 00 14 45 03 lbu	a0, 1(s0)
0x800000cc: 00 14 04 13 addi	s0, s0, 1
0x800000d0: fe 05 1a e3 bnez	a0, -0xc
0x800000c4: 2e 00 00 ef jal	0x2e0
0x800003a4: a0 00 07 b7 lui	a5, 0xa0000
0x800003a8: 3e a7 8c 23 sb	a0, 0x3f8(a5)
0x800003ac: 00 00 80 67 ret
0x800000c8: 00 14 45 03 lbu	a0, 1(s0)
0x800000cc: 00 14 04 13 addi	s0, s0, 1
0x800000d0: fe 05 1a e3 bnez	a0, -0xc
0x800000c4: 2e 00 00 ef jal	0x2e0
0x800003a4: a0 00 07 b7 lui	a5, 0xa0000
0x800003a8: 3e a7 8c 23 sb	a0, 0x3f8(a5)
0x800003ac: 00 00 80 67 ret
0x800000c8: 00 14 45 03 lbu	a0, 1(s0)
0x800000cc: 00 14 04 13 addi	s0, s0, 1
0x800000d0: fe 05 1a e3 bnez	a0, -0xc
0x800000c4: 2e 00 00 ef jal	0x2e0
0x800003a4: a0 00 07 b7 lui	a5, 0xa0000
0x800003a8: 3e a7 8c 23 sb	a0, 0x3f8(a5)
0x800003ac: 00 00 80 67 ret
0x800000c8: 00 14 45 03 lbu	a0, 1(s0)
0x800000cc: 00 14 04 13 addi	s0, s0, 1
0x800000d0: fe 05 1a e3 bnez	a0, -0xc
0x800000c4: 2e 00 00 ef jal	0x2e0
0x800003a4: a0 00 07 b7 lui	a5, 0xa0000
0x800003a8: 3e a7 8c 23 sb	a0, 0x3f8(a5)
0x800003ac: 00 00 80 67 ret
0x800000c8: 00 14 45 03 lbu	a0, 1(s0)
0x800000cc: 00 14 04 13 addi	s0, s0, 1
0x800000d0: fe 05 1a e3 bnez	a0, -0xc
0x800000c4: 2e 00 00 ef jal	0x2e0
0x800003a4: a0 00 07 b7 lui	a5, 0xa0000
0x800003a8: 3e a7 8c 23 sb	a0, 0x3f8(a5)
0x800003ac: 00 00 80 67 ret
0x800000c8: 00 14 45 03 lbu	a0, 1(s0)
0x800000cc: 00 14 04 13 addi	s0, s0, 1
0x800000d0: fe 05 1a e3 bnez	a0, -0xc
0x800000c4: 2e 00 00 ef jal	0x2e0
0x800003a4: a0 00 07 b7 lui	a5, 0xa0000
0x800003a8: 3e a7 8c 23 sb	a0, 0x3f8(a5)
0x800003ac: 00 00 80 67 ret
0x800000c8: 00 14 45 03 lbu	a0, 1(s0)
0x800000cc: 00 14 04 13 addi	s0, s0, 1
0x800000d0: fe 05 1a e3 bnez	a0, -0xc
0x800000c4: 2e 00 00 ef jal	0x2e0
0x800003a4: a0 00 07 b7 lui	a5, 0xa0000
0x800003a8: 3e a7 8c 23 sb	a0, 0x3f8(a5)
0x800003ac: 00 00 80 67 ret
0x800000c8: 00 14 45 03 lbu	a0, 1(s0)
0x800000cc: 00 14 04 13 addi	s0, s0, 1
0x800000d0: fe 05 1a e3 bnez	a0, -0xc
0x800000c4: 2e 00 00 ef jal	0x2e0
0x800003a4: a0 00 07 b7 lui	a5, 0xa0000
0x800003a8: 3e a7 8c 23 sb	a0, 0x3f8(a5)
0x800003ac: 00 00 80 67 ret
0x800000c8: 00 14 45 03 lbu	a0, 1(s0)
0x800000cc: 00 14 04 13 addi	s0, s0, 1
0x800000d0: fe 05 1a e3 bnez	a0, -0xc
0x800000c4: 2e 00 00 ef jal	0x2e0
0x800003a4: a0 00 07 b7 lui	a5, 0xa0000
0x800003a8: 3e a7 8c 23 sb	a0, 0x3f8(a5)
0x800003ac: 00 00 80 67 ret
0x800000c8: 00 14 45 03 lbu	a0, 1(s0)
0x800000cc: 00 14 04 13 addi	s0, s0, 1
0x800000d0: fe 05 1a e3 bnez	a0, -0xc
0x800000c4: 2e 00 00 ef jal	0x2e0
0x800003a4: a0 00 07 b7 lui	a5, 0xa0000
0x800003a8: 3e a7 8c 23 sb	a0, 0x3f8(a5)
0x800003ac: 00 00 80 67 ret
0x800000c8: 00 14 45 03 lbu	a0, 1(s0)
0x800000cc: 00 14 04 13 addi	s0, s0, 1
0x800000d0: fe 05 1a e3 bnez	a0, -0xc
0x800000d4: 01 c1 20 83 lw	ra, 0x1c(sp)
0x800000d8: 01 81 24 03 lw	s0, 0x18(sp)
0x800000dc: 01 01 29 03 lw	s2, 0x10(sp)
0x800000e0: 00 c1 29 83 lw	s3, 0xc(sp)
0x800000e4: 00 04 85 13 mv	a0, s1
0x800000e8: 01 41 24 83 lw	s1, 0x14(sp)
0x800000ec: 02 01 01 13 addi	sp, sp, 0x20
0x800000f0: 00 00 80 67 ret
0x80000434: 00 05 0e 63 beqz	a0, 0x1c
0x80000438: 02 c1 20 83 lw	ra, 0x2c(sp)
0x8000043c: 03 01 01 13 addi	sp, sp, 0x30
0x80000440: 00 00 80 67 ret
0x80000628: 00 05 01 13 mv	sp, a0
0x8000062c: 08 41 23 03 lw	t1, 0x84(sp)
0x80000630: 08 81 23 83 lw	t2, 0x88(sp)
0x80000634: 30 03 10 73 csrw	mstatus, t1
0x80000638: 34 13 90 73 csrw	mepc, t2
0x8000063c: 00 41 20 83 lw	ra, 4(sp)
0x80000640: 00 c1 21 83 lw	gp, 0xc(sp)
0x80000644: 01 01 22 03 lw	tp, 0x10(sp)
0x80000648: 01 41 22 83 lw	t0, 0x14(sp)
0x8000064c: 01 81 23 03 lw	t1, 0x18(sp)
0x80000650: 01 c1 23 83 lw	t2, 0x1c(sp)
0x80000654: 02 01 24 03 lw	s0, 0x20(sp)
0x80000658: 02 41 24 83 lw	s1, 0x24(sp)
0x8000065c: 02 81 25 03 lw	a0, 0x28(sp)
0x80000660: 02 c1 25 83 lw	a1, 0x2c(sp)
0x80000664: 03 01 26 03 lw	a2, 0x30(sp)
0x80000668: 03 41 26 83 lw	a3, 0x34(sp)
0x8000066c: 03 81 27 03 lw	a4, 0x38(sp)
0x80000670: 03 c1 27 83 lw	a5, 0x3c(sp)
0x80000674: 04 01 28 03 lw	a6, 0x40(sp)
0x80000678: 04 41 28 83 lw	a7, 0x44(sp)
0x8000067c: 04 81 29 03 lw	s2, 0x48(sp)
0x80000680: 04 c1 29 83 lw	s3, 0x4c(sp)
0x80000684: 05 01 2a 03 lw	s4, 0x50(sp)
0x80000688: 05 41 2a 83 lw	s5, 0x54(sp)
0x8000068c: 05 81 2b 03 lw	s6, 0x58(sp)
0x80000690: 05 c1 2b 83 lw	s7, 0x5c(sp)
0x80000694: 06 01 2c 03 lw	s8, 0x60(sp)
0x80000698: 06 41 2c 83 lw	s9, 0x64(sp)
0x8000069c: 06 81 2d 03 lw	s10, 0x68(sp)
0x800006a0: 06 c1 2d 83 lw	s11, 0x6c(sp)
0x800006a4: 07 01 2e 03 lw	t3, 0x70(sp)
0x800006a8: 07 41 2e 83 lw	t4, 0x74(sp)
0x800006ac: 07 81 2f 03 lw	t5, 0x78(sp)
0x800006b0: 07 c1 2f 83 lw	t6, 0x7c(sp)
0x800006b4: 08 c1 01 13 addi	sp, sp, 0x8c
0x800006b8: 30 20 00 73 mret
0x8000050c: 00 00 00 73 ecall
0x80000580: f7 41 01 13 addi	sp, sp, -0x8c
0x80000584: 00 11 22 23 sw	ra, 4(sp)
0x80000588: 00 31 26 23 sw	gp, 0xc(sp)
0x8000058c: 00 41 28 23 sw	tp, 0x10(sp)
0x80000590: 00 51 2a 23 sw	t0, 0x14(sp)
0x80000594: 00 61 2c 23 sw	t1, 0x18(sp)
0x80000598: 00 71 2e 23 sw	t2, 0x1c(sp)
0x8000059c: 02 81 20 23 sw	s0, 0x20(sp)
0x800005a0: 02 91 22 23 sw	s1, 0x24(sp)
0x800005a4: 02 a1 24 23 sw	a0, 0x28(sp)
0x800005a8: 02 b1 26 23 sw	a1, 0x2c(sp)
0x800005ac: 02 c1 28 23 sw	a2, 0x30(sp)
0x800005b0: 02 d1 2a 23 sw	a3, 0x34(sp)
0x800005b4: 02 e1 2c 23 sw	a4, 0x38(sp)
0x800005b8: 02 f1 2e 23 sw	a5, 0x3c(sp)
0x800005bc: 05 01 20 23 sw	a6, 0x40(sp)
0x800005c0: 05 11 22 23 sw	a7, 0x44(sp)
0x800005c4: 05 21 24 23 sw	s2, 0x48(sp)
0x800005c8: 05 31 26 23 sw	s3, 0x4c(sp)
0x800005cc: 05 41 28 23 sw	s4, 0x50(sp)
0x800005d0: 05 51 2a 23 sw	s5, 0x54(sp)
0x800005d4: 05 61 2c 23 sw	s6, 0x58(sp)
0x800005d8: 05 71 2e 23 sw	s7, 0x5c(sp)
0x800005dc: 07 81 20 23 sw	s8, 0x60(sp)
0x800005e0: 07 91 22 23 sw	s9, 0x64(sp)
0x800005e4: 07 a1 24 23 sw	s10, 0x68(sp)
0x800005e8: 07 b1 26 23 sw	s11, 0x6c(sp)
0x800005ec: 07 c1 28 23 sw	t3, 0x70(sp)
0x800005f0: 07 d1 2a 23 sw	t4, 0x74(sp)
0x800005f4: 07 e1 2c 23 sw	t5, 0x78(sp)
0x800005f8: 07 f1 2e 23 sw	t6, 0x7c(sp)
0x800005fc: 34 20 22 f3 csrr	t0, mcause
0x80000600: 30 00 23 73 csrr	t1, mstatus
0x80000604: 34 10 23 f3 csrr	t2, mepc
0x80000608: 08 51 20 23 sw	t0, 0x80(sp)
0x8000060c: 08 61 22 23 sw	t1, 0x84(sp)
0x80000610: 08 71 24 23 sw	t2, 0x88(sp)
0x80000614: 00 02 05 37 lui	a0, 0x20
0x80000618: 00 a3 63 33 or	t1, t1, a0
0x8000061c: 30 03 10 73 csrw	mstatus, t1
0x80000620: 00 01 05 13 mv	a0, sp
0x80000624: db 9f f0 ef jal	-0x248
0x800003dc: 00 00 37 97 auipc	a5, 3
0x800003e0: a0 c7 a7 83 lw	a5, -0x5f4(a5)
0x800003e4: 00 05 05 93 mv	a1, a0
0x800003e8: 06 07 82 63 beqz	a5, 0x64
0x800003ec: 08 05 26 03 lw	a2, 0x80(a0)
0x800003f0: fd 01 01 13 addi	sp, sp, -0x30
0x800003f4: 02 11 26 23 sw	ra, 0x2c(sp)
0x800003f8: 00 01 2a 23 sw	zero, 0x14(sp)
0x800003fc: 00 01 2c 23 sw	zero, 0x18(sp)
0x80000400: 00 01 2e 23 sw	zero, 0x1c(sp)
0x80000404: 00 b0 06 93 addi	a3, zero, 0xb
0x80000408: 00 40 07 13 addi	a4, zero, 4
0x8000040c: 02 d6 0c 63 beq	a2, a3, 0x38
0x80000444: 00 10 07 13 addi	a4, zero, 1
0x80000448: fc 9f f0 6f j	-0x38
0x80000410: 00 e1 20 23 sw	a4, 0(sp)
0x80000414: 01 41 27 03 lw	a4, 0x14(sp)
0x80000418: 00 01 05 13 mv	a0, sp
0x8000041c: 00 e1 22 23 sw	a4, 4(sp)
0x80000420: 01 81 27 03 lw	a4, 0x18(sp)
0x80000424: 00 e1 24 23 sw	a4, 8(sp)
0x80000428: 01 c1 27 03 lw	a4, 0x1c(sp)
0x8000042c: 00 e1 26 23 sw	a4, 0xc(sp)
0x80000430: 00 07 80 e7 jalr	a5
0x80000010: fe 01 01 13 addi	sp, sp, -0x20
0x80000014: 01 21 28 23 sw	s2, 0x10(sp)
0x80000018: 00 00 39 17 auipc	s2, 3
0x8000001c: dc 89 09 13 addi	s2, s2, -0x238
0x80000020: 00 09 27 83 lw	a5, 0(s2)
0x80000024: 00 81 2c 23 sw	s0, 0x18(sp)
0x80000028: 00 91 2a 23 sw	s1, 0x14(sp)
0x8000002c: 01 31 26 23 sw	s3, 0xc(sp)
0x80000030: 00 11 2e 23 sw	ra, 0x1c(sp)
0x80000034: 00 17 87 93 addi	a5, a5, 1
0x80000038: 00 05 09 93 mv	s3, a0
0x8000003c: 00 05 84 93 mv	s1, a1
0x80000040: 00 f9 20 23 sw	a5, 0(s2)
0x80000044: 00 00 14 17 auipc	s0, 1
0x80000048: 77 44 04 13 addi	s0, s0, 0x774
0x8000004c: 05 30 05 13 addi	a0, zero, 0x53
0x80000050: 35 40 00 ef jal	0x354
0x800003a4: a0 00 07 b7 lui	a5, 0xa0000
0x800003a8: 3e a7 8c 23 sb	a0, 0x3f8(a5)
0x800003ac: 00 00 80 67 ret
0x80000054: 00 14 45 03 lbu	a0, 1(s0)
0x80000058: 00 14 04 13 addi	s0, s0, 1
0x8000005c: fe 05 1a e3 bnez	a0, -0xc
0x80000050: 35 40 00 ef jal	0x354
0x800003a4: a0 00 07 b7 lui	a5, 0xa0000
0x800003a8: 3e a7 8c 23 sb	a0, 0x3f8(a5)
0x800003ac: 00 00 80 67 ret
0x80000054: 00 14 45 03 lbu	a0, 1(s0)
0x80000058: 00 14 04 13 addi	s0, s0, 1
0x8000005c: fe 05 1a e3 bnez	a0, -0xc
0x80000050: 35 40 00 ef jal	0x354
0x800003a4: a0 00 07 b7 lui	a5, 0xa0000
0x800003a8: 3e a7 8c 23 sb	a0, 0x3f8(a5)
0x800003ac: 00 00 80 67 ret
0x80000054: 00 14 45 03 lbu	a0, 1(s0)
0x80000058: 00 14 04 13 addi	s0, s0, 1
0x8000005c: fe 05 1a e3 bnez	a0, -0xc
0x80000050: 35 40 00 ef jal	0x354
0x800003a4: a0 00 07 b7 lui	a5, 0xa0000
0x800003a8: 3e a7 8c 23 sb	a0, 0x3f8(a5)
0x800003ac: 00 00 80 67 ret
0x80000054: 00 14 45 03 lbu	a0, 1(s0)
0x80000058: 00 14 04 13 addi	s0, s0, 1
0x8000005c: fe 05 1a e3 bnez	a0, -0xc
0x80000050: 35 40 00 ef jal	0x354
0x800003a4: a0 00 07 b7 lui	a5, 0xa0000
0x800003a8: 3e a7 8c 23 sb	a0, 0x3f8(a5)
0x800003ac: 00 00 80 67 ret
0x80000054: 00 14 45 03 lbu	a0, 1(s0)
0x80000058: 00 14 04 13 addi	s0, s0, 1
0x8000005c: fe 05 1a e3 bnez	a0, -0xc
0x80000050: 35 40 00 ef jal	0x354
0x800003a4: a0 00 07 b7 lui	a5, 0xa0000
0x800003a8: 3e a7 8c 23 sb	a0, 0x3f8(a5)
0x800003ac: 00 00 80 67 ret
0x80000054: 00 14 45 03 lbu	a0, 1(s0)
0x80000058: 00 14 04 13 addi	s0, s0, 1
0x8000005c: fe 05 1a e3 bnez	a0, -0xc
0x80000050: 35 40 00 ef jal	0x354
0x800003a4: a0 00 07 b7 lui	a5, 0xa0000
0x800003a8: 3e a7 8c 23 sb	a0, 0x3f8(a5)
0x800003ac: 00 00 80 67 ret
0x80000054: 00 14 45 03 lbu	a0, 1(s0)
0x80000058: 00 14 04 13 addi	s0, s0, 1
0x8000005c: fe 05 1a e3 bnez	a0, -0xc
0x80000050: 35 40 00 ef jal	0x354
0x800003a4: a0 00 07 b7 lui	a5, 0xa0000
0x800003a8: 3e a7 8c 23 sb	a0, 0x3f8(a5)
0x800003ac: 00 00 80 67 ret
0x80000054: 00 14 45 03 lbu	a0, 1(s0)
0x80000058: 00 14 04 13 addi	s0, s0, 1
0x8000005c: fe 05 1a e3 bnez	a0, -0xc
0x80000050: 35 40 00 ef jal	0x354
0x800003a4: a0 00 07 b7 lui	a5, 0xa0000
0x800003a8: 3e a7 8c 23 sb	a0, 0x3f8(a5)
0x800003ac: 00 00 80 67 ret
0x80000054: 00 14 45 03 lbu	a0, 1(s0)
0x80000058: 00 14 04 13 addi	s0, s0, 1
0x8000005c: fe 05 1a e3 bnez	a0, -0xc
0x80000050: 35 40 00 ef jal	0x354
0x800003a4: a0 00 07 b7 lui	a5, 0xa0000
0x800003a8: 3e a7 8c 23 sb	a0, 0x3f8(a5)
0x800003ac: 00 00 80 67 ret
0x80000054: 00 14 45 03 lbu	a0, 1(s0)
0x80000058: 00 14 04 13 addi	s0, s0, 1
0x8000005c: fe 05 1a e3 bnez	a0, -0xc
0x80000050: 35 40 00 ef jal	0x354
0x800003a4: a0 00 07 b7 lui	a5, 0xa0000
0x800003a8: 3e a7 8c 23 sb	a0, 0x3f8(a5)
0x800003ac: 00 00 80 67 ret
0x80000054: 00 14 45 03 lbu	a0, 1(s0)
0x80000058: 00 14 04 13 addi	s0, s0, 1
0x8000005c: fe 05 1a e3 bnez	a0, -0xc
0x80000050: 35 40 00 ef jal	0x354
0x800003a4: a0 00 07 b7 lui	a5, 0xa0000
0x800003a8: 3e a7 8c 23 sb	a0, 0x3f8(a5)
0x800003ac: 00 00 80 67 ret
0x80000054: 00 14 45 03 lbu	a0, 1(s0)
0x80000058: 00 14 04 13 addi	s0, s0, 1
0x8000005c: fe 05 1a e3 bnez	a0, -0xc
0x80000050: 35 40 00 ef jal	0x354
0x800003a4: a0 00 07 b7 lui	a5, 0xa0000
0x800003a8: 3e a7 8c 23 sb	a0, 0x3f8(a5)
0x800003ac: 00 00 80 67 ret
0x80000054: 00 14 45 03 lbu	a0, 1(s0)
0x80000058: 00 14 04 13 addi	s0, s0, 1
0x8000005c: fe 05 1a e3 bnez	a0, -0xc
0x80000050: 35 40 00 ef jal	0x354
0x800003a4: a0 00 07 b7 lui	a5, 0xa0000
0x800003a8: 3e a7 8c 23 sb	a0, 0x3f8(a5)
0x800003ac: 00 00 80 67 ret
0x80000054: 00 14 45 03 lbu	a0, 1(s0)
0x80000058: 00 14 04 13 addi	s0, s0, 1
0x8000005c: fe 05 1a e3 bnez	a0, -0xc
0x80000050: 35 40 00 ef jal	0x354
0x800003a4: a0 00 07 b7 lui	a5, 0xa0000
0x800003a8: 3e a7 8c 23 sb	a0, 0x3f8(a5)
0x800003ac: 00 00 80 67 ret
0x80000054: 00 14 45 03 lbu	a0, 1(s0)
0x80000058: 00 14 04 13 addi	s0, s0, 1
0x8000005c: fe 05 1a e3 bnez	a0, -0xc
0x80000050: 35 40 00 ef jal	0x354
0x800003a4: a0 00 07 b7 lui	a5, 0xa0000
0x800003a8: 3e a7 8c 23 sb	a0, 0x3f8(a5)
0x800003ac: 00 00 80 67 ret
0x80000054: 00 14 45 03 lbu	a0, 1(s0)
0x80000058: 00 14 04 13 addi	s0, s0, 1
0x8000005c: fe 05 1a e3 bnez	a0, -0xc
0x80000050: 35 40 00 ef jal	0x354
0x800003a4: a0 00 07 b7 lui	a5, 0xa0000
0x800003a8: 3e a7 8c 23 sb	a0, 0x3f8(a5)
0x800003ac: 00 00 80 67 ret
0x80000054: 00 14 45 03 lbu	a0, 1(s0)
0x80000058: 00 14 04 13 addi	s0, s0, 1
0x8000005c: fe 05 1a e3 bnez	a0, -0xc
0x80000060: 00 09 25 03 lw	a0, 0(s2)
0x80000064: 00 00 14 17 auipc	s0, 1
0x80000068: 76 84 04 13 addi	s0, s0, 0x768
0x8000006c: 03 05 05 13 addi	a0, a0, 0x30
0x80000070: 0f f5 75 13 andi	a0, a0, 0xff
0x80000074: 33 00 00 ef jal	0x330
0x800003a4: a0 00 07 b7 lui	a5, 0xa0000
0x800003a8: 3e a7 8c 23 sb	a0, 0x3f8(a5)
0x800003ac: 00 00 80 67 ret
0x80000078: 02 c0 05 13 addi	a0, zero, 0x2c
0x8000007c: 32 80 00 ef jal	0x328
0x800003a4: a0 00 07 b7 lui	a5, 0xa0000
0x800003a8: 3e a7 8c 23 sb	a0, 0x3f8(a5)
0x800003ac: 00 00 80 67 ret
0x80000080: 00 14 45 03 lbu	a0, 1(s0)
0x80000084: 00 14 04 13 addi	s0, s0, 1
0x80000088: fe 05 1a e3 bnez	a0, -0xc
0x8000007c: 32 80 00 ef jal	0x328
0x800003a4: a0 00 07 b7 lui	a5, 0xa0000
0x800003a8: 3e a7 8c 23 sb	a0, 0x3f8(a5)
0x800003ac: 00 00 80 67 ret
0x80000080: 00 14 45 03 lbu	a0, 1(s0)
0x80000084: 00 14 04 13 addi	s0, s0, 1
0x80000088: fe 05 1a e3 bnez	a0, -0xc
0x8000007c: 32 80 00 ef jal	0x328
0x800003a4: a0 00 07 b7 lui	a5, 0xa0000
0x800003a8: 3e a7 8c 23 sb	a0, 0x3f8(a5)
0x800003ac: 00 00 80 67 ret
0x80000080: 00 14 45 03 lbu	a0, 1(s0)
0x80000084: 00 14 04 13 addi	s0, s0, 1
0x80000088: fe 05 1a e3 bnez	a0, -0xc
0x8000007c: 32 80 00 ef jal	0x328
0x800003a4: a0 00 07 b7 lui	a5, 0xa0000
0x800003a8: 3e a7 8c 23 sb	a0, 0x3f8(a5)
0x800003ac: 00 00 80 67 ret
0x80000080: 00 14 45 03 lbu	a0, 1(s0)
0x80000084: 00 14 04 13 addi	s0, s0, 1
0x80000088: fe 05 1a e3 bnez	a0, -0xc
0x8000007c: 32 80 00 ef jal	0x328
0x800003a4: a0 00 07 b7 lui	a5, 0xa0000
0x800003a8: 3e a7 8c 23 sb	a0, 0x3f8(a5)
0x800003ac: 00 00 80 67 ret
0x80000080: 00 14 45 03 lbu	a0, 1(s0)
0x80000084: 00 14 04 13 addi	s0, s0, 1
0x80000088: fe 05 1a e3 bnez	a0, -0xc
0x8000007c: 32 80 00 ef jal	0x328
0x800003a4: a0 00 07 b7 lui	a5, 0xa0000
0x800003a8: 3e a7 8c 23 sb	a0, 0x3f8(a5)
0x800003ac: 00 00 80 67 ret
0x80000080: 00 14 45 03 lbu	a0, 1(s0)
0x80000084: 00 14 04 13 addi	s0, s0, 1
0x80000088: fe 05 1a e3 bnez	a0, -0xc
0x8000007c: 32 80 00 ef jal	0x328
0x800003a4: a0 00 07 b7 lui	a5, 0xa0000
0x800003a8: 3e a7 8c 23 sb	a0, 0x3f8(a5)
0x800003ac: 00 00 80 67 ret
0x80000080: 00 14 45 03 lbu	a0, 1(s0)
0x80000084: 00 14 04 13 addi	s0, s0, 1
0x80000088: fe 05 1a e3 bnez	a0, -0xc
0x8000007c: 32 80 00 ef jal	0x328
0x800003a4: a0 00 07 b7 lui	a5, 0xa0000
0x800003a8: 3e a7 8c 23 sb	a0, 0x3f8(a5)
0x800003ac: 00 00 80 67 ret
0x80000080: 00 14 45 03 lbu	a0, 1(s0)
0x80000084: 00 14 04 13 addi	s0, s0, 1
0x80000088: fe 05 1a e3 bnez	a0, -0xc
0x8000007c: 32 80 00 ef jal	0x328
0x800003a4: a0 00 07 b7 lui	a5, 0xa0000
0x800003a8: 3e a7 8c 23 sb	a0, 0x3f8(a5)
0x800003ac: 00 00 80 67 ret
0x80000080: 00 14 45 03 lbu	a0, 1(s0)
0x80000084: 00 14 04 13 addi	s0, s0, 1
0x80000088: fe 05 1a e3 bnez	a0, -0xc
0x8000008c: 00 09 a5 03 lw	a0, 0(s3)
0x80000090: 03 05 05 13 addi	a0, a0, 0x30
0x80000094: 0f f5 75 13 andi	a0, a0, 0xff
0x80000098: 30 c0 00 ef jal	0x30c
0x800003a4: a0 00 07 b7 lui	a5, 0xa0000
0x800003a8: 3e a7 8c 23 sb	a0, 0x3f8(a5)
0x800003ac: 00 00 80 67 ret
0x8000009c: 00 a0 05 13 addi	a0, zero, 0xa
0x800000a0: 30 40 00 ef jal	0x304
0x800003a4: a0 00 07 b7 lui	a5, 0xa0000
0x800003a8: 3e a7 8c 23 sb	a0, 0x3f8(a5)
0x800003ac: 00 00 80 67 ret
0x800000a4: 00 09 27 83 lw	a5, 0(s2)
0x800000a8: 00 10 07 13 addi	a4, zero, 1
0x800000ac: 06 e7 84 63 beq	a5, a4, 0x68
0x800000b0: 00 40 07 13 addi	a4, zero, 4
0x800000b4: 04 f7 40 63 blt	a4, a5, 0x40
0x800000b8: 00 00 14 17 auipc	s0, 1
0x800000bc: 73 44 04 13 addi	s0, s0, 0x734
0x800000c0: 05 40 05 13 addi	a0, zero, 0x54
0x800000c4: 2e 00 00 ef jal	0x2e0
0x800003a4: a0 00 07 b7 lui	a5, 0xa0000
0x800003a8: 3e a7 8c 23 sb	a0, 0x3f8(a5)
0x800003ac: 00 00 80 67 ret
0x800000c8: 00 14 45 03 lbu	a0, 1(s0)
0x800000cc: 00 14 04 13 addi	s0, s0, 1
0x800000d0: fe 05 1a e3 bnez	a0, -0xc
0x800000c4: 2e 00 00 ef jal	0x2e0
0x800003a4: a0 00 07 b7 lui	a5, 0xa0000
0x800003a8: 3e a7 8c 23 sb	a0, 0x3f8(a5)
0x800003ac: 00 00 80 67 ret
0x800000c8: 00 14 45 03 lbu	a0, 1(s0)
0x800000cc: 00 14 04 13 addi	s0, s0, 1
0x800000d0: fe 05 1a e3 bnez	a0, -0xc
0x800000c4: 2e 00 00 ef jal	0x2e0
0x800003a4: a0 00 07 b7 lui	a5, 0xa0000
0x800003a8: 3e a7 8c 23 sb	a0, 0x3f8(a5)
0x800003ac: 00 00 80 67 ret
0x800000c8: 00 14 45 03 lbu	a0, 1(s0)
0x800000cc: 00 14 04 13 addi	s0, s0, 1
0x800000d0: fe 05 1a e3 bnez	a0, -0xc
0x800000c4: 2e 00 00 ef jal	0x2e0
0x800003a4: a0 00 07 b7 lui	a5, 0xa0000
0x800003a8: 3e a7 8c 23 sb	a0, 0x3f8(a5)
0x800003ac: 00 00 80 67 ret
0x800000c8: 00 14 45 03 lbu	a0, 1(s0)
0x800000cc: 00 14 04 13 addi	s0, s0, 1
0x800000d0: fe 05 1a e3 bnez	a0, -0xc
0x800000c4: 2e 00 00 ef jal	0x2e0
0x800003a4: a0 00 07 b7 lui	a5, 0xa0000
0x800003a8: 3e a7 8c 23 sb	a0, 0x3f8(a5)
0x800003ac: 00 00 80 67 ret
0x800000c8: 00 14 45 03 lbu	a0, 1(s0)
0x800000cc: 00 14 04 13 addi	s0, s0, 1
0x800000d0: fe 05 1a e3 bnez	a0, -0xc
0x800000c4: 2e 00 00 ef jal	0x2e0
0x800003a4: a0 00 07 b7 lui	a5, 0xa0000
0x800003a8: 3e a7 8c 23 sb	a0, 0x3f8(a5)
0x800003ac: 00 00 80 67 ret
0x800000c8: 00 14 45 03 lbu	a0, 1(s0)
0x800000cc: 00 14 04 13 addi	s0, s0, 1
0x800000d0: fe 05 1a e3 bnez	a0, -0xc
0x800000c4: 2e 00 00 ef jal	0x2e0
0x800003a4: a0 00 07 b7 lui	a5, 0xa0000
0x800003a8: 3e a7 8c 23 sb	a0, 0x3f8(a5)
0x800003ac: 00 00 80 67 ret
0x800000c8: 00 14 45 03 lbu	a0, 1(s0)
0x800000cc: 00 14 04 13 addi	s0, s0, 1
0x800000d0: fe 05 1a e3 bnez	a0, -0xc
0x800000c4: 2e 00 00 ef jal	0x2e0
0x800003a4: a0 00 07 b7 lui	a5, 0xa0000
0x800003a8: 3e a7 8c 23 sb	a0, 0x3f8(a5)
0x800003ac: 00 00 80 67 ret
0x800000c8: 00 14 45 03 lbu	a0, 1(s0)
0x800000cc: 00 14 04 13 addi	s0, s0, 1
0x800000d0: fe 05 1a e3 bnez	a0, -0xc
0x800000c4: 2e 00 00 ef jal	0x2e0
0x800003a4: a0 00 07 b7 lui	a5, 0xa0000
0x800003a8: 3e a7 8c 23 sb	a0, 0x3f8(a5)
0x800003ac: 00 00 80 67 ret
0x800000c8: 00 14 45 03 lbu	a0, 1(s0)
0x800000cc: 00 14 04 13 addi	s0, s0, 1
0x800000d0: fe 05 1a e3 bnez	a0, -0xc
0x800000c4: 2e 00 00 ef jal	0x2e0
0x800003a4: a0 00 07 b7 lui	a5, 0xa0000
0x800003a8: 3e a7 8c 23 sb	a0, 0x3f8(a5)
0x800003ac: 00 00 80 67 ret
0x800000c8: 00 14 45 03 lbu	a0, 1(s0)
0x800000cc: 00 14 04 13 addi	s0, s0, 1
0x800000d0: fe 05 1a e3 bnez	a0, -0xc
0x800000c4: 2e 00 00 ef jal	0x2e0
0x800003a4: a0 00 07 b7 lui	a5, 0xa0000
0x800003a8: 3e a7 8c 23 sb	a0, 0x3f8(a5)
0x800003ac: 00 00 80 67 ret
0x800000c8: 00 14 45 03 lbu	a0, 1(s0)
0x800000cc: 00 14 04 13 addi	s0, s0, 1
0x800000d0: fe 05 1a e3 bnez	a0, -0xc
0x800000c4: 2e 00 00 ef jal	0x2e0
0x800003a4: a0 00 07 b7 lui	a5, 0xa0000
0x800003a8: 3e a7 8c 23 sb	a0, 0x3f8(a5)
0x800003ac: 00 00 80 67 ret
0x800000c8: 00 14 45 03 lbu	a0, 1(s0)
0x800000cc: 00 14 04 13 addi	s0, s0, 1
0x800000d0: fe 05 1a e3 bnez	a0, -0xc
0x800000c4: 2e 00 00 ef jal	0x2e0
0x800003a4: a0 00 07 b7 lui	a5, 0xa0000
0x800003a8: 3e a7 8c 23 sb	a0, 0x3f8(a5)
0x800003ac: 00 00 80 67 ret
0x800000c8: 00 14 45 03 lbu	a0, 1(s0)
0x800000cc: 00 14 04 13 addi	s0, s0, 1
0x800000d0: fe 05 1a e3 bnez	a0, -0xc
0x800000c4: 2e 00 00 ef jal	0x2e0
0x800003a4: a0 00 07 b7 lui	a5, 0xa0000
0x800003a8: 3e a7 8c 23 sb	a0, 0x3f8(a5)
0x800003ac: 00 00 80 67 ret
0x800000c8: 00 14 45 03 lbu	a0, 1(s0)
0x800000cc: 00 14 04 13 addi	s0, s0, 1
0x800000d0: fe 05 1a e3 bnez	a0, -0xc
0x800000c4: 2e 00 00 ef jal	0x2e0
0x800003a4: a0 00 07 b7 lui	a5, 0xa0000
0x800003a8: 3e a7 8c 23 sb	a0, 0x3f8(a5)
0x800003ac: 00 00 80 67 ret
0x800000c8: 00 14 45 03 lbu	a0, 1(s0)
0x800000cc: 00 14 04 13 addi	s0, s0, 1
0x800000d0: fe 05 1a e3 bnez	a0, -0xc
0x800000c4: 2e 00 00 ef jal	0x2e0
0x800003a4: a0 00 07 b7 lui	a5, 0xa0000
0x800003a8: 3e a7 8c 23 sb	a0, 0x3f8(a5)
0x800003ac: 00 00 80 67 ret
0x800000c8: 00 14 45 03 lbu	a0, 1(s0)
0x800000cc: 00 14 04 13 addi	s0, s0, 1
0x800000d0: fe 05 1a e3 bnez	a0, -0xc
0x800000c4: 2e 00 00 ef jal	0x2e0
0x800003a4: a0 00 07 b7 lui	a5, 0xa0000
0x800003a8: 3e a7 8c 23 sb	a0, 0x3f8(a5)
0x800003ac: 00 00 80 67 ret
0x800000c8: 00 14 45 03 lbu	a0, 1(s0)
0x800000cc: 00 14 04 13 addi	s0, s0, 1
0x800000d0: fe 05 1a e3 bnez	a0, -0xc
0x800000c4: 2e 00 00 ef jal	0x2e0
0x800003a4: a0 00 07 b7 lui	a5, 0xa0000
0x800003a8: 3e a7 8c 23 sb	a0, 0x3f8(a5)
0x800003ac: 00 00 80 67 ret
0x800000c8: 00 14 45 03 lbu	a0, 1(s0)
0x800000cc: 00 14 04 13 addi	s0, s0, 1
0x800000d0: fe 05 1a e3 bnez	a0, -0xc
0x800000c4: 2e 00 00 ef jal	0x2e0
0x800003a4: a0 00 07 b7 lui	a5, 0xa0000
0x800003a8: 3e a7 8c 23 sb	a0, 0x3f8(a5)
0x800003ac: 00 00 80 67 ret
0x800000c8: 00 14 45 03 lbu	a0, 1(s0)
0x800000cc: 00 14 04 13 addi	s0, s0, 1
0x800000d0: fe 05 1a e3 bnez	a0, -0xc
0x800000c4: 2e 00 00 ef jal	0x2e0
0x800003a4: a0 00 07 b7 lui	a5, 0xa0000
0x800003a8: 3e a7 8c 23 sb	a0, 0x3f8(a5)
0x800003ac: 00 00 80 67 ret
0x800000c8: 00 14 45 03 lbu	a0, 1(s0)
0x800000cc: 00 14 04 13 addi	s0, s0, 1
0x800000d0: fe 05 1a e3 bnez	a0, -0xc
0x800000c4: 2e 00 00 ef jal	0x2e0
0x800003a4: a0 00 07 b7 lui	a5, 0xa0000
0x800003a8: 3e a7 8c 23 sb	a0, 0x3f8(a5)
0x800003ac: 00 00 80 67 ret
0x800000c8: 00 14 45 03 lbu	a0, 1(s0)
0x800000cc: 00 14 04 13 addi	s0, s0, 1
0x800000d0: fe 05 1a e3 bnez	a0, -0xc
0x800000c4: 2e 00 00 ef jal	0x2e0
0x800003a4: a0 00 07 b7 lui	a5, 0xa0000
0x800003a8: 3e a7 8c 23 sb	a0, 0x3f8(a5)
0x800003ac: 00 00 80 67 ret
0x800000c8: 00 14 45 03 lbu	a0, 1(s0)
0x800000cc: 00 14 04 13 addi	s0, s0, 1
0x800000d0: fe 05 1a e3 bnez	a0, -0xc
0x800000c4: 2e 00 00 ef jal	0x2e0
0x800003a4: a0 00 07 b7 lui	a5, 0xa0000
0x800003a8: 3e a7 8c 23 sb	a0, 0x3f8(a5)
0x800003ac: 00 00 80 67 ret
0x800000c8: 00 14 45 03 lbu	a0, 1(s0)
0x800000cc: 00 14 04 13 addi	s0, s0, 1
0x800000d0: fe 05 1a e3 bnez	a0, -0xc
0x800000c4: 2e 00 00 ef jal	0x2e0
0x800003a4: a0 00 07 b7 lui	a5, 0xa0000
0x800003a8: 3e a7 8c 23 sb	a0, 0x3f8(a5)
0x800003ac: 00 00 80 67 ret
0x800000c8: 00 14 45 03 lbu	a0, 1(s0)
0x800000cc: 00 14 04 13 addi	s0, s0, 1
0x800000d0: fe 05 1a e3 bnez	a0, -0xc
0x800000c4: 2e 00 00 ef jal	0x2e0
0x800003a4: a0 00 07 b7 lui	a5, 0xa0000
0x800003a8: 3e a7 8c 23 sb	a0, 0x3f8(a5)
0x800003ac: 00 00 80 67 ret
0x800000c8: 00 14 45 03 lbu	a0, 1(s0)
0x800000cc: 00 14 04 13 addi	s0, s0, 1
0x800000d0: fe 05 1a e3 bnez	a0, -0xc
0x800000c4: 2e 00 00 ef jal	0x2e0
0x800003a4: a0 00 07 b7 lui	a5, 0xa0000
0x800003a8: 3e a7 8c 23 sb	a0, 0x3f8(a5)
0x800003ac: 00 00 80 67 ret
0x800000c8: 00 14 45 03 lbu	a0, 1(s0)
0x800000cc: 00 14 04 13 addi	s0, s0, 1
0x800000d0: fe 05 1a e3 bnez	a0, -0xc
0x800000c4: 2e 00 00 ef jal	0x2e0
0x800003a4: a0 00 07 b7 lui	a5, 0xa0000
0x800003a8: 3e a7 8c 23 sb	a0, 0x3f8(a5)
0x800003ac: 00 00 80 67 ret
0x800000c8: 00 14 45 03 lbu	a0, 1(s0)
0x800000cc: 00 14 04 13 addi	s0, s0, 1
0x800000d0: fe 05 1a e3 bnez	a0, -0xc
0x800000c4: 2e 00 00 ef jal	0x2e0
0x800003a4: a0 00 07 b7 lui	a5, 0xa0000
0x800003a8: 3e a7 8c 23 sb	a0, 0x3f8(a5)
0x800003ac: 00 00 80 67 ret
0x800000c8: 00 14 45 03 lbu	a0, 1(s0)
0x800000cc: 00 14 04 13 addi	s0, s0, 1
0x800000d0: fe 05 1a e3 bnez	a0, -0xc
0x800000c4: 2e 00 00 ef jal	0x2e0
0x800003a4: a0 00 07 b7 lui	a5, 0xa0000
0x800003a8: 3e a7 8c 23 sb	a0, 0x3f8(a5)
0x800003ac: 00 00 80 67 ret
0x800000c8: 00 14 45 03 lbu	a0, 1(s0)
0x800000cc: 00 14 04 13 addi	s0, s0, 1
0x800000d0: fe 05 1a e3 bnez	a0, -0xc
0x800000c4: 2e 00 00 ef jal	0x2e0
0x800003a4: a0 00 07 b7 lui	a5, 0xa0000
0x800003a8: 3e a7 8c 23 sb	a0, 0x3f8(a5)
0x800003ac: 00 00 80 67 ret
0x800000c8: 00 14 45 03 lbu	a0, 1(s0)
0x800000cc: 00 14 04 13 addi	s0, s0, 1
0x800000d0: fe 05 1a e3 bnez	a0, -0xc
0x800000c4: 2e 00 00 ef jal	0x2e0
0x800003a4: a0 00 07 b7 lui	a5, 0xa0000
0x800003a8: 3e a7 8c 23 sb	a0, 0x3f8(a5)
0x800003ac: 00 00 80 67 ret
0x800000c8: 00 14 45 03 lbu	a0, 1(s0)
0x800000cc: 00 14 04 13 addi	s0, s0, 1
0x800000d0: fe 05 1a e3 bnez	a0, -0xc
0x800000c4: 2e 00 00 ef jal	0x2e0
0x800003a4: a0 00 07 b7 lui	a5, 0xa0000
0x800003a8: 3e a7 8c 23 sb	a0, 0x3f8(a5)
0x800003ac: 00 00 80 67 ret
0x800000c8: 00 14 45 03 lbu	a0, 1(s0)
0x800000cc: 00 14 04 13 addi	s0, s0, 1
0x800000d0: fe 05 1a e3 bnez	a0, -0xc
0x800000c4: 2e 00 00 ef jal	0x2e0
0x800003a4: a0 00 07 b7 lui	a5, 0xa0000
0x800003a8: 3e a7 8c 23 sb	a0, 0x3f8(a5)
0x800003ac: 00 00 80 67 ret
0x800000c8: 00 14 45 03 lbu	a0, 1(s0)
0x800000cc: 00 14 04 13 addi	s0, s0, 1
0x800000d0: fe 05 1a e3 bnez	a0, -0xc
0x800000c4: 2e 00 00 ef jal	0x2e0
0x800003a4: a0 00 07 b7 lui	a5, 0xa0000
0x800003a8: 3e a7 8c 23 sb	a0, 0x3f8(a5)
0x800003ac: 00 00 80 67 ret
0x800000c8: 00 14 45 03 lbu	a0, 1(s0)
0x800000cc: 00 14 04 13 addi	s0, s0, 1
0x800000d0: fe 05 1a e3 bnez	a0, -0xc
0x800000d4: 01 c1 20 83 lw	ra, 0x1c(sp)
0x800000d8: 01 81 24 03 lw	s0, 0x18(sp)
0x800000dc: 01 01 29 03 lw	s2, 0x10(sp)
0x800000e0: 00 c1 29 83 lw	s3, 0xc(sp)
0x800000e4: 00 04 85 13 mv	a0, s1
0x800000e8: 01 41 24 83 lw	s1, 0x14(sp)
0x800000ec: 02 01 01 13 addi	sp, sp, 0x20
0x800000f0: 00 00 80 67 ret
0x80000434: 00 05 0e 63 beqz	a0, 0x1c
0x80000438: 02 c1 20 83 lw	ra, 0x2c(sp)
0x8000043c: 03 01 01 13 addi	sp, sp, 0x30
0x80000440: 00 00 80 67 ret
0x80000628: 00 05 01 13 mv	sp, a0
0x8000062c: 08 41 23 03 lw	t1, 0x84(sp)
0x80000630: 08 81 23 83 lw	t2, 0x88(sp)
0x80000634: 30 03 10 73 csrw	mstatus, t1
0x80000638: 34 13 90 73 csrw	mepc, t2
0x8000063c: 00 41 20 83 lw	ra, 4(sp)
0x80000640: 00 c1 21 83 lw	gp, 0xc(sp)
0x80000644: 01 01 22 03 lw	tp, 0x10(sp)
0x80000648: 01 41 22 83 lw	t0, 0x14(sp)
0x8000064c: 01 81 23 03 lw	t1, 0x18(sp)
0x80000650: 01 c1 23 83 lw	t2, 0x1c(sp)
0x80000654: 02 01 24 03 lw	s0, 0x20(sp)
0x80000658: 02 41 24 83 lw	s1, 0x24(sp)
0x8000065c: 02 81 25 03 lw	a0, 0x28(sp)
0x80000660: 02 c1 25 83 lw	a1, 0x2c(sp)
0x80000664: 03 01 26 03 lw	a2, 0x30(sp)
0x80000668: 03 41 26 83 lw	a3, 0x34(sp)
0x8000066c: 03 81 27 03 lw	a4, 0x38(sp)
0x80000670: 03 c1 27 83 lw	a5, 0x3c(sp)
0x80000674: 04 01 28 03 lw	a6, 0x40(sp)
0x80000678: 04 41 28 83 lw	a7, 0x44(sp)
0x8000067c: 04 81 29 03 lw	s2, 0x48(sp)
0x80000680: 04 c1 29 83 lw	s3, 0x4c(sp)
0x80000684: 05 01 2a 03 lw	s4, 0x50(sp)
0x80000688: 05 41 2a 83 lw	s5, 0x54(sp)
0x8000068c: 05 81 2b 03 lw	s6, 0x58(sp)
0x80000690: 05 c1 2b 83 lw	s7, 0x5c(sp)
0x80000694: 06 01 2c 03 lw	s8, 0x60(sp)
0x80000698: 06 41 2c 83 lw	s9, 0x64(sp)
0x8000069c: 06 81 2d 03 lw	s10, 0x68(sp)
0x800006a0: 06 c1 2d 83 lw	s11, 0x6c(sp)
0x800006a4: 07 01 2e 03 lw	t3, 0x70(sp)
0x800006a8: 07 41 2e 83 lw	t4, 0x74(sp)
0x800006ac: 07 81 2f 03 lw	t5, 0x78(sp)
0x800006b0: 07 c1 2f 83 lw	t6, 0x7c(sp)
0x800006b4: 08 c1 01 13 addi	sp, sp, 0x8c
0x800006b8: 30 20 00 73 mret
0x8000050c: 00 00 00 73 ecall
0x80000580: f7 41 01 13 addi	sp, sp, -0x8c
0x80000584: 00 11 22 23 sw	ra, 4(sp)
0x80000588: 00 31 26 23 sw	gp, 0xc(sp)
0x8000058c: 00 41 28 23 sw	tp, 0x10(sp)
0x80000590: 00 51 2a 23 sw	t0, 0x14(sp)
0x80000594: 00 61 2c 23 sw	t1, 0x18(sp)
0x80000598: 00 71 2e 23 sw	t2, 0x1c(sp)
0x8000059c: 02 81 20 23 sw	s0, 0x20(sp)
0x800005a0: 02 91 22 23 sw	s1, 0x24(sp)
0x800005a4: 02 a1 24 23 sw	a0, 0x28(sp)
0x800005a8: 02 b1 26 23 sw	a1, 0x2c(sp)
0x800005ac: 02 c1 28 23 sw	a2, 0x30(sp)
0x800005b0: 02 d1 2a 23 sw	a3, 0x34(sp)
0x800005b4: 02 e1 2c 23 sw	a4, 0x38(sp)
0x800005b8: 02 f1 2e 23 sw	a5, 0x3c(sp)
0x800005bc: 05 01 20 23 sw	a6, 0x40(sp)
0x800005c0: 05 11 22 23 sw	a7, 0x44(sp)
0x800005c4: 05 21 24 23 sw	s2, 0x48(sp)
0x800005c8: 05 31 26 23 sw	s3, 0x4c(sp)
0x800005cc: 05 41 28 23 sw	s4, 0x50(sp)
0x800005d0: 05 51 2a 23 sw	s5, 0x54(sp)
0x800005d4: 05 61 2c 23 sw	s6, 0x58(sp)
0x800005d8: 05 71 2e 23 sw	s7, 0x5c(sp)
0x800005dc: 07 81 20 23 sw	s8, 0x60(sp)
0x800005e0: 07 91 22 23 sw	s9, 0x64(sp)
0x800005e4: 07 a1 24 23 sw	s10, 0x68(sp)
0x800005e8: 07 b1 26 23 sw	s11, 0x6c(sp)
0x800005ec: 07 c1 28 23 sw	t3, 0x70(sp)
0x800005f0: 07 d1 2a 23 sw	t4, 0x74(sp)
0x800005f4: 07 e1 2c 23 sw	t5, 0x78(sp)
0x800005f8: 07 f1 2e 23 sw	t6, 0x7c(sp)
0x800005fc: 34 20 22 f3 csrr	t0, mcause
0x80000600: 30 00 23 73 csrr	t1, mstatus
0x80000604: 34 10 23 f3 csrr	t2, mepc
0x80000608: 08 51 20 23 sw	t0, 0x80(sp)
0x8000060c: 08 61 22 23 sw	t1, 0x84(sp)
0x80000610: 08 71 24 23 sw	t2, 0x88(sp)
0x80000614: 00 02 05 37 lui	a0, 0x20
0x80000618: 00 a3 63 33 or	t1, t1, a0
0x8000061c: 30 03 10 73 csrw	mstatus, t1
0x80000620: 00 01 05 13 mv	a0, sp
0x80000624: db 9f f0 ef jal	-0x248
0x800003dc: 00 00 37 97 auipc	a5, 3
0x800003e0: a0 c7 a7 83 lw	a5, -0x5f4(a5)
0x800003e4: 00 05 05 93 mv	a1, a0
0x800003e8: 06 07 82 63 beqz	a5, 0x64
0x800003ec: 08 05 26 03 lw	a2, 0x80(a0)
0x800003f0: fd 01 01 13 addi	sp, sp, -0x30
0x800003f4: 02 11 26 23 sw	ra, 0x2c(sp)
0x800003f8: 00 01 2a 23 sw	zero, 0x14(sp)
0x800003fc: 00 01 2c 23 sw	zero, 0x18(sp)
0x80000400: 00 01 2e 23 sw	zero, 0x1c(sp)
0x80000404: 00 b0 06 93 addi	a3, zero, 0xb
0x80000408: 00 40 07 13 addi	a4, zero, 4
0x8000040c: 02 d6 0c 63 beq	a2, a3, 0x38
0x80000444: 00 10 07 13 addi	a4, zero, 1
0x80000448: fc 9f f0 6f j	-0x38
0x80000410: 00 e1 20 23 sw	a4, 0(sp)
0x80000414: 01 41 27 03 lw	a4, 0x14(sp)
0x80000418: 00 01 05 13 mv	a0, sp
0x8000041c: 00 e1 22 23 sw	a4, 4(sp)
0x80000420: 01 81 27 03 lw	a4, 0x18(sp)
0x80000424: 00 e1 24 23 sw	a4, 8(sp)
0x80000428: 01 c1 27 03 lw	a4, 0x1c(sp)
0x8000042c: 00 e1 26 23 sw	a4, 0xc(sp)
0x80000430: 00 07 80 e7 jalr	a5
0x80000010: fe 01 01 13 addi	sp, sp, -0x20
0x80000014: 01 21 28 23 sw	s2, 0x10(sp)
0x80000018: 00 00 39 17 auipc	s2, 3
0x8000001c: dc 89 09 13 addi	s2, s2, -0x238
0x80000020: 00 09 27 83 lw	a5, 0(s2)
0x80000024: 00 81 2c 23 sw	s0, 0x18(sp)
0x80000028: 00 91 2a 23 sw	s1, 0x14(sp)
0x8000002c: 01 31 26 23 sw	s3, 0xc(sp)
0x80000030: 00 11 2e 23 sw	ra, 0x1c(sp)
0x80000034: 00 17 87 93 addi	a5, a5, 1
0x80000038: 00 05 09 93 mv	s3, a0
0x8000003c: 00 05 84 93 mv	s1, a1
0x80000040: 00 f9 20 23 sw	a5, 0(s2)
0x80000044: 00 00 14 17 auipc	s0, 1
0x80000048: 77 44 04 13 addi	s0, s0, 0x774
0x8000004c: 05 30 05 13 addi	a0, zero, 0x53
0x80000050: 35 40 00 ef jal	0x354
0x800003a4: a0 00 07 b7 lui	a5, 0xa0000
0x800003a8: 3e a7 8c 23 sb	a0, 0x3f8(a5)
0x800003ac: 00 00 80 67 ret
0x80000054: 00 14 45 03 lbu	a0, 1(s0)
0x80000058: 00 14 04 13 addi	s0, s0, 1
0x8000005c: fe 05 1a e3 bnez	a0, -0xc
0x80000050: 35 40 00 ef jal	0x354
0x800003a4: a0 00 07 b7 lui	a5, 0xa0000
0x800003a8: 3e a7 8c 23 sb	a0, 0x3f8(a5)
0x800003ac: 00 00 80 67 ret
0x80000054: 00 14 45 03 lbu	a0, 1(s0)
0x80000058: 00 14 04 13 addi	s0, s0, 1
0x8000005c: fe 05 1a e3 bnez	a0, -0xc
0x80000050: 35 40 00 ef jal	0x354
0x800003a4: a0 00 07 b7 lui	a5, 0xa0000
0x800003a8: 3e a7 8c 23 sb	a0, 0x3f8(a5)
0x800003ac: 00 00 80 67 ret
0x80000054: 00 14 45 03 lbu	a0, 1(s0)
0x80000058: 00 14 04 13 addi	s0, s0, 1
0x8000005c: fe 05 1a e3 bnez	a0, -0xc
0x80000050: 35 40 00 ef jal	0x354
0x800003a4: a0 00 07 b7 lui	a5, 0xa0000
0x800003a8: 3e a7 8c 23 sb	a0, 0x3f8(a5)
0x800003ac: 00 00 80 67 ret
0x80000054: 00 14 45 03 lbu	a0, 1(s0)
0x80000058: 00 14 04 13 addi	s0, s0, 1
0x8000005c: fe 05 1a e3 bnez	a0, -0xc
0x80000050: 35 40 00 ef jal	0x354
0x800003a4: a0 00 07 b7 lui	a5, 0xa0000
0x800003a8: 3e a7 8c 23 sb	a0, 0x3f8(a5)
0x800003ac: 00 00 80 67 ret
0x80000054: 00 14 45 03 lbu	a0, 1(s0)
0x80000058: 00 14 04 13 addi	s0, s0, 1
0x8000005c: fe 05 1a e3 bnez	a0, -0xc
0x80000050: 35 40 00 ef jal	0x354
0x800003a4: a0 00 07 b7 lui	a5, 0xa0000
0x800003a8: 3e a7 8c 23 sb	a0, 0x3f8(a5)
0x800003ac: 00 00 80 67 ret
0x80000054: 00 14 45 03 lbu	a0, 1(s0)
0x80000058: 00 14 04 13 addi	s0, s0, 1
0x8000005c: fe 05 1a e3 bnez	a0, -0xc
0x80000050: 35 40 00 ef jal	0x354
0x800003a4: a0 00 07 b7 lui	a5, 0xa0000
0x800003a8: 3e a7 8c 23 sb	a0, 0x3f8(a5)
0x800003ac: 00 00 80 67 ret
0x80000054: 00 14 45 03 lbu	a0, 1(s0)
0x80000058: 00 14 04 13 addi	s0, s0, 1
0x8000005c: fe 05 1a e3 bnez	a0, -0xc
0x80000050: 35 40 00 ef jal	0x354
0x800003a4: a0 00 07 b7 lui	a5, 0xa0000
0x800003a8: 3e a7 8c 23 sb	a0, 0x3f8(a5)
0x800003ac: 00 00 80 67 ret
0x80000054: 00 14 45 03 lbu	a0, 1(s0)
0x80000058: 00 14 04 13 addi	s0, s0, 1
0x8000005c: fe 05 1a e3 bnez	a0, -0xc
0x80000050: 35 40 00 ef jal	0x354
0x800003a4: a0 00 07 b7 lui	a5, 0xa0000
0x800003a8: 3e a7 8c 23 sb	a0, 0x3f8(a5)
0x800003ac: 00 00 80 67 ret
0x80000054: 00 14 45 03 lbu	a0, 1(s0)
0x80000058: 00 14 04 13 addi	s0, s0, 1
0x8000005c: fe 05 1a e3 bnez	a0, -0xc
0x80000050: 35 40 00 ef jal	0x354
0x800003a4: a0 00 07 b7 lui	a5, 0xa0000
0x800003a8: 3e a7 8c 23 sb	a0, 0x3f8(a5)
0x800003ac: 00 00 80 67 ret
0x80000054: 00 14 45 03 lbu	a0, 1(s0)
0x80000058: 00 14 04 13 addi	s0, s0, 1
0x8000005c: fe 05 1a e3 bnez	a0, -0xc
0x80000050: 35 40 00 ef jal	0x354
0x800003a4: a0 00 07 b7 lui	a5, 0xa0000
0x800003a8: 3e a7 8c 23 sb	a0, 0x3f8(a5)
0x800003ac: 00 00 80 67 ret
0x80000054: 00 14 45 03 lbu	a0, 1(s0)
0x80000058: 00 14 04 13 addi	s0, s0, 1
0x8000005c: fe 05 1a e3 bnez	a0, -0xc
0x80000050: 35 40 00 ef jal	0x354
0x800003a4: a0 00 07 b7 lui	a5, 0xa0000
0x800003a8: 3e a7 8c 23 sb	a0, 0x3f8(a5)
0x800003ac: 00 00 80 67 ret
0x80000054: 00 14 45 03 lbu	a0, 1(s0)
0x80000058: 00 14 04 13 addi	s0, s0, 1
0x8000005c: fe 05 1a e3 bnez	a0, -0xc
0x80000050: 35 40 00 ef jal	0x354
0x800003a4: a0 00 07 b7 lui	a5, 0xa0000
0x800003a8: 3e a7 8c 23 sb	a0, 0x3f8(a5)
0x800003ac: 00 00 80 67 ret
0x80000054: 00 14 45 03 lbu	a0, 1(s0)
0x80000058: 00 14 04 13 addi	s0, s0, 1
0x8000005c: fe 05 1a e3 bnez	a0, -0xc
0x80000050: 35 40 00 ef jal	0x354
0x800003a4: a0 00 07 b7 lui	a5, 0xa0000
0x800003a8: 3e a7 8c 23 sb	a0, 0x3f8(a5)
0x800003ac: 00 00 80 67 ret
0x80000054: 00 14 45 03 lbu	a0, 1(s0)
0x80000058: 00 14 04 13 addi	s0, s0, 1
0x8000005c: fe 05 1a e3 bnez	a0, -0xc
0x80000050: 35 40 00 ef jal	0x354
0x800003a4: a0 00 07 b7 lui	a5, 0xa0000
0x800003a8: 3e a7 8c 23 sb	a0, 0x3f8(a5)
0x800003ac: 00 00 80 67 ret
0x80000054: 00 14 45 03 lbu	a0, 1(s0)
0x80000058: 00 14 04 13 addi	s0, s0, 1
0x8000005c: fe 05 1a e3 bnez	a0, -0xc
0x80000050: 35 40 00 ef jal	0x354
0x800003a4: a0 00 07 b7 lui	a5, 0xa0000
0x800003a8: 3e a7 8c 23 sb	a0, 0x3f8(a5)
0x800003ac: 00 00 80 67 ret
0x80000054: 00 14 45 03 lbu	a0, 1(s0)
0x80000058: 00 14 04 13 addi	s0, s0, 1
0x8000005c: fe 05 1a e3 bnez	a0, -0xc
0x80000050: 35 40 00 ef jal	0x354
0x800003a4: a0 00 07 b7 lui	a5, 0xa0000
0x800003a8: 3e a7 8c 23 sb	a0, 0x3f8(a5)
0x800003ac: 00 00 80 67 ret
0x80000054: 00 14 45 03 lbu	a0, 1(s0)
0x80000058: 00 14 04 13 addi	s0, s0, 1
0x8000005c: fe 05 1a e3 bnez	a0, -0xc
0x80000060: 00 09 25 03 lw	a0, 0(s2)
0x80000064: 00 00 14 17 auipc	s0, 1
0x80000068: 76 84 04 13 addi	s0, s0, 0x768
0x8000006c: 03 05 05 13 addi	a0, a0, 0x30
0x80000070: 0f f5 75 13 andi	a0, a0, 0xff
0x80000074: 33 00 00 ef jal	0x330
0x800003a4: a0 00 07 b7 lui	a5, 0xa0000
0x800003a8: 3e a7 8c 23 sb	a0, 0x3f8(a5)
0x800003ac: 00 00 80 67 ret
0x80000078: 02 c0 05 13 addi	a0, zero, 0x2c
0x8000007c: 32 80 00 ef jal	0x328
0x800003a4: a0 00 07 b7 lui	a5, 0xa0000
0x800003a8: 3e a7 8c 23 sb	a0, 0x3f8(a5)
0x800003ac: 00 00 80 67 ret
0x80000080: 00 14 45 03 lbu	a0, 1(s0)
0x80000084: 00 14 04 13 addi	s0, s0, 1
0x80000088: fe 05 1a e3 bnez	a0, -0xc
0x8000007c: 32 80 00 ef jal	0x328
0x800003a4: a0 00 07 b7 lui	a5, 0xa0000
0x800003a8: 3e a7 8c 23 sb	a0, 0x3f8(a5)
0x800003ac: 00 00 80 67 ret
0x80000080: 00 14 45 03 lbu	a0, 1(s0)
0x80000084: 00 14 04 13 addi	s0, s0, 1
0x80000088: fe 05 1a e3 bnez	a0, -0xc
0x8000007c: 32 80 00 ef jal	0x328
0x800003a4: a0 00 07 b7 lui	a5, 0xa0000
0x800003a8: 3e a7 8c 23 sb	a0, 0x3f8(a5)
0x800003ac: 00 00 80 67 ret
0x80000080: 00 14 45 03 lbu	a0, 1(s0)
0x80000084: 00 14 04 13 addi	s0, s0, 1
0x80000088: fe 05 1a e3 bnez	a0, -0xc
0x8000007c: 32 80 00 ef jal	0x328
0x800003a4: a0 00 07 b7 lui	a5, 0xa0000
0x800003a8: 3e a7 8c 23 sb	a0, 0x3f8(a5)
0x800003ac: 00 00 80 67 ret
0x80000080: 00 14 45 03 lbu	a0, 1(s0)
0x80000084: 00 14 04 13 addi	s0, s0, 1
0x80000088: fe 05 1a e3 bnez	a0, -0xc
0x8000007c: 32 80 00 ef jal	0x328
0x800003a4: a0 00 07 b7 lui	a5, 0xa0000
0x800003a8: 3e a7 8c 23 sb	a0, 0x3f8(a5)
0x800003ac: 00 00 80 67 ret
0x80000080: 00 14 45 03 lbu	a0, 1(s0)
0x80000084: 00 14 04 13 addi	s0, s0, 1
0x80000088: fe 05 1a e3 bnez	a0, -0xc
0x8000007c: 32 80 00 ef jal	0x328
0x800003a4: a0 00 07 b7 lui	a5, 0xa0000
0x800003a8: 3e a7 8c 23 sb	a0, 0x3f8(a5)
0x800003ac: 00 00 80 67 ret
0x80000080: 00 14 45 03 lbu	a0, 1(s0)
0x80000084: 00 14 04 13 addi	s0, s0, 1
0x80000088: fe 05 1a e3 bnez	a0, -0xc
0x8000007c: 32 80 00 ef jal	0x328
0x800003a4: a0 00 07 b7 lui	a5, 0xa0000
0x800003a8: 3e a7 8c 23 sb	a0, 0x3f8(a5)
0x800003ac: 00 00 80 67 ret
0x80000080: 00 14 45 03 lbu	a0, 1(s0)
0x80000084: 00 14 04 13 addi	s0, s0, 1
0x80000088: fe 05 1a e3 bnez	a0, -0xc
0x8000007c: 32 80 00 ef jal	0x328
0x800003a4: a0 00 07 b7 lui	a5, 0xa0000
0x800003a8: 3e a7 8c 23 sb	a0, 0x3f8(a5)
0x800003ac: 00 00 80 67 ret
0x80000080: 00 14 45 03 lbu	a0, 1(s0)
0x80000084: 00 14 04 13 addi	s0, s0, 1
0x80000088: fe 05 1a e3 bnez	a0, -0xc
0x8000007c: 32 80 00 ef jal	0x328
0x800003a4: a0 00 07 b7 lui	a5, 0xa0000
0x800003a8: 3e a7 8c 23 sb	a0, 0x3f8(a5)
0x800003ac: 00 00 80 67 ret
0x80000080: 00 14 45 03 lbu	a0, 1(s0)
0x80000084: 00 14 04 13 addi	s0, s0, 1
0x80000088: fe 05 1a e3 bnez	a0, -0xc
0x8000008c: 00 09 a5 03 lw	a0, 0(s3)
0x80000090: 03 05 05 13 addi	a0, a0, 0x30
0x80000094: 0f f5 75 13 andi	a0, a0, 0xff
0x80000098: 30 c0 00 ef jal	0x30c
0x800003a4: a0 00 07 b7 lui	a5, 0xa0000
0x800003a8: 3e a7 8c 23 sb	a0, 0x3f8(a5)
0x800003ac: 00 00 80 67 ret
0x8000009c: 00 a0 05 13 addi	a0, zero, 0xa
0x800000a0: 30 40 00 ef jal	0x304
0x800003a4: a0 00 07 b7 lui	a5, 0xa0000
0x800003a8: 3e a7 8c 23 sb	a0, 0x3f8(a5)
0x800003ac: 00 00 80 67 ret
0x800000a4: 00 09 27 83 lw	a5, 0(s2)
0x800000a8: 00 10 07 13 addi	a4, zero, 1
0x800000ac: 06 e7 84 63 beq	a5, a4, 0x68
0x800000b0: 00 40 07 13 addi	a4, zero, 4
0x800000b4: 04 f7 40 63 blt	a4, a5, 0x40
0x800000b8: 00 00 14 17 auipc	s0, 1
0x800000bc: 73 44 04 13 addi	s0, s0, 0x734
0x800000c0: 05 40 05 13 addi	a0, zero, 0x54
0x800000c4: 2e 00 00 ef jal	0x2e0
0x800003a4: a0 00 07 b7 lui	a5, 0xa0000
0x800003a8: 3e a7 8c 23 sb	a0, 0x3f8(a5)
0x800003ac: 00 00 80 67 ret
0x800000c8: 00 14 45 03 lbu	a0, 1(s0)
0x800000cc: 00 14 04 13 addi	s0, s0, 1
0x800000d0: fe 05 1a e3 bnez	a0, -0xc
0x800000c4: 2e 00 00 ef jal	0x2e0
0x800003a4: a0 00 07 b7 lui	a5, 0xa0000
0x800003a8: 3e a7 8c 23 sb	a0, 0x3f8(a5)
0x800003ac: 00 00 80 67 ret
0x800000c8: 00 14 45 03 lbu	a0, 1(s0)
0x800000cc: 00 14 04 13 addi	s0, s0, 1
0x800000d0: fe 05 1a e3 bnez	a0, -0xc
0x800000c4: 2e 00 00 ef jal	0x2e0
0x800003a4: a0 00 07 b7 lui	a5, 0xa0000
0x800003a8: 3e a7 8c 23 sb	a0, 0x3f8(a5)
0x800003ac: 00 00 80 67 ret
0x800000c8: 00 14 45 03 lbu	a0, 1(s0)
0x800000cc: 00 14 04 13 addi	s0, s0, 1
0x800000d0: fe 05 1a e3 bnez	a0, -0xc
0x800000c4: 2e 00 00 ef jal	0x2e0
0x800003a4: a0 00 07 b7 lui	a5, 0xa0000
0x800003a8: 3e a7 8c 23 sb	a0, 0x3f8(a5)
0x800003ac: 00 00 80 67 ret
0x800000c8: 00 14 45 03 lbu	a0, 1(s0)
0x800000cc: 00 14 04 13 addi	s0, s0, 1
0x800000d0: fe 05 1a e3 bnez	a0, -0xc
0x800000c4: 2e 00 00 ef jal	0x2e0
0x800003a4: a0 00 07 b7 lui	a5, 0xa0000
0x800003a8: 3e a7 8c 23 sb	a0, 0x3f8(a5)
0x800003ac: 00 00 80 67 ret
0x800000c8: 00 14 45 03 lbu	a0, 1(s0)
0x800000cc: 00 14 04 13 addi	s0, s0, 1
0x800000d0: fe 05 1a e3 bnez	a0, -0xc
0x800000c4: 2e 00 00 ef jal	0x2e0
0x800003a4: a0 00 07 b7 lui	a5, 0xa0000
0x800003a8: 3e a7 8c 23 sb	a0, 0x3f8(a5)
0x800003ac: 00 00 80 67 ret
0x800000c8: 00 14 45 03 lbu	a0, 1(s0)
0x800000cc: 00 14 04 13 addi	s0, s0, 1
0x800000d0: fe 05 1a e3 bnez	a0, -0xc
0x800000c4: 2e 00 00 ef jal	0x2e0
0x800003a4: a0 00 07 b7 lui	a5, 0xa0000
0x800003a8: 3e a7 8c 23 sb	a0, 0x3f8(a5)
0x800003ac: 00 00 80 67 ret
0x800000c8: 00 14 45 03 lbu	a0, 1(s0)
0x800000cc: 00 14 04 13 addi	s0, s0, 1
0x800000d0: fe 05 1a e3 bnez	a0, -0xc
0x800000c4: 2e 00 00 ef jal	0x2e0
0x800003a4: a0 00 07 b7 lui	a5, 0xa0000
0x800003a8: 3e a7 8c 23 sb	a0, 0x3f8(a5)
0x800003ac: 00 00 80 67 ret
0x800000c8: 00 14 45 03 lbu	a0, 1(s0)
0x800000cc: 00 14 04 13 addi	s0, s0, 1
0x800000d0: fe 05 1a e3 bnez	a0, -0xc
0x800000c4: 2e 00 00 ef jal	0x2e0
0x800003a4: a0 00 07 b7 lui	a5, 0xa0000
0x800003a8: 3e a7 8c 23 sb	a0, 0x3f8(a5)
0x800003ac: 00 00 80 67 ret
0x800000c8: 00 14 45 03 lbu	a0, 1(s0)
0x800000cc: 00 14 04 13 addi	s0, s0, 1
0x800000d0: fe 05 1a e3 bnez	a0, -0xc
0x800000c4: 2e 00 00 ef jal	0x2e0
0x800003a4: a0 00 07 b7 lui	a5, 0xa0000
0x800003a8: 3e a7 8c 23 sb	a0, 0x3f8(a5)
0x800003ac: 00 00 80 67 ret
0x800000c8: 00 14 45 03 lbu	a0, 1(s0)
0x800000cc: 00 14 04 13 addi	s0, s0, 1
0x800000d0: fe 05 1a e3 bnez	a0, -0xc
0x800000c4: 2e 00 00 ef jal	0x2e0
0x800003a4: a0 00 07 b7 lui	a5, 0xa0000
0x800003a8: 3e a7 8c 23 sb	a0, 0x3f8(a5)
0x800003ac: 00 00 80 67 ret
0x800000c8: 00 14 45 03 lbu	a0, 1(s0)
0x800000cc: 00 14 04 13 addi	s0, s0, 1
0x800000d0: fe 05 1a e3 bnez	a0, -0xc
0x800000c4: 2e 00 00 ef jal	0x2e0
0x800003a4: a0 00 07 b7 lui	a5, 0xa0000
0x800003a8: 3e a7 8c 23 sb	a0, 0x3f8(a5)
0x800003ac: 00 00 80 67 ret
0x800000c8: 00 14 45 03 lbu	a0, 1(s0)
0x800000cc: 00 14 04 13 addi	s0, s0, 1
0x800000d0: fe 05 1a e3 bnez	a0, -0xc
0x800000c4: 2e 00 00 ef jal	0x2e0
0x800003a4: a0 00 07 b7 lui	a5, 0xa0000
0x800003a8: 3e a7 8c 23 sb	a0, 0x3f8(a5)
0x800003ac: 00 00 80 67 ret
0x800000c8: 00 14 45 03 lbu	a0, 1(s0)
0x800000cc: 00 14 04 13 addi	s0, s0, 1
0x800000d0: fe 05 1a e3 bnez	a0, -0xc
0x800000c4: 2e 00 00 ef jal	0x2e0
0x800003a4: a0 00 07 b7 lui	a5, 0xa0000
0x800003a8: 3e a7 8c 23 sb	a0, 0x3f8(a5)
0x800003ac: 00 00 80 67 ret
0x800000c8: 00 14 45 03 lbu	a0, 1(s0)
0x800000cc: 00 14 04 13 addi	s0, s0, 1
0x800000d0: fe 05 1a e3 bnez	a0, -0xc
0x800000c4: 2e 00 00 ef jal	0x2e0
0x800003a4: a0 00 07 b7 lui	a5, 0xa0000
0x800003a8: 3e a7 8c 23 sb	a0, 0x3f8(a5)
0x800003ac: 00 00 80 67 ret
0x800000c8: 00 14 45 03 lbu	a0, 1(s0)
0x800000cc: 00 14 04 13 addi	s0, s0, 1
0x800000d0: fe 05 1a e3 bnez	a0, -0xc
0x800000c4: 2e 00 00 ef jal	0x2e0
0x800003a4: a0 00 07 b7 lui	a5, 0xa0000
0x800003a8: 3e a7 8c 23 sb	a0, 0x3f8(a5)
0x800003ac: 00 00 80 67 ret
0x800000c8: 00 14 45 03 lbu	a0, 1(s0)
0x800000cc: 00 14 04 13 addi	s0, s0, 1
0x800000d0: fe 05 1a e3 bnez	a0, -0xc
0x800000c4: 2e 00 00 ef jal	0x2e0
0x800003a4: a0 00 07 b7 lui	a5, 0xa0000
0x800003a8: 3e a7 8c 23 sb	a0, 0x3f8(a5)
0x800003ac: 00 00 80 67 ret
0x800000c8: 00 14 45 03 lbu	a0, 1(s0)
0x800000cc: 00 14 04 13 addi	s0, s0, 1
0x800000d0: fe 05 1a e3 bnez	a0, -0xc
0x800000c4: 2e 00 00 ef jal	0x2e0
0x800003a4: a0 00 07 b7 lui	a5, 0xa0000
0x800003a8: 3e a7 8c 23 sb	a0, 0x3f8(a5)
0x800003ac: 00 00 80 67 ret
0x800000c8: 00 14 45 03 lbu	a0, 1(s0)
0x800000cc: 00 14 04 13 addi	s0, s0, 1
0x800000d0: fe 05 1a e3 bnez	a0, -0xc
0x800000c4: 2e 00 00 ef jal	0x2e0
0x800003a4: a0 00 07 b7 lui	a5, 0xa0000
0x800003a8: 3e a7 8c 23 sb	a0, 0x3f8(a5)
0x800003ac: 00 00 80 67 ret
0x800000c8: 00 14 45 03 lbu	a0, 1(s0)
0x800000cc: 00 14 04 13 addi	s0, s0, 1
0x800000d0: fe 05 1a e3 bnez	a0, -0xc
0x800000c4: 2e 00 00 ef jal	0x2e0
0x800003a4: a0 00 07 b7 lui	a5, 0xa0000
0x800003a8: 3e a7 8c 23 sb	a0, 0x3f8(a5)
0x800003ac: 00 00 80 67 ret
0x800000c8: 00 14 45 03 lbu	a0, 1(s0)
0x800000cc: 00 14 04 13 addi	s0, s0, 1
0x800000d0: fe 05 1a e3 bnez	a0, -0xc
0x800000c4: 2e 00 00 ef jal	0x2e0
0x800003a4: a0 00 07 b7 lui	a5, 0xa0000
0x800003a8: 3e a7 8c 23 sb	a0, 0x3f8(a5)
0x800003ac: 00 00 80 67 ret
0x800000c8: 00 14 45 03 lbu	a0, 1(s0)
0x800000cc: 00 14 04 13 addi	s0, s0, 1
0x800000d0: fe 05 1a e3 bnez	a0, -0xc
0x800000c4: 2e 00 00 ef jal	0x2e0
0x800003a4: a0 00 07 b7 lui	a5, 0xa0000
0x800003a8: 3e a7 8c 23 sb	a0, 0x3f8(a5)
0x800003ac: 00 00 80 67 ret
0x800000c8: 00 14 45 03 lbu	a0, 1(s0)
0x800000cc: 00 14 04 13 addi	s0, s0, 1
0x800000d0: fe 05 1a e3 bnez	a0, -0xc
0x800000c4: 2e 00 00 ef jal	0x2e0
0x800003a4: a0 00 07 b7 lui	a5, 0xa0000
0x800003a8: 3e a7 8c 23 sb	a0, 0x3f8(a5)
0x800003ac: 00 00 80 67 ret
0x800000c8: 00 14 45 03 lbu	a0, 1(s0)
0x800000cc: 00 14 04 13 addi	s0, s0, 1
0x800000d0: fe 05 1a e3 bnez	a0, -0xc
0x800000c4: 2e 00 00 ef jal	0x2e0
0x800003a4: a0 00 07 b7 lui	a5, 0xa0000
0x800003a8: 3e a7 8c 23 sb	a0, 0x3f8(a5)
0x800003ac: 00 00 80 67 ret
0x800000c8: 00 14 45 03 lbu	a0, 1(s0)
0x800000cc: 00 14 04 13 addi	s0, s0, 1
0x800000d0: fe 05 1a e3 bnez	a0, -0xc
0x800000c4: 2e 00 00 ef jal	0x2e0
0x800003a4: a0 00 07 b7 lui	a5, 0xa0000
0x800003a8: 3e a7 8c 23 sb	a0, 0x3f8(a5)
0x800003ac: 00 00 80 67 ret
0x800000c8: 00 14 45 03 lbu	a0, 1(s0)
0x800000cc: 00 14 04 13 addi	s0, s0, 1
0x800000d0: fe 05 1a e3 bnez	a0, -0xc
0x800000c4: 2e 00 00 ef jal	0x2e0
0x800003a4: a0 00 07 b7 lui	a5, 0xa0000
0x800003a8: 3e a7 8c 23 sb	a0, 0x3f8(a5)
0x800003ac: 00 00 80 67 ret
0x800000c8: 00 14 45 03 lbu	a0, 1(s0)
0x800000cc: 00 14 04 13 addi	s0, s0, 1
0x800000d0: fe 05 1a e3 bnez	a0, -0xc
0x800000c4: 2e 00 00 ef jal	0x2e0
0x800003a4: a0 00 07 b7 lui	a5, 0xa0000
0x800003a8: 3e a7 8c 23 sb	a0, 0x3f8(a5)
0x800003ac: 00 00 80 67 ret
0x800000c8: 00 14 45 03 lbu	a0, 1(s0)
0x800000cc: 00 14 04 13 addi	s0, s0, 1
0x800000d0: fe 05 1a e3 bnez	a0, -0xc
0x800000c4: 2e 00 00 ef jal	0x2e0
0x800003a4: a0 00 07 b7 lui	a5, 0xa0000
0x800003a8: 3e a7 8c 23 sb	a0, 0x3f8(a5)
0x800003ac: 00 00 80 67 ret
0x800000c8: 00 14 45 03 lbu	a0, 1(s0)
0x800000cc: 00 14 04 13 addi	s0, s0, 1
0x800000d0: fe 05 1a e3 bnez	a0, -0xc
0x800000c4: 2e 00 00 ef jal	0x2e0
0x800003a4: a0 00 07 b7 lui	a5, 0xa0000
0x800003a8: 3e a7 8c 23 sb	a0, 0x3f8(a5)
0x800003ac: 00 00 80 67 ret
0x800000c8: 00 14 45 03 lbu	a0, 1(s0)
0x800000cc: 00 14 04 13 addi	s0, s0, 1
0x800000d0: fe 05 1a e3 bnez	a0, -0xc
0x800000c4: 2e 00 00 ef jal	0x2e0
0x800003a4: a0 00 07 b7 lui	a5, 0xa0000
0x800003a8: 3e a7 8c 23 sb	a0, 0x3f8(a5)
0x800003ac: 00 00 80 67 ret
0x800000c8: 00 14 45 03 lbu	a0, 1(s0)
0x800000cc: 00 14 04 13 addi	s0, s0, 1
0x800000d0: fe 05 1a e3 bnez	a0, -0xc
0x800000c4: 2e 00 00 ef jal	0x2e0
0x800003a4: a0 00 07 b7 lui	a5, 0xa0000
0x800003a8: 3e a7 8c 23 sb	a0, 0x3f8(a5)
0x800003ac: 00 00 80 67 ret
0x800000c8: 00 14 45 03 lbu	a0, 1(s0)
0x800000cc: 00 14 04 13 addi	s0, s0, 1
0x800000d0: fe 05 1a e3 bnez	a0, -0xc
0x800000c4: 2e 00 00 ef jal	0x2e0
0x800003a4: a0 00 07 b7 lui	a5, 0xa0000
0x800003a8: 3e a7 8c 23 sb	a0, 0x3f8(a5)
0x800003ac: 00 00 80 67 ret
0x800000c8: 00 14 45 03 lbu	a0, 1(s0)
0x800000cc: 00 14 04 13 addi	s0, s0, 1
0x800000d0: fe 05 1a e3 bnez	a0, -0xc
0x800000c4: 2e 00 00 ef jal	0x2e0
0x800003a4: a0 00 07 b7 lui	a5, 0xa0000
0x800003a8: 3e a7 8c 23 sb	a0, 0x3f8(a5)
0x800003ac: 00 00 80 67 ret
0x800000c8: 00 14 45 03 lbu	a0, 1(s0)
0x800000cc: 00 14 04 13 addi	s0, s0, 1
0x800000d0: fe 05 1a e3 bnez	a0, -0xc
0x800000c4: 2e 00 00 ef jal	0x2e0
0x800003a4: a0 00 07 b7 lui	a5, 0xa0000
0x800003a8: 3e a7 8c 23 sb	a0, 0x3f8(a5)
0x800003ac: 00 00 80 67 ret
0x800000c8: 00 14 45 03 lbu	a0, 1(s0)
0x800000cc: 00 14 04 13 addi	s0, s0, 1
0x800000d0: fe 05 1a e3 bnez	a0, -0xc
0x800000d4: 01 c1 20 83 lw	ra, 0x1c(sp)
0x800000d8: 01 81 24 03 lw	s0, 0x18(sp)
0x800000dc: 01 01 29 03 lw	s2, 0x10(sp)
0x800000e0: 00 c1 29 83 lw	s3, 0xc(sp)
0x800000e4: 00 04 85 13 mv	a0, s1
0x800000e8: 01 41 24 83 lw	s1, 0x14(sp)
0x800000ec: 02 01 01 13 addi	sp, sp, 0x20
0x800000f0: 00 00 80 67 ret
0x80000434: 00 05 0e 63 beqz	a0, 0x1c
0x80000438: 02 c1 20 83 lw	ra, 0x2c(sp)
0x8000043c: 03 01 01 13 addi	sp, sp, 0x30
0x80000440: 00 00 80 67 ret
0x80000628: 00 05 01 13 mv	sp, a0
0x8000062c: 08 41 23 03 lw	t1, 0x84(sp)
0x80000630: 08 81 23 83 lw	t2, 0x88(sp)
0x80000634: 30 03 10 73 csrw	mstatus, t1
0x80000638: 34 13 90 73 csrw	mepc, t2
0x8000063c: 00 41 20 83 lw	ra, 4(sp)
0x80000640: 00 c1 21 83 lw	gp, 0xc(sp)
0x80000644: 01 01 22 03 lw	tp, 0x10(sp)
0x80000648: 01 41 22 83 lw	t0, 0x14(sp)
0x8000064c: 01 81 23 03 lw	t1, 0x18(sp)
0x80000650: 01 c1 23 83 lw	t2, 0x1c(sp)
0x80000654: 02 01 24 03 lw	s0, 0x20(sp)
0x80000658: 02 41 24 83 lw	s1, 0x24(sp)
0x8000065c: 02 81 25 03 lw	a0, 0x28(sp)
0x80000660: 02 c1 25 83 lw	a1, 0x2c(sp)
0x80000664: 03 01 26 03 lw	a2, 0x30(sp)
0x80000668: 03 41 26 83 lw	a3, 0x34(sp)
0x8000066c: 03 81 27 03 lw	a4, 0x38(sp)
0x80000670: 03 c1 27 83 lw	a5, 0x3c(sp)
0x80000674: 04 01 28 03 lw	a6, 0x40(sp)
0x80000678: 04 41 28 83 lw	a7, 0x44(sp)
0x8000067c: 04 81 29 03 lw	s2, 0x48(sp)
0x80000680: 04 c1 29 83 lw	s3, 0x4c(sp)
0x80000684: 05 01 2a 03 lw	s4, 0x50(sp)
0x80000688: 05 41 2a 83 lw	s5, 0x54(sp)
0x8000068c: 05 81 2b 03 lw	s6, 0x58(sp)
0x80000690: 05 c1 2b 83 lw	s7, 0x5c(sp)
0x80000694: 06 01 2c 03 lw	s8, 0x60(sp)
0x80000698: 06 41 2c 83 lw	s9, 0x64(sp)
0x8000069c: 06 81 2d 03 lw	s10, 0x68(sp)
0x800006a0: 06 c1 2d 83 lw	s11, 0x6c(sp)
0x800006a4: 07 01 2e 03 lw	t3, 0x70(sp)
0x800006a8: 07 41 2e 83 lw	t4, 0x74(sp)
0x800006ac: 07 81 2f 03 lw	t5, 0x78(sp)
0x800006b0: 07 c1 2f 83 lw	t6, 0x7c(sp)
0x800006b4: 08 c1 01 13 addi	sp, sp, 0x8c
0x800006b8: 30 20 00 73 mret
0x8000050c: 00 00 00 73 ecall
0x80000580: f7 41 01 13 addi	sp, sp, -0x8c
0x80000584: 00 11 22 23 sw	ra, 4(sp)
0x80000588: 00 31 26 23 sw	gp, 0xc(sp)
0x8000058c: 00 41 28 23 sw	tp, 0x10(sp)
0x80000590: 00 51 2a 23 sw	t0, 0x14(sp)
0x80000594: 00 61 2c 23 sw	t1, 0x18(sp)
0x80000598: 00 71 2e 23 sw	t2, 0x1c(sp)
0x8000059c: 02 81 20 23 sw	s0, 0x20(sp)
0x800005a0: 02 91 22 23 sw	s1, 0x24(sp)
0x800005a4: 02 a1 24 23 sw	a0, 0x28(sp)
0x800005a8: 02 b1 26 23 sw	a1, 0x2c(sp)
0x800005ac: 02 c1 28 23 sw	a2, 0x30(sp)
0x800005b0: 02 d1 2a 23 sw	a3, 0x34(sp)
0x800005b4: 02 e1 2c 23 sw	a4, 0x38(sp)
0x800005b8: 02 f1 2e 23 sw	a5, 0x3c(sp)
0x800005bc: 05 01 20 23 sw	a6, 0x40(sp)
0x800005c0: 05 11 22 23 sw	a7, 0x44(sp)
0x800005c4: 05 21 24 23 sw	s2, 0x48(sp)
0x800005c8: 05 31 26 23 sw	s3, 0x4c(sp)
0x800005cc: 05 41 28 23 sw	s4, 0x50(sp)
0x800005d0: 05 51 2a 23 sw	s5, 0x54(sp)
0x800005d4: 05 61 2c 23 sw	s6, 0x58(sp)
0x800005d8: 05 71 2e 23 sw	s7, 0x5c(sp)
0x800005dc: 07 81 20 23 sw	s8, 0x60(sp)
0x800005e0: 07 91 22 23 sw	s9, 0x64(sp)
0x800005e4: 07 a1 24 23 sw	s10, 0x68(sp)
0x800005e8: 07 b1 26 23 sw	s11, 0x6c(sp)
0x800005ec: 07 c1 28 23 sw	t3, 0x70(sp)
0x800005f0: 07 d1 2a 23 sw	t4, 0x74(sp)
0x800005f4: 07 e1 2c 23 sw	t5, 0x78(sp)
0x800005f8: 07 f1 2e 23 sw	t6, 0x7c(sp)
0x800005fc: 34 20 22 f3 csrr	t0, mcause
0x80000600: 30 00 23 73 csrr	t1, mstatus
0x80000604: 34 10 23 f3 csrr	t2, mepc
0x80000608: 08 51 20 23 sw	t0, 0x80(sp)
0x8000060c: 08 61 22 23 sw	t1, 0x84(sp)
0x80000610: 08 71 24 23 sw	t2, 0x88(sp)
0x80000614: 00 02 05 37 lui	a0, 0x20
0x80000618: 00 a3 63 33 or	t1, t1, a0
0x8000061c: 30 03 10 73 csrw	mstatus, t1
0x80000620: 00 01 05 13 mv	a0, sp
0x80000624: db 9f f0 ef jal	-0x248
0x800003dc: 00 00 37 97 auipc	a5, 3
0x800003e0: a0 c7 a7 83 lw	a5, -0x5f4(a5)
0x800003e4: 00 05 05 93 mv	a1, a0
0x800003e8: 06 07 82 63 beqz	a5, 0x64
0x800003ec: 08 05 26 03 lw	a2, 0x80(a0)
0x800003f0: fd 01 01 13 addi	sp, sp, -0x30
0x800003f4: 02 11 26 23 sw	ra, 0x2c(sp)
0x800003f8: 00 01 2a 23 sw	zero, 0x14(sp)
0x800003fc: 00 01 2c 23 sw	zero, 0x18(sp)
0x80000400: 00 01 2e 23 sw	zero, 0x1c(sp)
0x80000404: 00 b0 06 93 addi	a3, zero, 0xb
0x80000408: 00 40 07 13 addi	a4, zero, 4
0x8000040c: 02 d6 0c 63 beq	a2, a3, 0x38
0x80000444: 00 10 07 13 addi	a4, zero, 1
0x80000448: fc 9f f0 6f j	-0x38
0x80000410: 00 e1 20 23 sw	a4, 0(sp)
0x80000414: 01 41 27 03 lw	a4, 0x14(sp)
0x80000418: 00 01 05 13 mv	a0, sp
0x8000041c: 00 e1 22 23 sw	a4, 4(sp)
0x80000420: 01 81 27 03 lw	a4, 0x18(sp)
0x80000424: 00 e1 24 23 sw	a4, 8(sp)
0x80000428: 01 c1 27 03 lw	a4, 0x1c(sp)
0x8000042c: 00 e1 26 23 sw	a4, 0xc(sp)
0x80000430: 00 07 80 e7 jalr	a5
0x80000010: fe 01 01 13 addi	sp, sp, -0x20
0x80000014: 01 21 28 23 sw	s2, 0x10(sp)
0x80000018: 00 00 39 17 auipc	s2, 3
0x8000001c: dc 89 09 13 addi	s2, s2, -0x238
0x80000020: 00 09 27 83 lw	a5, 0(s2)
0x80000024: 00 81 2c 23 sw	s0, 0x18(sp)
0x80000028: 00 91 2a 23 sw	s1, 0x14(sp)
0x8000002c: 01 31 26 23 sw	s3, 0xc(sp)
0x80000030: 00 11 2e 23 sw	ra, 0x1c(sp)
0x80000034: 00 17 87 93 addi	a5, a5, 1
0x80000038: 00 05 09 93 mv	s3, a0
0x8000003c: 00 05 84 93 mv	s1, a1
0x80000040: 00 f9 20 23 sw	a5, 0(s2)
0x80000044: 00 00 14 17 auipc	s0, 1
0x80000048: 77 44 04 13 addi	s0, s0, 0x774
0x8000004c: 05 30 05 13 addi	a0, zero, 0x53
0x80000050: 35 40 00 ef jal	0x354
0x800003a4: a0 00 07 b7 lui	a5, 0xa0000
0x800003a8: 3e a7 8c 23 sb	a0, 0x3f8(a5)
0x800003ac: 00 00 80 67 ret
0x80000054: 00 14 45 03 lbu	a0, 1(s0)
0x80000058: 00 14 04 13 addi	s0, s0, 1
0x8000005c: fe 05 1a e3 bnez	a0, -0xc
0x80000050: 35 40 00 ef jal	0x354
0x800003a4: a0 00 07 b7 lui	a5, 0xa0000
0x800003a8: 3e a7 8c 23 sb	a0, 0x3f8(a5)
0x800003ac: 00 00 80 67 ret
0x80000054: 00 14 45 03 lbu	a0, 1(s0)
0x80000058: 00 14 04 13 addi	s0, s0, 1
0x8000005c: fe 05 1a e3 bnez	a0, -0xc
0x80000050: 35 40 00 ef jal	0x354
0x800003a4: a0 00 07 b7 lui	a5, 0xa0000
0x800003a8: 3e a7 8c 23 sb	a0, 0x3f8(a5)
0x800003ac: 00 00 80 67 ret
0x80000054: 00 14 45 03 lbu	a0, 1(s0)
0x80000058: 00 14 04 13 addi	s0, s0, 1
0x8000005c: fe 05 1a e3 bnez	a0, -0xc
0x80000050: 35 40 00 ef jal	0x354
0x800003a4: a0 00 07 b7 lui	a5, 0xa0000
0x800003a8: 3e a7 8c 23 sb	a0, 0x3f8(a5)
0x800003ac: 00 00 80 67 ret
0x80000054: 00 14 45 03 lbu	a0, 1(s0)
0x80000058: 00 14 04 13 addi	s0, s0, 1
0x8000005c: fe 05 1a e3 bnez	a0, -0xc
0x80000050: 35 40 00 ef jal	0x354
0x800003a4: a0 00 07 b7 lui	a5, 0xa0000
0x800003a8: 3e a7 8c 23 sb	a0, 0x3f8(a5)
0x800003ac: 00 00 80 67 ret
0x80000054: 00 14 45 03 lbu	a0, 1(s0)
0x80000058: 00 14 04 13 addi	s0, s0, 1
0x8000005c: fe 05 1a e3 bnez	a0, -0xc
0x80000050: 35 40 00 ef jal	0x354
0x800003a4: a0 00 07 b7 lui	a5, 0xa0000
0x800003a8: 3e a7 8c 23 sb	a0, 0x3f8(a5)
0x800003ac: 00 00 80 67 ret
0x80000054: 00 14 45 03 lbu	a0, 1(s0)
0x80000058: 00 14 04 13 addi	s0, s0, 1
0x8000005c: fe 05 1a e3 bnez	a0, -0xc
0x80000050: 35 40 00 ef jal	0x354
0x800003a4: a0 00 07 b7 lui	a5, 0xa0000
0x800003a8: 3e a7 8c 23 sb	a0, 0x3f8(a5)
0x800003ac: 00 00 80 67 ret
0x80000054: 00 14 45 03 lbu	a0, 1(s0)
0x80000058: 00 14 04 13 addi	s0, s0, 1
0x8000005c: fe 05 1a e3 bnez	a0, -0xc
0x80000050: 35 40 00 ef jal	0x354
0x800003a4: a0 00 07 b7 lui	a5, 0xa0000
0x800003a8: 3e a7 8c 23 sb	a0, 0x3f8(a5)
0x800003ac: 00 00 80 67 ret
0x80000054: 00 14 45 03 lbu	a0, 1(s0)
0x80000058: 00 14 04 13 addi	s0, s0, 1
0x8000005c: fe 05 1a e3 bnez	a0, -0xc
0x80000050: 35 40 00 ef jal	0x354
0x800003a4: a0 00 07 b7 lui	a5, 0xa0000
0x800003a8: 3e a7 8c 23 sb	a0, 0x3f8(a5)
0x800003ac: 00 00 80 67 ret
0x80000054: 00 14 45 03 lbu	a0, 1(s0)
0x80000058: 00 14 04 13 addi	s0, s0, 1
0x8000005c: fe 05 1a e3 bnez	a0, -0xc
0x80000050: 35 40 00 ef jal	0x354
0x800003a4: a0 00 07 b7 lui	a5, 0xa0000
0x800003a8: 3e a7 8c 23 sb	a0, 0x3f8(a5)
0x800003ac: 00 00 80 67 ret
0x80000054: 00 14 45 03 lbu	a0, 1(s0)
0x80000058: 00 14 04 13 addi	s0, s0, 1
0x8000005c: fe 05 1a e3 bnez	a0, -0xc
0x80000050: 35 40 00 ef jal	0x354
0x800003a4: a0 00 07 b7 lui	a5, 0xa0000
0x800003a8: 3e a7 8c 23 sb	a0, 0x3f8(a5)
0x800003ac: 00 00 80 67 ret
0x80000054: 00 14 45 03 lbu	a0, 1(s0)
0x80000058: 00 14 04 13 addi	s0, s0, 1
0x8000005c: fe 05 1a e3 bnez	a0, -0xc
0x80000050: 35 40 00 ef jal	0x354
0x800003a4: a0 00 07 b7 lui	a5, 0xa0000
0x800003a8: 3e a7 8c 23 sb	a0, 0x3f8(a5)
0x800003ac: 00 00 80 67 ret
0x80000054: 00 14 45 03 lbu	a0, 1(s0)
0x80000058: 00 14 04 13 addi	s0, s0, 1
0x8000005c: fe 05 1a e3 bnez	a0, -0xc
0x80000050: 35 40 00 ef jal	0x354
0x800003a4: a0 00 07 b7 lui	a5, 0xa0000
0x800003a8: 3e a7 8c 23 sb	a0, 0x3f8(a5)
0x800003ac: 00 00 80 67 ret
0x80000054: 00 14 45 03 lbu	a0, 1(s0)
0x80000058: 00 14 04 13 addi	s0, s0, 1
0x8000005c: fe 05 1a e3 bnez	a0, -0xc
0x80000050: 35 40 00 ef jal	0x354
0x800003a4: a0 00 07 b7 lui	a5, 0xa0000
0x800003a8: 3e a7 8c 23 sb	a0, 0x3f8(a5)
0x800003ac: 00 00 80 67 ret
0x80000054: 00 14 45 03 lbu	a0, 1(s0)
0x80000058: 00 14 04 13 addi	s0, s0, 1
0x8000005c: fe 05 1a e3 bnez	a0, -0xc
0x80000050: 35 40 00 ef jal	0x354
0x800003a4: a0 00 07 b7 lui	a5, 0xa0000
0x800003a8: 3e a7 8c 23 sb	a0, 0x3f8(a5)
0x800003ac: 00 00 80 67 ret
0x80000054: 00 14 45 03 lbu	a0, 1(s0)
0x80000058: 00 14 04 13 addi	s0, s0, 1
0x8000005c: fe 05 1a e3 bnez	a0, -0xc
0x80000050: 35 40 00 ef jal	0x354
0x800003a4: a0 00 07 b7 lui	a5, 0xa0000
0x800003a8: 3e a7 8c 23 sb	a0, 0x3f8(a5)
0x800003ac: 00 00 80 67 ret
0x80000054: 00 14 45 03 lbu	a0, 1(s0)
0x80000058: 00 14 04 13 addi	s0, s0, 1
0x8000005c: fe 05 1a e3 bnez	a0, -0xc
0x80000050: 35 40 00 ef jal	0x354
0x800003a4: a0 00 07 b7 lui	a5, 0xa0000
0x800003a8: 3e a7 8c 23 sb	a0, 0x3f8(a5)
0x800003ac: 00 00 80 67 ret
0x80000054: 00 14 45 03 lbu	a0, 1(s0)
0x80000058: 00 14 04 13 addi	s0, s0, 1
0x8000005c: fe 05 1a e3 bnez	a0, -0xc
0x80000060: 00 09 25 03 lw	a0, 0(s2)
0x80000064: 00 00 14 17 auipc	s0, 1
0x80000068: 76 84 04 13 addi	s0, s0, 0x768
0x8000006c: 03 05 05 13 addi	a0, a0, 0x30
0x80000070: 0f f5 75 13 andi	a0, a0, 0xff
0x80000074: 33 00 00 ef jal	0x330
0x800003a4: a0 00 07 b7 lui	a5, 0xa0000
0x800003a8: 3e a7 8c 23 sb	a0, 0x3f8(a5)
0x800003ac: 00 00 80 67 ret
0x80000078: 02 c0 05 13 addi	a0, zero, 0x2c
0x8000007c: 32 80 00 ef jal	0x328
0x800003a4: a0 00 07 b7 lui	a5, 0xa0000
0x800003a8: 3e a7 8c 23 sb	a0, 0x3f8(a5)
0x800003ac: 00 00 80 67 ret
0x80000080: 00 14 45 03 lbu	a0, 1(s0)
0x80000084: 00 14 04 13 addi	s0, s0, 1
0x80000088: fe 05 1a e3 bnez	a0, -0xc
0x8000007c: 32 80 00 ef jal	0x328
0x800003a4: a0 00 07 b7 lui	a5, 0xa0000
0x800003a8: 3e a7 8c 23 sb	a0, 0x3f8(a5)
0x800003ac: 00 00 80 67 ret
0x80000080: 00 14 45 03 lbu	a0, 1(s0)
0x80000084: 00 14 04 13 addi	s0, s0, 1
0x80000088: fe 05 1a e3 bnez	a0, -0xc
0x8000007c: 32 80 00 ef jal	0x328
0x800003a4: a0 00 07 b7 lui	a5, 0xa0000
0x800003a8: 3e a7 8c 23 sb	a0, 0x3f8(a5)
0x800003ac: 00 00 80 67 ret
0x80000080: 00 14 45 03 lbu	a0, 1(s0)
0x80000084: 00 14 04 13 addi	s0, s0, 1
0x80000088: fe 05 1a e3 bnez	a0, -0xc
0x8000007c: 32 80 00 ef jal	0x328
0x800003a4: a0 00 07 b7 lui	a5, 0xa0000
0x800003a8: 3e a7 8c 23 sb	a0, 0x3f8(a5)
0x800003ac: 00 00 80 67 ret
0x80000080: 00 14 45 03 lbu	a0, 1(s0)
0x80000084: 00 14 04 13 addi	s0, s0, 1
0x80000088: fe 05 1a e3 bnez	a0, -0xc
0x8000007c: 32 80 00 ef jal	0x328
0x800003a4: a0 00 07 b7 lui	a5, 0xa0000
0x800003a8: 3e a7 8c 23 sb	a0, 0x3f8(a5)
0x800003ac: 00 00 80 67 ret
0x80000080: 00 14 45 03 lbu	a0, 1(s0)
0x80000084: 00 14 04 13 addi	s0, s0, 1
0x80000088: fe 05 1a e3 bnez	a0, -0xc
0x8000007c: 32 80 00 ef jal	0x328
0x800003a4: a0 00 07 b7 lui	a5, 0xa0000
0x800003a8: 3e a7 8c 23 sb	a0, 0x3f8(a5)
0x800003ac: 00 00 80 67 ret
0x80000080: 00 14 45 03 lbu	a0, 1(s0)
0x80000084: 00 14 04 13 addi	s0, s0, 1
0x80000088: fe 05 1a e3 bnez	a0, -0xc
0x8000007c: 32 80 00 ef jal	0x328
0x800003a4: a0 00 07 b7 lui	a5, 0xa0000
0x800003a8: 3e a7 8c 23 sb	a0, 0x3f8(a5)
0x800003ac: 00 00 80 67 ret
0x80000080: 00 14 45 03 lbu	a0, 1(s0)
0x80000084: 00 14 04 13 addi	s0, s0, 1
0x80000088: fe 05 1a e3 bnez	a0, -0xc
0x8000007c: 32 80 00 ef jal	0x328
0x800003a4: a0 00 07 b7 lui	a5, 0xa0000
0x800003a8: 3e a7 8c 23 sb	a0, 0x3f8(a5)
0x800003ac: 00 00 80 67 ret
0x80000080: 00 14 45 03 lbu	a0, 1(s0)
0x80000084: 00 14 04 13 addi	s0, s0, 1
0x80000088: fe 05 1a e3 bnez	a0, -0xc
0x8000007c: 32 80 00 ef jal	0x328
0x800003a4: a0 00 07 b7 lui	a5, 0xa0000
0x800003a8: 3e a7 8c 23 sb	a0, 0x3f8(a5)
0x800003ac: 00 00 80 67 ret
0x80000080: 00 14 45 03 lbu	a0, 1(s0)
0x80000084: 00 14 04 13 addi	s0, s0, 1
0x80000088: fe 05 1a e3 bnez	a0, -0xc
0x8000008c: 00 09 a5 03 lw	a0, 0(s3)
0x80000090: 03 05 05 13 addi	a0, a0, 0x30
0x80000094: 0f f5 75 13 andi	a0, a0, 0xff
0x80000098: 30 c0 00 ef jal	0x30c
0x800003a4: a0 00 07 b7 lui	a5, 0xa0000
0x800003a8: 3e a7 8c 23 sb	a0, 0x3f8(a5)
0x800003ac: 00 00 80 67 ret
0x8000009c: 00 a0 05 13 addi	a0, zero, 0xa
0x800000a0: 30 40 00 ef jal	0x304
0x800003a4: a0 00 07 b7 lui	a5, 0xa0000
0x800003a8: 3e a7 8c 23 sb	a0, 0x3f8(a5)
0x800003ac: 00 00 80 67 ret
0x800000a4: 00 09 27 83 lw	a5, 0(s2)
0x800000a8: 00 10 07 13 addi	a4, zero, 1
0x800000ac: 06 e7 84 63 beq	a5, a4, 0x68
0x800000b0: 00 40 07 13 addi	a4, zero, 4
0x800000b4: 04 f7 40 63 blt	a4, a5, 0x40
0x800000f4: 00 00 14 17 auipc	s0, 1
0x800000f8: 71 c4 04 13 addi	s0, s0, 0x71c
0x800000fc: 05 30 05 13 addi	a0, zero, 0x53
0x80000100: 2a 40 00 ef jal	0x2a4
0x800003a4: a0 00 07 b7 lui	a5, 0xa0000
0x800003a8: 3e a7 8c 23 sb	a0, 0x3f8(a5)
0x800003ac: 00 00 80 67 ret
0x80000104: 00 14 45 03 lbu	a0, 1(s0)
0x80000108: 00 14 04 13 addi	s0, s0, 1
0x8000010c: fe 05 1a e3 bnez	a0, -0xc
0x80000100: 2a 40 00 ef jal	0x2a4
0x800003a4: a0 00 07 b7 lui	a5, 0xa0000
0x800003a8: 3e a7 8c 23 sb	a0, 0x3f8(a5)
0x800003ac: 00 00 80 67 ret
0x80000104: 00 14 45 03 lbu	a0, 1(s0)
0x80000108: 00 14 04 13 addi	s0, s0, 1
0x8000010c: fe 05 1a e3 bnez	a0, -0xc
0x80000100: 2a 40 00 ef jal	0x2a4
0x800003a4: a0 00 07 b7 lui	a5, 0xa0000
0x800003a8: 3e a7 8c 23 sb	a0, 0x3f8(a5)
0x800003ac: 00 00 80 67 ret
0x80000104: 00 14 45 03 lbu	a0, 1(s0)
0x80000108: 00 14 04 13 addi	s0, s0, 1
0x8000010c: fe 05 1a e3 bnez	a0, -0xc
0x80000100: 2a 40 00 ef jal	0x2a4
0x800003a4: a0 00 07 b7 lui	a5, 0xa0000
0x800003a8: 3e a7 8c 23 sb	a0, 0x3f8(a5)
0x800003ac: 00 00 80 67 ret
0x80000104: 00 14 45 03 lbu	a0, 1(s0)
0x80000108: 00 14 04 13 addi	s0, s0, 1
0x8000010c: fe 05 1a e3 bnez	a0, -0xc
0x80000100: 2a 40 00 ef jal	0x2a4
0x800003a4: a0 00 07 b7 lui	a5, 0xa0000
0x800003a8: 3e a7 8c 23 sb	a0, 0x3f8(a5)
0x800003ac: 00 00 80 67 ret
0x80000104: 00 14 45 03 lbu	a0, 1(s0)
0x80000108: 00 14 04 13 addi	s0, s0, 1
0x8000010c: fe 05 1a e3 bnez	a0, -0xc
0x80000100: 2a 40 00 ef jal	0x2a4
0x800003a4: a0 00 07 b7 lui	a5, 0xa0000
0x800003a8: 3e a7 8c 23 sb	a0, 0x3f8(a5)
0x800003ac: 00 00 80 67 ret
0x80000104: 00 14 45 03 lbu	a0, 1(s0)
0x80000108: 00 14 04 13 addi	s0, s0, 1
0x8000010c: fe 05 1a e3 bnez	a0, -0xc
0x80000100: 2a 40 00 ef jal	0x2a4
0x800003a4: a0 00 07 b7 lui	a5, 0xa0000
0x800003a8: 3e a7 8c 23 sb	a0, 0x3f8(a5)
0x800003ac: 00 00 80 67 ret
0x80000104: 00 14 45 03 lbu	a0, 1(s0)
0x80000108: 00 14 04 13 addi	s0, s0, 1
0x8000010c: fe 05 1a e3 bnez	a0, -0xc
0x80000100: 2a 40 00 ef jal	0x2a4
0x800003a4: a0 00 07 b7 lui	a5, 0xa0000
0x800003a8: 3e a7 8c 23 sb	a0, 0x3f8(a5)
0x800003ac: 00 00 80 67 ret
0x80000104: 00 14 45 03 lbu	a0, 1(s0)
0x80000108: 00 14 04 13 addi	s0, s0, 1
0x8000010c: fe 05 1a e3 bnez	a0, -0xc
0x80000100: 2a 40 00 ef jal	0x2a4
0x800003a4: a0 00 07 b7 lui	a5, 0xa0000
0x800003a8: 3e a7 8c 23 sb	a0, 0x3f8(a5)
0x800003ac: 00 00 80 67 ret
0x80000104: 00 14 45 03 lbu	a0, 1(s0)
0x80000108: 00 14 04 13 addi	s0, s0, 1
0x8000010c: fe 05 1a e3 bnez	a0, -0xc
0x80000100: 2a 40 00 ef jal	0x2a4
0x800003a4: a0 00 07 b7 lui	a5, 0xa0000
0x800003a8: 3e a7 8c 23 sb	a0, 0x3f8(a5)
0x800003ac: 00 00 80 67 ret
0x80000104: 00 14 45 03 lbu	a0, 1(s0)
0x80000108: 00 14 04 13 addi	s0, s0, 1
0x8000010c: fe 05 1a e3 bnez	a0, -0xc
0x80000100: 2a 40 00 ef jal	0x2a4
0x800003a4: a0 00 07 b7 lui	a5, 0xa0000
0x800003a8: 3e a7 8c 23 sb	a0, 0x3f8(a5)
0x800003ac: 00 00 80 67 ret
0x80000104: 00 14 45 03 lbu	a0, 1(s0)
0x80000108: 00 14 04 13 addi	s0, s0, 1
0x8000010c: fe 05 1a e3 bnez	a0, -0xc
0x80000100: 2a 40 00 ef jal	0x2a4
0x800003a4: a0 00 07 b7 lui	a5, 0xa0000
0x800003a8: 3e a7 8c 23 sb	a0, 0x3f8(a5)
0x800003ac: 00 00 80 67 ret
0x80000104: 00 14 45 03 lbu	a0, 1(s0)
0x80000108: 00 14 04 13 addi	s0, s0, 1
0x8000010c: fe 05 1a e3 bnez	a0, -0xc
0x80000100: 2a 40 00 ef jal	0x2a4
0x800003a4: a0 00 07 b7 lui	a5, 0xa0000
0x800003a8: 3e a7 8c 23 sb	a0, 0x3f8(a5)
0x800003ac: 00 00 80 67 ret
0x80000104: 00 14 45 03 lbu	a0, 1(s0)
0x80000108: 00 14 04 13 addi	s0, s0, 1
0x8000010c: fe 05 1a e3 bnez	a0, -0xc
0x80000100: 2a 40 00 ef jal	0x2a4
0x800003a4: a0 00 07 b7 lui	a5, 0xa0000
0x800003a8: 3e a7 8c 23 sb	a0, 0x3f8(a5)
0x800003ac: 00 00 80 67 ret
0x80000104: 00 14 45 03 lbu	a0, 1(s0)
0x80000108: 00 14 04 13 addi	s0, s0, 1
0x8000010c: fe 05 1a e3 bnez	a0, -0xc
0x80000100: 2a 40 00 ef jal	0x2a4
0x800003a4: a0 00 07 b7 lui	a5, 0xa0000
0x800003a8: 3e a7 8c 23 sb	a0, 0x3f8(a5)
0x800003ac: 00 00 80 67 ret
0x80000104: 00 14 45 03 lbu	a0, 1(s0)
0x80000108: 00 14 04 13 addi	s0, s0, 1
0x8000010c: fe 05 1a e3 bnez	a0, -0xc
0x80000100: 2a 40 00 ef jal	0x2a4
0x800003a4: a0 00 07 b7 lui	a5, 0xa0000
0x800003a8: 3e a7 8c 23 sb	a0, 0x3f8(a5)
0x800003ac: 00 00 80 67 ret
0x80000104: 00 14 45 03 lbu	a0, 1(s0)
0x80000108: 00 14 04 13 addi	s0, s0, 1
0x8000010c: fe 05 1a e3 bnez	a0, -0xc
0x80000100: 2a 40 00 ef jal	0x2a4
0x800003a4: a0 00 07 b7 lui	a5, 0xa0000
0x800003a8: 3e a7 8c 23 sb	a0, 0x3f8(a5)
0x800003ac: 00 00 80 67 ret
0x80000104: 00 14 45 03 lbu	a0, 1(s0)
0x80000108: 00 14 04 13 addi	s0, s0, 1
0x8000010c: fe 05 1a e3 bnez	a0, -0xc
0x80000100: 2a 40 00 ef jal	0x2a4
0x800003a4: a0 00 07 b7 lui	a5, 0xa0000
0x800003a8: 3e a7 8c 23 sb	a0, 0x3f8(a5)
0x800003ac: 00 00 80 67 ret
0x80000104: 00 14 45 03 lbu	a0, 1(s0)
0x80000108: 00 14 04 13 addi	s0, s0, 1
0x8000010c: fe 05 1a e3 bnez	a0, -0xc
0x80000100: 2a 40 00 ef jal	0x2a4
0x800003a4: a0 00 07 b7 lui	a5, 0xa0000
0x800003a8: 3e a7 8c 23 sb	a0, 0x3f8(a5)
0x800003ac: 00 00 80 67 ret
0x80000104: 00 14 45 03 lbu	a0, 1(s0)
0x80000108: 00 14 04 13 addi	s0, s0, 1
0x8000010c: fe 05 1a e3 bnez	a0, -0xc
0x80000100: 2a 40 00 ef jal	0x2a4
0x800003a4: a0 00 07 b7 lui	a5, 0xa0000
0x800003a8: 3e a7 8c 23 sb	a0, 0x3f8(a5)
0x800003ac: 00 00 80 67 ret
0x80000104: 00 14 45 03 lbu	a0, 1(s0)
0x80000108: 00 14 04 13 addi	s0, s0, 1
0x8000010c: fe 05 1a e3 bnez	a0, -0xc
0x80000100: 2a 40 00 ef jal	0x2a4
0x800003a4: a0 00 07 b7 lui	a5, 0xa0000
0x800003a8: 3e a7 8c 23 sb	a0, 0x3f8(a5)
0x800003ac: 00 00 80 67 ret
0x80000104: 00 14 45 03 lbu	a0, 1(s0)
0x80000108: 00 14 04 13 addi	s0, s0, 1
0x8000010c: fe 05 1a e3 bnez	a0, -0xc
0x80000100: 2a 40 00 ef jal	0x2a4
0x800003a4: a0 00 07 b7 lui	a5, 0xa0000
0x800003a8: 3e a7 8c 23 sb	a0, 0x3f8(a5)
0x800003ac: 00 00 80 67 ret
0x80000104: 00 14 45 03 lbu	a0, 1(s0)
0x80000108: 00 14 04 13 addi	s0, s0, 1
0x8000010c: fe 05 1a e3 bnez	a0, -0xc
0x80000100: 2a 40 00 ef jal	0x2a4
0x800003a4: a0 00 07 b7 lui	a5, 0xa0000
0x800003a8: 3e a7 8c 23 sb	a0, 0x3f8(a5)
0x800003ac: 00 00 80 67 ret
0x80000104: 00 14 45 03 lbu	a0, 1(s0)
0x80000108: 00 14 04 13 addi	s0, s0, 1
0x8000010c: fe 05 1a e3 bnez	a0, -0xc
0x80000100: 2a 40 00 ef jal	0x2a4
0x800003a4: a0 00 07 b7 lui	a5, 0xa0000
0x800003a8: 3e a7 8c 23 sb	a0, 0x3f8(a5)
0x800003ac: 00 00 80 67 ret
0x80000104: 00 14 45 03 lbu	a0, 1(s0)
0x80000108: 00 14 04 13 addi	s0, s0, 1
0x8000010c: fe 05 1a e3 bnez	a0, -0xc
0x80000100: 2a 40 00 ef jal	0x2a4
0x800003a4: a0 00 07 b7 lui	a5, 0xa0000
0x800003a8: 3e a7 8c 23 sb	a0, 0x3f8(a5)
0x800003ac: 00 00 80 67 ret
0x80000104: 00 14 45 03 lbu	a0, 1(s0)
0x80000108: 00 14 04 13 addi	s0, s0, 1
0x8000010c: fe 05 1a e3 bnez	a0, -0xc
0x80000100: 2a 40 00 ef jal	0x2a4
0x800003a4: a0 00 07 b7 lui	a5, 0xa0000
0x800003a8: 3e a7 8c 23 sb	a0, 0x3f8(a5)
0x800003ac: 00 00 80 67 ret
0x80000104: 00 14 45 03 lbu	a0, 1(s0)
0x80000108: 00 14 04 13 addi	s0, s0, 1
0x8000010c: fe 05 1a e3 bnez	a0, -0xc
0x80000100: 2a 40 00 ef jal	0x2a4
0x800003a4: a0 00 07 b7 lui	a5, 0xa0000
0x800003a8: 3e a7 8c 23 sb	a0, 0x3f8(a5)
0x800003ac: 00 00 80 67 ret
0x80000104: 00 14 45 03 lbu	a0, 1(s0)
0x80000108: 00 14 04 13 addi	s0, s0, 1
0x8000010c: fe 05 1a e3 bnez	a0, -0xc
0x80000110: fc 5f f0 6f j	-0x3c
0x800000d4: 01 c1 20 83 lw	ra, 0x1c(sp)
0x800000d8: 01 81 24 03 lw	s0, 0x18(sp)
0x800000dc: 01 01 29 03 lw	s2, 0x10(sp)
0x800000e0: 00 c1 29 83 lw	s3, 0xc(sp)
0x800000e4: 00 04 85 13 mv	a0, s1
0x800000e8: 01 41 24 83 lw	s1, 0x14(sp)
0x800000ec: 02 01 01 13 addi	sp, sp, 0x20
0x800000f0: 00 00 80 67 ret
0x80000434: 00 05 0e 63 beqz	a0, 0x1c
0x80000438: 02 c1 20 83 lw	ra, 0x2c(sp)
0x8000043c: 03 01 01 13 addi	sp, sp, 0x30
0x80000440: 00 00 80 67 ret
0x80000628: 00 05 01 13 mv	sp, a0
0x8000062c: 08 41 23 03 lw	t1, 0x84(sp)
0x80000630: 08 81 23 83 lw	t2, 0x88(sp)
0x80000634: 30 03 10 73 csrw	mstatus, t1
0x80000638: 34 13 90 73 csrw	mepc, t2
0x8000063c: 00 41 20 83 lw	ra, 4(sp)
0x80000640: 00 c1 21 83 lw	gp, 0xc(sp)
0x80000644: 01 01 22 03 lw	tp, 0x10(sp)
0x80000648: 01 41 22 83 lw	t0, 0x14(sp)
0x8000064c: 01 81 23 03 lw	t1, 0x18(sp)
0x80000650: 01 c1 23 83 lw	t2, 0x1c(sp)
0x80000654: 02 01 24 03 lw	s0, 0x20(sp)
0x80000658: 02 41 24 83 lw	s1, 0x24(sp)
0x8000065c: 02 81 25 03 lw	a0, 0x28(sp)
0x80000660: 02 c1 25 83 lw	a1, 0x2c(sp)
0x80000664: 03 01 26 03 lw	a2, 0x30(sp)
0x80000668: 03 41 26 83 lw	a3, 0x34(sp)
0x8000066c: 03 81 27 03 lw	a4, 0x38(sp)
0x80000670: 03 c1 27 83 lw	a5, 0x3c(sp)
0x80000674: 04 01 28 03 lw	a6, 0x40(sp)
0x80000678: 04 41 28 83 lw	a7, 0x44(sp)
0x8000067c: 04 81 29 03 lw	s2, 0x48(sp)
0x80000680: 04 c1 29 83 lw	s3, 0x4c(sp)
0x80000684: 05 01 2a 03 lw	s4, 0x50(sp)
0x80000688: 05 41 2a 83 lw	s5, 0x54(sp)
0x8000068c: 05 81 2b 03 lw	s6, 0x58(sp)
0x80000690: 05 c1 2b 83 lw	s7, 0x5c(sp)
0x80000694: 06 01 2c 03 lw	s8, 0x60(sp)
0x80000698: 06 41 2c 83 lw	s9, 0x64(sp)
0x8000069c: 06 81 2d 03 lw	s10, 0x68(sp)
0x800006a0: 06 c1 2d 83 lw	s11, 0x6c(sp)
0x800006a4: 07 01 2e 03 lw	t3, 0x70(sp)
0x800006a8: 07 41 2e 83 lw	t4, 0x74(sp)
0x800006ac: 07 81 2f 03 lw	t5, 0x78(sp)
0x800006b0: 07 c1 2f 83 lw	t6, 0x7c(sp)
0x800006b4: 08 c1 01 13 addi	sp, sp, 0x8c
0x800006b8: 30 20 00 73 mret
0x8000050c: 00 00 00 73 ecall
0x80000580: f7 41 01 13 addi	sp, sp, -0x8c
0x80000584: 00 11 22 23 sw	ra, 4(sp)
0x80000588: 00 31 26 23 sw	gp, 0xc(sp)
0x8000058c: 00 41 28 23 sw	tp, 0x10(sp)
0x80000590: 00 51 2a 23 sw	t0, 0x14(sp)
0x80000594: 00 61 2c 23 sw	t1, 0x18(sp)
0x80000598: 00 71 2e 23 sw	t2, 0x1c(sp)
0x8000059c: 02 81 20 23 sw	s0, 0x20(sp)
0x800005a0: 02 91 22 23 sw	s1, 0x24(sp)
0x800005a4: 02 a1 24 23 sw	a0, 0x28(sp)
0x800005a8: 02 b1 26 23 sw	a1, 0x2c(sp)
0x800005ac: 02 c1 28 23 sw	a2, 0x30(sp)
0x800005b0: 02 d1 2a 23 sw	a3, 0x34(sp)
0x800005b4: 02 e1 2c 23 sw	a4, 0x38(sp)
0x800005b8: 02 f1 2e 23 sw	a5, 0x3c(sp)
0x800005bc: 05 01 20 23 sw	a6, 0x40(sp)
0x800005c0: 05 11 22 23 sw	a7, 0x44(sp)
0x800005c4: 05 21 24 23 sw	s2, 0x48(sp)
0x800005c8: 05 31 26 23 sw	s3, 0x4c(sp)
0x800005cc: 05 41 28 23 sw	s4, 0x50(sp)
0x800005d0: 05 51 2a 23 sw	s5, 0x54(sp)
0x800005d4: 05 61 2c 23 sw	s6, 0x58(sp)
0x800005d8: 05 71 2e 23 sw	s7, 0x5c(sp)
0x800005dc: 07 81 20 23 sw	s8, 0x60(sp)
0x800005e0: 07 91 22 23 sw	s9, 0x64(sp)
0x800005e4: 07 a1 24 23 sw	s10, 0x68(sp)
0x800005e8: 07 b1 26 23 sw	s11, 0x6c(sp)
0x800005ec: 07 c1 28 23 sw	t3, 0x70(sp)
0x800005f0: 07 d1 2a 23 sw	t4, 0x74(sp)
0x800005f4: 07 e1 2c 23 sw	t5, 0x78(sp)
0x800005f8: 07 f1 2e 23 sw	t6, 0x7c(sp)
0x800005fc: 34 20 22 f3 csrr	t0, mcause
0x80000600: 30 00 23 73 csrr	t1, mstatus
0x80000604: 34 10 23 f3 csrr	t2, mepc
0x80000608: 08 51 20 23 sw	t0, 0x80(sp)
0x8000060c: 08 61 22 23 sw	t1, 0x84(sp)
0x80000610: 08 71 24 23 sw	t2, 0x88(sp)
0x80000614: 00 02 05 37 lui	a0, 0x20
0x80000618: 00 a3 63 33 or	t1, t1, a0
0x8000061c: 30 03 10 73 csrw	mstatus, t1
0x80000620: 00 01 05 13 mv	a0, sp
0x80000624: db 9f f0 ef jal	-0x248
0x800003dc: 00 00 37 97 auipc	a5, 3
0x800003e0: a0 c7 a7 83 lw	a5, -0x5f4(a5)
0x800003e4: 00 05 05 93 mv	a1, a0
0x800003e8: 06 07 82 63 beqz	a5, 0x64
0x800003ec: 08 05 26 03 lw	a2, 0x80(a0)
0x800003f0: fd 01 01 13 addi	sp, sp, -0x30
0x800003f4: 02 11 26 23 sw	ra, 0x2c(sp)
0x800003f8: 00 01 2a 23 sw	zero, 0x14(sp)
0x800003fc: 00 01 2c 23 sw	zero, 0x18(sp)
0x80000400: 00 01 2e 23 sw	zero, 0x1c(sp)
0x80000404: 00 b0 06 93 addi	a3, zero, 0xb
0x80000408: 00 40 07 13 addi	a4, zero, 4
0x8000040c: 02 d6 0c 63 beq	a2, a3, 0x38
0x80000444: 00 10 07 13 addi	a4, zero, 1
0x80000448: fc 9f f0 6f j	-0x38
0x80000410: 00 e1 20 23 sw	a4, 0(sp)
0x80000414: 01 41 27 03 lw	a4, 0x14(sp)
0x80000418: 00 01 05 13 mv	a0, sp
0x8000041c: 00 e1 22 23 sw	a4, 4(sp)
0x80000420: 01 81 27 03 lw	a4, 0x18(sp)
0x80000424: 00 e1 24 23 sw	a4, 8(sp)
0x80000428: 01 c1 27 03 lw	a4, 0x1c(sp)
0x8000042c: 00 e1 26 23 sw	a4, 0xc(sp)
0x80000430: 00 07 80 e7 jalr	a5
0x80000010: fe 01 01 13 addi	sp, sp, -0x20
0x80000014: 01 21 28 23 sw	s2, 0x10(sp)
0x80000018: 00 00 39 17 auipc	s2, 3
0x8000001c: dc 89 09 13 addi	s2, s2, -0x238
0x80000020: 00 09 27 83 lw	a5, 0(s2)
0x80000024: 00 81 2c 23 sw	s0, 0x18(sp)
0x80000028: 00 91 2a 23 sw	s1, 0x14(sp)
0x8000002c: 01 31 26 23 sw	s3, 0xc(sp)
0x80000030: 00 11 2e 23 sw	ra, 0x1c(sp)
0x80000034: 00 17 87 93 addi	a5, a5, 1
0x80000038: 00 05 09 93 mv	s3, a0
0x8000003c: 00 05 84 93 mv	s1, a1
0x80000040: 00 f9 20 23 sw	a5, 0(s2)
0x80000044: 00 00 14 17 auipc	s0, 1
0x80000048: 77 44 04 13 addi	s0, s0, 0x774
0x8000004c: 05 30 05 13 addi	a0, zero, 0x53
0x80000050: 35 40 00 ef jal	0x354
0x800003a4: a0 00 07 b7 lui	a5, 0xa0000
0x800003a8: 3e a7 8c 23 sb	a0, 0x3f8(a5)
0x800003ac: 00 00 80 67 ret
0x80000054: 00 14 45 03 lbu	a0, 1(s0)
0x80000058: 00 14 04 13 addi	s0, s0, 1
0x8000005c: fe 05 1a e3 bnez	a0, -0xc
0x80000050: 35 40 00 ef jal	0x354
0x800003a4: a0 00 07 b7 lui	a5, 0xa0000
0x800003a8: 3e a7 8c 23 sb	a0, 0x3f8(a5)
0x800003ac: 00 00 80 67 ret
0x80000054: 00 14 45 03 lbu	a0, 1(s0)
0x80000058: 00 14 04 13 addi	s0, s0, 1
0x8000005c: fe 05 1a e3 bnez	a0, -0xc
0x80000050: 35 40 00 ef jal	0x354
0x800003a4: a0 00 07 b7 lui	a5, 0xa0000
0x800003a8: 3e a7 8c 23 sb	a0, 0x3f8(a5)
0x800003ac: 00 00 80 67 ret
0x80000054: 00 14 45 03 lbu	a0, 1(s0)
0x80000058: 00 14 04 13 addi	s0, s0, 1
0x8000005c: fe 05 1a e3 bnez	a0, -0xc
0x80000050: 35 40 00 ef jal	0x354
0x800003a4: a0 00 07 b7 lui	a5, 0xa0000
0x800003a8: 3e a7 8c 23 sb	a0, 0x3f8(a5)
0x800003ac: 00 00 80 67 ret
0x80000054: 00 14 45 03 lbu	a0, 1(s0)
0x80000058: 00 14 04 13 addi	s0, s0, 1
0x8000005c: fe 05 1a e3 bnez	a0, -0xc
0x80000050: 35 40 00 ef jal	0x354
0x800003a4: a0 00 07 b7 lui	a5, 0xa0000
0x800003a8: 3e a7 8c 23 sb	a0, 0x3f8(a5)
0x800003ac: 00 00 80 67 ret
0x80000054: 00 14 45 03 lbu	a0, 1(s0)
0x80000058: 00 14 04 13 addi	s0, s0, 1
0x8000005c: fe 05 1a e3 bnez	a0, -0xc
0x80000050: 35 40 00 ef jal	0x354
0x800003a4: a0 00 07 b7 lui	a5, 0xa0000
0x800003a8: 3e a7 8c 23 sb	a0, 0x3f8(a5)
0x800003ac: 00 00 80 67 ret
0x80000054: 00 14 45 03 lbu	a0, 1(s0)
0x80000058: 00 14 04 13 addi	s0, s0, 1
0x8000005c: fe 05 1a e3 bnez	a0, -0xc
0x80000050: 35 40 00 ef jal	0x354
0x800003a4: a0 00 07 b7 lui	a5, 0xa0000
0x800003a8: 3e a7 8c 23 sb	a0, 0x3f8(a5)
0x800003ac: 00 00 80 67 ret
0x80000054: 00 14 45 03 lbu	a0, 1(s0)
0x80000058: 00 14 04 13 addi	s0, s0, 1
0x8000005c: fe 05 1a e3 bnez	a0, -0xc
0x80000050: 35 40 00 ef jal	0x354
0x800003a4: a0 00 07 b7 lui	a5, 0xa0000
0x800003a8: 3e a7 8c 23 sb	a0, 0x3f8(a5)
0x800003ac: 00 00 80 67 ret
0x80000054: 00 14 45 03 lbu	a0, 1(s0)
0x80000058: 00 14 04 13 addi	s0, s0, 1
0x8000005c: fe 05 1a e3 bnez	a0, -0xc
0x80000050: 35 40 00 ef jal	0x354
0x800003a4: a0 00 07 b7 lui	a5, 0xa0000
0x800003a8: 3e a7 8c 23 sb	a0, 0x3f8(a5)
0x800003ac: 00 00 80 67 ret
0x80000054: 00 14 45 03 lbu	a0, 1(s0)
0x80000058: 00 14 04 13 addi	s0, s0, 1
0x8000005c: fe 05 1a e3 bnez	a0, -0xc
0x80000050: 35 40 00 ef jal	0x354
0x800003a4: a0 00 07 b7 lui	a5, 0xa0000
0x800003a8: 3e a7 8c 23 sb	a0, 0x3f8(a5)
0x800003ac: 00 00 80 67 ret
0x80000054: 00 14 45 03 lbu	a0, 1(s0)
0x80000058: 00 14 04 13 addi	s0, s0, 1
0x8000005c: fe 05 1a e3 bnez	a0, -0xc
0x80000050: 35 40 00 ef jal	0x354
0x800003a4: a0 00 07 b7 lui	a5, 0xa0000
0x800003a8: 3e a7 8c 23 sb	a0, 0x3f8(a5)
0x800003ac: 00 00 80 67 ret
0x80000054: 00 14 45 03 lbu	a0, 1(s0)
0x80000058: 00 14 04 13 addi	s0, s0, 1
0x8000005c: fe 05 1a e3 bnez	a0, -0xc
0x80000050: 35 40 00 ef jal	0x354
0x800003a4: a0 00 07 b7 lui	a5, 0xa0000
0x800003a8: 3e a7 8c 23 sb	a0, 0x3f8(a5)
0x800003ac: 00 00 80 67 ret
0x80000054: 00 14 45 03 lbu	a0, 1(s0)
0x80000058: 00 14 04 13 addi	s0, s0, 1
0x8000005c: fe 05 1a e3 bnez	a0, -0xc
0x80000050: 35 40 00 ef jal	0x354
0x800003a4: a0 00 07 b7 lui	a5, 0xa0000
0x800003a8: 3e a7 8c 23 sb	a0, 0x3f8(a5)
0x800003ac: 00 00 80 67 ret
0x80000054: 00 14 45 03 lbu	a0, 1(s0)
0x80000058: 00 14 04 13 addi	s0, s0, 1
0x8000005c: fe 05 1a e3 bnez	a0, -0xc
0x80000050: 35 40 00 ef jal	0x354
0x800003a4: a0 00 07 b7 lui	a5, 0xa0000
0x800003a8: 3e a7 8c 23 sb	a0, 0x3f8(a5)
0x800003ac: 00 00 80 67 ret
0x80000054: 00 14 45 03 lbu	a0, 1(s0)
0x80000058: 00 14 04 13 addi	s0, s0, 1
0x8000005c: fe 05 1a e3 bnez	a0, -0xc
0x80000050: 35 40 00 ef jal	0x354
0x800003a4: a0 00 07 b7 lui	a5, 0xa0000
0x800003a8: 3e a7 8c 23 sb	a0, 0x3f8(a5)
0x800003ac: 00 00 80 67 ret
0x80000054: 00 14 45 03 lbu	a0, 1(s0)
0x80000058: 00 14 04 13 addi	s0, s0, 1
0x8000005c: fe 05 1a e3 bnez	a0, -0xc
0x80000050: 35 40 00 ef jal	0x354
0x800003a4: a0 00 07 b7 lui	a5, 0xa0000
0x800003a8: 3e a7 8c 23 sb	a0, 0x3f8(a5)
0x800003ac: 00 00 80 67 ret
0x80000054: 00 14 45 03 lbu	a0, 1(s0)
0x80000058: 00 14 04 13 addi	s0, s0, 1
0x8000005c: fe 05 1a e3 bnez	a0, -0xc
0x80000050: 35 40 00 ef jal	0x354
0x800003a4: a0 00 07 b7 lui	a5, 0xa0000
0x800003a8: 3e a7 8c 23 sb	a0, 0x3f8(a5)
0x800003ac: 00 00 80 67 ret
0x80000054: 00 14 45 03 lbu	a0, 1(s0)
0x80000058: 00 14 04 13 addi	s0, s0, 1
0x8000005c: fe 05 1a e3 bnez	a0, -0xc
0x80000060: 00 09 25 03 lw	a0, 0(s2)
0x80000064: 00 00 14 17 auipc	s0, 1
0x80000068: 76 84 04 13 addi	s0, s0, 0x768
0x8000006c: 03 05 05 13 addi	a0, a0, 0x30
0x80000070: 0f f5 75 13 andi	a0, a0, 0xff
0x80000074: 33 00 00 ef jal	0x330
0x800003a4: a0 00 07 b7 lui	a5, 0xa0000
0x800003a8: 3e a7 8c 23 sb	a0, 0x3f8(a5)
0x800003ac: 00 00 80 67 ret
0x80000078: 02 c0 05 13 addi	a0, zero, 0x2c
0x8000007c: 32 80 00 ef jal	0x328
0x800003a4: a0 00 07 b7 lui	a5, 0xa0000
0x800003a8: 3e a7 8c 23 sb	a0, 0x3f8(a5)
0x800003ac: 00 00 80 67 ret
0x80000080: 00 14 45 03 lbu	a0, 1(s0)
0x80000084: 00 14 04 13 addi	s0, s0, 1
0x80000088: fe 05 1a e3 bnez	a0, -0xc
0x8000007c: 32 80 00 ef jal	0x328
0x800003a4: a0 00 07 b7 lui	a5, 0xa0000
0x800003a8: 3e a7 8c 23 sb	a0, 0x3f8(a5)
0x800003ac: 00 00 80 67 ret
0x80000080: 00 14 45 03 lbu	a0, 1(s0)
0x80000084: 00 14 04 13 addi	s0, s0, 1
0x80000088: fe 05 1a e3 bnez	a0, -0xc
0x8000007c: 32 80 00 ef jal	0x328
0x800003a4: a0 00 07 b7 lui	a5, 0xa0000
0x800003a8: 3e a7 8c 23 sb	a0, 0x3f8(a5)
0x800003ac: 00 00 80 67 ret
0x80000080: 00 14 45 03 lbu	a0, 1(s0)
0x80000084: 00 14 04 13 addi	s0, s0, 1
0x80000088: fe 05 1a e3 bnez	a0, -0xc
0x8000007c: 32 80 00 ef jal	0x328
0x800003a4: a0 00 07 b7 lui	a5, 0xa0000
0x800003a8: 3e a7 8c 23 sb	a0, 0x3f8(a5)
0x800003ac: 00 00 80 67 ret
0x80000080: 00 14 45 03 lbu	a0, 1(s0)
0x80000084: 00 14 04 13 addi	s0, s0, 1
0x80000088: fe 05 1a e3 bnez	a0, -0xc
0x8000007c: 32 80 00 ef jal	0x328
0x800003a4: a0 00 07 b7 lui	a5, 0xa0000
0x800003a8: 3e a7 8c 23 sb	a0, 0x3f8(a5)
0x800003ac: 00 00 80 67 ret
0x80000080: 00 14 45 03 lbu	a0, 1(s0)
0x80000084: 00 14 04 13 addi	s0, s0, 1
0x80000088: fe 05 1a e3 bnez	a0, -0xc
0x8000007c: 32 80 00 ef jal	0x328
0x800003a4: a0 00 07 b7 lui	a5, 0xa0000
0x800003a8: 3e a7 8c 23 sb	a0, 0x3f8(a5)
0x800003ac: 00 00 80 67 ret
0x80000080: 00 14 45 03 lbu	a0, 1(s0)
0x80000084: 00 14 04 13 addi	s0, s0, 1
0x80000088: fe 05 1a e3 bnez	a0, -0xc
0x8000007c: 32 80 00 ef jal	0x328
0x800003a4: a0 00 07 b7 lui	a5, 0xa0000
0x800003a8: 3e a7 8c 23 sb	a0, 0x3f8(a5)
0x800003ac: 00 00 80 67 ret
0x80000080: 00 14 45 03 lbu	a0, 1(s0)
0x80000084: 00 14 04 13 addi	s0, s0, 1
0x80000088: fe 05 1a e3 bnez	a0, -0xc
0x8000007c: 32 80 00 ef jal	0x328
0x800003a4: a0 00 07 b7 lui	a5, 0xa0000
0x800003a8: 3e a7 8c 23 sb	a0, 0x3f8(a5)
0x800003ac: 00 00 80 67 ret
0x80000080: 00 14 45 03 lbu	a0, 1(s0)
0x80000084: 00 14 04 13 addi	s0, s0, 1
0x80000088: fe 05 1a e3 bnez	a0, -0xc
0x8000007c: 32 80 00 ef jal	0x328
0x800003a4: a0 00 07 b7 lui	a5, 0xa0000
0x800003a8: 3e a7 8c 23 sb	a0, 0x3f8(a5)
0x800003ac: 00 00 80 67 ret
0x80000080: 00 14 45 03 lbu	a0, 1(s0)
0x80000084: 00 14 04 13 addi	s0, s0, 1
0x80000088: fe 05 1a e3 bnez	a0, -0xc
0x8000008c: 00 09 a5 03 lw	a0, 0(s3)
0x80000090: 03 05 05 13 addi	a0, a0, 0x30
0x80000094: 0f f5 75 13 andi	a0, a0, 0xff
0x80000098: 30 c0 00 ef jal	0x30c
0x800003a4: a0 00 07 b7 lui	a5, 0xa0000
0x800003a8: 3e a7 8c 23 sb	a0, 0x3f8(a5)
0x800003ac: 00 00 80 67 ret
0x8000009c: 00 a0 05 13 addi	a0, zero, 0xa
0x800000a0: 30 40 00 ef jal	0x304
0x800003a4: a0 00 07 b7 lui	a5, 0xa0000
0x800003a8: 3e a7 8c 23 sb	a0, 0x3f8(a5)
0x800003ac: 00 00 80 67 ret
0x800000a4: 00 09 27 83 lw	a5, 0(s2)
0x800000a8: 00 10 07 13 addi	a4, zero, 1
0x800000ac: 06 e7 84 63 beq	a5, a4, 0x68
0x800000b0: 00 40 07 13 addi	a4, zero, 4
0x800000b4: 04 f7 40 63 blt	a4, a5, 0x40
0x800000f4: 00 00 14 17 auipc	s0, 1
0x800000f8: 71 c4 04 13 addi	s0, s0, 0x71c
0x800000fc: 05 30 05 13 addi	a0, zero, 0x53
0x80000100: 2a 40 00 ef jal	0x2a4
0x800003a4: a0 00 07 b7 lui	a5, 0xa0000
0x800003a8: 3e a7 8c 23 sb	a0, 0x3f8(a5)
0x800003ac: 00 00 80 67 ret
0x80000104: 00 14 45 03 lbu	a0, 1(s0)
0x80000108: 00 14 04 13 addi	s0, s0, 1
0x8000010c: fe 05 1a e3 bnez	a0, -0xc
0x80000100: 2a 40 00 ef jal	0x2a4
0x800003a4: a0 00 07 b7 lui	a5, 0xa0000
0x800003a8: 3e a7 8c 23 sb	a0, 0x3f8(a5)
0x800003ac: 00 00 80 67 ret
0x80000104: 00 14 45 03 lbu	a0, 1(s0)
0x80000108: 00 14 04 13 addi	s0, s0, 1
0x8000010c: fe 05 1a e3 bnez	a0, -0xc
0x80000100: 2a 40 00 ef jal	0x2a4
0x800003a4: a0 00 07 b7 lui	a5, 0xa0000
0x800003a8: 3e a7 8c 23 sb	a0, 0x3f8(a5)
0x800003ac: 00 00 80 67 ret
0x80000104: 00 14 45 03 lbu	a0, 1(s0)
0x80000108: 00 14 04 13 addi	s0, s0, 1
0x8000010c: fe 05 1a e3 bnez	a0, -0xc
0x80000100: 2a 40 00 ef jal	0x2a4
0x800003a4: a0 00 07 b7 lui	a5, 0xa0000
0x800003a8: 3e a7 8c 23 sb	a0, 0x3f8(a5)
0x800003ac: 00 00 80 67 ret
0x80000104: 00 14 45 03 lbu	a0, 1(s0)
0x80000108: 00 14 04 13 addi	s0, s0, 1
0x8000010c: fe 05 1a e3 bnez	a0, -0xc
0x80000100: 2a 40 00 ef jal	0x2a4
0x800003a4: a0 00 07 b7 lui	a5, 0xa0000
0x800003a8: 3e a7 8c 23 sb	a0, 0x3f8(a5)
0x800003ac: 00 00 80 67 ret
0x80000104: 00 14 45 03 lbu	a0, 1(s0)
0x80000108: 00 14 04 13 addi	s0, s0, 1
0x8000010c: fe 05 1a e3 bnez	a0, -0xc
0x80000100: 2a 40 00 ef jal	0x2a4
0x800003a4: a0 00 07 b7 lui	a5, 0xa0000
0x800003a8: 3e a7 8c 23 sb	a0, 0x3f8(a5)
0x800003ac: 00 00 80 67 ret
0x80000104: 00 14 45 03 lbu	a0, 1(s0)
0x80000108: 00 14 04 13 addi	s0, s0, 1
0x8000010c: fe 05 1a e3 bnez	a0, -0xc
0x80000100: 2a 40 00 ef jal	0x2a4
0x800003a4: a0 00 07 b7 lui	a5, 0xa0000
0x800003a8: 3e a7 8c 23 sb	a0, 0x3f8(a5)
0x800003ac: 00 00 80 67 ret
0x80000104: 00 14 45 03 lbu	a0, 1(s0)
0x80000108: 00 14 04 13 addi	s0, s0, 1
0x8000010c: fe 05 1a e3 bnez	a0, -0xc
0x80000100: 2a 40 00 ef jal	0x2a4
0x800003a4: a0 00 07 b7 lui	a5, 0xa0000
0x800003a8: 3e a7 8c 23 sb	a0, 0x3f8(a5)
0x800003ac: 00 00 80 67 ret
0x80000104: 00 14 45 03 lbu	a0, 1(s0)
0x80000108: 00 14 04 13 addi	s0, s0, 1
0x8000010c: fe 05 1a e3 bnez	a0, -0xc
0x80000100: 2a 40 00 ef jal	0x2a4
0x800003a4: a0 00 07 b7 lui	a5, 0xa0000
0x800003a8: 3e a7 8c 23 sb	a0, 0x3f8(a5)
0x800003ac: 00 00 80 67 ret
0x80000104: 00 14 45 03 lbu	a0, 1(s0)
0x80000108: 00 14 04 13 addi	s0, s0, 1
0x8000010c: fe 05 1a e3 bnez	a0, -0xc
0x80000100: 2a 40 00 ef jal	0x2a4
0x800003a4: a0 00 07 b7 lui	a5, 0xa0000
0x800003a8: 3e a7 8c 23 sb	a0, 0x3f8(a5)
0x800003ac: 00 00 80 67 ret
0x80000104: 00 14 45 03 lbu	a0, 1(s0)
0x80000108: 00 14 04 13 addi	s0, s0, 1
0x8000010c: fe 05 1a e3 bnez	a0, -0xc
0x80000100: 2a 40 00 ef jal	0x2a4
0x800003a4: a0 00 07 b7 lui	a5, 0xa0000
0x800003a8: 3e a7 8c 23 sb	a0, 0x3f8(a5)
0x800003ac: 00 00 80 67 ret
0x80000104: 00 14 45 03 lbu	a0, 1(s0)
0x80000108: 00 14 04 13 addi	s0, s0, 1
0x8000010c: fe 05 1a e3 bnez	a0, -0xc
0x80000100: 2a 40 00 ef jal	0x2a4
0x800003a4: a0 00 07 b7 lui	a5, 0xa0000
0x800003a8: 3e a7 8c 23 sb	a0, 0x3f8(a5)
0x800003ac: 00 00 80 67 ret
0x80000104: 00 14 45 03 lbu	a0, 1(s0)
0x80000108: 00 14 04 13 addi	s0, s0, 1
0x8000010c: fe 05 1a e3 bnez	a0, -0xc
0x80000100: 2a 40 00 ef jal	0x2a4
0x800003a4: a0 00 07 b7 lui	a5, 0xa0000
0x800003a8: 3e a7 8c 23 sb	a0, 0x3f8(a5)
0x800003ac: 00 00 80 67 ret
0x80000104: 00 14 45 03 lbu	a0, 1(s0)
0x80000108: 00 14 04 13 addi	s0, s0, 1
0x8000010c: fe 05 1a e3 bnez	a0, -0xc
0x80000100: 2a 40 00 ef jal	0x2a4
0x800003a4: a0 00 07 b7 lui	a5, 0xa0000
0x800003a8: 3e a7 8c 23 sb	a0, 0x3f8(a5)
0x800003ac: 00 00 80 67 ret
0x80000104: 00 14 45 03 lbu	a0, 1(s0)
0x80000108: 00 14 04 13 addi	s0, s0, 1
0x8000010c: fe 05 1a e3 bnez	a0, -0xc
0x80000100: 2a 40 00 ef jal	0x2a4
0x800003a4: a0 00 07 b7 lui	a5, 0xa0000
0x800003a8: 3e a7 8c 23 sb	a0, 0x3f8(a5)
0x800003ac: 00 00 80 67 ret
0x80000104: 00 14 45 03 lbu	a0, 1(s0)
0x80000108: 00 14 04 13 addi	s0, s0, 1
0x8000010c: fe 05 1a e3 bnez	a0, -0xc
0x80000100: 2a 40 00 ef jal	0x2a4
0x800003a4: a0 00 07 b7 lui	a5, 0xa0000
0x800003a8: 3e a7 8c 23 sb	a0, 0x3f8(a5)
0x800003ac: 00 00 80 67 ret
0x80000104: 00 14 45 03 lbu	a0, 1(s0)
0x80000108: 00 14 04 13 addi	s0, s0, 1
0x8000010c: fe 05 1a e3 bnez	a0, -0xc
0x80000100: 2a 40 00 ef jal	0x2a4
0x800003a4: a0 00 07 b7 lui	a5, 0xa0000
0x800003a8: 3e a7 8c 23 sb	a0, 0x3f8(a5)
0x800003ac: 00 00 80 67 ret
0x80000104: 00 14 45 03 lbu	a0, 1(s0)
0x80000108: 00 14 04 13 addi	s0, s0, 1
0x8000010c: fe 05 1a e3 bnez	a0, -0xc
0x80000100: 2a 40 00 ef jal	0x2a4
0x800003a4: a0 00 07 b7 lui	a5, 0xa0000
0x800003a8: 3e a7 8c 23 sb	a0, 0x3f8(a5)
0x800003ac: 00 00 80 67 ret
0x80000104: 00 14 45 03 lbu	a0, 1(s0)
0x80000108: 00 14 04 13 addi	s0, s0, 1
0x8000010c: fe 05 1a e3 bnez	a0, -0xc
0x80000100: 2a 40 00 ef jal	0x2a4
0x800003a4: a0 00 07 b7 lui	a5, 0xa0000
0x800003a8: 3e a7 8c 23 sb	a0, 0x3f8(a5)
0x800003ac: 00 00 80 67 ret
0x80000104: 00 14 45 03 lbu	a0, 1(s0)
0x80000108: 00 14 04 13 addi	s0, s0, 1
0x8000010c: fe 05 1a e3 bnez	a0, -0xc
0x80000100: 2a 40 00 ef jal	0x2a4
0x800003a4: a0 00 07 b7 lui	a5, 0xa0000
0x800003a8: 3e a7 8c 23 sb	a0, 0x3f8(a5)
0x800003ac: 00 00 80 67 ret
0x80000104: 00 14 45 03 lbu	a0, 1(s0)
0x80000108: 00 14 04 13 addi	s0, s0, 1
0x8000010c: fe 05 1a e3 bnez	a0, -0xc
0x80000100: 2a 40 00 ef jal	0x2a4
0x800003a4: a0 00 07 b7 lui	a5, 0xa0000
0x800003a8: 3e a7 8c 23 sb	a0, 0x3f8(a5)
0x800003ac: 00 00 80 67 ret
0x80000104: 00 14 45 03 lbu	a0, 1(s0)
0x80000108: 00 14 04 13 addi	s0, s0, 1
0x8000010c: fe 05 1a e3 bnez	a0, -0xc
0x80000100: 2a 40 00 ef jal	0x2a4
0x800003a4: a0 00 07 b7 lui	a5, 0xa0000
0x800003a8: 3e a7 8c 23 sb	a0, 0x3f8(a5)
0x800003ac: 00 00 80 67 ret
0x80000104: 00 14 45 03 lbu	a0, 1(s0)
0x80000108: 00 14 04 13 addi	s0, s0, 1
0x8000010c: fe 05 1a e3 bnez	a0, -0xc
0x80000100: 2a 40 00 ef jal	0x2a4
0x800003a4: a0 00 07 b7 lui	a5, 0xa0000
0x800003a8: 3e a7 8c 23 sb	a0, 0x3f8(a5)
0x800003ac: 00 00 80 67 ret
0x80000104: 00 14 45 03 lbu	a0, 1(s0)
0x80000108: 00 14 04 13 addi	s0, s0, 1
0x8000010c: fe 05 1a e3 bnez	a0, -0xc
0x80000100: 2a 40 00 ef jal	0x2a4
0x800003a4: a0 00 07 b7 lui	a5, 0xa0000
0x800003a8: 3e a7 8c 23 sb	a0, 0x3f8(a5)
0x800003ac: 00 00 80 67 ret
0x80000104: 00 14 45 03 lbu	a0, 1(s0)
0x80000108: 00 14 04 13 addi	s0, s0, 1
0x8000010c: fe 05 1a e3 bnez	a0, -0xc
0x80000100: 2a 40 00 ef jal	0x2a4
0x800003a4: a0 00 07 b7 lui	a5, 0xa0000
0x800003a8: 3e a7 8c 23 sb	a0, 0x3f8(a5)
0x800003ac: 00 00 80 67 ret
0x80000104: 00 14 45 03 lbu	a0, 1(s0)
0x80000108: 00 14 04 13 addi	s0, s0, 1
0x8000010c: fe 05 1a e3 bnez	a0, -0xc
0x80000100: 2a 40 00 ef jal	0x2a4
0x800003a4: a0 00 07 b7 lui	a5, 0xa0000
0x800003a8: 3e a7 8c 23 sb	a0, 0x3f8(a5)
0x800003ac: 00 00 80 67 ret
0x80000104: 00 14 45 03 lbu	a0, 1(s0)
0x80000108: 00 14 04 13 addi	s0, s0, 1
0x8000010c: fe 05 1a e3 bnez	a0, -0xc
0x80000100: 2a 40 00 ef jal	0x2a4
0x800003a4: a0 00 07 b7 lui	a5, 0xa0000
0x800003a8: 3e a7 8c 23 sb	a0, 0x3f8(a5)
0x800003ac: 00 00 80 67 ret
0x80000104: 00 14 45 03 lbu	a0, 1(s0)
0x80000108: 00 14 04 13 addi	s0, s0, 1
0x8000010c: fe 05 1a e3 bnez	a0, -0xc
0x80000110: fc 5f f0 6f j	-0x3c
0x800000d4: 01 c1 20 83 lw	ra, 0x1c(sp)
0x800000d8: 01 81 24 03 lw	s0, 0x18(sp)
0x800000dc: 01 01 29 03 lw	s2, 0x10(sp)
0x800000e0: 00 c1 29 83 lw	s3, 0xc(sp)
0x800000e4: 00 04 85 13 mv	a0, s1
0x800000e8: 01 41 24 83 lw	s1, 0x14(sp)
0x800000ec: 02 01 01 13 addi	sp, sp, 0x20
0x800000f0: 00 00 80 67 ret
0x80000434: 00 05 0e 63 beqz	a0, 0x1c
0x80000438: 02 c1 20 83 lw	ra, 0x2c(sp)
0x8000043c: 03 01 01 13 addi	sp, sp, 0x30
0x80000440: 00 00 80 67 ret
0x80000628: 00 05 01 13 mv	sp, a0
0x8000062c: 08 41 23 03 lw	t1, 0x84(sp)
0x80000630: 08 81 23 83 lw	t2, 0x88(sp)
0x80000634: 30 03 10 73 csrw	mstatus, t1
0x80000638: 34 13 90 73 csrw	mepc, t2
0x8000063c: 00 41 20 83 lw	ra, 4(sp)
0x80000640: 00 c1 21 83 lw	gp, 0xc(sp)
0x80000644: 01 01 22 03 lw	tp, 0x10(sp)
0x80000648: 01 41 22 83 lw	t0, 0x14(sp)
0x8000064c: 01 81 23 03 lw	t1, 0x18(sp)
0x80000650: 01 c1 23 83 lw	t2, 0x1c(sp)
0x80000654: 02 01 24 03 lw	s0, 0x20(sp)
0x80000658: 02 41 24 83 lw	s1, 0x24(sp)
0x8000065c: 02 81 25 03 lw	a0, 0x28(sp)
0x80000660: 02 c1 25 83 lw	a1, 0x2c(sp)
0x80000664: 03 01 26 03 lw	a2, 0x30(sp)
0x80000668: 03 41 26 83 lw	a3, 0x34(sp)
0x8000066c: 03 81 27 03 lw	a4, 0x38(sp)
0x80000670: 03 c1 27 83 lw	a5, 0x3c(sp)
0x80000674: 04 01 28 03 lw	a6, 0x40(sp)
0x80000678: 04 41 28 83 lw	a7, 0x44(sp)
0x8000067c: 04 81 29 03 lw	s2, 0x48(sp)
0x80000680: 04 c1 29 83 lw	s3, 0x4c(sp)
0x80000684: 05 01 2a 03 lw	s4, 0x50(sp)
0x80000688: 05 41 2a 83 lw	s5, 0x54(sp)
0x8000068c: 05 81 2b 03 lw	s6, 0x58(sp)
0x80000690: 05 c1 2b 83 lw	s7, 0x5c(sp)
0x80000694: 06 01 2c 03 lw	s8, 0x60(sp)
0x80000698: 06 41 2c 83 lw	s9, 0x64(sp)
0x8000069c: 06 81 2d 03 lw	s10, 0x68(sp)
0x800006a0: 06 c1 2d 83 lw	s11, 0x6c(sp)
0x800006a4: 07 01 2e 03 lw	t3, 0x70(sp)
0x800006a8: 07 41 2e 83 lw	t4, 0x74(sp)
0x800006ac: 07 81 2f 03 lw	t5, 0x78(sp)
0x800006b0: 07 c1 2f 83 lw	t6, 0x7c(sp)
0x800006b4: 08 c1 01 13 addi	sp, sp, 0x8c
0x800006b8: 30 20 00 73 mret
0x8000050c: 00 00 00 73 ecall
0x80000580: f7 41 01 13 addi	sp, sp, -0x8c
0x80000584: 00 11 22 23 sw	ra, 4(sp)
0x80000588: 00 31 26 23 sw	gp, 0xc(sp)
0x8000058c: 00 41 28 23 sw	tp, 0x10(sp)
0x80000590: 00 51 2a 23 sw	t0, 0x14(sp)
0x80000594: 00 61 2c 23 sw	t1, 0x18(sp)
0x80000598: 00 71 2e 23 sw	t2, 0x1c(sp)
0x8000059c: 02 81 20 23 sw	s0, 0x20(sp)
0x800005a0: 02 91 22 23 sw	s1, 0x24(sp)
0x800005a4: 02 a1 24 23 sw	a0, 0x28(sp)
0x800005a8: 02 b1 26 23 sw	a1, 0x2c(sp)
0x800005ac: 02 c1 28 23 sw	a2, 0x30(sp)
0x800005b0: 02 d1 2a 23 sw	a3, 0x34(sp)
0x800005b4: 02 e1 2c 23 sw	a4, 0x38(sp)
0x800005b8: 02 f1 2e 23 sw	a5, 0x3c(sp)
0x800005bc: 05 01 20 23 sw	a6, 0x40(sp)
0x800005c0: 05 11 22 23 sw	a7, 0x44(sp)
0x800005c4: 05 21 24 23 sw	s2, 0x48(sp)
0x800005c8: 05 31 26 23 sw	s3, 0x4c(sp)
0x800005cc: 05 41 28 23 sw	s4, 0x50(sp)
0x800005d0: 05 51 2a 23 sw	s5, 0x54(sp)
0x800005d4: 05 61 2c 23 sw	s6, 0x58(sp)
0x800005d8: 05 71 2e 23 sw	s7, 0x5c(sp)
0x800005dc: 07 81 20 23 sw	s8, 0x60(sp)
0x800005e0: 07 91 22 23 sw	s9, 0x64(sp)
0x800005e4: 07 a1 24 23 sw	s10, 0x68(sp)
0x800005e8: 07 b1 26 23 sw	s11, 0x6c(sp)
0x800005ec: 07 c1 28 23 sw	t3, 0x70(sp)
0x800005f0: 07 d1 2a 23 sw	t4, 0x74(sp)
0x800005f4: 07 e1 2c 23 sw	t5, 0x78(sp)
0x800005f8: 07 f1 2e 23 sw	t6, 0x7c(sp)
0x800005fc: 34 20 22 f3 csrr	t0, mcause
0x80000600: 30 00 23 73 csrr	t1, mstatus
0x80000604: 34 10 23 f3 csrr	t2, mepc
0x80000608: 08 51 20 23 sw	t0, 0x80(sp)
0x8000060c: 08 61 22 23 sw	t1, 0x84(sp)
0x80000610: 08 71 24 23 sw	t2, 0x88(sp)
0x80000614: 00 02 05 37 lui	a0, 0x20
0x80000618: 00 a3 63 33 or	t1, t1, a0
0x8000061c: 30 03 10 73 csrw	mstatus, t1
0x80000620: 00 01 05 13 mv	a0, sp
0x80000624: db 9f f0 ef jal	-0x248
0x800003dc: 00 00 37 97 auipc	a5, 3
0x800003e0: a0 c7 a7 83 lw	a5, -0x5f4(a5)
0x800003e4: 00 05 05 93 mv	a1, a0
0x800003e8: 06 07 82 63 beqz	a5, 0x64
0x800003ec: 08 05 26 03 lw	a2, 0x80(a0)
0x800003f0: fd 01 01 13 addi	sp, sp, -0x30
0x800003f4: 02 11 26 23 sw	ra, 0x2c(sp)
0x800003f8: 00 01 2a 23 sw	zero, 0x14(sp)
0x800003fc: 00 01 2c 23 sw	zero, 0x18(sp)
0x80000400: 00 01 2e 23 sw	zero, 0x1c(sp)
0x80000404: 00 b0 06 93 addi	a3, zero, 0xb
0x80000408: 00 40 07 13 addi	a4, zero, 4
0x8000040c: 02 d6 0c 63 beq	a2, a3, 0x38
0x80000444: 00 10 07 13 addi	a4, zero, 1
0x80000448: fc 9f f0 6f j	-0x38
0x80000410: 00 e1 20 23 sw	a4, 0(sp)
0x80000414: 01 41 27 03 lw	a4, 0x14(sp)
0x80000418: 00 01 05 13 mv	a0, sp
0x8000041c: 00 e1 22 23 sw	a4, 4(sp)
0x80000420: 01 81 27 03 lw	a4, 0x18(sp)
0x80000424: 00 e1 24 23 sw	a4, 8(sp)
0x80000428: 01 c1 27 03 lw	a4, 0x1c(sp)
0x8000042c: 00 e1 26 23 sw	a4, 0xc(sp)
0x80000430: 00 07 80 e7 jalr	a5
0x80000010: fe 01 01 13 addi	sp, sp, -0x20
0x80000014: 01 21 28 23 sw	s2, 0x10(sp)
0x80000018: 00 00 39 17 auipc	s2, 3
0x8000001c: dc 89 09 13 addi	s2, s2, -0x238
0x80000020: 00 09 27 83 lw	a5, 0(s2)
0x80000024: 00 81 2c 23 sw	s0, 0x18(sp)
0x80000028: 00 91 2a 23 sw	s1, 0x14(sp)
0x8000002c: 01 31 26 23 sw	s3, 0xc(sp)
0x80000030: 00 11 2e 23 sw	ra, 0x1c(sp)
0x80000034: 00 17 87 93 addi	a5, a5, 1
0x80000038: 00 05 09 93 mv	s3, a0
0x8000003c: 00 05 84 93 mv	s1, a1
0x80000040: 00 f9 20 23 sw	a5, 0(s2)
0x80000044: 00 00 14 17 auipc	s0, 1
0x80000048: 77 44 04 13 addi	s0, s0, 0x774
0x8000004c: 05 30 05 13 addi	a0, zero, 0x53
0x80000050: 35 40 00 ef jal	0x354
0x800003a4: a0 00 07 b7 lui	a5, 0xa0000
0x800003a8: 3e a7 8c 23 sb	a0, 0x3f8(a5)
0x800003ac: 00 00 80 67 ret
0x80000054: 00 14 45 03 lbu	a0, 1(s0)
0x80000058: 00 14 04 13 addi	s0, s0, 1
0x8000005c: fe 05 1a e3 bnez	a0, -0xc
0x80000050: 35 40 00 ef jal	0x354
0x800003a4: a0 00 07 b7 lui	a5, 0xa0000
0x800003a8: 3e a7 8c 23 sb	a0, 0x3f8(a5)
0x800003ac: 00 00 80 67 ret
0x80000054: 00 14 45 03 lbu	a0, 1(s0)
0x80000058: 00 14 04 13 addi	s0, s0, 1
0x8000005c: fe 05 1a e3 bnez	a0, -0xc
0x80000050: 35 40 00 ef jal	0x354
0x800003a4: a0 00 07 b7 lui	a5, 0xa0000
0x800003a8: 3e a7 8c 23 sb	a0, 0x3f8(a5)
0x800003ac: 00 00 80 67 ret
0x80000054: 00 14 45 03 lbu	a0, 1(s0)
0x80000058: 00 14 04 13 addi	s0, s0, 1
0x8000005c: fe 05 1a e3 bnez	a0, -0xc
0x80000050: 35 40 00 ef jal	0x354
0x800003a4: a0 00 07 b7 lui	a5, 0xa0000
0x800003a8: 3e a7 8c 23 sb	a0, 0x3f8(a5)
0x800003ac: 00 00 80 67 ret
0x80000054: 00 14 45 03 lbu	a0, 1(s0)
0x80000058: 00 14 04 13 addi	s0, s0, 1
0x8000005c: fe 05 1a e3 bnez	a0, -0xc
0x80000050: 35 40 00 ef jal	0x354
0x800003a4: a0 00 07 b7 lui	a5, 0xa0000
0x800003a8: 3e a7 8c 23 sb	a0, 0x3f8(a5)
0x800003ac: 00 00 80 67 ret
0x80000054: 00 14 45 03 lbu	a0, 1(s0)
0x80000058: 00 14 04 13 addi	s0, s0, 1
0x8000005c: fe 05 1a e3 bnez	a0, -0xc
0x80000050: 35 40 00 ef jal	0x354
0x800003a4: a0 00 07 b7 lui	a5, 0xa0000
0x800003a8: 3e a7 8c 23 sb	a0, 0x3f8(a5)
0x800003ac: 00 00 80 67 ret
0x80000054: 00 14 45 03 lbu	a0, 1(s0)
0x80000058: 00 14 04 13 addi	s0, s0, 1
0x8000005c: fe 05 1a e3 bnez	a0, -0xc
0x80000050: 35 40 00 ef jal	0x354
0x800003a4: a0 00 07 b7 lui	a5, 0xa0000
0x800003a8: 3e a7 8c 23 sb	a0, 0x3f8(a5)
0x800003ac: 00 00 80 67 ret
0x80000054: 00 14 45 03 lbu	a0, 1(s0)
0x80000058: 00 14 04 13 addi	s0, s0, 1
0x8000005c: fe 05 1a e3 bnez	a0, -0xc
0x80000050: 35 40 00 ef jal	0x354
0x800003a4: a0 00 07 b7 lui	a5, 0xa0000
0x800003a8: 3e a7 8c 23 sb	a0, 0x3f8(a5)
0x800003ac: 00 00 80 67 ret
0x80000054: 00 14 45 03 lbu	a0, 1(s0)
0x80000058: 00 14 04 13 addi	s0, s0, 1
0x8000005c: fe 05 1a e3 bnez	a0, -0xc
0x80000050: 35 40 00 ef jal	0x354
0x800003a4: a0 00 07 b7 lui	a5, 0xa0000
0x800003a8: 3e a7 8c 23 sb	a0, 0x3f8(a5)
0x800003ac: 00 00 80 67 ret
0x80000054: 00 14 45 03 lbu	a0, 1(s0)
0x80000058: 00 14 04 13 addi	s0, s0, 1
0x8000005c: fe 05 1a e3 bnez	a0, -0xc
0x80000050: 35 40 00 ef jal	0x354
0x800003a4: a0 00 07 b7 lui	a5, 0xa0000
0x800003a8: 3e a7 8c 23 sb	a0, 0x3f8(a5)
0x800003ac: 00 00 80 67 ret
0x80000054: 00 14 45 03 lbu	a0, 1(s0)
0x80000058: 00 14 04 13 addi	s0, s0, 1
0x8000005c: fe 05 1a e3 bnez	a0, -0xc
0x80000050: 35 40 00 ef jal	0x354
0x800003a4: a0 00 07 b7 lui	a5, 0xa0000
0x800003a8: 3e a7 8c 23 sb	a0, 0x3f8(a5)
0x800003ac: 00 00 80 67 ret
0x80000054: 00 14 45 03 lbu	a0, 1(s0)
0x80000058: 00 14 04 13 addi	s0, s0, 1
0x8000005c: fe 05 1a e3 bnez	a0, -0xc
0x80000050: 35 40 00 ef jal	0x354
0x800003a4: a0 00 07 b7 lui	a5, 0xa0000
0x800003a8: 3e a7 8c 23 sb	a0, 0x3f8(a5)
0x800003ac: 00 00 80 67 ret
0x80000054: 00 14 45 03 lbu	a0, 1(s0)
0x80000058: 00 14 04 13 addi	s0, s0, 1
0x8000005c: fe 05 1a e3 bnez	a0, -0xc
0x80000050: 35 40 00 ef jal	0x354
0x800003a4: a0 00 07 b7 lui	a5, 0xa0000
0x800003a8: 3e a7 8c 23 sb	a0, 0x3f8(a5)
0x800003ac: 00 00 80 67 ret
0x80000054: 00 14 45 03 lbu	a0, 1(s0)
0x80000058: 00 14 04 13 addi	s0, s0, 1
0x8000005c: fe 05 1a e3 bnez	a0, -0xc
0x80000050: 35 40 00 ef jal	0x354
0x800003a4: a0 00 07 b7 lui	a5, 0xa0000
0x800003a8: 3e a7 8c 23 sb	a0, 0x3f8(a5)
0x800003ac: 00 00 80 67 ret
0x80000054: 00 14 45 03 lbu	a0, 1(s0)
0x80000058: 00 14 04 13 addi	s0, s0, 1
0x8000005c: fe 05 1a e3 bnez	a0, -0xc
0x80000050: 35 40 00 ef jal	0x354
0x800003a4: a0 00 07 b7 lui	a5, 0xa0000
0x800003a8: 3e a7 8c 23 sb	a0, 0x3f8(a5)
0x800003ac: 00 00 80 67 ret
0x80000054: 00 14 45 03 lbu	a0, 1(s0)
0x80000058: 00 14 04 13 addi	s0, s0, 1
0x8000005c: fe 05 1a e3 bnez	a0, -0xc
0x80000050: 35 40 00 ef jal	0x354
0x800003a4: a0 00 07 b7 lui	a5, 0xa0000
0x800003a8: 3e a7 8c 23 sb	a0, 0x3f8(a5)
0x800003ac: 00 00 80 67 ret
0x80000054: 00 14 45 03 lbu	a0, 1(s0)
0x80000058: 00 14 04 13 addi	s0, s0, 1
0x8000005c: fe 05 1a e3 bnez	a0, -0xc
0x80000050: 35 40 00 ef jal	0x354
0x800003a4: a0 00 07 b7 lui	a5, 0xa0000
0x800003a8: 3e a7 8c 23 sb	a0, 0x3f8(a5)
0x800003ac: 00 00 80 67 ret
0x80000054: 00 14 45 03 lbu	a0, 1(s0)
0x80000058: 00 14 04 13 addi	s0, s0, 1
0x8000005c: fe 05 1a e3 bnez	a0, -0xc
0x80000060: 00 09 25 03 lw	a0, 0(s2)
0x80000064: 00 00 14 17 auipc	s0, 1
0x80000068: 76 84 04 13 addi	s0, s0, 0x768
0x8000006c: 03 05 05 13 addi	a0, a0, 0x30
0x80000070: 0f f5 75 13 andi	a0, a0, 0xff
0x80000074: 33 00 00 ef jal	0x330
0x800003a4: a0 00 07 b7 lui	a5, 0xa0000
0x800003a8: 3e a7 8c 23 sb	a0, 0x3f8(a5)
0x800003ac: 00 00 80 67 ret
0x80000078: 02 c0 05 13 addi	a0, zero, 0x2c
0x8000007c: 32 80 00 ef jal	0x328
0x800003a4: a0 00 07 b7 lui	a5, 0xa0000
0x800003a8: 3e a7 8c 23 sb	a0, 0x3f8(a5)
0x800003ac: 00 00 80 67 ret
0x80000080: 00 14 45 03 lbu	a0, 1(s0)
0x80000084: 00 14 04 13 addi	s0, s0, 1
0x80000088: fe 05 1a e3 bnez	a0, -0xc
0x8000007c: 32 80 00 ef jal	0x328
0x800003a4: a0 00 07 b7 lui	a5, 0xa0000
0x800003a8: 3e a7 8c 23 sb	a0, 0x3f8(a5)
0x800003ac: 00 00 80 67 ret
0x80000080: 00 14 45 03 lbu	a0, 1(s0)
0x80000084: 00 14 04 13 addi	s0, s0, 1
0x80000088: fe 05 1a e3 bnez	a0, -0xc
0x8000007c: 32 80 00 ef jal	0x328
0x800003a4: a0 00 07 b7 lui	a5, 0xa0000
0x800003a8: 3e a7 8c 23 sb	a0, 0x3f8(a5)
0x800003ac: 00 00 80 67 ret
0x80000080: 00 14 45 03 lbu	a0, 1(s0)
0x80000084: 00 14 04 13 addi	s0, s0, 1
0x80000088: fe 05 1a e3 bnez	a0, -0xc
0x8000007c: 32 80 00 ef jal	0x328
0x800003a4: a0 00 07 b7 lui	a5, 0xa0000
0x800003a8: 3e a7 8c 23 sb	a0, 0x3f8(a5)
0x800003ac: 00 00 80 67 ret
0x80000080: 00 14 45 03 lbu	a0, 1(s0)
0x80000084: 00 14 04 13 addi	s0, s0, 1
0x80000088: fe 05 1a e3 bnez	a0, -0xc
0x8000007c: 32 80 00 ef jal	0x328
0x800003a4: a0 00 07 b7 lui	a5, 0xa0000
0x800003a8: 3e a7 8c 23 sb	a0, 0x3f8(a5)
0x800003ac: 00 00 80 67 ret
0x80000080: 00 14 45 03 lbu	a0, 1(s0)
0x80000084: 00 14 04 13 addi	s0, s0, 1
0x80000088: fe 05 1a e3 bnez	a0, -0xc
0x8000007c: 32 80 00 ef jal	0x328
0x800003a4: a0 00 07 b7 lui	a5, 0xa0000
0x800003a8: 3e a7 8c 23 sb	a0, 0x3f8(a5)
0x800003ac: 00 00 80 67 ret
0x80000080: 00 14 45 03 lbu	a0, 1(s0)
0x80000084: 00 14 04 13 addi	s0, s0, 1
0x80000088: fe 05 1a e3 bnez	a0, -0xc
0x8000007c: 32 80 00 ef jal	0x328
0x800003a4: a0 00 07 b7 lui	a5, 0xa0000
0x800003a8: 3e a7 8c 23 sb	a0, 0x3f8(a5)
0x800003ac: 00 00 80 67 ret
0x80000080: 00 14 45 03 lbu	a0, 1(s0)
0x80000084: 00 14 04 13 addi	s0, s0, 1
0x80000088: fe 05 1a e3 bnez	a0, -0xc
0x8000007c: 32 80 00 ef jal	0x328
0x800003a4: a0 00 07 b7 lui	a5, 0xa0000
0x800003a8: 3e a7 8c 23 sb	a0, 0x3f8(a5)
0x800003ac: 00 00 80 67 ret
0x80000080: 00 14 45 03 lbu	a0, 1(s0)
0x80000084: 00 14 04 13 addi	s0, s0, 1
0x80000088: fe 05 1a e3 bnez	a0, -0xc
0x8000007c: 32 80 00 ef jal	0x328
0x800003a4: a0 00 07 b7 lui	a5, 0xa0000
0x800003a8: 3e a7 8c 23 sb	a0, 0x3f8(a5)
0x800003ac: 00 00 80 67 ret
0x80000080: 00 14 45 03 lbu	a0, 1(s0)
0x80000084: 00 14 04 13 addi	s0, s0, 1
0x80000088: fe 05 1a e3 bnez	a0, -0xc
0x8000008c: 00 09 a5 03 lw	a0, 0(s3)
0x80000090: 03 05 05 13 addi	a0, a0, 0x30
0x80000094: 0f f5 75 13 andi	a0, a0, 0xff
0x80000098: 30 c0 00 ef jal	0x30c
0x800003a4: a0 00 07 b7 lui	a5, 0xa0000
0x800003a8: 3e a7 8c 23 sb	a0, 0x3f8(a5)
0x800003ac: 00 00 80 67 ret
0x8000009c: 00 a0 05 13 addi	a0, zero, 0xa
0x800000a0: 30 40 00 ef jal	0x304
0x800003a4: a0 00 07 b7 lui	a5, 0xa0000
0x800003a8: 3e a7 8c 23 sb	a0, 0x3f8(a5)
0x800003ac: 00 00 80 67 ret
0x800000a4: 00 09 27 83 lw	a5, 0(s2)
0x800000a8: 00 10 07 13 addi	a4, zero, 1
0x800000ac: 06 e7 84 63 beq	a5, a4, 0x68
0x800000b0: 00 40 07 13 addi	a4, zero, 4
0x800000b4: 04 f7 40 63 blt	a4, a5, 0x40
0x800000f4: 00 00 14 17 auipc	s0, 1
0x800000f8: 71 c4 04 13 addi	s0, s0, 0x71c
0x800000fc: 05 30 05 13 addi	a0, zero, 0x53
0x80000100: 2a 40 00 ef jal	0x2a4
0x800003a4: a0 00 07 b7 lui	a5, 0xa0000
0x800003a8: 3e a7 8c 23 sb	a0, 0x3f8(a5)
0x800003ac: 00 00 80 67 ret
0x80000104: 00 14 45 03 lbu	a0, 1(s0)
0x80000108: 00 14 04 13 addi	s0, s0, 1
0x8000010c: fe 05 1a e3 bnez	a0, -0xc
0x80000100: 2a 40 00 ef jal	0x2a4
0x800003a4: a0 00 07 b7 lui	a5, 0xa0000
0x800003a8: 3e a7 8c 23 sb	a0, 0x3f8(a5)
0x800003ac: 00 00 80 67 ret
0x80000104: 00 14 45 03 lbu	a0, 1(s0)
0x80000108: 00 14 04 13 addi	s0, s0, 1
0x8000010c: fe 05 1a e3 bnez	a0, -0xc
0x80000100: 2a 40 00 ef jal	0x2a4
0x800003a4: a0 00 07 b7 lui	a5, 0xa0000
0x800003a8: 3e a7 8c 23 sb	a0, 0x3f8(a5)
0x800003ac: 00 00 80 67 ret
0x80000104: 00 14 45 03 lbu	a0, 1(s0)
0x80000108: 00 14 04 13 addi	s0, s0, 1
0x8000010c: fe 05 1a e3 bnez	a0, -0xc
0x80000100: 2a 40 00 ef jal	0x2a4
0x800003a4: a0 00 07 b7 lui	a5, 0xa0000
0x800003a8: 3e a7 8c 23 sb	a0, 0x3f8(a5)
0x800003ac: 00 00 80 67 ret
0x80000104: 00 14 45 03 lbu	a0, 1(s0)
0x80000108: 00 14 04 13 addi	s0, s0, 1
0x8000010c: fe 05 1a e3 bnez	a0, -0xc
0x80000100: 2a 40 00 ef jal	0x2a4
0x800003a4: a0 00 07 b7 lui	a5, 0xa0000
0x800003a8: 3e a7 8c 23 sb	a0, 0x3f8(a5)
0x800003ac: 00 00 80 67 ret
0x80000104: 00 14 45 03 lbu	a0, 1(s0)
0x80000108: 00 14 04 13 addi	s0, s0, 1
0x8000010c: fe 05 1a e3 bnez	a0, -0xc
0x80000100: 2a 40 00 ef jal	0x2a4
0x800003a4: a0 00 07 b7 lui	a5, 0xa0000
0x800003a8: 3e a7 8c 23 sb	a0, 0x3f8(a5)
0x800003ac: 00 00 80 67 ret
0x80000104: 00 14 45 03 lbu	a0, 1(s0)
0x80000108: 00 14 04 13 addi	s0, s0, 1
0x8000010c: fe 05 1a e3 bnez	a0, -0xc
0x80000100: 2a 40 00 ef jal	0x2a4
0x800003a4: a0 00 07 b7 lui	a5, 0xa0000
0x800003a8: 3e a7 8c 23 sb	a0, 0x3f8(a5)
0x800003ac: 00 00 80 67 ret
0x80000104: 00 14 45 03 lbu	a0, 1(s0)
0x80000108: 00 14 04 13 addi	s0, s0, 1
0x8000010c: fe 05 1a e3 bnez	a0, -0xc
0x80000100: 2a 40 00 ef jal	0x2a4
0x800003a4: a0 00 07 b7 lui	a5, 0xa0000
0x800003a8: 3e a7 8c 23 sb	a0, 0x3f8(a5)
0x800003ac: 00 00 80 67 ret
0x80000104: 00 14 45 03 lbu	a0, 1(s0)
0x80000108: 00 14 04 13 addi	s0, s0, 1
0x8000010c: fe 05 1a e3 bnez	a0, -0xc
0x80000100: 2a 40 00 ef jal	0x2a4
0x800003a4: a0 00 07 b7 lui	a5, 0xa0000
0x800003a8: 3e a7 8c 23 sb	a0, 0x3f8(a5)
0x800003ac: 00 00 80 67 ret
0x80000104: 00 14 45 03 lbu	a0, 1(s0)
0x80000108: 00 14 04 13 addi	s0, s0, 1
0x8000010c: fe 05 1a e3 bnez	a0, -0xc
0x80000100: 2a 40 00 ef jal	0x2a4
0x800003a4: a0 00 07 b7 lui	a5, 0xa0000
0x800003a8: 3e a7 8c 23 sb	a0, 0x3f8(a5)
0x800003ac: 00 00 80 67 ret
0x80000104: 00 14 45 03 lbu	a0, 1(s0)
0x80000108: 00 14 04 13 addi	s0, s0, 1
0x8000010c: fe 05 1a e3 bnez	a0, -0xc
0x80000100: 2a 40 00 ef jal	0x2a4
0x800003a4: a0 00 07 b7 lui	a5, 0xa0000
0x800003a8: 3e a7 8c 23 sb	a0, 0x3f8(a5)
0x800003ac: 00 00 80 67 ret
0x80000104: 00 14 45 03 lbu	a0, 1(s0)
0x80000108: 00 14 04 13 addi	s0, s0, 1
0x8000010c: fe 05 1a e3 bnez	a0, -0xc
0x80000100: 2a 40 00 ef jal	0x2a4
0x800003a4: a0 00 07 b7 lui	a5, 0xa0000
0x800003a8: 3e a7 8c 23 sb	a0, 0x3f8(a5)
0x800003ac: 00 00 80 67 ret
0x80000104: 00 14 45 03 lbu	a0, 1(s0)
0x80000108: 00 14 04 13 addi	s0, s0, 1
0x8000010c: fe 05 1a e3 bnez	a0, -0xc
0x80000100: 2a 40 00 ef jal	0x2a4
0x800003a4: a0 00 07 b7 lui	a5, 0xa0000
0x800003a8: 3e a7 8c 23 sb	a0, 0x3f8(a5)
0x800003ac: 00 00 80 67 ret
0x80000104: 00 14 45 03 lbu	a0, 1(s0)
0x80000108: 00 14 04 13 addi	s0, s0, 1
0x8000010c: fe 05 1a e3 bnez	a0, -0xc
0x80000100: 2a 40 00 ef jal	0x2a4
0x800003a4: a0 00 07 b7 lui	a5, 0xa0000
0x800003a8: 3e a7 8c 23 sb	a0, 0x3f8(a5)
0x800003ac: 00 00 80 67 ret
0x80000104: 00 14 45 03 lbu	a0, 1(s0)
0x80000108: 00 14 04 13 addi	s0, s0, 1
0x8000010c: fe 05 1a e3 bnez	a0, -0xc
0x80000100: 2a 40 00 ef jal	0x2a4
0x800003a4: a0 00 07 b7 lui	a5, 0xa0000
0x800003a8: 3e a7 8c 23 sb	a0, 0x3f8(a5)
0x800003ac: 00 00 80 67 ret
0x80000104: 00 14 45 03 lbu	a0, 1(s0)
0x80000108: 00 14 04 13 addi	s0, s0, 1
0x8000010c: fe 05 1a e3 bnez	a0, -0xc
0x80000100: 2a 40 00 ef jal	0x2a4
0x800003a4: a0 00 07 b7 lui	a5, 0xa0000
0x800003a8: 3e a7 8c 23 sb	a0, 0x3f8(a5)
0x800003ac: 00 00 80 67 ret
0x80000104: 00 14 45 03 lbu	a0, 1(s0)
0x80000108: 00 14 04 13 addi	s0, s0, 1
0x8000010c: fe 05 1a e3 bnez	a0, -0xc
0x80000100: 2a 40 00 ef jal	0x2a4
0x800003a4: a0 00 07 b7 lui	a5, 0xa0000
0x800003a8: 3e a7 8c 23 sb	a0, 0x3f8(a5)
0x800003ac: 00 00 80 67 ret
0x80000104: 00 14 45 03 lbu	a0, 1(s0)
0x80000108: 00 14 04 13 addi	s0, s0, 1
0x8000010c: fe 05 1a e3 bnez	a0, -0xc
0x80000100: 2a 40 00 ef jal	0x2a4
0x800003a4: a0 00 07 b7 lui	a5, 0xa0000
0x800003a8: 3e a7 8c 23 sb	a0, 0x3f8(a5)
0x800003ac: 00 00 80 67 ret
0x80000104: 00 14 45 03 lbu	a0, 1(s0)
0x80000108: 00 14 04 13 addi	s0, s0, 1
0x8000010c: fe 05 1a e3 bnez	a0, -0xc
0x80000100: 2a 40 00 ef jal	0x2a4
0x800003a4: a0 00 07 b7 lui	a5, 0xa0000
0x800003a8: 3e a7 8c 23 sb	a0, 0x3f8(a5)
0x800003ac: 00 00 80 67 ret
0x80000104: 00 14 45 03 lbu	a0, 1(s0)
0x80000108: 00 14 04 13 addi	s0, s0, 1
0x8000010c: fe 05 1a e3 bnez	a0, -0xc
0x80000100: 2a 40 00 ef jal	0x2a4
0x800003a4: a0 00 07 b7 lui	a5, 0xa0000
0x800003a8: 3e a7 8c 23 sb	a0, 0x3f8(a5)
0x800003ac: 00 00 80 67 ret
0x80000104: 00 14 45 03 lbu	a0, 1(s0)
0x80000108: 00 14 04 13 addi	s0, s0, 1
0x8000010c: fe 05 1a e3 bnez	a0, -0xc
0x80000100: 2a 40 00 ef jal	0x2a4
0x800003a4: a0 00 07 b7 lui	a5, 0xa0000
0x800003a8: 3e a7 8c 23 sb	a0, 0x3f8(a5)
0x800003ac: 00 00 80 67 ret
0x80000104: 00 14 45 03 lbu	a0, 1(s0)
0x80000108: 00 14 04 13 addi	s0, s0, 1
0x8000010c: fe 05 1a e3 bnez	a0, -0xc
0x80000100: 2a 40 00 ef jal	0x2a4
0x800003a4: a0 00 07 b7 lui	a5, 0xa0000
0x800003a8: 3e a7 8c 23 sb	a0, 0x3f8(a5)
0x800003ac: 00 00 80 67 ret
0x80000104: 00 14 45 03 lbu	a0, 1(s0)
0x80000108: 00 14 04 13 addi	s0, s0, 1
0x8000010c: fe 05 1a e3 bnez	a0, -0xc
0x80000100: 2a 40 00 ef jal	0x2a4
0x800003a4: a0 00 07 b7 lui	a5, 0xa0000
0x800003a8: 3e a7 8c 23 sb	a0, 0x3f8(a5)
0x800003ac: 00 00 80 67 ret
0x80000104: 00 14 45 03 lbu	a0, 1(s0)
0x80000108: 00 14 04 13 addi	s0, s0, 1
0x8000010c: fe 05 1a e3 bnez	a0, -0xc
0x80000100: 2a 40 00 ef jal	0x2a4
0x800003a4: a0 00 07 b7 lui	a5, 0xa0000
0x800003a8: 3e a7 8c 23 sb	a0, 0x3f8(a5)
0x800003ac: 00 00 80 67 ret
0x80000104: 00 14 45 03 lbu	a0, 1(s0)
0x80000108: 00 14 04 13 addi	s0, s0, 1
0x8000010c: fe 05 1a e3 bnez	a0, -0xc
0x80000100: 2a 40 00 ef jal	0x2a4
0x800003a4: a0 00 07 b7 lui	a5, 0xa0000
0x800003a8: 3e a7 8c 23 sb	a0, 0x3f8(a5)
0x800003ac: 00 00 80 67 ret
0x80000104: 00 14 45 03 lbu	a0, 1(s0)
0x80000108: 00 14 04 13 addi	s0, s0, 1
0x8000010c: fe 05 1a e3 bnez	a0, -0xc
0x80000100: 2a 40 00 ef jal	0x2a4
0x800003a4: a0 00 07 b7 lui	a5, 0xa0000
0x800003a8: 3e a7 8c 23 sb	a0, 0x3f8(a5)
0x800003ac: 00 00 80 67 ret
0x80000104: 00 14 45 03 lbu	a0, 1(s0)
0x80000108: 00 14 04 13 addi	s0, s0, 1
0x8000010c: fe 05 1a e3 bnez	a0, -0xc
0x80000100: 2a 40 00 ef jal	0x2a4
0x800003a4: a0 00 07 b7 lui	a5, 0xa0000
0x800003a8: 3e a7 8c 23 sb	a0, 0x3f8(a5)
0x800003ac: 00 00 80 67 ret
0x80000104: 00 14 45 03 lbu	a0, 1(s0)
0x80000108: 00 14 04 13 addi	s0, s0, 1
0x8000010c: fe 05 1a e3 bnez	a0, -0xc
0x80000110: fc 5f f0 6f j	-0x3c
0x800000d4: 01 c1 20 83 lw	ra, 0x1c(sp)
0x800000d8: 01 81 24 03 lw	s0, 0x18(sp)
0x800000dc: 01 01 29 03 lw	s2, 0x10(sp)
0x800000e0: 00 c1 29 83 lw	s3, 0xc(sp)
0x800000e4: 00 04 85 13 mv	a0, s1
0x800000e8: 01 41 24 83 lw	s1, 0x14(sp)
0x800000ec: 02 01 01 13 addi	sp, sp, 0x20
0x800000f0: 00 00 80 67 ret
0x80000434: 00 05 0e 63 beqz	a0, 0x1c
0x80000438: 02 c1 20 83 lw	ra, 0x2c(sp)
0x8000043c: 03 01 01 13 addi	sp, sp, 0x30
0x80000440: 00 00 80 67 ret
0x80000628: 00 05 01 13 mv	sp, a0
0x8000062c: 08 41 23 03 lw	t1, 0x84(sp)
0x80000630: 08 81 23 83 lw	t2, 0x88(sp)
0x80000634: 30 03 10 73 csrw	mstatus, t1
0x80000638: 34 13 90 73 csrw	mepc, t2
0x8000063c: 00 41 20 83 lw	ra, 4(sp)
0x80000640: 00 c1 21 83 lw	gp, 0xc(sp)
0x80000644: 01 01 22 03 lw	tp, 0x10(sp)
0x80000648: 01 41 22 83 lw	t0, 0x14(sp)
0x8000064c: 01 81 23 03 lw	t1, 0x18(sp)
0x80000650: 01 c1 23 83 lw	t2, 0x1c(sp)
0x80000654: 02 01 24 03 lw	s0, 0x20(sp)
0x80000658: 02 41 24 83 lw	s1, 0x24(sp)
0x8000065c: 02 81 25 03 lw	a0, 0x28(sp)
0x80000660: 02 c1 25 83 lw	a1, 0x2c(sp)
0x80000664: 03 01 26 03 lw	a2, 0x30(sp)
0x80000668: 03 41 26 83 lw	a3, 0x34(sp)
0x8000066c: 03 81 27 03 lw	a4, 0x38(sp)
0x80000670: 03 c1 27 83 lw	a5, 0x3c(sp)
0x80000674: 04 01 28 03 lw	a6, 0x40(sp)
0x80000678: 04 41 28 83 lw	a7, 0x44(sp)
0x8000067c: 04 81 29 03 lw	s2, 0x48(sp)
0x80000680: 04 c1 29 83 lw	s3, 0x4c(sp)
0x80000684: 05 01 2a 03 lw	s4, 0x50(sp)
0x80000688: 05 41 2a 83 lw	s5, 0x54(sp)
0x8000068c: 05 81 2b 03 lw	s6, 0x58(sp)
0x80000690: 05 c1 2b 83 lw	s7, 0x5c(sp)
0x80000694: 06 01 2c 03 lw	s8, 0x60(sp)
0x80000698: 06 41 2c 83 lw	s9, 0x64(sp)
0x8000069c: 06 81 2d 03 lw	s10, 0x68(sp)
0x800006a0: 06 c1 2d 83 lw	s11, 0x6c(sp)
0x800006a4: 07 01 2e 03 lw	t3, 0x70(sp)
0x800006a8: 07 41 2e 83 lw	t4, 0x74(sp)
0x800006ac: 07 81 2f 03 lw	t5, 0x78(sp)
0x800006b0: 07 c1 2f 83 lw	t6, 0x7c(sp)
0x800006b4: 08 c1 01 13 addi	sp, sp, 0x8c
0x800006b8: 30 20 00 73 mret
0x8000050c: 00 00 00 73 ecall
0x80000580: f7 41 01 13 addi	sp, sp, -0x8c
0x80000584: 00 11 22 23 sw	ra, 4(sp)
0x80000588: 00 31 26 23 sw	gp, 0xc(sp)
0x8000058c: 00 41 28 23 sw	tp, 0x10(sp)
0x80000590: 00 51 2a 23 sw	t0, 0x14(sp)
0x80000594: 00 61 2c 23 sw	t1, 0x18(sp)
0x80000598: 00 71 2e 23 sw	t2, 0x1c(sp)
0x8000059c: 02 81 20 23 sw	s0, 0x20(sp)
0x800005a0: 02 91 22 23 sw	s1, 0x24(sp)
0x800005a4: 02 a1 24 23 sw	a0, 0x28(sp)
0x800005a8: 02 b1 26 23 sw	a1, 0x2c(sp)
0x800005ac: 02 c1 28 23 sw	a2, 0x30(sp)
0x800005b0: 02 d1 2a 23 sw	a3, 0x34(sp)
0x800005b4: 02 e1 2c 23 sw	a4, 0x38(sp)
0x800005b8: 02 f1 2e 23 sw	a5, 0x3c(sp)
0x800005bc: 05 01 20 23 sw	a6, 0x40(sp)
0x800005c0: 05 11 22 23 sw	a7, 0x44(sp)
0x800005c4: 05 21 24 23 sw	s2, 0x48(sp)
0x800005c8: 05 31 26 23 sw	s3, 0x4c(sp)
0x800005cc: 05 41 28 23 sw	s4, 0x50(sp)
0x800005d0: 05 51 2a 23 sw	s5, 0x54(sp)
0x800005d4: 05 61 2c 23 sw	s6, 0x58(sp)
0x800005d8: 05 71 2e 23 sw	s7, 0x5c(sp)
0x800005dc: 07 81 20 23 sw	s8, 0x60(sp)
0x800005e0: 07 91 22 23 sw	s9, 0x64(sp)
0x800005e4: 07 a1 24 23 sw	s10, 0x68(sp)
0x800005e8: 07 b1 26 23 sw	s11, 0x6c(sp)
0x800005ec: 07 c1 28 23 sw	t3, 0x70(sp)
0x800005f0: 07 d1 2a 23 sw	t4, 0x74(sp)
0x800005f4: 07 e1 2c 23 sw	t5, 0x78(sp)
0x800005f8: 07 f1 2e 23 sw	t6, 0x7c(sp)
0x800005fc: 34 20 22 f3 csrr	t0, mcause
0x80000600: 30 00 23 73 csrr	t1, mstatus
0x80000604: 34 10 23 f3 csrr	t2, mepc
0x80000608: 08 51 20 23 sw	t0, 0x80(sp)
0x8000060c: 08 61 22 23 sw	t1, 0x84(sp)
0x80000610: 08 71 24 23 sw	t2, 0x88(sp)
0x80000614: 00 02 05 37 lui	a0, 0x20
0x80000618: 00 a3 63 33 or	t1, t1, a0
0x8000061c: 30 03 10 73 csrw	mstatus, t1
0x80000620: 00 01 05 13 mv	a0, sp
0x80000624: db 9f f0 ef jal	-0x248
0x800003dc: 00 00 37 97 auipc	a5, 3
0x800003e0: a0 c7 a7 83 lw	a5, -0x5f4(a5)
0x800003e4: 00 05 05 93 mv	a1, a0
0x800003e8: 06 07 82 63 beqz	a5, 0x64
0x800003ec: 08 05 26 03 lw	a2, 0x80(a0)
0x800003f0: fd 01 01 13 addi	sp, sp, -0x30
0x800003f4: 02 11 26 23 sw	ra, 0x2c(sp)
0x800003f8: 00 01 2a 23 sw	zero, 0x14(sp)
0x800003fc: 00 01 2c 23 sw	zero, 0x18(sp)
0x80000400: 00 01 2e 23 sw	zero, 0x1c(sp)
0x80000404: 00 b0 06 93 addi	a3, zero, 0xb
0x80000408: 00 40 07 13 addi	a4, zero, 4
0x8000040c: 02 d6 0c 63 beq	a2, a3, 0x38
0x80000444: 00 10 07 13 addi	a4, zero, 1
0x80000448: fc 9f f0 6f j	-0x38
0x80000410: 00 e1 20 23 sw	a4, 0(sp)
0x80000414: 01 41 27 03 lw	a4, 0x14(sp)
0x80000418: 00 01 05 13 mv	a0, sp
0x8000041c: 00 e1 22 23 sw	a4, 4(sp)
0x80000420: 01 81 27 03 lw	a4, 0x18(sp)
0x80000424: 00 e1 24 23 sw	a4, 8(sp)
0x80000428: 01 c1 27 03 lw	a4, 0x1c(sp)
0x8000042c: 00 e1 26 23 sw	a4, 0xc(sp)
0x80000430: 00 07 80 e7 jalr	a5
0x80000010: fe 01 01 13 addi	sp, sp, -0x20
0x80000014: 01 21 28 23 sw	s2, 0x10(sp)
0x80000018: 00 00 39 17 auipc	s2, 3
0x8000001c: dc 89 09 13 addi	s2, s2, -0x238
0x80000020: 00 09 27 83 lw	a5, 0(s2)
0x80000024: 00 81 2c 23 sw	s0, 0x18(sp)
0x80000028: 00 91 2a 23 sw	s1, 0x14(sp)
0x8000002c: 01 31 26 23 sw	s3, 0xc(sp)
0x80000030: 00 11 2e 23 sw	ra, 0x1c(sp)
0x80000034: 00 17 87 93 addi	a5, a5, 1
0x80000038: 00 05 09 93 mv	s3, a0
0x8000003c: 00 05 84 93 mv	s1, a1
0x80000040: 00 f9 20 23 sw	a5, 0(s2)
0x80000044: 00 00 14 17 auipc	s0, 1
0x80000048: 77 44 04 13 addi	s0, s0, 0x774
0x8000004c: 05 30 05 13 addi	a0, zero, 0x53
0x80000050: 35 40 00 ef jal	0x354
0x800003a4: a0 00 07 b7 lui	a5, 0xa0000
0x800003a8: 3e a7 8c 23 sb	a0, 0x3f8(a5)
0x800003ac: 00 00 80 67 ret
0x80000054: 00 14 45 03 lbu	a0, 1(s0)
0x80000058: 00 14 04 13 addi	s0, s0, 1
0x8000005c: fe 05 1a e3 bnez	a0, -0xc
0x80000050: 35 40 00 ef jal	0x354
0x800003a4: a0 00 07 b7 lui	a5, 0xa0000
0x800003a8: 3e a7 8c 23 sb	a0, 0x3f8(a5)
0x800003ac: 00 00 80 67 ret
0x80000054: 00 14 45 03 lbu	a0, 1(s0)
0x80000058: 00 14 04 13 addi	s0, s0, 1
0x8000005c: fe 05 1a e3 bnez	a0, -0xc
0x80000050: 35 40 00 ef jal	0x354
0x800003a4: a0 00 07 b7 lui	a5, 0xa0000
0x800003a8: 3e a7 8c 23 sb	a0, 0x3f8(a5)
0x800003ac: 00 00 80 67 ret
0x80000054: 00 14 45 03 lbu	a0, 1(s0)
0x80000058: 00 14 04 13 addi	s0, s0, 1
0x8000005c: fe 05 1a e3 bnez	a0, -0xc
0x80000050: 35 40 00 ef jal	0x354
0x800003a4: a0 00 07 b7 lui	a5, 0xa0000
0x800003a8: 3e a7 8c 23 sb	a0, 0x3f8(a5)
0x800003ac: 00 00 80 67 ret
0x80000054: 00 14 45 03 lbu	a0, 1(s0)
0x80000058: 00 14 04 13 addi	s0, s0, 1
0x8000005c: fe 05 1a e3 bnez	a0, -0xc
0x80000050: 35 40 00 ef jal	0x354
0x800003a4: a0 00 07 b7 lui	a5, 0xa0000
0x800003a8: 3e a7 8c 23 sb	a0, 0x3f8(a5)
0x800003ac: 00 00 80 67 ret
0x80000054: 00 14 45 03 lbu	a0, 1(s0)
0x80000058: 00 14 04 13 addi	s0, s0, 1
0x8000005c: fe 05 1a e3 bnez	a0, -0xc
0x80000050: 35 40 00 ef jal	0x354
0x800003a4: a0 00 07 b7 lui	a5, 0xa0000
0x800003a8: 3e a7 8c 23 sb	a0, 0x3f8(a5)
0x800003ac: 00 00 80 67 ret
0x80000054: 00 14 45 03 lbu	a0, 1(s0)
0x80000058: 00 14 04 13 addi	s0, s0, 1
0x8000005c: fe 05 1a e3 bnez	a0, -0xc
0x80000050: 35 40 00 ef jal	0x354
0x800003a4: a0 00 07 b7 lui	a5, 0xa0000
0x800003a8: 3e a7 8c 23 sb	a0, 0x3f8(a5)
0x800003ac: 00 00 80 67 ret
0x80000054: 00 14 45 03 lbu	a0, 1(s0)
0x80000058: 00 14 04 13 addi	s0, s0, 1
0x8000005c: fe 05 1a e3 bnez	a0, -0xc
0x80000050: 35 40 00 ef jal	0x354
0x800003a4: a0 00 07 b7 lui	a5, 0xa0000
0x800003a8: 3e a7 8c 23 sb	a0, 0x3f8(a5)
0x800003ac: 00 00 80 67 ret
0x80000054: 00 14 45 03 lbu	a0, 1(s0)
0x80000058: 00 14 04 13 addi	s0, s0, 1
0x8000005c: fe 05 1a e3 bnez	a0, -0xc
0x80000050: 35 40 00 ef jal	0x354
0x800003a4: a0 00 07 b7 lui	a5, 0xa0000
0x800003a8: 3e a7 8c 23 sb	a0, 0x3f8(a5)
0x800003ac: 00 00 80 67 ret
0x80000054: 00 14 45 03 lbu	a0, 1(s0)
0x80000058: 00 14 04 13 addi	s0, s0, 1
0x8000005c: fe 05 1a e3 bnez	a0, -0xc
0x80000050: 35 40 00 ef jal	0x354
0x800003a4: a0 00 07 b7 lui	a5, 0xa0000
0x800003a8: 3e a7 8c 23 sb	a0, 0x3f8(a5)
0x800003ac: 00 00 80 67 ret
0x80000054: 00 14 45 03 lbu	a0, 1(s0)
0x80000058: 00 14 04 13 addi	s0, s0, 1
0x8000005c: fe 05 1a e3 bnez	a0, -0xc
0x80000050: 35 40 00 ef jal	0x354
0x800003a4: a0 00 07 b7 lui	a5, 0xa0000
0x800003a8: 3e a7 8c 23 sb	a0, 0x3f8(a5)
0x800003ac: 00 00 80 67 ret
0x80000054: 00 14 45 03 lbu	a0, 1(s0)
0x80000058: 00 14 04 13 addi	s0, s0, 1
0x8000005c: fe 05 1a e3 bnez	a0, -0xc
0x80000050: 35 40 00 ef jal	0x354
0x800003a4: a0 00 07 b7 lui	a5, 0xa0000
0x800003a8: 3e a7 8c 23 sb	a0, 0x3f8(a5)
0x800003ac: 00 00 80 67 ret
0x80000054: 00 14 45 03 lbu	a0, 1(s0)
0x80000058: 00 14 04 13 addi	s0, s0, 1
0x8000005c: fe 05 1a e3 bnez	a0, -0xc
0x80000050: 35 40 00 ef jal	0x354
0x800003a4: a0 00 07 b7 lui	a5, 0xa0000
0x800003a8: 3e a7 8c 23 sb	a0, 0x3f8(a5)
0x800003ac: 00 00 80 67 ret
0x80000054: 00 14 45 03 lbu	a0, 1(s0)
0x80000058: 00 14 04 13 addi	s0, s0, 1
0x8000005c: fe 05 1a e3 bnez	a0, -0xc
0x80000050: 35 40 00 ef jal	0x354
0x800003a4: a0 00 07 b7 lui	a5, 0xa0000
0x800003a8: 3e a7 8c 23 sb	a0, 0x3f8(a5)
0x800003ac: 00 00 80 67 ret
0x80000054: 00 14 45 03 lbu	a0, 1(s0)
0x80000058: 00 14 04 13 addi	s0, s0, 1
0x8000005c: fe 05 1a e3 bnez	a0, -0xc
0x80000050: 35 40 00 ef jal	0x354
0x800003a4: a0 00 07 b7 lui	a5, 0xa0000
0x800003a8: 3e a7 8c 23 sb	a0, 0x3f8(a5)
0x800003ac: 00 00 80 67 ret
0x80000054: 00 14 45 03 lbu	a0, 1(s0)
0x80000058: 00 14 04 13 addi	s0, s0, 1
0x8000005c: fe 05 1a e3 bnez	a0, -0xc
0x80000050: 35 40 00 ef jal	0x354
0x800003a4: a0 00 07 b7 lui	a5, 0xa0000
0x800003a8: 3e a7 8c 23 sb	a0, 0x3f8(a5)
0x800003ac: 00 00 80 67 ret
0x80000054: 00 14 45 03 lbu	a0, 1(s0)
0x80000058: 00 14 04 13 addi	s0, s0, 1
0x8000005c: fe 05 1a e3 bnez	a0, -0xc
0x80000050: 35 40 00 ef jal	0x354
0x800003a4: a0 00 07 b7 lui	a5, 0xa0000
0x800003a8: 3e a7 8c 23 sb	a0, 0x3f8(a5)
0x800003ac: 00 00 80 67 ret
0x80000054: 00 14 45 03 lbu	a0, 1(s0)
0x80000058: 00 14 04 13 addi	s0, s0, 1
0x8000005c: fe 05 1a e3 bnez	a0, -0xc
0x80000060: 00 09 25 03 lw	a0, 0(s2)
0x80000064: 00 00 14 17 auipc	s0, 1
0x80000068: 76 84 04 13 addi	s0, s0, 0x768
0x8000006c: 03 05 05 13 addi	a0, a0, 0x30
0x80000070: 0f f5 75 13 andi	a0, a0, 0xff
0x80000074: 33 00 00 ef jal	0x330
0x800003a4: a0 00 07 b7 lui	a5, 0xa0000
0x800003a8: 3e a7 8c 23 sb	a0, 0x3f8(a5)
0x800003ac: 00 00 80 67 ret
0x80000078: 02 c0 05 13 addi	a0, zero, 0x2c
0x8000007c: 32 80 00 ef jal	0x328
0x800003a4: a0 00 07 b7 lui	a5, 0xa0000
0x800003a8: 3e a7 8c 23 sb	a0, 0x3f8(a5)
0x800003ac: 00 00 80 67 ret
0x80000080: 00 14 45 03 lbu	a0, 1(s0)
0x80000084: 00 14 04 13 addi	s0, s0, 1
0x80000088: fe 05 1a e3 bnez	a0, -0xc
0x8000007c: 32 80 00 ef jal	0x328
0x800003a4: a0 00 07 b7 lui	a5, 0xa0000
0x800003a8: 3e a7 8c 23 sb	a0, 0x3f8(a5)
0x800003ac: 00 00 80 67 ret
0x80000080: 00 14 45 03 lbu	a0, 1(s0)
0x80000084: 00 14 04 13 addi	s0, s0, 1
0x80000088: fe 05 1a e3 bnez	a0, -0xc
0x8000007c: 32 80 00 ef jal	0x328
0x800003a4: a0 00 07 b7 lui	a5, 0xa0000
0x800003a8: 3e a7 8c 23 sb	a0, 0x3f8(a5)
0x800003ac: 00 00 80 67 ret
0x80000080: 00 14 45 03 lbu	a0, 1(s0)
0x80000084: 00 14 04 13 addi	s0, s0, 1
0x80000088: fe 05 1a e3 bnez	a0, -0xc
0x8000007c: 32 80 00 ef jal	0x328
0x800003a4: a0 00 07 b7 lui	a5, 0xa0000
0x800003a8: 3e a7 8c 23 sb	a0, 0x3f8(a5)
0x800003ac: 00 00 80 67 ret
0x80000080: 00 14 45 03 lbu	a0, 1(s0)
0x80000084: 00 14 04 13 addi	s0, s0, 1
0x80000088: fe 05 1a e3 bnez	a0, -0xc
0x8000007c: 32 80 00 ef jal	0x328
0x800003a4: a0 00 07 b7 lui	a5, 0xa0000
0x800003a8: 3e a7 8c 23 sb	a0, 0x3f8(a5)
0x800003ac: 00 00 80 67 ret
0x80000080: 00 14 45 03 lbu	a0, 1(s0)
0x80000084: 00 14 04 13 addi	s0, s0, 1
0x80000088: fe 05 1a e3 bnez	a0, -0xc
0x8000007c: 32 80 00 ef jal	0x328
0x800003a4: a0 00 07 b7 lui	a5, 0xa0000
0x800003a8: 3e a7 8c 23 sb	a0, 0x3f8(a5)
0x800003ac: 00 00 80 67 ret
0x80000080: 00 14 45 03 lbu	a0, 1(s0)
0x80000084: 00 14 04 13 addi	s0, s0, 1
0x80000088: fe 05 1a e3 bnez	a0, -0xc
0x8000007c: 32 80 00 ef jal	0x328
0x800003a4: a0 00 07 b7 lui	a5, 0xa0000
0x800003a8: 3e a7 8c 23 sb	a0, 0x3f8(a5)
0x800003ac: 00 00 80 67 ret
0x80000080: 00 14 45 03 lbu	a0, 1(s0)
0x80000084: 00 14 04 13 addi	s0, s0, 1
0x80000088: fe 05 1a e3 bnez	a0, -0xc
0x8000007c: 32 80 00 ef jal	0x328
0x800003a4: a0 00 07 b7 lui	a5, 0xa0000
0x800003a8: 3e a7 8c 23 sb	a0, 0x3f8(a5)
0x800003ac: 00 00 80 67 ret
0x80000080: 00 14 45 03 lbu	a0, 1(s0)
0x80000084: 00 14 04 13 addi	s0, s0, 1
0x80000088: fe 05 1a e3 bnez	a0, -0xc
0x8000007c: 32 80 00 ef jal	0x328
0x800003a4: a0 00 07 b7 lui	a5, 0xa0000
0x800003a8: 3e a7 8c 23 sb	a0, 0x3f8(a5)
0x800003ac: 00 00 80 67 ret
0x80000080: 00 14 45 03 lbu	a0, 1(s0)
0x80000084: 00 14 04 13 addi	s0, s0, 1
0x80000088: fe 05 1a e3 bnez	a0, -0xc
0x8000008c: 00 09 a5 03 lw	a0, 0(s3)
0x80000090: 03 05 05 13 addi	a0, a0, 0x30
0x80000094: 0f f5 75 13 andi	a0, a0, 0xff
0x80000098: 30 c0 00 ef jal	0x30c
0x800003a4: a0 00 07 b7 lui	a5, 0xa0000
0x800003a8: 3e a7 8c 23 sb	a0, 0x3f8(a5)
0x800003ac: 00 00 80 67 ret
0x8000009c: 00 a0 05 13 addi	a0, zero, 0xa
0x800000a0: 30 40 00 ef jal	0x304
0x800003a4: a0 00 07 b7 lui	a5, 0xa0000
0x800003a8: 3e a7 8c 23 sb	a0, 0x3f8(a5)
0x800003ac: 00 00 80 67 ret
0x800000a4: 00 09 27 83 lw	a5, 0(s2)
0x800000a8: 00 10 07 13 addi	a4, zero, 1
0x800000ac: 06 e7 84 63 beq	a5, a4, 0x68
0x800000b0: 00 40 07 13 addi	a4, zero, 4
0x800000b4: 04 f7 40 63 blt	a4, a5, 0x40
0x800000f4: 00 00 14 17 auipc	s0, 1
0x800000f8: 71 c4 04 13 addi	s0, s0, 0x71c
0x800000fc: 05 30 05 13 addi	a0, zero, 0x53
0x80000100: 2a 40 00 ef jal	0x2a4
0x800003a4: a0 00 07 b7 lui	a5, 0xa0000
0x800003a8: 3e a7 8c 23 sb	a0, 0x3f8(a5)
0x800003ac: 00 00 80 67 ret
0x80000104: 00 14 45 03 lbu	a0, 1(s0)
0x80000108: 00 14 04 13 addi	s0, s0, 1
0x8000010c: fe 05 1a e3 bnez	a0, -0xc
0x80000100: 2a 40 00 ef jal	0x2a4
0x800003a4: a0 00 07 b7 lui	a5, 0xa0000
0x800003a8: 3e a7 8c 23 sb	a0, 0x3f8(a5)
0x800003ac: 00 00 80 67 ret
0x80000104: 00 14 45 03 lbu	a0, 1(s0)
0x80000108: 00 14 04 13 addi	s0, s0, 1
0x8000010c: fe 05 1a e3 bnez	a0, -0xc
0x80000100: 2a 40 00 ef jal	0x2a4
0x800003a4: a0 00 07 b7 lui	a5, 0xa0000
0x800003a8: 3e a7 8c 23 sb	a0, 0x3f8(a5)
0x800003ac: 00 00 80 67 ret
0x80000104: 00 14 45 03 lbu	a0, 1(s0)
0x80000108: 00 14 04 13 addi	s0, s0, 1
0x8000010c: fe 05 1a e3 bnez	a0, -0xc
0x80000100: 2a 40 00 ef jal	0x2a4
0x800003a4: a0 00 07 b7 lui	a5, 0xa0000
0x800003a8: 3e a7 8c 23 sb	a0, 0x3f8(a5)
0x800003ac: 00 00 80 67 ret
0x80000104: 00 14 45 03 lbu	a0, 1(s0)
0x80000108: 00 14 04 13 addi	s0, s0, 1
0x8000010c: fe 05 1a e3 bnez	a0, -0xc
0x80000100: 2a 40 00 ef jal	0x2a4
0x800003a4: a0 00 07 b7 lui	a5, 0xa0000
0x800003a8: 3e a7 8c 23 sb	a0, 0x3f8(a5)
0x800003ac: 00 00 80 67 ret
0x80000104: 00 14 45 03 lbu	a0, 1(s0)
0x80000108: 00 14 04 13 addi	s0, s0, 1
0x8000010c: fe 05 1a e3 bnez	a0, -0xc
0x80000100: 2a 40 00 ef jal	0x2a4
0x800003a4: a0 00 07 b7 lui	a5, 0xa0000
0x800003a8: 3e a7 8c 23 sb	a0, 0x3f8(a5)
0x800003ac: 00 00 80 67 ret
0x80000104: 00 14 45 03 lbu	a0, 1(s0)
0x80000108: 00 14 04 13 addi	s0, s0, 1
0x8000010c: fe 05 1a e3 bnez	a0, -0xc
0x80000100: 2a 40 00 ef jal	0x2a4
0x800003a4: a0 00 07 b7 lui	a5, 0xa0000
0x800003a8: 3e a7 8c 23 sb	a0, 0x3f8(a5)
0x800003ac: 00 00 80 67 ret
0x80000104: 00 14 45 03 lbu	a0, 1(s0)
0x80000108: 00 14 04 13 addi	s0, s0, 1
0x8000010c: fe 05 1a e3 bnez	a0, -0xc
0x80000100: 2a 40 00 ef jal	0x2a4
0x800003a4: a0 00 07 b7 lui	a5, 0xa0000
0x800003a8: 3e a7 8c 23 sb	a0, 0x3f8(a5)
0x800003ac: 00 00 80 67 ret
0x80000104: 00 14 45 03 lbu	a0, 1(s0)
0x80000108: 00 14 04 13 addi	s0, s0, 1
0x8000010c: fe 05 1a e3 bnez	a0, -0xc
0x80000100: 2a 40 00 ef jal	0x2a4
0x800003a4: a0 00 07 b7 lui	a5, 0xa0000
0x800003a8: 3e a7 8c 23 sb	a0, 0x3f8(a5)
0x800003ac: 00 00 80 67 ret
0x80000104: 00 14 45 03 lbu	a0, 1(s0)
0x80000108: 00 14 04 13 addi	s0, s0, 1
0x8000010c: fe 05 1a e3 bnez	a0, -0xc
0x80000100: 2a 40 00 ef jal	0x2a4
0x800003a4: a0 00 07 b7 lui	a5, 0xa0000
0x800003a8: 3e a7 8c 23 sb	a0, 0x3f8(a5)
0x800003ac: 00 00 80 67 ret
0x80000104: 00 14 45 03 lbu	a0, 1(s0)
0x80000108: 00 14 04 13 addi	s0, s0, 1
0x8000010c: fe 05 1a e3 bnez	a0, -0xc
0x80000100: 2a 40 00 ef jal	0x2a4
0x800003a4: a0 00 07 b7 lui	a5, 0xa0000
0x800003a8: 3e a7 8c 23 sb	a0, 0x3f8(a5)
0x800003ac: 00 00 80 67 ret
0x80000104: 00 14 45 03 lbu	a0, 1(s0)
0x80000108: 00 14 04 13 addi	s0, s0, 1
0x8000010c: fe 05 1a e3 bnez	a0, -0xc
0x80000100: 2a 40 00 ef jal	0x2a4
0x800003a4: a0 00 07 b7 lui	a5, 0xa0000
0x800003a8: 3e a7 8c 23 sb	a0, 0x3f8(a5)
0x800003ac: 00 00 80 67 ret
0x80000104: 00 14 45 03 lbu	a0, 1(s0)
0x80000108: 00 14 04 13 addi	s0, s0, 1
0x8000010c: fe 05 1a e3 bnez	a0, -0xc
0x80000100: 2a 40 00 ef jal	0x2a4
0x800003a4: a0 00 07 b7 lui	a5, 0xa0000
0x800003a8: 3e a7 8c 23 sb	a0, 0x3f8(a5)
0x800003ac: 00 00 80 67 ret
0x80000104: 00 14 45 03 lbu	a0, 1(s0)
0x80000108: 00 14 04 13 addi	s0, s0, 1
0x8000010c: fe 05 1a e3 bnez	a0, -0xc
0x80000100: 2a 40 00 ef jal	0x2a4
0x800003a4: a0 00 07 b7 lui	a5, 0xa0000
0x800003a8: 3e a7 8c 23 sb	a0, 0x3f8(a5)
0x800003ac: 00 00 80 67 ret
0x80000104: 00 14 45 03 lbu	a0, 1(s0)
0x80000108: 00 14 04 13 addi	s0, s0, 1
0x8000010c: fe 05 1a e3 bnez	a0, -0xc
0x80000100: 2a 40 00 ef jal	0x2a4
0x800003a4: a0 00 07 b7 lui	a5, 0xa0000
0x800003a8: 3e a7 8c 23 sb	a0, 0x3f8(a5)
0x800003ac: 00 00 80 67 ret
0x80000104: 00 14 45 03 lbu	a0, 1(s0)
0x80000108: 00 14 04 13 addi	s0, s0, 1
0x8000010c: fe 05 1a e3 bnez	a0, -0xc
0x80000100: 2a 40 00 ef jal	0x2a4
0x800003a4: a0 00 07 b7 lui	a5, 0xa0000
0x800003a8: 3e a7 8c 23 sb	a0, 0x3f8(a5)
0x800003ac: 00 00 80 67 ret
0x80000104: 00 14 45 03 lbu	a0, 1(s0)
0x80000108: 00 14 04 13 addi	s0, s0, 1
0x8000010c: fe 05 1a e3 bnez	a0, -0xc
0x80000100: 2a 40 00 ef jal	0x2a4
0x800003a4: a0 00 07 b7 lui	a5, 0xa0000
0x800003a8: 3e a7 8c 23 sb	a0, 0x3f8(a5)
0x800003ac: 00 00 80 67 ret
0x80000104: 00 14 45 03 lbu	a0, 1(s0)
0x80000108: 00 14 04 13 addi	s0, s0, 1
0x8000010c: fe 05 1a e3 bnez	a0, -0xc
0x80000100: 2a 40 00 ef jal	0x2a4
0x800003a4: a0 00 07 b7 lui	a5, 0xa0000
0x800003a8: 3e a7 8c 23 sb	a0, 0x3f8(a5)
0x800003ac: 00 00 80 67 ret
0x80000104: 00 14 45 03 lbu	a0, 1(s0)
0x80000108: 00 14 04 13 addi	s0, s0, 1
0x8000010c: fe 05 1a e3 bnez	a0, -0xc
0x80000100: 2a 40 00 ef jal	0x2a4
0x800003a4: a0 00 07 b7 lui	a5, 0xa0000
0x800003a8: 3e a7 8c 23 sb	a0, 0x3f8(a5)
0x800003ac: 00 00 80 67 ret
0x80000104: 00 14 45 03 lbu	a0, 1(s0)
0x80000108: 00 14 04 13 addi	s0, s0, 1
0x8000010c: fe 05 1a e3 bnez	a0, -0xc
0x80000100: 2a 40 00 ef jal	0x2a4
0x800003a4: a0 00 07 b7 lui	a5, 0xa0000
0x800003a8: 3e a7 8c 23 sb	a0, 0x3f8(a5)
0x800003ac: 00 00 80 67 ret
0x80000104: 00 14 45 03 lbu	a0, 1(s0)
0x80000108: 00 14 04 13 addi	s0, s0, 1
0x8000010c: fe 05 1a e3 bnez	a0, -0xc
0x80000100: 2a 40 00 ef jal	0x2a4
0x800003a4: a0 00 07 b7 lui	a5, 0xa0000
0x800003a8: 3e a7 8c 23 sb	a0, 0x3f8(a5)
0x800003ac: 00 00 80 67 ret
0x80000104: 00 14 45 03 lbu	a0, 1(s0)
0x80000108: 00 14 04 13 addi	s0, s0, 1
0x8000010c: fe 05 1a e3 bnez	a0, -0xc
0x80000100: 2a 40 00 ef jal	0x2a4
0x800003a4: a0 00 07 b7 lui	a5, 0xa0000
0x800003a8: 3e a7 8c 23 sb	a0, 0x3f8(a5)
0x800003ac: 00 00 80 67 ret
0x80000104: 00 14 45 03 lbu	a0, 1(s0)
0x80000108: 00 14 04 13 addi	s0, s0, 1
0x8000010c: fe 05 1a e3 bnez	a0, -0xc
0x80000100: 2a 40 00 ef jal	0x2a4
0x800003a4: a0 00 07 b7 lui	a5, 0xa0000
0x800003a8: 3e a7 8c 23 sb	a0, 0x3f8(a5)
0x800003ac: 00 00 80 67 ret
0x80000104: 00 14 45 03 lbu	a0, 1(s0)
0x80000108: 00 14 04 13 addi	s0, s0, 1
0x8000010c: fe 05 1a e3 bnez	a0, -0xc
0x80000100: 2a 40 00 ef jal	0x2a4
0x800003a4: a0 00 07 b7 lui	a5, 0xa0000
0x800003a8: 3e a7 8c 23 sb	a0, 0x3f8(a5)
0x800003ac: 00 00 80 67 ret
0x80000104: 00 14 45 03 lbu	a0, 1(s0)
0x80000108: 00 14 04 13 addi	s0, s0, 1
0x8000010c: fe 05 1a e3 bnez	a0, -0xc
0x80000100: 2a 40 00 ef jal	0x2a4
0x800003a4: a0 00 07 b7 lui	a5, 0xa0000
0x800003a8: 3e a7 8c 23 sb	a0, 0x3f8(a5)
0x800003ac: 00 00 80 67 ret
0x80000104: 00 14 45 03 lbu	a0, 1(s0)
0x80000108: 00 14 04 13 addi	s0, s0, 1
0x8000010c: fe 05 1a e3 bnez	a0, -0xc
0x80000100: 2a 40 00 ef jal	0x2a4
0x800003a4: a0 00 07 b7 lui	a5, 0xa0000
0x800003a8: 3e a7 8c 23 sb	a0, 0x3f8(a5)
0x800003ac: 00 00 80 67 ret
0x80000104: 00 14 45 03 lbu	a0, 1(s0)
0x80000108: 00 14 04 13 addi	s0, s0, 1
0x8000010c: fe 05 1a e3 bnez	a0, -0xc
0x80000100: 2a 40 00 ef jal	0x2a4
0x800003a4: a0 00 07 b7 lui	a5, 0xa0000
0x800003a8: 3e a7 8c 23 sb	a0, 0x3f8(a5)
0x800003ac: 00 00 80 67 ret
0x80000104: 00 14 45 03 lbu	a0, 1(s0)
0x80000108: 00 14 04 13 addi	s0, s0, 1
0x8000010c: fe 05 1a e3 bnez	a0, -0xc
0x80000110: fc 5f f0 6f j	-0x3c
0x800000d4: 01 c1 20 83 lw	ra, 0x1c(sp)
0x800000d8: 01 81 24 03 lw	s0, 0x18(sp)
0x800000dc: 01 01 29 03 lw	s2, 0x10(sp)
0x800000e0: 00 c1 29 83 lw	s3, 0xc(sp)
0x800000e4: 00 04 85 13 mv	a0, s1
0x800000e8: 01 41 24 83 lw	s1, 0x14(sp)
0x800000ec: 02 01 01 13 addi	sp, sp, 0x20
0x800000f0: 00 00 80 67 ret
0x80000434: 00 05 0e 63 beqz	a0, 0x1c
0x80000438: 02 c1 20 83 lw	ra, 0x2c(sp)
0x8000043c: 03 01 01 13 addi	sp, sp, 0x30
0x80000440: 00 00 80 67 ret
0x80000628: 00 05 01 13 mv	sp, a0
0x8000062c: 08 41 23 03 lw	t1, 0x84(sp)
0x80000630: 08 81 23 83 lw	t2, 0x88(sp)
0x80000634: 30 03 10 73 csrw	mstatus, t1
0x80000638: 34 13 90 73 csrw	mepc, t2
0x8000063c: 00 41 20 83 lw	ra, 4(sp)
0x80000640: 00 c1 21 83 lw	gp, 0xc(sp)
0x80000644: 01 01 22 03 lw	tp, 0x10(sp)
0x80000648: 01 41 22 83 lw	t0, 0x14(sp)
0x8000064c: 01 81 23 03 lw	t1, 0x18(sp)
0x80000650: 01 c1 23 83 lw	t2, 0x1c(sp)
0x80000654: 02 01 24 03 lw	s0, 0x20(sp)
0x80000658: 02 41 24 83 lw	s1, 0x24(sp)
0x8000065c: 02 81 25 03 lw	a0, 0x28(sp)
0x80000660: 02 c1 25 83 lw	a1, 0x2c(sp)
0x80000664: 03 01 26 03 lw	a2, 0x30(sp)
0x80000668: 03 41 26 83 lw	a3, 0x34(sp)
0x8000066c: 03 81 27 03 lw	a4, 0x38(sp)
0x80000670: 03 c1 27 83 lw	a5, 0x3c(sp)
0x80000674: 04 01 28 03 lw	a6, 0x40(sp)
0x80000678: 04 41 28 83 lw	a7, 0x44(sp)
0x8000067c: 04 81 29 03 lw	s2, 0x48(sp)
0x80000680: 04 c1 29 83 lw	s3, 0x4c(sp)
0x80000684: 05 01 2a 03 lw	s4, 0x50(sp)
0x80000688: 05 41 2a 83 lw	s5, 0x54(sp)
0x8000068c: 05 81 2b 03 lw	s6, 0x58(sp)
0x80000690: 05 c1 2b 83 lw	s7, 0x5c(sp)
0x80000694: 06 01 2c 03 lw	s8, 0x60(sp)
0x80000698: 06 41 2c 83 lw	s9, 0x64(sp)
0x8000069c: 06 81 2d 03 lw	s10, 0x68(sp)
0x800006a0: 06 c1 2d 83 lw	s11, 0x6c(sp)
0x800006a4: 07 01 2e 03 lw	t3, 0x70(sp)
0x800006a8: 07 41 2e 83 lw	t4, 0x74(sp)
0x800006ac: 07 81 2f 03 lw	t5, 0x78(sp)
0x800006b0: 07 c1 2f 83 lw	t6, 0x7c(sp)
0x800006b4: 08 c1 01 13 addi	sp, sp, 0x8c
0x800006b8: 30 20 00 73 mret
0x8000050c: 00 00 00 73 ecall
0x80000580: f7 41 01 13 addi	sp, sp, -0x8c
0x80000584: 00 11 22 23 sw	ra, 4(sp)
0x80000588: 00 31 26 23 sw	gp, 0xc(sp)
0x8000058c: 00 41 28 23 sw	tp, 0x10(sp)
0x80000590: 00 51 2a 23 sw	t0, 0x14(sp)
0x80000594: 00 61 2c 23 sw	t1, 0x18(sp)
0x80000598: 00 71 2e 23 sw	t2, 0x1c(sp)
0x8000059c: 02 81 20 23 sw	s0, 0x20(sp)
0x800005a0: 02 91 22 23 sw	s1, 0x24(sp)
0x800005a4: 02 a1 24 23 sw	a0, 0x28(sp)
0x800005a8: 02 b1 26 23 sw	a1, 0x2c(sp)
0x800005ac: 02 c1 28 23 sw	a2, 0x30(sp)
0x800005b0: 02 d1 2a 23 sw	a3, 0x34(sp)
0x800005b4: 02 e1 2c 23 sw	a4, 0x38(sp)
0x800005b8: 02 f1 2e 23 sw	a5, 0x3c(sp)
0x800005bc: 05 01 20 23 sw	a6, 0x40(sp)
0x800005c0: 05 11 22 23 sw	a7, 0x44(sp)
0x800005c4: 05 21 24 23 sw	s2, 0x48(sp)
0x800005c8: 05 31 26 23 sw	s3, 0x4c(sp)
0x800005cc: 05 41 28 23 sw	s4, 0x50(sp)
0x800005d0: 05 51 2a 23 sw	s5, 0x54(sp)
0x800005d4: 05 61 2c 23 sw	s6, 0x58(sp)
0x800005d8: 05 71 2e 23 sw	s7, 0x5c(sp)
0x800005dc: 07 81 20 23 sw	s8, 0x60(sp)
0x800005e0: 07 91 22 23 sw	s9, 0x64(sp)
0x800005e4: 07 a1 24 23 sw	s10, 0x68(sp)
0x800005e8: 07 b1 26 23 sw	s11, 0x6c(sp)
0x800005ec: 07 c1 28 23 sw	t3, 0x70(sp)
0x800005f0: 07 d1 2a 23 sw	t4, 0x74(sp)
0x800005f4: 07 e1 2c 23 sw	t5, 0x78(sp)
0x800005f8: 07 f1 2e 23 sw	t6, 0x7c(sp)
0x800005fc: 34 20 22 f3 csrr	t0, mcause
0x80000600: 30 00 23 73 csrr	t1, mstatus
0x80000604: 34 10 23 f3 csrr	t2, mepc
0x80000608: 08 51 20 23 sw	t0, 0x80(sp)
0x8000060c: 08 61 22 23 sw	t1, 0x84(sp)
0x80000610: 08 71 24 23 sw	t2, 0x88(sp)
0x80000614: 00 02 05 37 lui	a0, 0x20
0x80000618: 00 a3 63 33 or	t1, t1, a0
0x8000061c: 30 03 10 73 csrw	mstatus, t1
0x80000620: 00 01 05 13 mv	a0, sp
0x80000624: db 9f f0 ef jal	-0x248
0x800003dc: 00 00 37 97 auipc	a5, 3
0x800003e0: a0 c7 a7 83 lw	a5, -0x5f4(a5)
0x800003e4: 00 05 05 93 mv	a1, a0
0x800003e8: 06 07 82 63 beqz	a5, 0x64
0x800003ec: 08 05 26 03 lw	a2, 0x80(a0)
0x800003f0: fd 01 01 13 addi	sp, sp, -0x30
0x800003f4: 02 11 26 23 sw	ra, 0x2c(sp)
0x800003f8: 00 01 2a 23 sw	zero, 0x14(sp)
0x800003fc: 00 01 2c 23 sw	zero, 0x18(sp)
0x80000400: 00 01 2e 23 sw	zero, 0x1c(sp)
0x80000404: 00 b0 06 93 addi	a3, zero, 0xb
0x80000408: 00 40 07 13 addi	a4, zero, 4
0x8000040c: 02 d6 0c 63 beq	a2, a3, 0x38
0x80000444: 00 10 07 13 addi	a4, zero, 1
0x80000448: fc 9f f0 6f j	-0x38
0x80000410: 00 e1 20 23 sw	a4, 0(sp)
0x80000414: 01 41 27 03 lw	a4, 0x14(sp)
0x80000418: 00 01 05 13 mv	a0, sp
0x8000041c: 00 e1 22 23 sw	a4, 4(sp)
0x80000420: 01 81 27 03 lw	a4, 0x18(sp)
0x80000424: 00 e1 24 23 sw	a4, 8(sp)
0x80000428: 01 c1 27 03 lw	a4, 0x1c(sp)
0x8000042c: 00 e1 26 23 sw	a4, 0xc(sp)
0x80000430: 00 07 80 e7 jalr	a5
0x80000010: fe 01 01 13 addi	sp, sp, -0x20
0x80000014: 01 21 28 23 sw	s2, 0x10(sp)
0x80000018: 00 00 39 17 auipc	s2, 3
0x8000001c: dc 89 09 13 addi	s2, s2, -0x238
0x80000020: 00 09 27 83 lw	a5, 0(s2)
0x80000024: 00 81 2c 23 sw	s0, 0x18(sp)
0x80000028: 00 91 2a 23 sw	s1, 0x14(sp)
0x8000002c: 01 31 26 23 sw	s3, 0xc(sp)
0x80000030: 00 11 2e 23 sw	ra, 0x1c(sp)
0x80000034: 00 17 87 93 addi	a5, a5, 1
0x80000038: 00 05 09 93 mv	s3, a0
0x8000003c: 00 05 84 93 mv	s1, a1
0x80000040: 00 f9 20 23 sw	a5, 0(s2)
0x80000044: 00 00 14 17 auipc	s0, 1
0x80000048: 77 44 04 13 addi	s0, s0, 0x774
0x8000004c: 05 30 05 13 addi	a0, zero, 0x53
0x80000050: 35 40 00 ef jal	0x354
0x800003a4: a0 00 07 b7 lui	a5, 0xa0000
0x800003a8: 3e a7 8c 23 sb	a0, 0x3f8(a5)
0x800003ac: 00 00 80 67 ret
0x80000054: 00 14 45 03 lbu	a0, 1(s0)
0x80000058: 00 14 04 13 addi	s0, s0, 1
0x8000005c: fe 05 1a e3 bnez	a0, -0xc
0x80000050: 35 40 00 ef jal	0x354
0x800003a4: a0 00 07 b7 lui	a5, 0xa0000
0x800003a8: 3e a7 8c 23 sb	a0, 0x3f8(a5)
0x800003ac: 00 00 80 67 ret
0x80000054: 00 14 45 03 lbu	a0, 1(s0)
0x80000058: 00 14 04 13 addi	s0, s0, 1
0x8000005c: fe 05 1a e3 bnez	a0, -0xc
0x80000050: 35 40 00 ef jal	0x354
0x800003a4: a0 00 07 b7 lui	a5, 0xa0000
0x800003a8: 3e a7 8c 23 sb	a0, 0x3f8(a5)
0x800003ac: 00 00 80 67 ret
0x80000054: 00 14 45 03 lbu	a0, 1(s0)
0x80000058: 00 14 04 13 addi	s0, s0, 1
0x8000005c: fe 05 1a e3 bnez	a0, -0xc
0x80000050: 35 40 00 ef jal	0x354
0x800003a4: a0 00 07 b7 lui	a5, 0xa0000
0x800003a8: 3e a7 8c 23 sb	a0, 0x3f8(a5)
0x800003ac: 00 00 80 67 ret
0x80000054: 00 14 45 03 lbu	a0, 1(s0)
0x80000058: 00 14 04 13 addi	s0, s0, 1
0x8000005c: fe 05 1a e3 bnez	a0, -0xc
0x80000050: 35 40 00 ef jal	0x354
0x800003a4: a0 00 07 b7 lui	a5, 0xa0000
0x800003a8: 3e a7 8c 23 sb	a0, 0x3f8(a5)
0x800003ac: 00 00 80 67 ret
0x80000054: 00 14 45 03 lbu	a0, 1(s0)
0x80000058: 00 14 04 13 addi	s0, s0, 1
0x8000005c: fe 05 1a e3 bnez	a0, -0xc
0x80000050: 35 40 00 ef jal	0x354
0x800003a4: a0 00 07 b7 lui	a5, 0xa0000
0x800003a8: 3e a7 8c 23 sb	a0, 0x3f8(a5)
0x800003ac: 00 00 80 67 ret
0x80000054: 00 14 45 03 lbu	a0, 1(s0)
0x80000058: 00 14 04 13 addi	s0, s0, 1
0x8000005c: fe 05 1a e3 bnez	a0, -0xc
0x80000050: 35 40 00 ef jal	0x354
0x800003a4: a0 00 07 b7 lui	a5, 0xa0000
0x800003a8: 3e a7 8c 23 sb	a0, 0x3f8(a5)
0x800003ac: 00 00 80 67 ret
0x80000054: 00 14 45 03 lbu	a0, 1(s0)
0x80000058: 00 14 04 13 addi	s0, s0, 1
0x8000005c: fe 05 1a e3 bnez	a0, -0xc
0x80000050: 35 40 00 ef jal	0x354
0x800003a4: a0 00 07 b7 lui	a5, 0xa0000
0x800003a8: 3e a7 8c 23 sb	a0, 0x3f8(a5)
0x800003ac: 00 00 80 67 ret
0x80000054: 00 14 45 03 lbu	a0, 1(s0)
0x80000058: 00 14 04 13 addi	s0, s0, 1
0x8000005c: fe 05 1a e3 bnez	a0, -0xc
0x80000050: 35 40 00 ef jal	0x354
0x800003a4: a0 00 07 b7 lui	a5, 0xa0000
0x800003a8: 3e a7 8c 23 sb	a0, 0x3f8(a5)
0x800003ac: 00 00 80 67 ret
0x80000054: 00 14 45 03 lbu	a0, 1(s0)
0x80000058: 00 14 04 13 addi	s0, s0, 1
0x8000005c: fe 05 1a e3 bnez	a0, -0xc
0x80000050: 35 40 00 ef jal	0x354
0x800003a4: a0 00 07 b7 lui	a5, 0xa0000
0x800003a8: 3e a7 8c 23 sb	a0, 0x3f8(a5)
0x800003ac: 00 00 80 67 ret
0x80000054: 00 14 45 03 lbu	a0, 1(s0)
0x80000058: 00 14 04 13 addi	s0, s0, 1
0x8000005c: fe 05 1a e3 bnez	a0, -0xc
0x80000050: 35 40 00 ef jal	0x354
0x800003a4: a0 00 07 b7 lui	a5, 0xa0000
0x800003a8: 3e a7 8c 23 sb	a0, 0x3f8(a5)
0x800003ac: 00 00 80 67 ret
0x80000054: 00 14 45 03 lbu	a0, 1(s0)
0x80000058: 00 14 04 13 addi	s0, s0, 1
0x8000005c: fe 05 1a e3 bnez	a0, -0xc
0x80000050: 35 40 00 ef jal	0x354
0x800003a4: a0 00 07 b7 lui	a5, 0xa0000
0x800003a8: 3e a7 8c 23 sb	a0, 0x3f8(a5)
0x800003ac: 00 00 80 67 ret
0x80000054: 00 14 45 03 lbu	a0, 1(s0)
0x80000058: 00 14 04 13 addi	s0, s0, 1
0x8000005c: fe 05 1a e3 bnez	a0, -0xc
0x80000050: 35 40 00 ef jal	0x354
0x800003a4: a0 00 07 b7 lui	a5, 0xa0000
0x800003a8: 3e a7 8c 23 sb	a0, 0x3f8(a5)
0x800003ac: 00 00 80 67 ret
0x80000054: 00 14 45 03 lbu	a0, 1(s0)
0x80000058: 00 14 04 13 addi	s0, s0, 1
0x8000005c: fe 05 1a e3 bnez	a0, -0xc
0x80000050: 35 40 00 ef jal	0x354
0x800003a4: a0 00 07 b7 lui	a5, 0xa0000
0x800003a8: 3e a7 8c 23 sb	a0, 0x3f8(a5)
0x800003ac: 00 00 80 67 ret
0x80000054: 00 14 45 03 lbu	a0, 1(s0)
0x80000058: 00 14 04 13 addi	s0, s0, 1
0x8000005c: fe 05 1a e3 bnez	a0, -0xc
0x80000050: 35 40 00 ef jal	0x354
0x800003a4: a0 00 07 b7 lui	a5, 0xa0000
0x800003a8: 3e a7 8c 23 sb	a0, 0x3f8(a5)
0x800003ac: 00 00 80 67 ret
0x80000054: 00 14 45 03 lbu	a0, 1(s0)
0x80000058: 00 14 04 13 addi	s0, s0, 1
0x8000005c: fe 05 1a e3 bnez	a0, -0xc
0x80000050: 35 40 00 ef jal	0x354
0x800003a4: a0 00 07 b7 lui	a5, 0xa0000
0x800003a8: 3e a7 8c 23 sb	a0, 0x3f8(a5)
0x800003ac: 00 00 80 67 ret
0x80000054: 00 14 45 03 lbu	a0, 1(s0)
0x80000058: 00 14 04 13 addi	s0, s0, 1
0x8000005c: fe 05 1a e3 bnez	a0, -0xc
0x80000050: 35 40 00 ef jal	0x354
0x800003a4: a0 00 07 b7 lui	a5, 0xa0000
0x800003a8: 3e a7 8c 23 sb	a0, 0x3f8(a5)
0x800003ac: 00 00 80 67 ret
0x80000054: 00 14 45 03 lbu	a0, 1(s0)
0x80000058: 00 14 04 13 addi	s0, s0, 1
0x8000005c: fe 05 1a e3 bnez	a0, -0xc
0x80000060: 00 09 25 03 lw	a0, 0(s2)
0x80000064: 00 00 14 17 auipc	s0, 1
0x80000068: 76 84 04 13 addi	s0, s0, 0x768
0x8000006c: 03 05 05 13 addi	a0, a0, 0x30
0x80000070: 0f f5 75 13 andi	a0, a0, 0xff
0x80000074: 33 00 00 ef jal	0x330
0x800003a4: a0 00 07 b7 lui	a5, 0xa0000
0x800003a8: 3e a7 8c 23 sb	a0, 0x3f8(a5)
0x800003ac: 00 00 80 67 ret
0x80000078: 02 c0 05 13 addi	a0, zero, 0x2c
0x8000007c: 32 80 00 ef jal	0x328
0x800003a4: a0 00 07 b7 lui	a5, 0xa0000
0x800003a8: 3e a7 8c 23 sb	a0, 0x3f8(a5)
0x800003ac: 00 00 80 67 ret
0x80000080: 00 14 45 03 lbu	a0, 1(s0)
0x80000084: 00 14 04 13 addi	s0, s0, 1
0x80000088: fe 05 1a e3 bnez	a0, -0xc
0x8000007c: 32 80 00 ef jal	0x328
0x800003a4: a0 00 07 b7 lui	a5, 0xa0000
0x800003a8: 3e a7 8c 23 sb	a0, 0x3f8(a5)
0x800003ac: 00 00 80 67 ret
0x80000080: 00 14 45 03 lbu	a0, 1(s0)
0x80000084: 00 14 04 13 addi	s0, s0, 1
0x80000088: fe 05 1a e3 bnez	a0, -0xc
0x8000007c: 32 80 00 ef jal	0x328
0x800003a4: a0 00 07 b7 lui	a5, 0xa0000
0x800003a8: 3e a7 8c 23 sb	a0, 0x3f8(a5)
0x800003ac: 00 00 80 67 ret
0x80000080: 00 14 45 03 lbu	a0, 1(s0)
0x80000084: 00 14 04 13 addi	s0, s0, 1
0x80000088: fe 05 1a e3 bnez	a0, -0xc
0x8000007c: 32 80 00 ef jal	0x328
0x800003a4: a0 00 07 b7 lui	a5, 0xa0000
0x800003a8: 3e a7 8c 23 sb	a0, 0x3f8(a5)
0x800003ac: 00 00 80 67 ret
0x80000080: 00 14 45 03 lbu	a0, 1(s0)
0x80000084: 00 14 04 13 addi	s0, s0, 1
0x80000088: fe 05 1a e3 bnez	a0, -0xc
0x8000007c: 32 80 00 ef jal	0x328
0x800003a4: a0 00 07 b7 lui	a5, 0xa0000
0x800003a8: 3e a7 8c 23 sb	a0, 0x3f8(a5)
0x800003ac: 00 00 80 67 ret
0x80000080: 00 14 45 03 lbu	a0, 1(s0)
0x80000084: 00 14 04 13 addi	s0, s0, 1
0x80000088: fe 05 1a e3 bnez	a0, -0xc
0x8000007c: 32 80 00 ef jal	0x328
0x800003a4: a0 00 07 b7 lui	a5, 0xa0000
0x800003a8: 3e a7 8c 23 sb	a0, 0x3f8(a5)
0x800003ac: 00 00 80 67 ret
0x80000080: 00 14 45 03 lbu	a0, 1(s0)
0x80000084: 00 14 04 13 addi	s0, s0, 1
0x80000088: fe 05 1a e3 bnez	a0, -0xc
0x8000007c: 32 80 00 ef jal	0x328
0x800003a4: a0 00 07 b7 lui	a5, 0xa0000
0x800003a8: 3e a7 8c 23 sb	a0, 0x3f8(a5)
0x800003ac: 00 00 80 67 ret
0x80000080: 00 14 45 03 lbu	a0, 1(s0)
0x80000084: 00 14 04 13 addi	s0, s0, 1
0x80000088: fe 05 1a e3 bnez	a0, -0xc
0x8000007c: 32 80 00 ef jal	0x328
0x800003a4: a0 00 07 b7 lui	a5, 0xa0000
0x800003a8: 3e a7 8c 23 sb	a0, 0x3f8(a5)
0x800003ac: 00 00 80 67 ret
0x80000080: 00 14 45 03 lbu	a0, 1(s0)
0x80000084: 00 14 04 13 addi	s0, s0, 1
0x80000088: fe 05 1a e3 bnez	a0, -0xc
0x8000007c: 32 80 00 ef jal	0x328
0x800003a4: a0 00 07 b7 lui	a5, 0xa0000
0x800003a8: 3e a7 8c 23 sb	a0, 0x3f8(a5)
0x800003ac: 00 00 80 67 ret
0x80000080: 00 14 45 03 lbu	a0, 1(s0)
0x80000084: 00 14 04 13 addi	s0, s0, 1
0x80000088: fe 05 1a e3 bnez	a0, -0xc
0x8000008c: 00 09 a5 03 lw	a0, 0(s3)
0x80000090: 03 05 05 13 addi	a0, a0, 0x30
0x80000094: 0f f5 75 13 andi	a0, a0, 0xff
0x80000098: 30 c0 00 ef jal	0x30c
0x800003a4: a0 00 07 b7 lui	a5, 0xa0000
0x800003a8: 3e a7 8c 23 sb	a0, 0x3f8(a5)
0x800003ac: 00 00 80 67 ret
0x8000009c: 00 a0 05 13 addi	a0, zero, 0xa
0x800000a0: 30 40 00 ef jal	0x304
0x800003a4: a0 00 07 b7 lui	a5, 0xa0000
0x800003a8: 3e a7 8c 23 sb	a0, 0x3f8(a5)
0x800003ac: 00 00 80 67 ret
0x800000a4: 00 09 27 83 lw	a5, 0(s2)
0x800000a8: 00 10 07 13 addi	a4, zero, 1
0x800000ac: 06 e7 84 63 beq	a5, a4, 0x68
0x800000b0: 00 40 07 13 addi	a4, zero, 4
0x800000b4: 04 f7 40 63 blt	a4, a5, 0x40
0x800000f4: 00 00 14 17 auipc	s0, 1
0x800000f8: 71 c4 04 13 addi	s0, s0, 0x71c
0x800000fc: 05 30 05 13 addi	a0, zero, 0x53
0x80000100: 2a 40 00 ef jal	0x2a4
0x800003a4: a0 00 07 b7 lui	a5, 0xa0000
0x800003a8: 3e a7 8c 23 sb	a0, 0x3f8(a5)
0x800003ac: 00 00 80 67 ret
0x80000104: 00 14 45 03 lbu	a0, 1(s0)
0x80000108: 00 14 04 13 addi	s0, s0, 1
0x8000010c: fe 05 1a e3 bnez	a0, -0xc
0x80000100: 2a 40 00 ef jal	0x2a4
0x800003a4: a0 00 07 b7 lui	a5, 0xa0000
0x800003a8: 3e a7 8c 23 sb	a0, 0x3f8(a5)
0x800003ac: 00 00 80 67 ret
0x80000104: 00 14 45 03 lbu	a0, 1(s0)
0x80000108: 00 14 04 13 addi	s0, s0, 1
0x8000010c: fe 05 1a e3 bnez	a0, -0xc
0x80000100: 2a 40 00 ef jal	0x2a4
0x800003a4: a0 00 07 b7 lui	a5, 0xa0000
0x800003a8: 3e a7 8c 23 sb	a0, 0x3f8(a5)
0x800003ac: 00 00 80 67 ret
0x80000104: 00 14 45 03 lbu	a0, 1(s0)
0x80000108: 00 14 04 13 addi	s0, s0, 1
0x8000010c: fe 05 1a e3 bnez	a0, -0xc
0x80000100: 2a 40 00 ef jal	0x2a4
0x800003a4: a0 00 07 b7 lui	a5, 0xa0000
0x800003a8: 3e a7 8c 23 sb	a0, 0x3f8(a5)
0x800003ac: 00 00 80 67 ret
0x80000104: 00 14 45 03 lbu	a0, 1(s0)
0x80000108: 00 14 04 13 addi	s0, s0, 1
0x8000010c: fe 05 1a e3 bnez	a0, -0xc
0x80000100: 2a 40 00 ef jal	0x2a4
0x800003a4: a0 00 07 b7 lui	a5, 0xa0000
0x800003a8: 3e a7 8c 23 sb	a0, 0x3f8(a5)
0x800003ac: 00 00 80 67 ret
0x80000104: 00 14 45 03 lbu	a0, 1(s0)
0x80000108: 00 14 04 13 addi	s0, s0, 1
0x8000010c: fe 05 1a e3 bnez	a0, -0xc
0x80000100: 2a 40 00 ef jal	0x2a4
0x800003a4: a0 00 07 b7 lui	a5, 0xa0000
0x800003a8: 3e a7 8c 23 sb	a0, 0x3f8(a5)
0x800003ac: 00 00 80 67 ret
0x80000104: 00 14 45 03 lbu	a0, 1(s0)
0x80000108: 00 14 04 13 addi	s0, s0, 1
0x8000010c: fe 05 1a e3 bnez	a0, -0xc
0x80000100: 2a 40 00 ef jal	0x2a4
0x800003a4: a0 00 07 b7 lui	a5, 0xa0000
0x800003a8: 3e a7 8c 23 sb	a0, 0x3f8(a5)
0x800003ac: 00 00 80 67 ret
0x80000104: 00 14 45 03 lbu	a0, 1(s0)
0x80000108: 00 14 04 13 addi	s0, s0, 1
0x8000010c: fe 05 1a e3 bnez	a0, -0xc
0x80000100: 2a 40 00 ef jal	0x2a4
0x800003a4: a0 00 07 b7 lui	a5, 0xa0000
0x800003a8: 3e a7 8c 23 sb	a0, 0x3f8(a5)
0x800003ac: 00 00 80 67 ret
0x80000104: 00 14 45 03 lbu	a0, 1(s0)
0x80000108: 00 14 04 13 addi	s0, s0, 1
0x8000010c: fe 05 1a e3 bnez	a0, -0xc
0x80000100: 2a 40 00 ef jal	0x2a4
0x800003a4: a0 00 07 b7 lui	a5, 0xa0000
0x800003a8: 3e a7 8c 23 sb	a0, 0x3f8(a5)
0x800003ac: 00 00 80 67 ret
0x80000104: 00 14 45 03 lbu	a0, 1(s0)
0x80000108: 00 14 04 13 addi	s0, s0, 1
0x8000010c: fe 05 1a e3 bnez	a0, -0xc
0x80000100: 2a 40 00 ef jal	0x2a4
0x800003a4: a0 00 07 b7 lui	a5, 0xa0000
0x800003a8: 3e a7 8c 23 sb	a0, 0x3f8(a5)
0x800003ac: 00 00 80 67 ret
0x80000104: 00 14 45 03 lbu	a0, 1(s0)
0x80000108: 00 14 04 13 addi	s0, s0, 1
0x8000010c: fe 05 1a e3 bnez	a0, -0xc
0x80000100: 2a 40 00 ef jal	0x2a4
0x800003a4: a0 00 07 b7 lui	a5, 0xa0000
0x800003a8: 3e a7 8c 23 sb	a0, 0x3f8(a5)
0x800003ac: 00 00 80 67 ret
0x80000104: 00 14 45 03 lbu	a0, 1(s0)
0x80000108: 00 14 04 13 addi	s0, s0, 1
0x8000010c: fe 05 1a e3 bnez	a0, -0xc
0x80000100: 2a 40 00 ef jal	0x2a4
0x800003a4: a0 00 07 b7 lui	a5, 0xa0000
0x800003a8: 3e a7 8c 23 sb	a0, 0x3f8(a5)
0x800003ac: 00 00 80 67 ret
0x80000104: 00 14 45 03 lbu	a0, 1(s0)
0x80000108: 00 14 04 13 addi	s0, s0, 1
0x8000010c: fe 05 1a e3 bnez	a0, -0xc
0x80000100: 2a 40 00 ef jal	0x2a4
0x800003a4: a0 00 07 b7 lui	a5, 0xa0000
0x800003a8: 3e a7 8c 23 sb	a0, 0x3f8(a5)
0x800003ac: 00 00 80 67 ret
0x80000104: 00 14 45 03 lbu	a0, 1(s0)
0x80000108: 00 14 04 13 addi	s0, s0, 1
0x8000010c: fe 05 1a e3 bnez	a0, -0xc
0x80000100: 2a 40 00 ef jal	0x2a4
0x800003a4: a0 00 07 b7 lui	a5, 0xa0000
0x800003a8: 3e a7 8c 23 sb	a0, 0x3f8(a5)
0x800003ac: 00 00 80 67 ret
0x80000104: 00 14 45 03 lbu	a0, 1(s0)
0x80000108: 00 14 04 13 addi	s0, s0, 1
0x8000010c: fe 05 1a e3 bnez	a0, -0xc
0x80000100: 2a 40 00 ef jal	0x2a4
0x800003a4: a0 00 07 b7 lui	a5, 0xa0000
0x800003a8: 3e a7 8c 23 sb	a0, 0x3f8(a5)
0x800003ac: 00 00 80 67 ret
0x80000104: 00 14 45 03 lbu	a0, 1(s0)
0x80000108: 00 14 04 13 addi	s0, s0, 1
0x8000010c: fe 05 1a e3 bnez	a0, -0xc
0x80000100: 2a 40 00 ef jal	0x2a4
0x800003a4: a0 00 07 b7 lui	a5, 0xa0000
0x800003a8: 3e a7 8c 23 sb	a0, 0x3f8(a5)
0x800003ac: 00 00 80 67 ret
0x80000104: 00 14 45 03 lbu	a0, 1(s0)
0x80000108: 00 14 04 13 addi	s0, s0, 1
0x8000010c: fe 05 1a e3 bnez	a0, -0xc
0x80000100: 2a 40 00 ef jal	0x2a4
0x800003a4: a0 00 07 b7 lui	a5, 0xa0000
0x800003a8: 3e a7 8c 23 sb	a0, 0x3f8(a5)
0x800003ac: 00 00 80 67 ret
0x80000104: 00 14 45 03 lbu	a0, 1(s0)
0x80000108: 00 14 04 13 addi	s0, s0, 1
0x8000010c: fe 05 1a e3 bnez	a0, -0xc
0x80000100: 2a 40 00 ef jal	0x2a4
0x800003a4: a0 00 07 b7 lui	a5, 0xa0000
0x800003a8: 3e a7 8c 23 sb	a0, 0x3f8(a5)
0x800003ac: 00 00 80 67 ret
0x80000104: 00 14 45 03 lbu	a0, 1(s0)
0x80000108: 00 14 04 13 addi	s0, s0, 1
0x8000010c: fe 05 1a e3 bnez	a0, -0xc
0x80000100: 2a 40 00 ef jal	0x2a4
0x800003a4: a0 00 07 b7 lui	a5, 0xa0000
0x800003a8: 3e a7 8c 23 sb	a0, 0x3f8(a5)
0x800003ac: 00 00 80 67 ret
0x80000104: 00 14 45 03 lbu	a0, 1(s0)
0x80000108: 00 14 04 13 addi	s0, s0, 1
0x8000010c: fe 05 1a e3 bnez	a0, -0xc
0x80000100: 2a 40 00 ef jal	0x2a4
0x800003a4: a0 00 07 b7 lui	a5, 0xa0000
0x800003a8: 3e a7 8c 23 sb	a0, 0x3f8(a5)
0x800003ac: 00 00 80 67 ret
0x80000104: 00 14 45 03 lbu	a0, 1(s0)
0x80000108: 00 14 04 13 addi	s0, s0, 1
0x8000010c: fe 05 1a e3 bnez	a0, -0xc
0x80000100: 2a 40 00 ef jal	0x2a4
0x800003a4: a0 00 07 b7 lui	a5, 0xa0000
0x800003a8: 3e a7 8c 23 sb	a0, 0x3f8(a5)
0x800003ac: 00 00 80 67 ret
0x80000104: 00 14 45 03 lbu	a0, 1(s0)
0x80000108: 00 14 04 13 addi	s0, s0, 1
0x8000010c: fe 05 1a e3 bnez	a0, -0xc
0x80000100: 2a 40 00 ef jal	0x2a4
0x800003a4: a0 00 07 b7 lui	a5, 0xa0000
0x800003a8: 3e a7 8c 23 sb	a0, 0x3f8(a5)
0x800003ac: 00 00 80 67 ret
0x80000104: 00 14 45 03 lbu	a0, 1(s0)
0x80000108: 00 14 04 13 addi	s0, s0, 1
0x8000010c: fe 05 1a e3 bnez	a0, -0xc
0x80000100: 2a 40 00 ef jal	0x2a4
0x800003a4: a0 00 07 b7 lui	a5, 0xa0000
0x800003a8: 3e a7 8c 23 sb	a0, 0x3f8(a5)
0x800003ac: 00 00 80 67 ret
0x80000104: 00 14 45 03 lbu	a0, 1(s0)
0x80000108: 00 14 04 13 addi	s0, s0, 1
0x8000010c: fe 05 1a e3 bnez	a0, -0xc
0x80000100: 2a 40 00 ef jal	0x2a4
0x800003a4: a0 00 07 b7 lui	a5, 0xa0000
0x800003a8: 3e a7 8c 23 sb	a0, 0x3f8(a5)
0x800003ac: 00 00 80 67 ret
0x80000104: 00 14 45 03 lbu	a0, 1(s0)
0x80000108: 00 14 04 13 addi	s0, s0, 1
0x8000010c: fe 05 1a e3 bnez	a0, -0xc
0x80000100: 2a 40 00 ef jal	0x2a4
0x800003a4: a0 00 07 b7 lui	a5, 0xa0000
0x800003a8: 3e a7 8c 23 sb	a0, 0x3f8(a5)
0x800003ac: 00 00 80 67 ret
0x80000104: 00 14 45 03 lbu	a0, 1(s0)
0x80000108: 00 14 04 13 addi	s0, s0, 1
0x8000010c: fe 05 1a e3 bnez	a0, -0xc
0x80000100: 2a 40 00 ef jal	0x2a4
0x800003a4: a0 00 07 b7 lui	a5, 0xa0000
0x800003a8: 3e a7 8c 23 sb	a0, 0x3f8(a5)
0x800003ac: 00 00 80 67 ret
0x80000104: 00 14 45 03 lbu	a0, 1(s0)
0x80000108: 00 14 04 13 addi	s0, s0, 1
0x8000010c: fe 05 1a e3 bnez	a0, -0xc
0x80000100: 2a 40 00 ef jal	0x2a4
0x800003a4: a0 00 07 b7 lui	a5, 0xa0000
0x800003a8: 3e a7 8c 23 sb	a0, 0x3f8(a5)
0x800003ac: 00 00 80 67 ret
0x80000104: 00 14 45 03 lbu	a0, 1(s0)
0x80000108: 00 14 04 13 addi	s0, s0, 1
0x8000010c: fe 05 1a e3 bnez	a0, -0xc
0x80000110: fc 5f f0 6f j	-0x3c
0x800000d4: 01 c1 20 83 lw	ra, 0x1c(sp)
0x800000d8: 01 81 24 03 lw	s0, 0x18(sp)
0x800000dc: 01 01 29 03 lw	s2, 0x10(sp)
0x800000e0: 00 c1 29 83 lw	s3, 0xc(sp)
0x800000e4: 00 04 85 13 mv	a0, s1
0x800000e8: 01 41 24 83 lw	s1, 0x14(sp)
0x800000ec: 02 01 01 13 addi	sp, sp, 0x20
0x800000f0: 00 00 80 67 ret
0x80000434: 00 05 0e 63 beqz	a0, 0x1c
0x80000438: 02 c1 20 83 lw	ra, 0x2c(sp)
0x8000043c: 03 01 01 13 addi	sp, sp, 0x30
0x80000440: 00 00 80 67 ret
0x80000628: 00 05 01 13 mv	sp, a0
0x8000062c: 08 41 23 03 lw	t1, 0x84(sp)
0x80000630: 08 81 23 83 lw	t2, 0x88(sp)
0x80000634: 30 03 10 73 csrw	mstatus, t1
0x80000638: 34 13 90 73 csrw	mepc, t2
0x8000063c: 00 41 20 83 lw	ra, 4(sp)
0x80000640: 00 c1 21 83 lw	gp, 0xc(sp)
0x80000644: 01 01 22 03 lw	tp, 0x10(sp)
0x80000648: 01 41 22 83 lw	t0, 0x14(sp)
0x8000064c: 01 81 23 03 lw	t1, 0x18(sp)
0x80000650: 01 c1 23 83 lw	t2, 0x1c(sp)
0x80000654: 02 01 24 03 lw	s0, 0x20(sp)
0x80000658: 02 41 24 83 lw	s1, 0x24(sp)
0x8000065c: 02 81 25 03 lw	a0, 0x28(sp)
0x80000660: 02 c1 25 83 lw	a1, 0x2c(sp)
0x80000664: 03 01 26 03 lw	a2, 0x30(sp)
0x80000668: 03 41 26 83 lw	a3, 0x34(sp)
0x8000066c: 03 81 27 03 lw	a4, 0x38(sp)
0x80000670: 03 c1 27 83 lw	a5, 0x3c(sp)
0x80000674: 04 01 28 03 lw	a6, 0x40(sp)
0x80000678: 04 41 28 83 lw	a7, 0x44(sp)
0x8000067c: 04 81 29 03 lw	s2, 0x48(sp)
0x80000680: 04 c1 29 83 lw	s3, 0x4c(sp)
0x80000684: 05 01 2a 03 lw	s4, 0x50(sp)
0x80000688: 05 41 2a 83 lw	s5, 0x54(sp)
0x8000068c: 05 81 2b 03 lw	s6, 0x58(sp)
0x80000690: 05 c1 2b 83 lw	s7, 0x5c(sp)
0x80000694: 06 01 2c 03 lw	s8, 0x60(sp)
0x80000698: 06 41 2c 83 lw	s9, 0x64(sp)
0x8000069c: 06 81 2d 03 lw	s10, 0x68(sp)
0x800006a0: 06 c1 2d 83 lw	s11, 0x6c(sp)
0x800006a4: 07 01 2e 03 lw	t3, 0x70(sp)
0x800006a8: 07 41 2e 83 lw	t4, 0x74(sp)
0x800006ac: 07 81 2f 03 lw	t5, 0x78(sp)
0x800006b0: 07 c1 2f 83 lw	t6, 0x7c(sp)
0x800006b4: 08 c1 01 13 addi	sp, sp, 0x8c
0x800006b8: 30 20 00 73 mret
0x8000050c: 00 00 00 73 ecall
0x80000580: f7 41 01 13 addi	sp, sp, -0x8c
0x80000584: 00 11 22 23 sw	ra, 4(sp)
0x80000588: 00 31 26 23 sw	gp, 0xc(sp)
0x8000058c: 00 41 28 23 sw	tp, 0x10(sp)
0x80000590: 00 51 2a 23 sw	t0, 0x14(sp)
0x80000594: 00 61 2c 23 sw	t1, 0x18(sp)
0x80000598: 00 71 2e 23 sw	t2, 0x1c(sp)
0x8000059c: 02 81 20 23 sw	s0, 0x20(sp)
0x800005a0: 02 91 22 23 sw	s1, 0x24(sp)
0x800005a4: 02 a1 24 23 sw	a0, 0x28(sp)
0x800005a8: 02 b1 26 23 sw	a1, 0x2c(sp)
0x800005ac: 02 c1 28 23 sw	a2, 0x30(sp)
0x800005b0: 02 d1 2a 23 sw	a3, 0x34(sp)
0x800005b4: 02 e1 2c 23 sw	a4, 0x38(sp)
0x800005b8: 02 f1 2e 23 sw	a5, 0x3c(sp)
0x800005bc: 05 01 20 23 sw	a6, 0x40(sp)
0x800005c0: 05 11 22 23 sw	a7, 0x44(sp)
0x800005c4: 05 21 24 23 sw	s2, 0x48(sp)
0x800005c8: 05 31 26 23 sw	s3, 0x4c(sp)
0x800005cc: 05 41 28 23 sw	s4, 0x50(sp)
0x800005d0: 05 51 2a 23 sw	s5, 0x54(sp)
0x800005d4: 05 61 2c 23 sw	s6, 0x58(sp)
0x800005d8: 05 71 2e 23 sw	s7, 0x5c(sp)
0x800005dc: 07 81 20 23 sw	s8, 0x60(sp)
0x800005e0: 07 91 22 23 sw	s9, 0x64(sp)
0x800005e4: 07 a1 24 23 sw	s10, 0x68(sp)
0x800005e8: 07 b1 26 23 sw	s11, 0x6c(sp)
0x800005ec: 07 c1 28 23 sw	t3, 0x70(sp)
0x800005f0: 07 d1 2a 23 sw	t4, 0x74(sp)
0x800005f4: 07 e1 2c 23 sw	t5, 0x78(sp)
0x800005f8: 07 f1 2e 23 sw	t6, 0x7c(sp)
0x800005fc: 34 20 22 f3 csrr	t0, mcause
0x80000600: 30 00 23 73 csrr	t1, mstatus
0x80000604: 34 10 23 f3 csrr	t2, mepc
0x80000608: 08 51 20 23 sw	t0, 0x80(sp)
0x8000060c: 08 61 22 23 sw	t1, 0x84(sp)
0x80000610: 08 71 24 23 sw	t2, 0x88(sp)
0x80000614: 00 02 05 37 lui	a0, 0x20
0x80000618: 00 a3 63 33 or	t1, t1, a0
0x8000061c: 30 03 10 73 csrw	mstatus, t1
0x80000620: 00 01 05 13 mv	a0, sp
0x80000624: db 9f f0 ef jal	-0x248
0x800003dc: 00 00 37 97 auipc	a5, 3
0x800003e0: a0 c7 a7 83 lw	a5, -0x5f4(a5)
0x800003e4: 00 05 05 93 mv	a1, a0
0x800003e8: 06 07 82 63 beqz	a5, 0x64
0x800003ec: 08 05 26 03 lw	a2, 0x80(a0)
0x800003f0: fd 01 01 13 addi	sp, sp, -0x30
0x800003f4: 02 11 26 23 sw	ra, 0x2c(sp)
0x800003f8: 00 01 2a 23 sw	zero, 0x14(sp)
0x800003fc: 00 01 2c 23 sw	zero, 0x18(sp)
0x80000400: 00 01 2e 23 sw	zero, 0x1c(sp)
0x80000404: 00 b0 06 93 addi	a3, zero, 0xb
0x80000408: 00 40 07 13 addi	a4, zero, 4
0x8000040c: 02 d6 0c 63 beq	a2, a3, 0x38
0x80000444: 00 10 07 13 addi	a4, zero, 1
0x80000448: fc 9f f0 6f j	-0x38
0x80000410: 00 e1 20 23 sw	a4, 0(sp)
0x80000414: 01 41 27 03 lw	a4, 0x14(sp)
0x80000418: 00 01 05 13 mv	a0, sp
0x8000041c: 00 e1 22 23 sw	a4, 4(sp)
0x80000420: 01 81 27 03 lw	a4, 0x18(sp)
0x80000424: 00 e1 24 23 sw	a4, 8(sp)
0x80000428: 01 c1 27 03 lw	a4, 0x1c(sp)
0x8000042c: 00 e1 26 23 sw	a4, 0xc(sp)
0x80000430: 00 07 80 e7 jalr	a5
0x80000010: fe 01 01 13 addi	sp, sp, -0x20
0x80000014: 01 21 28 23 sw	s2, 0x10(sp)
0x80000018: 00 00 39 17 auipc	s2, 3
0x8000001c: dc 89 09 13 addi	s2, s2, -0x238
0x80000020: 00 09 27 83 lw	a5, 0(s2)
0x80000024: 00 81 2c 23 sw	s0, 0x18(sp)
0x80000028: 00 91 2a 23 sw	s1, 0x14(sp)
0x8000002c: 01 31 26 23 sw	s3, 0xc(sp)
0x80000030: 00 11 2e 23 sw	ra, 0x1c(sp)
0x80000034: 00 17 87 93 addi	a5, a5, 1
0x80000038: 00 05 09 93 mv	s3, a0
0x8000003c: 00 05 84 93 mv	s1, a1
0x80000040: 00 f9 20 23 sw	a5, 0(s2)
0x80000044: 00 00 14 17 auipc	s0, 1
0x80000048: 77 44 04 13 addi	s0, s0, 0x774
0x8000004c: 05 30 05 13 addi	a0, zero, 0x53
0x80000050: 35 40 00 ef jal	0x354
0x800003a4: a0 00 07 b7 lui	a5, 0xa0000
0x800003a8: 3e a7 8c 23 sb	a0, 0x3f8(a5)
0x800003ac: 00 00 80 67 ret
0x80000054: 00 14 45 03 lbu	a0, 1(s0)
0x80000058: 00 14 04 13 addi	s0, s0, 1
0x8000005c: fe 05 1a e3 bnez	a0, -0xc
0x80000050: 35 40 00 ef jal	0x354
0x800003a4: a0 00 07 b7 lui	a5, 0xa0000
0x800003a8: 3e a7 8c 23 sb	a0, 0x3f8(a5)
0x800003ac: 00 00 80 67 ret
0x80000054: 00 14 45 03 lbu	a0, 1(s0)
0x80000058: 00 14 04 13 addi	s0, s0, 1
0x8000005c: fe 05 1a e3 bnez	a0, -0xc
0x80000050: 35 40 00 ef jal	0x354
0x800003a4: a0 00 07 b7 lui	a5, 0xa0000
0x800003a8: 3e a7 8c 23 sb	a0, 0x3f8(a5)
0x800003ac: 00 00 80 67 ret
0x80000054: 00 14 45 03 lbu	a0, 1(s0)
0x80000058: 00 14 04 13 addi	s0, s0, 1
0x8000005c: fe 05 1a e3 bnez	a0, -0xc
0x80000050: 35 40 00 ef jal	0x354
0x800003a4: a0 00 07 b7 lui	a5, 0xa0000
0x800003a8: 3e a7 8c 23 sb	a0, 0x3f8(a5)
0x800003ac: 00 00 80 67 ret
0x80000054: 00 14 45 03 lbu	a0, 1(s0)
0x80000058: 00 14 04 13 addi	s0, s0, 1
0x8000005c: fe 05 1a e3 bnez	a0, -0xc
0x80000050: 35 40 00 ef jal	0x354
0x800003a4: a0 00 07 b7 lui	a5, 0xa0000
0x800003a8: 3e a7 8c 23 sb	a0, 0x3f8(a5)
0x800003ac: 00 00 80 67 ret
0x80000054: 00 14 45 03 lbu	a0, 1(s0)
0x80000058: 00 14 04 13 addi	s0, s0, 1
0x8000005c: fe 05 1a e3 bnez	a0, -0xc
0x80000050: 35 40 00 ef jal	0x354
0x800003a4: a0 00 07 b7 lui	a5, 0xa0000
0x800003a8: 3e a7 8c 23 sb	a0, 0x3f8(a5)
0x800003ac: 00 00 80 67 ret
0x80000054: 00 14 45 03 lbu	a0, 1(s0)
0x80000058: 00 14 04 13 addi	s0, s0, 1
0x8000005c: fe 05 1a e3 bnez	a0, -0xc
0x80000050: 35 40 00 ef jal	0x354
0x800003a4: a0 00 07 b7 lui	a5, 0xa0000
0x800003a8: 3e a7 8c 23 sb	a0, 0x3f8(a5)
0x800003ac: 00 00 80 67 ret
0x80000054: 00 14 45 03 lbu	a0, 1(s0)
0x80000058: 00 14 04 13 addi	s0, s0, 1
0x8000005c: fe 05 1a e3 bnez	a0, -0xc
0x80000050: 35 40 00 ef jal	0x354
0x800003a4: a0 00 07 b7 lui	a5, 0xa0000
0x800003a8: 3e a7 8c 23 sb	a0, 0x3f8(a5)
0x800003ac: 00 00 80 67 ret
0x80000054: 00 14 45 03 lbu	a0, 1(s0)
0x80000058: 00 14 04 13 addi	s0, s0, 1
0x8000005c: fe 05 1a e3 bnez	a0, -0xc
0x80000050: 35 40 00 ef jal	0x354
0x800003a4: a0 00 07 b7 lui	a5, 0xa0000
0x800003a8: 3e a7 8c 23 sb	a0, 0x3f8(a5)
0x800003ac: 00 00 80 67 ret
0x80000054: 00 14 45 03 lbu	a0, 1(s0)
0x80000058: 00 14 04 13 addi	s0, s0, 1
0x8000005c: fe 05 1a e3 bnez	a0, -0xc
0x80000050: 35 40 00 ef jal	0x354
0x800003a4: a0 00 07 b7 lui	a5, 0xa0000
0x800003a8: 3e a7 8c 23 sb	a0, 0x3f8(a5)
0x800003ac: 00 00 80 67 ret
0x80000054: 00 14 45 03 lbu	a0, 1(s0)
0x80000058: 00 14 04 13 addi	s0, s0, 1
0x8000005c: fe 05 1a e3 bnez	a0, -0xc
0x80000050: 35 40 00 ef jal	0x354
0x800003a4: a0 00 07 b7 lui	a5, 0xa0000
0x800003a8: 3e a7 8c 23 sb	a0, 0x3f8(a5)
0x800003ac: 00 00 80 67 ret
0x80000054: 00 14 45 03 lbu	a0, 1(s0)
0x80000058: 00 14 04 13 addi	s0, s0, 1
0x8000005c: fe 05 1a e3 bnez	a0, -0xc
0x80000050: 35 40 00 ef jal	0x354
0x800003a4: a0 00 07 b7 lui	a5, 0xa0000
0x800003a8: 3e a7 8c 23 sb	a0, 0x3f8(a5)
0x800003ac: 00 00 80 67 ret
0x80000054: 00 14 45 03 lbu	a0, 1(s0)
0x80000058: 00 14 04 13 addi	s0, s0, 1
0x8000005c: fe 05 1a e3 bnez	a0, -0xc
0x80000050: 35 40 00 ef jal	0x354
0x800003a4: a0 00 07 b7 lui	a5, 0xa0000
0x800003a8: 3e a7 8c 23 sb	a0, 0x3f8(a5)
0x800003ac: 00 00 80 67 ret
0x80000054: 00 14 45 03 lbu	a0, 1(s0)
0x80000058: 00 14 04 13 addi	s0, s0, 1
0x8000005c: fe 05 1a e3 bnez	a0, -0xc
0x80000050: 35 40 00 ef jal	0x354
0x800003a4: a0 00 07 b7 lui	a5, 0xa0000
0x800003a8: 3e a7 8c 23 sb	a0, 0x3f8(a5)
0x800003ac: 00 00 80 67 ret
0x80000054: 00 14 45 03 lbu	a0, 1(s0)
0x80000058: 00 14 04 13 addi	s0, s0, 1
0x8000005c: fe 05 1a e3 bnez	a0, -0xc
0x80000050: 35 40 00 ef jal	0x354
0x800003a4: a0 00 07 b7 lui	a5, 0xa0000
0x800003a8: 3e a7 8c 23 sb	a0, 0x3f8(a5)
0x800003ac: 00 00 80 67 ret
0x80000054: 00 14 45 03 lbu	a0, 1(s0)
0x80000058: 00 14 04 13 addi	s0, s0, 1
0x8000005c: fe 05 1a e3 bnez	a0, -0xc
0x80000050: 35 40 00 ef jal	0x354
0x800003a4: a0 00 07 b7 lui	a5, 0xa0000
0x800003a8: 3e a7 8c 23 sb	a0, 0x3f8(a5)
0x800003ac: 00 00 80 67 ret
0x80000054: 00 14 45 03 lbu	a0, 1(s0)
0x80000058: 00 14 04 13 addi	s0, s0, 1
0x8000005c: fe 05 1a e3 bnez	a0, -0xc
0x80000050: 35 40 00 ef jal	0x354
0x800003a4: a0 00 07 b7 lui	a5, 0xa0000
0x800003a8: 3e a7 8c 23 sb	a0, 0x3f8(a5)
0x800003ac: 00 00 80 67 ret
0x80000054: 00 14 45 03 lbu	a0, 1(s0)
0x80000058: 00 14 04 13 addi	s0, s0, 1
0x8000005c: fe 05 1a e3 bnez	a0, -0xc
0x80000060: 00 09 25 03 lw	a0, 0(s2)
0x80000064: 00 00 14 17 auipc	s0, 1
0x80000068: 76 84 04 13 addi	s0, s0, 0x768
0x8000006c: 03 05 05 13 addi	a0, a0, 0x30
0x80000070: 0f f5 75 13 andi	a0, a0, 0xff
0x80000074: 33 00 00 ef jal	0x330
0x800003a4: a0 00 07 b7 lui	a5, 0xa0000
0x800003a8: 3e a7 8c 23 sb	a0, 0x3f8(a5)
0x800003ac: 00 00 80 67 ret
0x80000078: 02 c0 05 13 addi	a0, zero, 0x2c
0x8000007c: 32 80 00 ef jal	0x328
0x800003a4: a0 00 07 b7 lui	a5, 0xa0000
0x800003a8: 3e a7 8c 23 sb	a0, 0x3f8(a5)
0x800003ac: 00 00 80 67 ret
0x80000080: 00 14 45 03 lbu	a0, 1(s0)
0x80000084: 00 14 04 13 addi	s0, s0, 1
0x80000088: fe 05 1a e3 bnez	a0, -0xc
0x8000007c: 32 80 00 ef jal	0x328
0x800003a4: a0 00 07 b7 lui	a5, 0xa0000
0x800003a8: 3e a7 8c 23 sb	a0, 0x3f8(a5)
0x800003ac: 00 00 80 67 ret
0x80000080: 00 14 45 03 lbu	a0, 1(s0)
0x80000084: 00 14 04 13 addi	s0, s0, 1
0x80000088: fe 05 1a e3 bnez	a0, -0xc
0x8000007c: 32 80 00 ef jal	0x328
0x800003a4: a0 00 07 b7 lui	a5, 0xa0000
0x800003a8: 3e a7 8c 23 sb	a0, 0x3f8(a5)
0x800003ac: 00 00 80 67 ret
0x80000080: 00 14 45 03 lbu	a0, 1(s0)
0x80000084: 00 14 04 13 addi	s0, s0, 1
0x80000088: fe 05 1a e3 bnez	a0, -0xc
0x8000007c: 32 80 00 ef jal	0x328
0x800003a4: a0 00 07 b7 lui	a5, 0xa0000
0x800003a8: 3e a7 8c 23 sb	a0, 0x3f8(a5)
0x800003ac: 00 00 80 67 ret
0x80000080: 00 14 45 03 lbu	a0, 1(s0)
0x80000084: 00 14 04 13 addi	s0, s0, 1
0x80000088: fe 05 1a e3 bnez	a0, -0xc
0x8000007c: 32 80 00 ef jal	0x328
0x800003a4: a0 00 07 b7 lui	a5, 0xa0000
0x800003a8: 3e a7 8c 23 sb	a0, 0x3f8(a5)
0x800003ac: 00 00 80 67 ret
0x80000080: 00 14 45 03 lbu	a0, 1(s0)
0x80000084: 00 14 04 13 addi	s0, s0, 1
0x80000088: fe 05 1a e3 bnez	a0, -0xc
0x8000007c: 32 80 00 ef jal	0x328
0x800003a4: a0 00 07 b7 lui	a5, 0xa0000
0x800003a8: 3e a7 8c 23 sb	a0, 0x3f8(a5)
0x800003ac: 00 00 80 67 ret
0x80000080: 00 14 45 03 lbu	a0, 1(s0)
0x80000084: 00 14 04 13 addi	s0, s0, 1
0x80000088: fe 05 1a e3 bnez	a0, -0xc
0x8000007c: 32 80 00 ef jal	0x328
0x800003a4: a0 00 07 b7 lui	a5, 0xa0000
0x800003a8: 3e a7 8c 23 sb	a0, 0x3f8(a5)
0x800003ac: 00 00 80 67 ret
0x80000080: 00 14 45 03 lbu	a0, 1(s0)
0x80000084: 00 14 04 13 addi	s0, s0, 1
0x80000088: fe 05 1a e3 bnez	a0, -0xc
0x8000007c: 32 80 00 ef jal	0x328
0x800003a4: a0 00 07 b7 lui	a5, 0xa0000
0x800003a8: 3e a7 8c 23 sb	a0, 0x3f8(a5)
0x800003ac: 00 00 80 67 ret
0x80000080: 00 14 45 03 lbu	a0, 1(s0)
0x80000084: 00 14 04 13 addi	s0, s0, 1
0x80000088: fe 05 1a e3 bnez	a0, -0xc
0x8000007c: 32 80 00 ef jal	0x328
0x800003a4: a0 00 07 b7 lui	a5, 0xa0000
0x800003a8: 3e a7 8c 23 sb	a0, 0x3f8(a5)
0x800003ac: 00 00 80 67 ret
0x80000080: 00 14 45 03 lbu	a0, 1(s0)
0x80000084: 00 14 04 13 addi	s0, s0, 1
0x80000088: fe 05 1a e3 bnez	a0, -0xc
0x8000008c: 00 09 a5 03 lw	a0, 0(s3)
0x80000090: 03 05 05 13 addi	a0, a0, 0x30
0x80000094: 0f f5 75 13 andi	a0, a0, 0xff
0x80000098: 30 c0 00 ef jal	0x30c
0x800003a4: a0 00 07 b7 lui	a5, 0xa0000
0x800003a8: 3e a7 8c 23 sb	a0, 0x3f8(a5)
0x800003ac: 00 00 80 67 ret
0x8000009c: 00 a0 05 13 addi	a0, zero, 0xa
0x800000a0: 30 40 00 ef jal	0x304
0x800003a4: a0 00 07 b7 lui	a5, 0xa0000
0x800003a8: 3e a7 8c 23 sb	a0, 0x3f8(a5)
0x800003ac: 00 00 80 67 ret
0x800000a4: 00 09 27 83 lw	a5, 0(s2)
0x800000a8: 00 10 07 13 addi	a4, zero, 1
0x800000ac: 06 e7 84 63 beq	a5, a4, 0x68
0x800000b0: 00 40 07 13 addi	a4, zero, 4
0x800000b4: 04 f7 40 63 blt	a4, a5, 0x40
0x800000f4: 00 00 14 17 auipc	s0, 1
0x800000f8: 71 c4 04 13 addi	s0, s0, 0x71c
0x800000fc: 05 30 05 13 addi	a0, zero, 0x53
0x80000100: 2a 40 00 ef jal	0x2a4
0x800003a4: a0 00 07 b7 lui	a5, 0xa0000
0x800003a8: 3e a7 8c 23 sb	a0, 0x3f8(a5)
0x800003ac: 00 00 80 67 ret
0x80000104: 00 14 45 03 lbu	a0, 1(s0)
0x80000108: 00 14 04 13 addi	s0, s0, 1
0x8000010c: fe 05 1a e3 bnez	a0, -0xc
0x80000100: 2a 40 00 ef jal	0x2a4
0x800003a4: a0 00 07 b7 lui	a5, 0xa0000
0x800003a8: 3e a7 8c 23 sb	a0, 0x3f8(a5)
0x800003ac: 00 00 80 67 ret
0x80000104: 00 14 45 03 lbu	a0, 1(s0)
0x80000108: 00 14 04 13 addi	s0, s0, 1
0x8000010c: fe 05 1a e3 bnez	a0, -0xc
0x80000100: 2a 40 00 ef jal	0x2a4
0x800003a4: a0 00 07 b7 lui	a5, 0xa0000
0x800003a8: 3e a7 8c 23 sb	a0, 0x3f8(a5)
0x800003ac: 00 00 80 67 ret
0x80000104: 00 14 45 03 lbu	a0, 1(s0)
0x80000108: 00 14 04 13 addi	s0, s0, 1
0x8000010c: fe 05 1a e3 bnez	a0, -0xc
0x80000100: 2a 40 00 ef jal	0x2a4
0x800003a4: a0 00 07 b7 lui	a5, 0xa0000
0x800003a8: 3e a7 8c 23 sb	a0, 0x3f8(a5)
0x800003ac: 00 00 80 67 ret
0x80000104: 00 14 45 03 lbu	a0, 1(s0)
0x80000108: 00 14 04 13 addi	s0, s0, 1
0x8000010c: fe 05 1a e3 bnez	a0, -0xc
0x80000100: 2a 40 00 ef jal	0x2a4
0x800003a4: a0 00 07 b7 lui	a5, 0xa0000
0x800003a8: 3e a7 8c 23 sb	a0, 0x3f8(a5)
0x800003ac: 00 00 80 67 ret
0x80000104: 00 14 45 03 lbu	a0, 1(s0)
0x80000108: 00 14 04 13 addi	s0, s0, 1
0x8000010c: fe 05 1a e3 bnez	a0, -0xc
0x80000100: 2a 40 00 ef jal	0x2a4
0x800003a4: a0 00 07 b7 lui	a5, 0xa0000
0x800003a8: 3e a7 8c 23 sb	a0, 0x3f8(a5)
0x800003ac: 00 00 80 67 ret
0x80000104: 00 14 45 03 lbu	a0, 1(s0)
0x80000108: 00 14 04 13 addi	s0, s0, 1
0x8000010c: fe 05 1a e3 bnez	a0, -0xc
0x80000100: 2a 40 00 ef jal	0x2a4
0x800003a4: a0 00 07 b7 lui	a5, 0xa0000
0x800003a8: 3e a7 8c 23 sb	a0, 0x3f8(a5)
0x800003ac: 00 00 80 67 ret
0x80000104: 00 14 45 03 lbu	a0, 1(s0)
0x80000108: 00 14 04 13 addi	s0, s0, 1
0x8000010c: fe 05 1a e3 bnez	a0, -0xc
0x80000100: 2a 40 00 ef jal	0x2a4
0x800003a4: a0 00 07 b7 lui	a5, 0xa0000
0x800003a8: 3e a7 8c 23 sb	a0, 0x3f8(a5)
0x800003ac: 00 00 80 67 ret
0x80000104: 00 14 45 03 lbu	a0, 1(s0)
0x80000108: 00 14 04 13 addi	s0, s0, 1
0x8000010c: fe 05 1a e3 bnez	a0, -0xc
0x80000100: 2a 40 00 ef jal	0x2a4
0x800003a4: a0 00 07 b7 lui	a5, 0xa0000
0x800003a8: 3e a7 8c 23 sb	a0, 0x3f8(a5)
0x800003ac: 00 00 80 67 ret
0x80000104: 00 14 45 03 lbu	a0, 1(s0)
0x80000108: 00 14 04 13 addi	s0, s0, 1
0x8000010c: fe 05 1a e3 bnez	a0, -0xc
0x80000100: 2a 40 00 ef jal	0x2a4
0x800003a4: a0 00 07 b7 lui	a5, 0xa0000
0x800003a8: 3e a7 8c 23 sb	a0, 0x3f8(a5)
0x800003ac: 00 00 80 67 ret
0x80000104: 00 14 45 03 lbu	a0, 1(s0)
0x80000108: 00 14 04 13 addi	s0, s0, 1
0x8000010c: fe 05 1a e3 bnez	a0, -0xc
0x80000100: 2a 40 00 ef jal	0x2a4
0x800003a4: a0 00 07 b7 lui	a5, 0xa0000
0x800003a8: 3e a7 8c 23 sb	a0, 0x3f8(a5)
0x800003ac: 00 00 80 67 ret
0x80000104: 00 14 45 03 lbu	a0, 1(s0)
0x80000108: 00 14 04 13 addi	s0, s0, 1
0x8000010c: fe 05 1a e3 bnez	a0, -0xc
0x80000100: 2a 40 00 ef jal	0x2a4
0x800003a4: a0 00 07 b7 lui	a5, 0xa0000
0x800003a8: 3e a7 8c 23 sb	a0, 0x3f8(a5)
0x800003ac: 00 00 80 67 ret
0x80000104: 00 14 45 03 lbu	a0, 1(s0)
0x80000108: 00 14 04 13 addi	s0, s0, 1
0x8000010c: fe 05 1a e3 bnez	a0, -0xc
0x80000100: 2a 40 00 ef jal	0x2a4
0x800003a4: a0 00 07 b7 lui	a5, 0xa0000
0x800003a8: 3e a7 8c 23 sb	a0, 0x3f8(a5)
0x800003ac: 00 00 80 67 ret
0x80000104: 00 14 45 03 lbu	a0, 1(s0)
0x80000108: 00 14 04 13 addi	s0, s0, 1
0x8000010c: fe 05 1a e3 bnez	a0, -0xc
0x80000100: 2a 40 00 ef jal	0x2a4
0x800003a4: a0 00 07 b7 lui	a5, 0xa0000
0x800003a8: 3e a7 8c 23 sb	a0, 0x3f8(a5)
0x800003ac: 00 00 80 67 ret
0x80000104: 00 14 45 03 lbu	a0, 1(s0)
0x80000108: 00 14 04 13 addi	s0, s0, 1
0x8000010c: fe 05 1a e3 bnez	a0, -0xc
0x80000100: 2a 40 00 ef jal	0x2a4
0x800003a4: a0 00 07 b7 lui	a5, 0xa0000
0x800003a8: 3e a7 8c 23 sb	a0, 0x3f8(a5)
0x800003ac: 00 00 80 67 ret
0x80000104: 00 14 45 03 lbu	a0, 1(s0)
0x80000108: 00 14 04 13 addi	s0, s0, 1
0x8000010c: fe 05 1a e3 bnez	a0, -0xc
0x80000100: 2a 40 00 ef jal	0x2a4
0x800003a4: a0 00 07 b7 lui	a5, 0xa0000
0x800003a8: 3e a7 8c 23 sb	a0, 0x3f8(a5)
0x800003ac: 00 00 80 67 ret
0x80000104: 00 14 45 03 lbu	a0, 1(s0)
0x80000108: 00 14 04 13 addi	s0, s0, 1
0x8000010c: fe 05 1a e3 bnez	a0, -0xc
0x80000100: 2a 40 00 ef jal	0x2a4
0x800003a4: a0 00 07 b7 lui	a5, 0xa0000
0x800003a8: 3e a7 8c 23 sb	a0, 0x3f8(a5)
0x800003ac: 00 00 80 67 ret
0x80000104: 00 14 45 03 lbu	a0, 1(s0)
0x80000108: 00 14 04 13 addi	s0, s0, 1
0x8000010c: fe 05 1a e3 bnez	a0, -0xc
0x80000100: 2a 40 00 ef jal	0x2a4
0x800003a4: a0 00 07 b7 lui	a5, 0xa0000
0x800003a8: 3e a7 8c 23 sb	a0, 0x3f8(a5)
0x800003ac: 00 00 80 67 ret
0x80000104: 00 14 45 03 lbu	a0, 1(s0)
0x80000108: 00 14 04 13 addi	s0, s0, 1
0x8000010c: fe 05 1a e3 bnez	a0, -0xc
0x80000100: 2a 40 00 ef jal	0x2a4
0x800003a4: a0 00 07 b7 lui	a5, 0xa0000
0x800003a8: 3e a7 8c 23 sb	a0, 0x3f8(a5)
0x800003ac: 00 00 80 67 ret
0x80000104: 00 14 45 03 lbu	a0, 1(s0)
0x80000108: 00 14 04 13 addi	s0, s0, 1
0x8000010c: fe 05 1a e3 bnez	a0, -0xc
0x80000100: 2a 40 00 ef jal	0x2a4
0x800003a4: a0 00 07 b7 lui	a5, 0xa0000
0x800003a8: 3e a7 8c 23 sb	a0, 0x3f8(a5)
0x800003ac: 00 00 80 67 ret
0x80000104: 00 14 45 03 lbu	a0, 1(s0)
0x80000108: 00 14 04 13 addi	s0, s0, 1
0x8000010c: fe 05 1a e3 bnez	a0, -0xc
0x80000100: 2a 40 00 ef jal	0x2a4
0x800003a4: a0 00 07 b7 lui	a5, 0xa0000
0x800003a8: 3e a7 8c 23 sb	a0, 0x3f8(a5)
0x800003ac: 00 00 80 67 ret
0x80000104: 00 14 45 03 lbu	a0, 1(s0)
0x80000108: 00 14 04 13 addi	s0, s0, 1
0x8000010c: fe 05 1a e3 bnez	a0, -0xc
0x80000100: 2a 40 00 ef jal	0x2a4
0x800003a4: a0 00 07 b7 lui	a5, 0xa0000
0x800003a8: 3e a7 8c 23 sb	a0, 0x3f8(a5)
0x800003ac: 00 00 80 67 ret
0x80000104: 00 14 45 03 lbu	a0, 1(s0)
0x80000108: 00 14 04 13 addi	s0, s0, 1
0x8000010c: fe 05 1a e3 bnez	a0, -0xc
0x80000100: 2a 40 00 ef jal	0x2a4
0x800003a4: a0 00 07 b7 lui	a5, 0xa0000
0x800003a8: 3e a7 8c 23 sb	a0, 0x3f8(a5)
0x800003ac: 00 00 80 67 ret
0x80000104: 00 14 45 03 lbu	a0, 1(s0)
0x80000108: 00 14 04 13 addi	s0, s0, 1
0x8000010c: fe 05 1a e3 bnez	a0, -0xc
0x80000100: 2a 40 00 ef jal	0x2a4
0x800003a4: a0 00 07 b7 lui	a5, 0xa0000
0x800003a8: 3e a7 8c 23 sb	a0, 0x3f8(a5)
0x800003ac: 00 00 80 67 ret
0x80000104: 00 14 45 03 lbu	a0, 1(s0)
0x80000108: 00 14 04 13 addi	s0, s0, 1
0x8000010c: fe 05 1a e3 bnez	a0, -0xc
0x80000100: 2a 40 00 ef jal	0x2a4
0x800003a4: a0 00 07 b7 lui	a5, 0xa0000
0x800003a8: 3e a7 8c 23 sb	a0, 0x3f8(a5)
0x800003ac: 00 00 80 67 ret
0x80000104: 00 14 45 03 lbu	a0, 1(s0)
0x80000108: 00 14 04 13 addi	s0, s0, 1
0x8000010c: fe 05 1a e3 bnez	a0, -0xc
0x80000100: 2a 40 00 ef jal	0x2a4
0x800003a4: a0 00 07 b7 lui	a5, 0xa0000
0x800003a8: 3e a7 8c 23 sb	a0, 0x3f8(a5)
0x800003ac: 00 00 80 67 ret
0x80000104: 00 14 45 03 lbu	a0, 1(s0)
0x80000108: 00 14 04 13 addi	s0, s0, 1
0x8000010c: fe 05 1a e3 bnez	a0, -0xc
0x80000100: 2a 40 00 ef jal	0x2a4
0x800003a4: a0 00 07 b7 lui	a5, 0xa0000
0x800003a8: 3e a7 8c 23 sb	a0, 0x3f8(a5)
0x800003ac: 00 00 80 67 ret
0x80000104: 00 14 45 03 lbu	a0, 1(s0)
0x80000108: 00 14 04 13 addi	s0, s0, 1
0x8000010c: fe 05 1a e3 bnez	a0, -0xc
0x80000110: fc 5f f0 6f j	-0x3c
0x800000d4: 01 c1 20 83 lw	ra, 0x1c(sp)
0x800000d8: 01 81 24 03 lw	s0, 0x18(sp)
0x800000dc: 01 01 29 03 lw	s2, 0x10(sp)
0x800000e0: 00 c1 29 83 lw	s3, 0xc(sp)
0x800000e4: 00 04 85 13 mv	a0, s1
0x800000e8: 01 41 24 83 lw	s1, 0x14(sp)
0x800000ec: 02 01 01 13 addi	sp, sp, 0x20
0x800000f0: 00 00 80 67 ret
0x80000434: 00 05 0e 63 beqz	a0, 0x1c
0x80000438: 02 c1 20 83 lw	ra, 0x2c(sp)
0x8000043c: 03 01 01 13 addi	sp, sp, 0x30
0x80000440: 00 00 80 67 ret
0x80000628: 00 05 01 13 mv	sp, a0
0x8000062c: 08 41 23 03 lw	t1, 0x84(sp)
0x80000630: 08 81 23 83 lw	t2, 0x88(sp)
0x80000634: 30 03 10 73 csrw	mstatus, t1
0x80000638: 34 13 90 73 csrw	mepc, t2
0x8000063c: 00 41 20 83 lw	ra, 4(sp)
0x80000640: 00 c1 21 83 lw	gp, 0xc(sp)
0x80000644: 01 01 22 03 lw	tp, 0x10(sp)
0x80000648: 01 41 22 83 lw	t0, 0x14(sp)
0x8000064c: 01 81 23 03 lw	t1, 0x18(sp)
0x80000650: 01 c1 23 83 lw	t2, 0x1c(sp)
0x80000654: 02 01 24 03 lw	s0, 0x20(sp)
0x80000658: 02 41 24 83 lw	s1, 0x24(sp)
0x8000065c: 02 81 25 03 lw	a0, 0x28(sp)
0x80000660: 02 c1 25 83 lw	a1, 0x2c(sp)
0x80000664: 03 01 26 03 lw	a2, 0x30(sp)
0x80000668: 03 41 26 83 lw	a3, 0x34(sp)
0x8000066c: 03 81 27 03 lw	a4, 0x38(sp)
0x80000670: 03 c1 27 83 lw	a5, 0x3c(sp)
0x80000674: 04 01 28 03 lw	a6, 0x40(sp)
0x80000678: 04 41 28 83 lw	a7, 0x44(sp)
0x8000067c: 04 81 29 03 lw	s2, 0x48(sp)
0x80000680: 04 c1 29 83 lw	s3, 0x4c(sp)
0x80000684: 05 01 2a 03 lw	s4, 0x50(sp)
0x80000688: 05 41 2a 83 lw	s5, 0x54(sp)
0x8000068c: 05 81 2b 03 lw	s6, 0x58(sp)
0x80000690: 05 c1 2b 83 lw	s7, 0x5c(sp)
0x80000694: 06 01 2c 03 lw	s8, 0x60(sp)
0x80000698: 06 41 2c 83 lw	s9, 0x64(sp)
0x8000069c: 06 81 2d 03 lw	s10, 0x68(sp)
0x800006a0: 06 c1 2d 83 lw	s11, 0x6c(sp)
0x800006a4: 07 01 2e 03 lw	t3, 0x70(sp)
0x800006a8: 07 41 2e 83 lw	t4, 0x74(sp)
0x800006ac: 07 81 2f 03 lw	t5, 0x78(sp)
0x800006b0: 07 c1 2f 83 lw	t6, 0x7c(sp)
0x800006b4: 08 c1 01 13 addi	sp, sp, 0x8c
0x800006b8: 30 20 00 73 mret
0x8000050c: 00 00 00 73 ecall
0x80000580: f7 41 01 13 addi	sp, sp, -0x8c
0x80000584: 00 11 22 23 sw	ra, 4(sp)
0x80000588: 00 31 26 23 sw	gp, 0xc(sp)
0x8000058c: 00 41 28 23 sw	tp, 0x10(sp)
0x80000590: 00 51 2a 23 sw	t0, 0x14(sp)
0x80000594: 00 61 2c 23 sw	t1, 0x18(sp)
0x80000598: 00 71 2e 23 sw	t2, 0x1c(sp)
0x8000059c: 02 81 20 23 sw	s0, 0x20(sp)
0x800005a0: 02 91 22 23 sw	s1, 0x24(sp)
0x800005a4: 02 a1 24 23 sw	a0, 0x28(sp)
0x800005a8: 02 b1 26 23 sw	a1, 0x2c(sp)
0x800005ac: 02 c1 28 23 sw	a2, 0x30(sp)
0x800005b0: 02 d1 2a 23 sw	a3, 0x34(sp)
0x800005b4: 02 e1 2c 23 sw	a4, 0x38(sp)
0x800005b8: 02 f1 2e 23 sw	a5, 0x3c(sp)
0x800005bc: 05 01 20 23 sw	a6, 0x40(sp)
0x800005c0: 05 11 22 23 sw	a7, 0x44(sp)
0x800005c4: 05 21 24 23 sw	s2, 0x48(sp)
0x800005c8: 05 31 26 23 sw	s3, 0x4c(sp)
0x800005cc: 05 41 28 23 sw	s4, 0x50(sp)
0x800005d0: 05 51 2a 23 sw	s5, 0x54(sp)
0x800005d4: 05 61 2c 23 sw	s6, 0x58(sp)
0x800005d8: 05 71 2e 23 sw	s7, 0x5c(sp)
0x800005dc: 07 81 20 23 sw	s8, 0x60(sp)
0x800005e0: 07 91 22 23 sw	s9, 0x64(sp)
0x800005e4: 07 a1 24 23 sw	s10, 0x68(sp)
0x800005e8: 07 b1 26 23 sw	s11, 0x6c(sp)
0x800005ec: 07 c1 28 23 sw	t3, 0x70(sp)
0x800005f0: 07 d1 2a 23 sw	t4, 0x74(sp)
0x800005f4: 07 e1 2c 23 sw	t5, 0x78(sp)
0x800005f8: 07 f1 2e 23 sw	t6, 0x7c(sp)
0x800005fc: 34 20 22 f3 csrr	t0, mcause
0x80000600: 30 00 23 73 csrr	t1, mstatus
0x80000604: 34 10 23 f3 csrr	t2, mepc
0x80000608: 08 51 20 23 sw	t0, 0x80(sp)
0x8000060c: 08 61 22 23 sw	t1, 0x84(sp)
0x80000610: 08 71 24 23 sw	t2, 0x88(sp)
0x80000614: 00 02 05 37 lui	a0, 0x20
0x80000618: 00 a3 63 33 or	t1, t1, a0
0x8000061c: 30 03 10 73 csrw	mstatus, t1
0x80000620: 00 01 05 13 mv	a0, sp
0x80000624: db 9f f0 ef jal	-0x248
0x800003dc: 00 00 37 97 auipc	a5, 3
0x800003e0: a0 c7 a7 83 lw	a5, -0x5f4(a5)
0x800003e4: 00 05 05 93 mv	a1, a0
0x800003e8: 06 07 82 63 beqz	a5, 0x64
0x800003ec: 08 05 26 03 lw	a2, 0x80(a0)
0x800003f0: fd 01 01 13 addi	sp, sp, -0x30
0x800003f4: 02 11 26 23 sw	ra, 0x2c(sp)
0x800003f8: 00 01 2a 23 sw	zero, 0x14(sp)
0x800003fc: 00 01 2c 23 sw	zero, 0x18(sp)
0x80000400: 00 01 2e 23 sw	zero, 0x1c(sp)
0x80000404: 00 b0 06 93 addi	a3, zero, 0xb
0x80000408: 00 40 07 13 addi	a4, zero, 4
0x8000040c: 02 d6 0c 63 beq	a2, a3, 0x38
0x80000444: 00 10 07 13 addi	a4, zero, 1
0x80000448: fc 9f f0 6f j	-0x38
0x80000410: 00 e1 20 23 sw	a4, 0(sp)
0x80000414: 01 41 27 03 lw	a4, 0x14(sp)
0x80000418: 00 01 05 13 mv	a0, sp
0x8000041c: 00 e1 22 23 sw	a4, 4(sp)
0x80000420: 01 81 27 03 lw	a4, 0x18(sp)
0x80000424: 00 e1 24 23 sw	a4, 8(sp)
0x80000428: 01 c1 27 03 lw	a4, 0x1c(sp)
0x8000042c: 00 e1 26 23 sw	a4, 0xc(sp)
0x80000430: 00 07 80 e7 jalr	a5
0x80000010: fe 01 01 13 addi	sp, sp, -0x20
0x80000014: 01 21 28 23 sw	s2, 0x10(sp)
0x80000018: 00 00 39 17 auipc	s2, 3
0x8000001c: dc 89 09 13 addi	s2, s2, -0x238
0x80000020: 00 09 27 83 lw	a5, 0(s2)
0x80000024: 00 81 2c 23 sw	s0, 0x18(sp)
0x80000028: 00 91 2a 23 sw	s1, 0x14(sp)
0x8000002c: 01 31 26 23 sw	s3, 0xc(sp)
0x80000030: 00 11 2e 23 sw	ra, 0x1c(sp)
0x80000034: 00 17 87 93 addi	a5, a5, 1
0x80000038: 00 05 09 93 mv	s3, a0
0x8000003c: 00 05 84 93 mv	s1, a1
0x80000040: 00 f9 20 23 sw	a5, 0(s2)
0x80000044: 00 00 14 17 auipc	s0, 1
0x80000048: 77 44 04 13 addi	s0, s0, 0x774
0x8000004c: 05 30 05 13 addi	a0, zero, 0x53
0x80000050: 35 40 00 ef jal	0x354
0x800003a4: a0 00 07 b7 lui	a5, 0xa0000
0x800003a8: 3e a7 8c 23 sb	a0, 0x3f8(a5)
0x800003ac: 00 00 80 67 ret
0x80000054: 00 14 45 03 lbu	a0, 1(s0)
0x80000058: 00 14 04 13 addi	s0, s0, 1
0x8000005c: fe 05 1a e3 bnez	a0, -0xc
0x80000050: 35 40 00 ef jal	0x354
0x800003a4: a0 00 07 b7 lui	a5, 0xa0000
0x800003a8: 3e a7 8c 23 sb	a0, 0x3f8(a5)
0x800003ac: 00 00 80 67 ret
0x80000054: 00 14 45 03 lbu	a0, 1(s0)
0x80000058: 00 14 04 13 addi	s0, s0, 1
0x8000005c: fe 05 1a e3 bnez	a0, -0xc
0x80000050: 35 40 00 ef jal	0x354
0x800003a4: a0 00 07 b7 lui	a5, 0xa0000
0x800003a8: 3e a7 8c 23 sb	a0, 0x3f8(a5)
0x800003ac: 00 00 80 67 ret
0x80000054: 00 14 45 03 lbu	a0, 1(s0)
0x80000058: 00 14 04 13 addi	s0, s0, 1
0x8000005c: fe 05 1a e3 bnez	a0, -0xc
0x80000050: 35 40 00 ef jal	0x354
0x800003a4: a0 00 07 b7 lui	a5, 0xa0000
0x800003a8: 3e a7 8c 23 sb	a0, 0x3f8(a5)
0x800003ac: 00 00 80 67 ret
0x80000054: 00 14 45 03 lbu	a0, 1(s0)
0x80000058: 00 14 04 13 addi	s0, s0, 1
0x8000005c: fe 05 1a e3 bnez	a0, -0xc
0x80000050: 35 40 00 ef jal	0x354
0x800003a4: a0 00 07 b7 lui	a5, 0xa0000
0x800003a8: 3e a7 8c 23 sb	a0, 0x3f8(a5)
0x800003ac: 00 00 80 67 ret
0x80000054: 00 14 45 03 lbu	a0, 1(s0)
0x80000058: 00 14 04 13 addi	s0, s0, 1
0x8000005c: fe 05 1a e3 bnez	a0, -0xc
0x80000050: 35 40 00 ef jal	0x354
0x800003a4: a0 00 07 b7 lui	a5, 0xa0000
0x800003a8: 3e a7 8c 23 sb	a0, 0x3f8(a5)
0x800003ac: 00 00 80 67 ret
0x80000054: 00 14 45 03 lbu	a0, 1(s0)
0x80000058: 00 14 04 13 addi	s0, s0, 1
0x8000005c: fe 05 1a e3 bnez	a0, -0xc
0x80000050: 35 40 00 ef jal	0x354
0x800003a4: a0 00 07 b7 lui	a5, 0xa0000
0x800003a8: 3e a7 8c 23 sb	a0, 0x3f8(a5)
0x800003ac: 00 00 80 67 ret
0x80000054: 00 14 45 03 lbu	a0, 1(s0)
0x80000058: 00 14 04 13 addi	s0, s0, 1
0x8000005c: fe 05 1a e3 bnez	a0, -0xc
0x80000050: 35 40 00 ef jal	0x354
0x800003a4: a0 00 07 b7 lui	a5, 0xa0000
0x800003a8: 3e a7 8c 23 sb	a0, 0x3f8(a5)
0x800003ac: 00 00 80 67 ret
0x80000054: 00 14 45 03 lbu	a0, 1(s0)
0x80000058: 00 14 04 13 addi	s0, s0, 1
0x8000005c: fe 05 1a e3 bnez	a0, -0xc
0x80000050: 35 40 00 ef jal	0x354
0x800003a4: a0 00 07 b7 lui	a5, 0xa0000
0x800003a8: 3e a7 8c 23 sb	a0, 0x3f8(a5)
0x800003ac: 00 00 80 67 ret
0x80000054: 00 14 45 03 lbu	a0, 1(s0)
0x80000058: 00 14 04 13 addi	s0, s0, 1
0x8000005c: fe 05 1a e3 bnez	a0, -0xc
0x80000050: 35 40 00 ef jal	0x354
0x800003a4: a0 00 07 b7 lui	a5, 0xa0000
0x800003a8: 3e a7 8c 23 sb	a0, 0x3f8(a5)
0x800003ac: 00 00 80 67 ret
0x80000054: 00 14 45 03 lbu	a0, 1(s0)
0x80000058: 00 14 04 13 addi	s0, s0, 1
0x8000005c: fe 05 1a e3 bnez	a0, -0xc
0x80000050: 35 40 00 ef jal	0x354
0x800003a4: a0 00 07 b7 lui	a5, 0xa0000
0x800003a8: 3e a7 8c 23 sb	a0, 0x3f8(a5)
0x800003ac: 00 00 80 67 ret
0x80000054: 00 14 45 03 lbu	a0, 1(s0)
0x80000058: 00 14 04 13 addi	s0, s0, 1
0x8000005c: fe 05 1a e3 bnez	a0, -0xc
0x80000050: 35 40 00 ef jal	0x354
0x800003a4: a0 00 07 b7 lui	a5, 0xa0000
0x800003a8: 3e a7 8c 23 sb	a0, 0x3f8(a5)
0x800003ac: 00 00 80 67 ret
0x80000054: 00 14 45 03 lbu	a0, 1(s0)
0x80000058: 00 14 04 13 addi	s0, s0, 1
0x8000005c: fe 05 1a e3 bnez	a0, -0xc
0x80000050: 35 40 00 ef jal	0x354
0x800003a4: a0 00 07 b7 lui	a5, 0xa0000
0x800003a8: 3e a7 8c 23 sb	a0, 0x3f8(a5)
0x800003ac: 00 00 80 67 ret
0x80000054: 00 14 45 03 lbu	a0, 1(s0)
0x80000058: 00 14 04 13 addi	s0, s0, 1
0x8000005c: fe 05 1a e3 bnez	a0, -0xc
0x80000050: 35 40 00 ef jal	0x354
0x800003a4: a0 00 07 b7 lui	a5, 0xa0000
0x800003a8: 3e a7 8c 23 sb	a0, 0x3f8(a5)
0x800003ac: 00 00 80 67 ret
0x80000054: 00 14 45 03 lbu	a0, 1(s0)
0x80000058: 00 14 04 13 addi	s0, s0, 1
0x8000005c: fe 05 1a e3 bnez	a0, -0xc
0x80000050: 35 40 00 ef jal	0x354
0x800003a4: a0 00 07 b7 lui	a5, 0xa0000
0x800003a8: 3e a7 8c 23 sb	a0, 0x3f8(a5)
0x800003ac: 00 00 80 67 ret
0x80000054: 00 14 45 03 lbu	a0, 1(s0)
0x80000058: 00 14 04 13 addi	s0, s0, 1
0x8000005c: fe 05 1a e3 bnez	a0, -0xc
0x80000050: 35 40 00 ef jal	0x354
0x800003a4: a0 00 07 b7 lui	a5, 0xa0000
0x800003a8: 3e a7 8c 23 sb	a0, 0x3f8(a5)
0x800003ac: 00 00 80 67 ret
0x80000054: 00 14 45 03 lbu	a0, 1(s0)
0x80000058: 00 14 04 13 addi	s0, s0, 1
0x8000005c: fe 05 1a e3 bnez	a0, -0xc
0x80000050: 35 40 00 ef jal	0x354
0x800003a4: a0 00 07 b7 lui	a5, 0xa0000
0x800003a8: 3e a7 8c 23 sb	a0, 0x3f8(a5)
0x800003ac: 00 00 80 67 ret
0x80000054: 00 14 45 03 lbu	a0, 1(s0)
0x80000058: 00 14 04 13 addi	s0, s0, 1
0x8000005c: fe 05 1a e3 bnez	a0, -0xc
0x80000060: 00 09 25 03 lw	a0, 0(s2)
0x80000064: 00 00 14 17 auipc	s0, 1
0x80000068: 76 84 04 13 addi	s0, s0, 0x768
0x8000006c: 03 05 05 13 addi	a0, a0, 0x30
0x80000070: 0f f5 75 13 andi	a0, a0, 0xff
0x80000074: 33 00 00 ef jal	0x330
0x800003a4: a0 00 07 b7 lui	a5, 0xa0000
0x800003a8: 3e a7 8c 23 sb	a0, 0x3f8(a5)
0x800003ac: 00 00 80 67 ret
0x80000078: 02 c0 05 13 addi	a0, zero, 0x2c
0x8000007c: 32 80 00 ef jal	0x328
0x800003a4: a0 00 07 b7 lui	a5, 0xa0000
0x800003a8: 3e a7 8c 23 sb	a0, 0x3f8(a5)
0x800003ac: 00 00 80 67 ret
0x80000080: 00 14 45 03 lbu	a0, 1(s0)
0x80000084: 00 14 04 13 addi	s0, s0, 1
0x80000088: fe 05 1a e3 bnez	a0, -0xc
0x8000007c: 32 80 00 ef jal	0x328
0x800003a4: a0 00 07 b7 lui	a5, 0xa0000
0x800003a8: 3e a7 8c 23 sb	a0, 0x3f8(a5)
0x800003ac: 00 00 80 67 ret
0x80000080: 00 14 45 03 lbu	a0, 1(s0)
0x80000084: 00 14 04 13 addi	s0, s0, 1
0x80000088: fe 05 1a e3 bnez	a0, -0xc
0x8000007c: 32 80 00 ef jal	0x328
0x800003a4: a0 00 07 b7 lui	a5, 0xa0000
0x800003a8: 3e a7 8c 23 sb	a0, 0x3f8(a5)
0x800003ac: 00 00 80 67 ret
0x80000080: 00 14 45 03 lbu	a0, 1(s0)
0x80000084: 00 14 04 13 addi	s0, s0, 1
0x80000088: fe 05 1a e3 bnez	a0, -0xc
0x8000007c: 32 80 00 ef jal	0x328
0x800003a4: a0 00 07 b7 lui	a5, 0xa0000
0x800003a8: 3e a7 8c 23 sb	a0, 0x3f8(a5)
0x800003ac: 00 00 80 67 ret
0x80000080: 00 14 45 03 lbu	a0, 1(s0)
0x80000084: 00 14 04 13 addi	s0, s0, 1
0x80000088: fe 05 1a e3 bnez	a0, -0xc
0x8000007c: 32 80 00 ef jal	0x328
0x800003a4: a0 00 07 b7 lui	a5, 0xa0000
0x800003a8: 3e a7 8c 23 sb	a0, 0x3f8(a5)
0x800003ac: 00 00 80 67 ret
0x80000080: 00 14 45 03 lbu	a0, 1(s0)
0x80000084: 00 14 04 13 addi	s0, s0, 1
0x80000088: fe 05 1a e3 bnez	a0, -0xc
0x8000007c: 32 80 00 ef jal	0x328
0x800003a4: a0 00 07 b7 lui	a5, 0xa0000
0x800003a8: 3e a7 8c 23 sb	a0, 0x3f8(a5)
0x800003ac: 00 00 80 67 ret
0x80000080: 00 14 45 03 lbu	a0, 1(s0)
0x80000084: 00 14 04 13 addi	s0, s0, 1
0x80000088: fe 05 1a e3 bnez	a0, -0xc
0x8000007c: 32 80 00 ef jal	0x328
0x800003a4: a0 00 07 b7 lui	a5, 0xa0000
0x800003a8: 3e a7 8c 23 sb	a0, 0x3f8(a5)
0x800003ac: 00 00 80 67 ret
0x80000080: 00 14 45 03 lbu	a0, 1(s0)
0x80000084: 00 14 04 13 addi	s0, s0, 1
0x80000088: fe 05 1a e3 bnez	a0, -0xc
0x8000007c: 32 80 00 ef jal	0x328
0x800003a4: a0 00 07 b7 lui	a5, 0xa0000
0x800003a8: 3e a7 8c 23 sb	a0, 0x3f8(a5)
0x800003ac: 00 00 80 67 ret
0x80000080: 00 14 45 03 lbu	a0, 1(s0)
0x80000084: 00 14 04 13 addi	s0, s0, 1
0x80000088: fe 05 1a e3 bnez	a0, -0xc
0x8000007c: 32 80 00 ef jal	0x328
0x800003a4: a0 00 07 b7 lui	a5, 0xa0000
0x800003a8: 3e a7 8c 23 sb	a0, 0x3f8(a5)
0x800003ac: 00 00 80 67 ret
0x80000080: 00 14 45 03 lbu	a0, 1(s0)
0x80000084: 00 14 04 13 addi	s0, s0, 1
0x80000088: fe 05 1a e3 bnez	a0, -0xc
0x8000008c: 00 09 a5 03 lw	a0, 0(s3)
0x80000090: 03 05 05 13 addi	a0, a0, 0x30
0x80000094: 0f f5 75 13 andi	a0, a0, 0xff
0x80000098: 30 c0 00 ef jal	0x30c
0x800003a4: a0 00 07 b7 lui	a5, 0xa0000
0x800003a8: 3e a7 8c 23 sb	a0, 0x3f8(a5)
0x800003ac: 00 00 80 67 ret
0x8000009c: 00 a0 05 13 addi	a0, zero, 0xa
0x800000a0: 30 40 00 ef jal	0x304
0x800003a4: a0 00 07 b7 lui	a5, 0xa0000
0x800003a8: 3e a7 8c 23 sb	a0, 0x3f8(a5)
0x800003ac: 00 00 80 67 ret
0x800000a4: 00 09 27 83 lw	a5, 0(s2)
0x800000a8: 00 10 07 13 addi	a4, zero, 1
0x800000ac: 06 e7 84 63 beq	a5, a4, 0x68
0x800000b0: 00 40 07 13 addi	a4, zero, 4
0x800000b4: 04 f7 40 63 blt	a4, a5, 0x40
0x800000f4: 00 00 14 17 auipc	s0, 1
0x800000f8: 71 c4 04 13 addi	s0, s0, 0x71c
0x800000fc: 05 30 05 13 addi	a0, zero, 0x53
0x80000100: 2a 40 00 ef jal	0x2a4
0x800003a4: a0 00 07 b7 lui	a5, 0xa0000
0x800003a8: 3e a7 8c 23 sb	a0, 0x3f8(a5)
0x800003ac: 00 00 80 67 ret
0x80000104: 00 14 45 03 lbu	a0, 1(s0)
0x80000108: 00 14 04 13 addi	s0, s0, 1
0x8000010c: fe 05 1a e3 bnez	a0, -0xc
0x80000100: 2a 40 00 ef jal	0x2a4
0x800003a4: a0 00 07 b7 lui	a5, 0xa0000
0x800003a8: 3e a7 8c 23 sb	a0, 0x3f8(a5)
0x800003ac: 00 00 80 67 ret
0x80000104: 00 14 45 03 lbu	a0, 1(s0)
0x80000108: 00 14 04 13 addi	s0, s0, 1
0x8000010c: fe 05 1a e3 bnez	a0, -0xc
0x80000100: 2a 40 00 ef jal	0x2a4
0x800003a4: a0 00 07 b7 lui	a5, 0xa0000
0x800003a8: 3e a7 8c 23 sb	a0, 0x3f8(a5)
0x800003ac: 00 00 80 67 ret
0x80000104: 00 14 45 03 lbu	a0, 1(s0)
0x80000108: 00 14 04 13 addi	s0, s0, 1
0x8000010c: fe 05 1a e3 bnez	a0, -0xc
0x80000100: 2a 40 00 ef jal	0x2a4
0x800003a4: a0 00 07 b7 lui	a5, 0xa0000
0x800003a8: 3e a7 8c 23 sb	a0, 0x3f8(a5)
0x800003ac: 00 00 80 67 ret
0x80000104: 00 14 45 03 lbu	a0, 1(s0)
0x80000108: 00 14 04 13 addi	s0, s0, 1
0x8000010c: fe 05 1a e3 bnez	a0, -0xc
0x80000100: 2a 40 00 ef jal	0x2a4
0x800003a4: a0 00 07 b7 lui	a5, 0xa0000
0x800003a8: 3e a7 8c 23 sb	a0, 0x3f8(a5)
0x800003ac: 00 00 80 67 ret
0x80000104: 00 14 45 03 lbu	a0, 1(s0)
0x80000108: 00 14 04 13 addi	s0, s0, 1
0x8000010c: fe 05 1a e3 bnez	a0, -0xc
0x80000100: 2a 40 00 ef jal	0x2a4
0x800003a4: a0 00 07 b7 lui	a5, 0xa0000
0x800003a8: 3e a7 8c 23 sb	a0, 0x3f8(a5)
0x800003ac: 00 00 80 67 ret
0x80000104: 00 14 45 03 lbu	a0, 1(s0)
0x80000108: 00 14 04 13 addi	s0, s0, 1
0x8000010c: fe 05 1a e3 bnez	a0, -0xc
0x80000100: 2a 40 00 ef jal	0x2a4
0x800003a4: a0 00 07 b7 lui	a5, 0xa0000
0x800003a8: 3e a7 8c 23 sb	a0, 0x3f8(a5)
0x800003ac: 00 00 80 67 ret
0x80000104: 00 14 45 03 lbu	a0, 1(s0)
0x80000108: 00 14 04 13 addi	s0, s0, 1
0x8000010c: fe 05 1a e3 bnez	a0, -0xc
0x80000100: 2a 40 00 ef jal	0x2a4
0x800003a4: a0 00 07 b7 lui	a5, 0xa0000
0x800003a8: 3e a7 8c 23 sb	a0, 0x3f8(a5)
0x800003ac: 00 00 80 67 ret
0x80000104: 00 14 45 03 lbu	a0, 1(s0)
0x80000108: 00 14 04 13 addi	s0, s0, 1
0x8000010c: fe 05 1a e3 bnez	a0, -0xc
0x80000100: 2a 40 00 ef jal	0x2a4
0x800003a4: a0 00 07 b7 lui	a5, 0xa0000
0x800003a8: 3e a7 8c 23 sb	a0, 0x3f8(a5)
0x800003ac: 00 00 80 67 ret
0x80000104: 00 14 45 03 lbu	a0, 1(s0)
0x80000108: 00 14 04 13 addi	s0, s0, 1
0x8000010c: fe 05 1a e3 bnez	a0, -0xc
0x80000100: 2a 40 00 ef jal	0x2a4
0x800003a4: a0 00 07 b7 lui	a5, 0xa0000
0x800003a8: 3e a7 8c 23 sb	a0, 0x3f8(a5)
0x800003ac: 00 00 80 67 ret
0x80000104: 00 14 45 03 lbu	a0, 1(s0)
0x80000108: 00 14 04 13 addi	s0, s0, 1
0x8000010c: fe 05 1a e3 bnez	a0, -0xc
0x80000100: 2a 40 00 ef jal	0x2a4
0x800003a4: a0 00 07 b7 lui	a5, 0xa0000
0x800003a8: 3e a7 8c 23 sb	a0, 0x3f8(a5)
0x800003ac: 00 00 80 67 ret
0x80000104: 00 14 45 03 lbu	a0, 1(s0)
0x80000108: 00 14 04 13 addi	s0, s0, 1
0x8000010c: fe 05 1a e3 bnez	a0, -0xc
0x80000100: 2a 40 00 ef jal	0x2a4
0x800003a4: a0 00 07 b7 lui	a5, 0xa0000
0x800003a8: 3e a7 8c 23 sb	a0, 0x3f8(a5)
0x800003ac: 00 00 80 67 ret
0x80000104: 00 14 45 03 lbu	a0, 1(s0)
0x80000108: 00 14 04 13 addi	s0, s0, 1
0x8000010c: fe 05 1a e3 bnez	a0, -0xc
0x80000100: 2a 40 00 ef jal	0x2a4
0x800003a4: a0 00 07 b7 lui	a5, 0xa0000
0x800003a8: 3e a7 8c 23 sb	a0, 0x3f8(a5)
0x800003ac: 00 00 80 67 ret
0x80000104: 00 14 45 03 lbu	a0, 1(s0)
0x80000108: 00 14 04 13 addi	s0, s0, 1
0x8000010c: fe 05 1a e3 bnez	a0, -0xc
0x80000100: 2a 40 00 ef jal	0x2a4
0x800003a4: a0 00 07 b7 lui	a5, 0xa0000
0x800003a8: 3e a7 8c 23 sb	a0, 0x3f8(a5)
0x800003ac: 00 00 80 67 ret
0x80000104: 00 14 45 03 lbu	a0, 1(s0)
0x80000108: 00 14 04 13 addi	s0, s0, 1
0x8000010c: fe 05 1a e3 bnez	a0, -0xc
0x80000100: 2a 40 00 ef jal	0x2a4
0x800003a4: a0 00 07 b7 lui	a5, 0xa0000
0x800003a8: 3e a7 8c 23 sb	a0, 0x3f8(a5)
0x800003ac: 00 00 80 67 ret
0x80000104: 00 14 45 03 lbu	a0, 1(s0)
0x80000108: 00 14 04 13 addi	s0, s0, 1
0x8000010c: fe 05 1a e3 bnez	a0, -0xc
0x80000100: 2a 40 00 ef jal	0x2a4
0x800003a4: a0 00 07 b7 lui	a5, 0xa0000
0x800003a8: 3e a7 8c 23 sb	a0, 0x3f8(a5)
0x800003ac: 00 00 80 67 ret
0x80000104: 00 14 45 03 lbu	a0, 1(s0)
0x80000108: 00 14 04 13 addi	s0, s0, 1
0x8000010c: fe 05 1a e3 bnez	a0, -0xc
0x80000100: 2a 40 00 ef jal	0x2a4
0x800003a4: a0 00 07 b7 lui	a5, 0xa0000
0x800003a8: 3e a7 8c 23 sb	a0, 0x3f8(a5)
0x800003ac: 00 00 80 67 ret
0x80000104: 00 14 45 03 lbu	a0, 1(s0)
0x80000108: 00 14 04 13 addi	s0, s0, 1
0x8000010c: fe 05 1a e3 bnez	a0, -0xc
0x80000100: 2a 40 00 ef jal	0x2a4
0x800003a4: a0 00 07 b7 lui	a5, 0xa0000
0x800003a8: 3e a7 8c 23 sb	a0, 0x3f8(a5)
0x800003ac: 00 00 80 67 ret
0x80000104: 00 14 45 03 lbu	a0, 1(s0)
0x80000108: 00 14 04 13 addi	s0, s0, 1
0x8000010c: fe 05 1a e3 bnez	a0, -0xc
0x80000100: 2a 40 00 ef jal	0x2a4
0x800003a4: a0 00 07 b7 lui	a5, 0xa0000
0x800003a8: 3e a7 8c 23 sb	a0, 0x3f8(a5)
0x800003ac: 00 00 80 67 ret
0x80000104: 00 14 45 03 lbu	a0, 1(s0)
0x80000108: 00 14 04 13 addi	s0, s0, 1
0x8000010c: fe 05 1a e3 bnez	a0, -0xc
0x80000100: 2a 40 00 ef jal	0x2a4
0x800003a4: a0 00 07 b7 lui	a5, 0xa0000
0x800003a8: 3e a7 8c 23 sb	a0, 0x3f8(a5)
0x800003ac: 00 00 80 67 ret
0x80000104: 00 14 45 03 lbu	a0, 1(s0)
0x80000108: 00 14 04 13 addi	s0, s0, 1
0x8000010c: fe 05 1a e3 bnez	a0, -0xc
0x80000100: 2a 40 00 ef jal	0x2a4
0x800003a4: a0 00 07 b7 lui	a5, 0xa0000
0x800003a8: 3e a7 8c 23 sb	a0, 0x3f8(a5)
0x800003ac: 00 00 80 67 ret
0x80000104: 00 14 45 03 lbu	a0, 1(s0)
0x80000108: 00 14 04 13 addi	s0, s0, 1
0x8000010c: fe 05 1a e3 bnez	a0, -0xc
0x80000100: 2a 40 00 ef jal	0x2a4
0x800003a4: a0 00 07 b7 lui	a5, 0xa0000
0x800003a8: 3e a7 8c 23 sb	a0, 0x3f8(a5)
0x800003ac: 00 00 80 67 ret
0x80000104: 00 14 45 03 lbu	a0, 1(s0)
0x80000108: 00 14 04 13 addi	s0, s0, 1
0x8000010c: fe 05 1a e3 bnez	a0, -0xc
0x80000100: 2a 40 00 ef jal	0x2a4
0x800003a4: a0 00 07 b7 lui	a5, 0xa0000
0x800003a8: 3e a7 8c 23 sb	a0, 0x3f8(a5)
0x800003ac: 00 00 80 67 ret
0x80000104: 00 14 45 03 lbu	a0, 1(s0)
0x80000108: 00 14 04 13 addi	s0, s0, 1
0x8000010c: fe 05 1a e3 bnez	a0, -0xc
0x80000100: 2a 40 00 ef jal	0x2a4
0x800003a4: a0 00 07 b7 lui	a5, 0xa0000
0x800003a8: 3e a7 8c 23 sb	a0, 0x3f8(a5)
0x800003ac: 00 00 80 67 ret
0x80000104: 00 14 45 03 lbu	a0, 1(s0)
0x80000108: 00 14 04 13 addi	s0, s0, 1
0x8000010c: fe 05 1a e3 bnez	a0, -0xc
0x80000100: 2a 40 00 ef jal	0x2a4
0x800003a4: a0 00 07 b7 lui	a5, 0xa0000
0x800003a8: 3e a7 8c 23 sb	a0, 0x3f8(a5)
0x800003ac: 00 00 80 67 ret
0x80000104: 00 14 45 03 lbu	a0, 1(s0)
0x80000108: 00 14 04 13 addi	s0, s0, 1
0x8000010c: fe 05 1a e3 bnez	a0, -0xc
0x80000100: 2a 40 00 ef jal	0x2a4
0x800003a4: a0 00 07 b7 lui	a5, 0xa0000
0x800003a8: 3e a7 8c 23 sb	a0, 0x3f8(a5)
0x800003ac: 00 00 80 67 ret
0x80000104: 00 14 45 03 lbu	a0, 1(s0)
0x80000108: 00 14 04 13 addi	s0, s0, 1
0x8000010c: fe 05 1a e3 bnez	a0, -0xc
0x80000100: 2a 40 00 ef jal	0x2a4
0x800003a4: a0 00 07 b7 lui	a5, 0xa0000
0x800003a8: 3e a7 8c 23 sb	a0, 0x3f8(a5)
0x800003ac: 00 00 80 67 ret
0x80000104: 00 14 45 03 lbu	a0, 1(s0)
0x80000108: 00 14 04 13 addi	s0, s0, 1
0x8000010c: fe 05 1a e3 bnez	a0, -0xc
0x80000110: fc 5f f0 6f j	-0x3c
0x800000d4: 01 c1 20 83 lw	ra, 0x1c(sp)
0x800000d8: 01 81 24 03 lw	s0, 0x18(sp)
0x800000dc: 01 01 29 03 lw	s2, 0x10(sp)
0x800000e0: 00 c1 29 83 lw	s3, 0xc(sp)
0x800000e4: 00 04 85 13 mv	a0, s1
0x800000e8: 01 41 24 83 lw	s1, 0x14(sp)
0x800000ec: 02 01 01 13 addi	sp, sp, 0x20
0x800000f0: 00 00 80 67 ret
0x80000434: 00 05 0e 63 beqz	a0, 0x1c
0x80000438: 02 c1 20 83 lw	ra, 0x2c(sp)
0x8000043c: 03 01 01 13 addi	sp, sp, 0x30
0x80000440: 00 00 80 67 ret
0x80000628: 00 05 01 13 mv	sp, a0
0x8000062c: 08 41 23 03 lw	t1, 0x84(sp)
0x80000630: 08 81 23 83 lw	t2, 0x88(sp)
0x80000634: 30 03 10 73 csrw	mstatus, t1
0x80000638: 34 13 90 73 csrw	mepc, t2
0x8000063c: 00 41 20 83 lw	ra, 4(sp)
0x80000640: 00 c1 21 83 lw	gp, 0xc(sp)
0x80000644: 01 01 22 03 lw	tp, 0x10(sp)
0x80000648: 01 41 22 83 lw	t0, 0x14(sp)
0x8000064c: 01 81 23 03 lw	t1, 0x18(sp)
0x80000650: 01 c1 23 83 lw	t2, 0x1c(sp)
0x80000654: 02 01 24 03 lw	s0, 0x20(sp)
0x80000658: 02 41 24 83 lw	s1, 0x24(sp)
0x8000065c: 02 81 25 03 lw	a0, 0x28(sp)
0x80000660: 02 c1 25 83 lw	a1, 0x2c(sp)
0x80000664: 03 01 26 03 lw	a2, 0x30(sp)
0x80000668: 03 41 26 83 lw	a3, 0x34(sp)
0x8000066c: 03 81 27 03 lw	a4, 0x38(sp)
0x80000670: 03 c1 27 83 lw	a5, 0x3c(sp)
0x80000674: 04 01 28 03 lw	a6, 0x40(sp)
0x80000678: 04 41 28 83 lw	a7, 0x44(sp)
0x8000067c: 04 81 29 03 lw	s2, 0x48(sp)
0x80000680: 04 c1 29 83 lw	s3, 0x4c(sp)
0x80000684: 05 01 2a 03 lw	s4, 0x50(sp)
0x80000688: 05 41 2a 83 lw	s5, 0x54(sp)
0x8000068c: 05 81 2b 03 lw	s6, 0x58(sp)
0x80000690: 05 c1 2b 83 lw	s7, 0x5c(sp)
0x80000694: 06 01 2c 03 lw	s8, 0x60(sp)
0x80000698: 06 41 2c 83 lw	s9, 0x64(sp)
0x8000069c: 06 81 2d 03 lw	s10, 0x68(sp)
0x800006a0: 06 c1 2d 83 lw	s11, 0x6c(sp)
0x800006a4: 07 01 2e 03 lw	t3, 0x70(sp)
0x800006a8: 07 41 2e 83 lw	t4, 0x74(sp)
0x800006ac: 07 81 2f 03 lw	t5, 0x78(sp)
0x800006b0: 07 c1 2f 83 lw	t6, 0x7c(sp)
0x800006b4: 08 c1 01 13 addi	sp, sp, 0x8c
0x800006b8: 30 20 00 73 mret
0x8000050c: 00 00 00 73 ecall
0x80000580: f7 41 01 13 addi	sp, sp, -0x8c
0x80000584: 00 11 22 23 sw	ra, 4(sp)
0x80000588: 00 31 26 23 sw	gp, 0xc(sp)
0x8000058c: 00 41 28 23 sw	tp, 0x10(sp)
0x80000590: 00 51 2a 23 sw	t0, 0x14(sp)
0x80000594: 00 61 2c 23 sw	t1, 0x18(sp)
0x80000598: 00 71 2e 23 sw	t2, 0x1c(sp)
0x8000059c: 02 81 20 23 sw	s0, 0x20(sp)
0x800005a0: 02 91 22 23 sw	s1, 0x24(sp)
0x800005a4: 02 a1 24 23 sw	a0, 0x28(sp)
0x800005a8: 02 b1 26 23 sw	a1, 0x2c(sp)
0x800005ac: 02 c1 28 23 sw	a2, 0x30(sp)
0x800005b0: 02 d1 2a 23 sw	a3, 0x34(sp)
0x800005b4: 02 e1 2c 23 sw	a4, 0x38(sp)
0x800005b8: 02 f1 2e 23 sw	a5, 0x3c(sp)
0x800005bc: 05 01 20 23 sw	a6, 0x40(sp)
0x800005c0: 05 11 22 23 sw	a7, 0x44(sp)
0x800005c4: 05 21 24 23 sw	s2, 0x48(sp)
0x800005c8: 05 31 26 23 sw	s3, 0x4c(sp)
0x800005cc: 05 41 28 23 sw	s4, 0x50(sp)
0x800005d0: 05 51 2a 23 sw	s5, 0x54(sp)
0x800005d4: 05 61 2c 23 sw	s6, 0x58(sp)
0x800005d8: 05 71 2e 23 sw	s7, 0x5c(sp)
0x800005dc: 07 81 20 23 sw	s8, 0x60(sp)
0x800005e0: 07 91 22 23 sw	s9, 0x64(sp)
0x800005e4: 07 a1 24 23 sw	s10, 0x68(sp)
0x800005e8: 07 b1 26 23 sw	s11, 0x6c(sp)
0x800005ec: 07 c1 28 23 sw	t3, 0x70(sp)
0x800005f0: 07 d1 2a 23 sw	t4, 0x74(sp)
0x800005f4: 07 e1 2c 23 sw	t5, 0x78(sp)
0x800005f8: 07 f1 2e 23 sw	t6, 0x7c(sp)
0x800005fc: 34 20 22 f3 csrr	t0, mcause
0x80000600: 30 00 23 73 csrr	t1, mstatus
0x80000604: 34 10 23 f3 csrr	t2, mepc
0x80000608: 08 51 20 23 sw	t0, 0x80(sp)
0x8000060c: 08 61 22 23 sw	t1, 0x84(sp)
0x80000610: 08 71 24 23 sw	t2, 0x88(sp)
0x80000614: 00 02 05 37 lui	a0, 0x20
0x80000618: 00 a3 63 33 or	t1, t1, a0
0x8000061c: 30 03 10 73 csrw	mstatus, t1
0x80000620: 00 01 05 13 mv	a0, sp
0x80000624: db 9f f0 ef jal	-0x248
0x800003dc: 00 00 37 97 auipc	a5, 3
0x800003e0: a0 c7 a7 83 lw	a5, -0x5f4(a5)
0x800003e4: 00 05 05 93 mv	a1, a0
0x800003e8: 06 07 82 63 beqz	a5, 0x64
0x800003ec: 08 05 26 03 lw	a2, 0x80(a0)
0x800003f0: fd 01 01 13 addi	sp, sp, -0x30
0x800003f4: 02 11 26 23 sw	ra, 0x2c(sp)
0x800003f8: 00 01 2a 23 sw	zero, 0x14(sp)
0x800003fc: 00 01 2c 23 sw	zero, 0x18(sp)
0x80000400: 00 01 2e 23 sw	zero, 0x1c(sp)
0x80000404: 00 b0 06 93 addi	a3, zero, 0xb
0x80000408: 00 40 07 13 addi	a4, zero, 4
0x8000040c: 02 d6 0c 63 beq	a2, a3, 0x38
0x80000444: 00 10 07 13 addi	a4, zero, 1
0x80000448: fc 9f f0 6f j	-0x38
0x80000410: 00 e1 20 23 sw	a4, 0(sp)
0x80000414: 01 41 27 03 lw	a4, 0x14(sp)
0x80000418: 00 01 05 13 mv	a0, sp
0x8000041c: 00 e1 22 23 sw	a4, 4(sp)
0x80000420: 01 81 27 03 lw	a4, 0x18(sp)
0x80000424: 00 e1 24 23 sw	a4, 8(sp)
0x80000428: 01 c1 27 03 lw	a4, 0x1c(sp)
0x8000042c: 00 e1 26 23 sw	a4, 0xc(sp)
0x80000430: 00 07 80 e7 jalr	a5
0x80000010: fe 01 01 13 addi	sp, sp, -0x20
0x80000014: 01 21 28 23 sw	s2, 0x10(sp)
0x80000018: 00 00 39 17 auipc	s2, 3
0x8000001c: dc 89 09 13 addi	s2, s2, -0x238
0x80000020: 00 09 27 83 lw	a5, 0(s2)
0x80000024: 00 81 2c 23 sw	s0, 0x18(sp)
0x80000028: 00 91 2a 23 sw	s1, 0x14(sp)
0x8000002c: 01 31 26 23 sw	s3, 0xc(sp)
0x80000030: 00 11 2e 23 sw	ra, 0x1c(sp)
0x80000034: 00 17 87 93 addi	a5, a5, 1
0x80000038: 00 05 09 93 mv	s3, a0
0x8000003c: 00 05 84 93 mv	s1, a1
0x80000040: 00 f9 20 23 sw	a5, 0(s2)
0x80000044: 00 00 14 17 auipc	s0, 1
0x80000048: 77 44 04 13 addi	s0, s0, 0x774
0x8000004c: 05 30 05 13 addi	a0, zero, 0x53
0x80000050: 35 40 00 ef jal	0x354
0x800003a4: a0 00 07 b7 lui	a5, 0xa0000
0x800003a8: 3e a7 8c 23 sb	a0, 0x3f8(a5)
0x800003ac: 00 00 80 67 ret
0x80000054: 00 14 45 03 lbu	a0, 1(s0)
0x80000058: 00 14 04 13 addi	s0, s0, 1
0x8000005c: fe 05 1a e3 bnez	a0, -0xc
0x80000050: 35 40 00 ef jal	0x354
0x800003a4: a0 00 07 b7 lui	a5, 0xa0000
0x800003a8: 3e a7 8c 23 sb	a0, 0x3f8(a5)
0x800003ac: 00 00 80 67 ret
0x80000054: 00 14 45 03 lbu	a0, 1(s0)
0x80000058: 00 14 04 13 addi	s0, s0, 1
0x8000005c: fe 05 1a e3 bnez	a0, -0xc
0x80000050: 35 40 00 ef jal	0x354
0x800003a4: a0 00 07 b7 lui	a5, 0xa0000
0x800003a8: 3e a7 8c 23 sb	a0, 0x3f8(a5)
0x800003ac: 00 00 80 67 ret
0x80000054: 00 14 45 03 lbu	a0, 1(s0)
0x80000058: 00 14 04 13 addi	s0, s0, 1
0x8000005c: fe 05 1a e3 bnez	a0, -0xc
0x80000050: 35 40 00 ef jal	0x354
0x800003a4: a0 00 07 b7 lui	a5, 0xa0000
0x800003a8: 3e a7 8c 23 sb	a0, 0x3f8(a5)
0x800003ac: 00 00 80 67 ret
0x80000054: 00 14 45 03 lbu	a0, 1(s0)
0x80000058: 00 14 04 13 addi	s0, s0, 1
0x8000005c: fe 05 1a e3 bnez	a0, -0xc
0x80000050: 35 40 00 ef jal	0x354
0x800003a4: a0 00 07 b7 lui	a5, 0xa0000
0x800003a8: 3e a7 8c 23 sb	a0, 0x3f8(a5)
0x800003ac: 00 00 80 67 ret
0x80000054: 00 14 45 03 lbu	a0, 1(s0)
0x80000058: 00 14 04 13 addi	s0, s0, 1
0x8000005c: fe 05 1a e3 bnez	a0, -0xc
0x80000050: 35 40 00 ef jal	0x354
0x800003a4: a0 00 07 b7 lui	a5, 0xa0000
0x800003a8: 3e a7 8c 23 sb	a0, 0x3f8(a5)
0x800003ac: 00 00 80 67 ret
0x80000054: 00 14 45 03 lbu	a0, 1(s0)
0x80000058: 00 14 04 13 addi	s0, s0, 1
0x8000005c: fe 05 1a e3 bnez	a0, -0xc
0x80000050: 35 40 00 ef jal	0x354
0x800003a4: a0 00 07 b7 lui	a5, 0xa0000
0x800003a8: 3e a7 8c 23 sb	a0, 0x3f8(a5)
0x800003ac: 00 00 80 67 ret
0x80000054: 00 14 45 03 lbu	a0, 1(s0)
0x80000058: 00 14 04 13 addi	s0, s0, 1
0x8000005c: fe 05 1a e3 bnez	a0, -0xc
0x80000050: 35 40 00 ef jal	0x354
0x800003a4: a0 00 07 b7 lui	a5, 0xa0000
0x800003a8: 3e a7 8c 23 sb	a0, 0x3f8(a5)
0x800003ac: 00 00 80 67 ret
0x80000054: 00 14 45 03 lbu	a0, 1(s0)
0x80000058: 00 14 04 13 addi	s0, s0, 1
0x8000005c: fe 05 1a e3 bnez	a0, -0xc
0x80000050: 35 40 00 ef jal	0x354
0x800003a4: a0 00 07 b7 lui	a5, 0xa0000
0x800003a8: 3e a7 8c 23 sb	a0, 0x3f8(a5)
0x800003ac: 00 00 80 67 ret
0x80000054: 00 14 45 03 lbu	a0, 1(s0)
0x80000058: 00 14 04 13 addi	s0, s0, 1
0x8000005c: fe 05 1a e3 bnez	a0, -0xc
0x80000050: 35 40 00 ef jal	0x354
0x800003a4: a0 00 07 b7 lui	a5, 0xa0000
0x800003a8: 3e a7 8c 23 sb	a0, 0x3f8(a5)
0x800003ac: 00 00 80 67 ret
0x80000054: 00 14 45 03 lbu	a0, 1(s0)
0x80000058: 00 14 04 13 addi	s0, s0, 1
0x8000005c: fe 05 1a e3 bnez	a0, -0xc
0x80000050: 35 40 00 ef jal	0x354
0x800003a4: a0 00 07 b7 lui	a5, 0xa0000
0x800003a8: 3e a7 8c 23 sb	a0, 0x3f8(a5)
0x800003ac: 00 00 80 67 ret
0x80000054: 00 14 45 03 lbu	a0, 1(s0)
0x80000058: 00 14 04 13 addi	s0, s0, 1
0x8000005c: fe 05 1a e3 bnez	a0, -0xc
0x80000050: 35 40 00 ef jal	0x354
0x800003a4: a0 00 07 b7 lui	a5, 0xa0000
0x800003a8: 3e a7 8c 23 sb	a0, 0x3f8(a5)
0x800003ac: 00 00 80 67 ret
0x80000054: 00 14 45 03 lbu	a0, 1(s0)
0x80000058: 00 14 04 13 addi	s0, s0, 1
0x8000005c: fe 05 1a e3 bnez	a0, -0xc
0x80000050: 35 40 00 ef jal	0x354
0x800003a4: a0 00 07 b7 lui	a5, 0xa0000
0x800003a8: 3e a7 8c 23 sb	a0, 0x3f8(a5)
0x800003ac: 00 00 80 67 ret
0x80000054: 00 14 45 03 lbu	a0, 1(s0)
0x80000058: 00 14 04 13 addi	s0, s0, 1
0x8000005c: fe 05 1a e3 bnez	a0, -0xc
0x80000050: 35 40 00 ef jal	0x354
0x800003a4: a0 00 07 b7 lui	a5, 0xa0000
0x800003a8: 3e a7 8c 23 sb	a0, 0x3f8(a5)
0x800003ac: 00 00 80 67 ret
0x80000054: 00 14 45 03 lbu	a0, 1(s0)
0x80000058: 00 14 04 13 addi	s0, s0, 1
0x8000005c: fe 05 1a e3 bnez	a0, -0xc
0x80000050: 35 40 00 ef jal	0x354
0x800003a4: a0 00 07 b7 lui	a5, 0xa0000
0x800003a8: 3e a7 8c 23 sb	a0, 0x3f8(a5)
0x800003ac: 00 00 80 67 ret
0x80000054: 00 14 45 03 lbu	a0, 1(s0)
0x80000058: 00 14 04 13 addi	s0, s0, 1
0x8000005c: fe 05 1a e3 bnez	a0, -0xc
0x80000050: 35 40 00 ef jal	0x354
0x800003a4: a0 00 07 b7 lui	a5, 0xa0000
0x800003a8: 3e a7 8c 23 sb	a0, 0x3f8(a5)
0x800003ac: 00 00 80 67 ret
0x80000054: 00 14 45 03 lbu	a0, 1(s0)
0x80000058: 00 14 04 13 addi	s0, s0, 1
0x8000005c: fe 05 1a e3 bnez	a0, -0xc
0x80000050: 35 40 00 ef jal	0x354
0x800003a4: a0 00 07 b7 lui	a5, 0xa0000
0x800003a8: 3e a7 8c 23 sb	a0, 0x3f8(a5)
0x800003ac: 00 00 80 67 ret
0x80000054: 00 14 45 03 lbu	a0, 1(s0)
0x80000058: 00 14 04 13 addi	s0, s0, 1
0x8000005c: fe 05 1a e3 bnez	a0, -0xc
0x80000060: 00 09 25 03 lw	a0, 0(s2)
0x80000064: 00 00 14 17 auipc	s0, 1
0x80000068: 76 84 04 13 addi	s0, s0, 0x768
0x8000006c: 03 05 05 13 addi	a0, a0, 0x30
0x80000070: 0f f5 75 13 andi	a0, a0, 0xff
0x80000074: 33 00 00 ef jal	0x330
0x800003a4: a0 00 07 b7 lui	a5, 0xa0000
0x800003a8: 3e a7 8c 23 sb	a0, 0x3f8(a5)
0x800003ac: 00 00 80 67 ret
0x80000078: 02 c0 05 13 addi	a0, zero, 0x2c
0x8000007c: 32 80 00 ef jal	0x328
0x800003a4: a0 00 07 b7 lui	a5, 0xa0000
0x800003a8: 3e a7 8c 23 sb	a0, 0x3f8(a5)
0x800003ac: 00 00 80 67 ret
0x80000080: 00 14 45 03 lbu	a0, 1(s0)
0x80000084: 00 14 04 13 addi	s0, s0, 1
0x80000088: fe 05 1a e3 bnez	a0, -0xc
0x8000007c: 32 80 00 ef jal	0x328
0x800003a4: a0 00 07 b7 lui	a5, 0xa0000
0x800003a8: 3e a7 8c 23 sb	a0, 0x3f8(a5)
0x800003ac: 00 00 80 67 ret
0x80000080: 00 14 45 03 lbu	a0, 1(s0)
0x80000084: 00 14 04 13 addi	s0, s0, 1
0x80000088: fe 05 1a e3 bnez	a0, -0xc
0x8000007c: 32 80 00 ef jal	0x328
0x800003a4: a0 00 07 b7 lui	a5, 0xa0000
0x800003a8: 3e a7 8c 23 sb	a0, 0x3f8(a5)
0x800003ac: 00 00 80 67 ret
0x80000080: 00 14 45 03 lbu	a0, 1(s0)
0x80000084: 00 14 04 13 addi	s0, s0, 1
0x80000088: fe 05 1a e3 bnez	a0, -0xc
0x8000007c: 32 80 00 ef jal	0x328
0x800003a4: a0 00 07 b7 lui	a5, 0xa0000
0x800003a8: 3e a7 8c 23 sb	a0, 0x3f8(a5)
0x800003ac: 00 00 80 67 ret
0x80000080: 00 14 45 03 lbu	a0, 1(s0)
0x80000084: 00 14 04 13 addi	s0, s0, 1
0x80000088: fe 05 1a e3 bnez	a0, -0xc
0x8000007c: 32 80 00 ef jal	0x328
0x800003a4: a0 00 07 b7 lui	a5, 0xa0000
0x800003a8: 3e a7 8c 23 sb	a0, 0x3f8(a5)
0x800003ac: 00 00 80 67 ret
0x80000080: 00 14 45 03 lbu	a0, 1(s0)
0x80000084: 00 14 04 13 addi	s0, s0, 1
0x80000088: fe 05 1a e3 bnez	a0, -0xc
0x8000007c: 32 80 00 ef jal	0x328
0x800003a4: a0 00 07 b7 lui	a5, 0xa0000
0x800003a8: 3e a7 8c 23 sb	a0, 0x3f8(a5)
0x800003ac: 00 00 80 67 ret
0x80000080: 00 14 45 03 lbu	a0, 1(s0)
0x80000084: 00 14 04 13 addi	s0, s0, 1
0x80000088: fe 05 1a e3 bnez	a0, -0xc
0x8000007c: 32 80 00 ef jal	0x328
0x800003a4: a0 00 07 b7 lui	a5, 0xa0000
0x800003a8: 3e a7 8c 23 sb	a0, 0x3f8(a5)
0x800003ac: 00 00 80 67 ret
0x80000080: 00 14 45 03 lbu	a0, 1(s0)
0x80000084: 00 14 04 13 addi	s0, s0, 1
0x80000088: fe 05 1a e3 bnez	a0, -0xc
0x8000007c: 32 80 00 ef jal	0x328
0x800003a4: a0 00 07 b7 lui	a5, 0xa0000
0x800003a8: 3e a7 8c 23 sb	a0, 0x3f8(a5)
0x800003ac: 00 00 80 67 ret
0x80000080: 00 14 45 03 lbu	a0, 1(s0)
0x80000084: 00 14 04 13 addi	s0, s0, 1
0x80000088: fe 05 1a e3 bnez	a0, -0xc
0x8000007c: 32 80 00 ef jal	0x328
0x800003a4: a0 00 07 b7 lui	a5, 0xa0000
0x800003a8: 3e a7 8c 23 sb	a0, 0x3f8(a5)
0x800003ac: 00 00 80 67 ret
0x80000080: 00 14 45 03 lbu	a0, 1(s0)
0x80000084: 00 14 04 13 addi	s0, s0, 1
0x80000088: fe 05 1a e3 bnez	a0, -0xc
0x8000008c: 00 09 a5 03 lw	a0, 0(s3)
0x80000090: 03 05 05 13 addi	a0, a0, 0x30
0x80000094: 0f f5 75 13 andi	a0, a0, 0xff
0x80000098: 30 c0 00 ef jal	0x30c
0x800003a4: a0 00 07 b7 lui	a5, 0xa0000
0x800003a8: 3e a7 8c 23 sb	a0, 0x3f8(a5)
0x800003ac: 00 00 80 67 ret
0x8000009c: 00 a0 05 13 addi	a0, zero, 0xa
0x800000a0: 30 40 00 ef jal	0x304
0x800003a4: a0 00 07 b7 lui	a5, 0xa0000
0x800003a8: 3e a7 8c 23 sb	a0, 0x3f8(a5)
0x800003ac: 00 00 80 67 ret
0x800000a4: 00 09 27 83 lw	a5, 0(s2)
0x800000a8: 00 10 07 13 addi	a4, zero, 1
0x800000ac: 06 e7 84 63 beq	a5, a4, 0x68
0x800000b0: 00 40 07 13 addi	a4, zero, 4
0x800000b4: 04 f7 40 63 blt	a4, a5, 0x40
0x800000f4: 00 00 14 17 auipc	s0, 1
0x800000f8: 71 c4 04 13 addi	s0, s0, 0x71c
0x800000fc: 05 30 05 13 addi	a0, zero, 0x53
0x80000100: 2a 40 00 ef jal	0x2a4
0x800003a4: a0 00 07 b7 lui	a5, 0xa0000
0x800003a8: 3e a7 8c 23 sb	a0, 0x3f8(a5)
0x800003ac: 00 00 80 67 ret
0x80000104: 00 14 45 03 lbu	a0, 1(s0)
0x80000108: 00 14 04 13 addi	s0, s0, 1
0x8000010c: fe 05 1a e3 bnez	a0, -0xc
0x80000100: 2a 40 00 ef jal	0x2a4
0x800003a4: a0 00 07 b7 lui	a5, 0xa0000
0x800003a8: 3e a7 8c 23 sb	a0, 0x3f8(a5)
0x800003ac: 00 00 80 67 ret
0x80000104: 00 14 45 03 lbu	a0, 1(s0)
0x80000108: 00 14 04 13 addi	s0, s0, 1
0x8000010c: fe 05 1a e3 bnez	a0, -0xc
0x80000100: 2a 40 00 ef jal	0x2a4
0x800003a4: a0 00 07 b7 lui	a5, 0xa0000
0x800003a8: 3e a7 8c 23 sb	a0, 0x3f8(a5)
0x800003ac: 00 00 80 67 ret
0x80000104: 00 14 45 03 lbu	a0, 1(s0)
0x80000108: 00 14 04 13 addi	s0, s0, 1
0x8000010c: fe 05 1a e3 bnez	a0, -0xc
0x80000100: 2a 40 00 ef jal	0x2a4
0x800003a4: a0 00 07 b7 lui	a5, 0xa0000
0x800003a8: 3e a7 8c 23 sb	a0, 0x3f8(a5)
0x800003ac: 00 00 80 67 ret
0x80000104: 00 14 45 03 lbu	a0, 1(s0)
0x80000108: 00 14 04 13 addi	s0, s0, 1
0x8000010c: fe 05 1a e3 bnez	a0, -0xc
0x80000100: 2a 40 00 ef jal	0x2a4
0x800003a4: a0 00 07 b7 lui	a5, 0xa0000
0x800003a8: 3e a7 8c 23 sb	a0, 0x3f8(a5)
0x800003ac: 00 00 80 67 ret
0x80000104: 00 14 45 03 lbu	a0, 1(s0)
0x80000108: 00 14 04 13 addi	s0, s0, 1
0x8000010c: fe 05 1a e3 bnez	a0, -0xc
0x80000100: 2a 40 00 ef jal	0x2a4
0x800003a4: a0 00 07 b7 lui	a5, 0xa0000
0x800003a8: 3e a7 8c 23 sb	a0, 0x3f8(a5)
0x800003ac: 00 00 80 67 ret
0x80000104: 00 14 45 03 lbu	a0, 1(s0)
0x80000108: 00 14 04 13 addi	s0, s0, 1
0x8000010c: fe 05 1a e3 bnez	a0, -0xc
0x80000100: 2a 40 00 ef jal	0x2a4
0x800003a4: a0 00 07 b7 lui	a5, 0xa0000
0x800003a8: 3e a7 8c 23 sb	a0, 0x3f8(a5)
0x800003ac: 00 00 80 67 ret
0x80000104: 00 14 45 03 lbu	a0, 1(s0)
0x80000108: 00 14 04 13 addi	s0, s0, 1
0x8000010c: fe 05 1a e3 bnez	a0, -0xc
0x80000100: 2a 40 00 ef jal	0x2a4
0x800003a4: a0 00 07 b7 lui	a5, 0xa0000
0x800003a8: 3e a7 8c 23 sb	a0, 0x3f8(a5)
0x800003ac: 00 00 80 67 ret
0x80000104: 00 14 45 03 lbu	a0, 1(s0)
0x80000108: 00 14 04 13 addi	s0, s0, 1
0x8000010c: fe 05 1a e3 bnez	a0, -0xc
0x80000100: 2a 40 00 ef jal	0x2a4
0x800003a4: a0 00 07 b7 lui	a5, 0xa0000
0x800003a8: 3e a7 8c 23 sb	a0, 0x3f8(a5)
0x800003ac: 00 00 80 67 ret
0x80000104: 00 14 45 03 lbu	a0, 1(s0)
0x80000108: 00 14 04 13 addi	s0, s0, 1
0x8000010c: fe 05 1a e3 bnez	a0, -0xc
0x80000100: 2a 40 00 ef jal	0x2a4
0x800003a4: a0 00 07 b7 lui	a5, 0xa0000
0x800003a8: 3e a7 8c 23 sb	a0, 0x3f8(a5)
0x800003ac: 00 00 80 67 ret
0x80000104: 00 14 45 03 lbu	a0, 1(s0)
0x80000108: 00 14 04 13 addi	s0, s0, 1
0x8000010c: fe 05 1a e3 bnez	a0, -0xc
0x80000100: 2a 40 00 ef jal	0x2a4
0x800003a4: a0 00 07 b7 lui	a5, 0xa0000
0x800003a8: 3e a7 8c 23 sb	a0, 0x3f8(a5)
0x800003ac: 00 00 80 67 ret
0x80000104: 00 14 45 03 lbu	a0, 1(s0)
0x80000108: 00 14 04 13 addi	s0, s0, 1
0x8000010c: fe 05 1a e3 bnez	a0, -0xc
0x80000100: 2a 40 00 ef jal	0x2a4
0x800003a4: a0 00 07 b7 lui	a5, 0xa0000
0x800003a8: 3e a7 8c 23 sb	a0, 0x3f8(a5)
0x800003ac: 00 00 80 67 ret
0x80000104: 00 14 45 03 lbu	a0, 1(s0)
0x80000108: 00 14 04 13 addi	s0, s0, 1
0x8000010c: fe 05 1a e3 bnez	a0, -0xc
0x80000100: 2a 40 00 ef jal	0x2a4
0x800003a4: a0 00 07 b7 lui	a5, 0xa0000
0x800003a8: 3e a7 8c 23 sb	a0, 0x3f8(a5)
0x800003ac: 00 00 80 67 ret
0x80000104: 00 14 45 03 lbu	a0, 1(s0)
0x80000108: 00 14 04 13 addi	s0, s0, 1
0x8000010c: fe 05 1a e3 bnez	a0, -0xc
0x80000100: 2a 40 00 ef jal	0x2a4
0x800003a4: a0 00 07 b7 lui	a5, 0xa0000
0x800003a8: 3e a7 8c 23 sb	a0, 0x3f8(a5)
0x800003ac: 00 00 80 67 ret
0x80000104: 00 14 45 03 lbu	a0, 1(s0)
0x80000108: 00 14 04 13 addi	s0, s0, 1
0x8000010c: fe 05 1a e3 bnez	a0, -0xc
0x80000100: 2a 40 00 ef jal	0x2a4
0x800003a4: a0 00 07 b7 lui	a5, 0xa0000
0x800003a8: 3e a7 8c 23 sb	a0, 0x3f8(a5)
0x800003ac: 00 00 80 67 ret
0x80000104: 00 14 45 03 lbu	a0, 1(s0)
0x80000108: 00 14 04 13 addi	s0, s0, 1
0x8000010c: fe 05 1a e3 bnez	a0, -0xc
0x80000100: 2a 40 00 ef jal	0x2a4
0x800003a4: a0 00 07 b7 lui	a5, 0xa0000
0x800003a8: 3e a7 8c 23 sb	a0, 0x3f8(a5)
0x800003ac: 00 00 80 67 ret
0x80000104: 00 14 45 03 lbu	a0, 1(s0)
0x80000108: 00 14 04 13 addi	s0, s0, 1
0x8000010c: fe 05 1a e3 bnez	a0, -0xc
0x80000100: 2a 40 00 ef jal	0x2a4
0x800003a4: a0 00 07 b7 lui	a5, 0xa0000
0x800003a8: 3e a7 8c 23 sb	a0, 0x3f8(a5)
0x800003ac: 00 00 80 67 ret
0x80000104: 00 14 45 03 lbu	a0, 1(s0)
0x80000108: 00 14 04 13 addi	s0, s0, 1
0x8000010c: fe 05 1a e3 bnez	a0, -0xc
0x80000100: 2a 40 00 ef jal	0x2a4
0x800003a4: a0 00 07 b7 lui	a5, 0xa0000
0x800003a8: 3e a7 8c 23 sb	a0, 0x3f8(a5)
0x800003ac: 00 00 80 67 ret
0x80000104: 00 14 45 03 lbu	a0, 1(s0)
0x80000108: 00 14 04 13 addi	s0, s0, 1
0x8000010c: fe 05 1a e3 bnez	a0, -0xc
0x80000100: 2a 40 00 ef jal	0x2a4
0x800003a4: a0 00 07 b7 lui	a5, 0xa0000
0x800003a8: 3e a7 8c 23 sb	a0, 0x3f8(a5)
0x800003ac: 00 00 80 67 ret
0x80000104: 00 14 45 03 lbu	a0, 1(s0)
0x80000108: 00 14 04 13 addi	s0, s0, 1
0x8000010c: fe 05 1a e3 bnez	a0, -0xc
0x80000100: 2a 40 00 ef jal	0x2a4
0x800003a4: a0 00 07 b7 lui	a5, 0xa0000
0x800003a8: 3e a7 8c 23 sb	a0, 0x3f8(a5)
0x800003ac: 00 00 80 67 ret
0x80000104: 00 14 45 03 lbu	a0, 1(s0)
0x80000108: 00 14 04 13 addi	s0, s0, 1
0x8000010c: fe 05 1a e3 bnez	a0, -0xc
0x80000100: 2a 40 00 ef jal	0x2a4
0x800003a4: a0 00 07 b7 lui	a5, 0xa0000
0x800003a8: 3e a7 8c 23 sb	a0, 0x3f8(a5)
0x800003ac: 00 00 80 67 ret
0x80000104: 00 14 45 03 lbu	a0, 1(s0)
0x80000108: 00 14 04 13 addi	s0, s0, 1
0x8000010c: fe 05 1a e3 bnez	a0, -0xc
0x80000100: 2a 40 00 ef jal	0x2a4
0x800003a4: a0 00 07 b7 lui	a5, 0xa0000
0x800003a8: 3e a7 8c 23 sb	a0, 0x3f8(a5)
0x800003ac: 00 00 80 67 ret
0x80000104: 00 14 45 03 lbu	a0, 1(s0)
0x80000108: 00 14 04 13 addi	s0, s0, 1
0x8000010c: fe 05 1a e3 bnez	a0, -0xc
0x80000100: 2a 40 00 ef jal	0x2a4
0x800003a4: a0 00 07 b7 lui	a5, 0xa0000
0x800003a8: 3e a7 8c 23 sb	a0, 0x3f8(a5)
0x800003ac: 00 00 80 67 ret
0x80000104: 00 14 45 03 lbu	a0, 1(s0)
0x80000108: 00 14 04 13 addi	s0, s0, 1
0x8000010c: fe 05 1a e3 bnez	a0, -0xc
0x80000100: 2a 40 00 ef jal	0x2a4
0x800003a4: a0 00 07 b7 lui	a5, 0xa0000
0x800003a8: 3e a7 8c 23 sb	a0, 0x3f8(a5)
0x800003ac: 00 00 80 67 ret
0x80000104: 00 14 45 03 lbu	a0, 1(s0)
0x80000108: 00 14 04 13 addi	s0, s0, 1
0x8000010c: fe 05 1a e3 bnez	a0, -0xc
0x80000100: 2a 40 00 ef jal	0x2a4
0x800003a4: a0 00 07 b7 lui	a5, 0xa0000
0x800003a8: 3e a7 8c 23 sb	a0, 0x3f8(a5)
0x800003ac: 00 00 80 67 ret
0x80000104: 00 14 45 03 lbu	a0, 1(s0)
0x80000108: 00 14 04 13 addi	s0, s0, 1
0x8000010c: fe 05 1a e3 bnez	a0, -0xc
0x80000100: 2a 40 00 ef jal	0x2a4
0x800003a4: a0 00 07 b7 lui	a5, 0xa0000
0x800003a8: 3e a7 8c 23 sb	a0, 0x3f8(a5)
0x800003ac: 00 00 80 67 ret
0x80000104: 00 14 45 03 lbu	a0, 1(s0)
0x80000108: 00 14 04 13 addi	s0, s0, 1
0x8000010c: fe 05 1a e3 bnez	a0, -0xc
0x80000100: 2a 40 00 ef jal	0x2a4
0x800003a4: a0 00 07 b7 lui	a5, 0xa0000
0x800003a8: 3e a7 8c 23 sb	a0, 0x3f8(a5)
0x800003ac: 00 00 80 67 ret
0x80000104: 00 14 45 03 lbu	a0, 1(s0)
0x80000108: 00 14 04 13 addi	s0, s0, 1
0x8000010c: fe 05 1a e3 bnez	a0, -0xc
0x80000110: fc 5f f0 6f j	-0x3c
0x800000d4: 01 c1 20 83 lw	ra, 0x1c(sp)
0x800000d8: 01 81 24 03 lw	s0, 0x18(sp)
0x800000dc: 01 01 29 03 lw	s2, 0x10(sp)
0x800000e0: 00 c1 29 83 lw	s3, 0xc(sp)
0x800000e4: 00 04 85 13 mv	a0, s1
0x800000e8: 01 41 24 83 lw	s1, 0x14(sp)
0x800000ec: 02 01 01 13 addi	sp, sp, 0x20
0x800000f0: 00 00 80 67 ret
0x80000434: 00 05 0e 63 beqz	a0, 0x1c
0x80000438: 02 c1 20 83 lw	ra, 0x2c(sp)
0x8000043c: 03 01 01 13 addi	sp, sp, 0x30
0x80000440: 00 00 80 67 ret
0x80000628: 00 05 01 13 mv	sp, a0
0x8000062c: 08 41 23 03 lw	t1, 0x84(sp)
0x80000630: 08 81 23 83 lw	t2, 0x88(sp)
0x80000634: 30 03 10 73 csrw	mstatus, t1
0x80000638: 34 13 90 73 csrw	mepc, t2
0x8000063c: 00 41 20 83 lw	ra, 4(sp)
0x80000640: 00 c1 21 83 lw	gp, 0xc(sp)
0x80000644: 01 01 22 03 lw	tp, 0x10(sp)
0x80000648: 01 41 22 83 lw	t0, 0x14(sp)
0x8000064c: 01 81 23 03 lw	t1, 0x18(sp)
0x80000650: 01 c1 23 83 lw	t2, 0x1c(sp)
0x80000654: 02 01 24 03 lw	s0, 0x20(sp)
0x80000658: 02 41 24 83 lw	s1, 0x24(sp)
0x8000065c: 02 81 25 03 lw	a0, 0x28(sp)
0x80000660: 02 c1 25 83 lw	a1, 0x2c(sp)
0x80000664: 03 01 26 03 lw	a2, 0x30(sp)
0x80000668: 03 41 26 83 lw	a3, 0x34(sp)
0x8000066c: 03 81 27 03 lw	a4, 0x38(sp)
0x80000670: 03 c1 27 83 lw	a5, 0x3c(sp)
0x80000674: 04 01 28 03 lw	a6, 0x40(sp)
0x80000678: 04 41 28 83 lw	a7, 0x44(sp)
0x8000067c: 04 81 29 03 lw	s2, 0x48(sp)
0x80000680: 04 c1 29 83 lw	s3, 0x4c(sp)
0x80000684: 05 01 2a 03 lw	s4, 0x50(sp)
0x80000688: 05 41 2a 83 lw	s5, 0x54(sp)
0x8000068c: 05 81 2b 03 lw	s6, 0x58(sp)
0x80000690: 05 c1 2b 83 lw	s7, 0x5c(sp)
0x80000694: 06 01 2c 03 lw	s8, 0x60(sp)
0x80000698: 06 41 2c 83 lw	s9, 0x64(sp)
0x8000069c: 06 81 2d 03 lw	s10, 0x68(sp)
0x800006a0: 06 c1 2d 83 lw	s11, 0x6c(sp)
0x800006a4: 07 01 2e 03 lw	t3, 0x70(sp)
0x800006a8: 07 41 2e 83 lw	t4, 0x74(sp)
0x800006ac: 07 81 2f 03 lw	t5, 0x78(sp)
0x800006b0: 07 c1 2f 83 lw	t6, 0x7c(sp)
0x800006b4: 08 c1 01 13 addi	sp, sp, 0x8c
0x800006b8: 30 20 00 73 mret
0x8000050c: 00 00 00 73 ecall
0x80000580: f7 41 01 13 addi	sp, sp, -0x8c
0x80000584: 00 11 22 23 sw	ra, 4(sp)
0x80000588: 00 31 26 23 sw	gp, 0xc(sp)
0x8000058c: 00 41 28 23 sw	tp, 0x10(sp)
0x80000590: 00 51 2a 23 sw	t0, 0x14(sp)
0x80000594: 00 61 2c 23 sw	t1, 0x18(sp)
0x80000598: 00 71 2e 23 sw	t2, 0x1c(sp)
0x8000059c: 02 81 20 23 sw	s0, 0x20(sp)
0x800005a0: 02 91 22 23 sw	s1, 0x24(sp)
0x800005a4: 02 a1 24 23 sw	a0, 0x28(sp)
0x800005a8: 02 b1 26 23 sw	a1, 0x2c(sp)
0x800005ac: 02 c1 28 23 sw	a2, 0x30(sp)
0x800005b0: 02 d1 2a 23 sw	a3, 0x34(sp)
0x800005b4: 02 e1 2c 23 sw	a4, 0x38(sp)
0x800005b8: 02 f1 2e 23 sw	a5, 0x3c(sp)
0x800005bc: 05 01 20 23 sw	a6, 0x40(sp)
0x800005c0: 05 11 22 23 sw	a7, 0x44(sp)
0x800005c4: 05 21 24 23 sw	s2, 0x48(sp)
0x800005c8: 05 31 26 23 sw	s3, 0x4c(sp)
0x800005cc: 05 41 28 23 sw	s4, 0x50(sp)
0x800005d0: 05 51 2a 23 sw	s5, 0x54(sp)
0x800005d4: 05 61 2c 23 sw	s6, 0x58(sp)
0x800005d8: 05 71 2e 23 sw	s7, 0x5c(sp)
0x800005dc: 07 81 20 23 sw	s8, 0x60(sp)
0x800005e0: 07 91 22 23 sw	s9, 0x64(sp)
0x800005e4: 07 a1 24 23 sw	s10, 0x68(sp)
0x800005e8: 07 b1 26 23 sw	s11, 0x6c(sp)
0x800005ec: 07 c1 28 23 sw	t3, 0x70(sp)
0x800005f0: 07 d1 2a 23 sw	t4, 0x74(sp)
0x800005f4: 07 e1 2c 23 sw	t5, 0x78(sp)
0x800005f8: 07 f1 2e 23 sw	t6, 0x7c(sp)
0x800005fc: 34 20 22 f3 csrr	t0, mcause
0x80000600: 30 00 23 73 csrr	t1, mstatus
0x80000604: 34 10 23 f3 csrr	t2, mepc
0x80000608: 08 51 20 23 sw	t0, 0x80(sp)
0x8000060c: 08 61 22 23 sw	t1, 0x84(sp)
0x80000610: 08 71 24 23 sw	t2, 0x88(sp)
0x80000614: 00 02 05 37 lui	a0, 0x20
0x80000618: 00 a3 63 33 or	t1, t1, a0
0x8000061c: 30 03 10 73 csrw	mstatus, t1
0x80000620: 00 01 05 13 mv	a0, sp
0x80000624: db 9f f0 ef jal	-0x248
0x800003dc: 00 00 37 97 auipc	a5, 3
0x800003e0: a0 c7 a7 83 lw	a5, -0x5f4(a5)
0x800003e4: 00 05 05 93 mv	a1, a0
0x800003e8: 06 07 82 63 beqz	a5, 0x64
0x800003ec: 08 05 26 03 lw	a2, 0x80(a0)
0x800003f0: fd 01 01 13 addi	sp, sp, -0x30
0x800003f4: 02 11 26 23 sw	ra, 0x2c(sp)
0x800003f8: 00 01 2a 23 sw	zero, 0x14(sp)
0x800003fc: 00 01 2c 23 sw	zero, 0x18(sp)
0x80000400: 00 01 2e 23 sw	zero, 0x1c(sp)
0x80000404: 00 b0 06 93 addi	a3, zero, 0xb
0x80000408: 00 40 07 13 addi	a4, zero, 4
0x8000040c: 02 d6 0c 63 beq	a2, a3, 0x38
0x80000444: 00 10 07 13 addi	a4, zero, 1
0x80000448: fc 9f f0 6f j	-0x38
0x80000410: 00 e1 20 23 sw	a4, 0(sp)
0x80000414: 01 41 27 03 lw	a4, 0x14(sp)
0x80000418: 00 01 05 13 mv	a0, sp
0x8000041c: 00 e1 22 23 sw	a4, 4(sp)
0x80000420: 01 81 27 03 lw	a4, 0x18(sp)
0x80000424: 00 e1 24 23 sw	a4, 8(sp)
0x80000428: 01 c1 27 03 lw	a4, 0x1c(sp)
0x8000042c: 00 e1 26 23 sw	a4, 0xc(sp)
0x80000430: 00 07 80 e7 jalr	a5
0x80000010: fe 01 01 13 addi	sp, sp, -0x20
0x80000014: 01 21 28 23 sw	s2, 0x10(sp)
0x80000018: 00 00 39 17 auipc	s2, 3
0x8000001c: dc 89 09 13 addi	s2, s2, -0x238
0x80000020: 00 09 27 83 lw	a5, 0(s2)
0x80000024: 00 81 2c 23 sw	s0, 0x18(sp)
0x80000028: 00 91 2a 23 sw	s1, 0x14(sp)
0x8000002c: 01 31 26 23 sw	s3, 0xc(sp)
0x80000030: 00 11 2e 23 sw	ra, 0x1c(sp)
0x80000034: 00 17 87 93 addi	a5, a5, 1
0x80000038: 00 05 09 93 mv	s3, a0
0x8000003c: 00 05 84 93 mv	s1, a1
0x80000040: 00 f9 20 23 sw	a5, 0(s2)
0x80000044: 00 00 14 17 auipc	s0, 1
0x80000048: 77 44 04 13 addi	s0, s0, 0x774
0x8000004c: 05 30 05 13 addi	a0, zero, 0x53
0x80000050: 35 40 00 ef jal	0x354
0x800003a4: a0 00 07 b7 lui	a5, 0xa0000
0x800003a8: 3e a7 8c 23 sb	a0, 0x3f8(a5)
0x800003ac: 00 00 80 67 ret
0x80000054: 00 14 45 03 lbu	a0, 1(s0)
0x80000058: 00 14 04 13 addi	s0, s0, 1
0x8000005c: fe 05 1a e3 bnez	a0, -0xc
0x80000050: 35 40 00 ef jal	0x354
0x800003a4: a0 00 07 b7 lui	a5, 0xa0000
0x800003a8: 3e a7 8c 23 sb	a0, 0x3f8(a5)
0x800003ac: 00 00 80 67 ret
0x80000054: 00 14 45 03 lbu	a0, 1(s0)
0x80000058: 00 14 04 13 addi	s0, s0, 1
0x8000005c: fe 05 1a e3 bnez	a0, -0xc
0x80000050: 35 40 00 ef jal	0x354
0x800003a4: a0 00 07 b7 lui	a5, 0xa0000
0x800003a8: 3e a7 8c 23 sb	a0, 0x3f8(a5)
0x800003ac: 00 00 80 67 ret
0x80000054: 00 14 45 03 lbu	a0, 1(s0)
0x80000058: 00 14 04 13 addi	s0, s0, 1
0x8000005c: fe 05 1a e3 bnez	a0, -0xc
0x80000050: 35 40 00 ef jal	0x354
0x800003a4: a0 00 07 b7 lui	a5, 0xa0000
0x800003a8: 3e a7 8c 23 sb	a0, 0x3f8(a5)
0x800003ac: 00 00 80 67 ret
0x80000054: 00 14 45 03 lbu	a0, 1(s0)
0x80000058: 00 14 04 13 addi	s0, s0, 1
0x8000005c: fe 05 1a e3 bnez	a0, -0xc
0x80000050: 35 40 00 ef jal	0x354
0x800003a4: a0 00 07 b7 lui	a5, 0xa0000
0x800003a8: 3e a7 8c 23 sb	a0, 0x3f8(a5)
0x800003ac: 00 00 80 67 ret
0x80000054: 00 14 45 03 lbu	a0, 1(s0)
0x80000058: 00 14 04 13 addi	s0, s0, 1
0x8000005c: fe 05 1a e3 bnez	a0, -0xc
0x80000050: 35 40 00 ef jal	0x354
0x800003a4: a0 00 07 b7 lui	a5, 0xa0000
0x800003a8: 3e a7 8c 23 sb	a0, 0x3f8(a5)
0x800003ac: 00 00 80 67 ret
0x80000054: 00 14 45 03 lbu	a0, 1(s0)
0x80000058: 00 14 04 13 addi	s0, s0, 1
0x8000005c: fe 05 1a e3 bnez	a0, -0xc
0x80000050: 35 40 00 ef jal	0x354
0x800003a4: a0 00 07 b7 lui	a5, 0xa0000
0x800003a8: 3e a7 8c 23 sb	a0, 0x3f8(a5)
0x800003ac: 00 00 80 67 ret
0x80000054: 00 14 45 03 lbu	a0, 1(s0)
0x80000058: 00 14 04 13 addi	s0, s0, 1
0x8000005c: fe 05 1a e3 bnez	a0, -0xc
0x80000050: 35 40 00 ef jal	0x354
0x800003a4: a0 00 07 b7 lui	a5, 0xa0000
0x800003a8: 3e a7 8c 23 sb	a0, 0x3f8(a5)
0x800003ac: 00 00 80 67 ret
0x80000054: 00 14 45 03 lbu	a0, 1(s0)
0x80000058: 00 14 04 13 addi	s0, s0, 1
0x8000005c: fe 05 1a e3 bnez	a0, -0xc
0x80000050: 35 40 00 ef jal	0x354
0x800003a4: a0 00 07 b7 lui	a5, 0xa0000
0x800003a8: 3e a7 8c 23 sb	a0, 0x3f8(a5)
0x800003ac: 00 00 80 67 ret
0x80000054: 00 14 45 03 lbu	a0, 1(s0)
0x80000058: 00 14 04 13 addi	s0, s0, 1
0x8000005c: fe 05 1a e3 bnez	a0, -0xc
0x80000050: 35 40 00 ef jal	0x354
0x800003a4: a0 00 07 b7 lui	a5, 0xa0000
0x800003a8: 3e a7 8c 23 sb	a0, 0x3f8(a5)
0x800003ac: 00 00 80 67 ret
0x80000054: 00 14 45 03 lbu	a0, 1(s0)
0x80000058: 00 14 04 13 addi	s0, s0, 1
0x8000005c: fe 05 1a e3 bnez	a0, -0xc
0x80000050: 35 40 00 ef jal	0x354
0x800003a4: a0 00 07 b7 lui	a5, 0xa0000
0x800003a8: 3e a7 8c 23 sb	a0, 0x3f8(a5)
0x800003ac: 00 00 80 67 ret
0x80000054: 00 14 45 03 lbu	a0, 1(s0)
0x80000058: 00 14 04 13 addi	s0, s0, 1
0x8000005c: fe 05 1a e3 bnez	a0, -0xc
0x80000050: 35 40 00 ef jal	0x354
0x800003a4: a0 00 07 b7 lui	a5, 0xa0000
0x800003a8: 3e a7 8c 23 sb	a0, 0x3f8(a5)
0x800003ac: 00 00 80 67 ret
0x80000054: 00 14 45 03 lbu	a0, 1(s0)
0x80000058: 00 14 04 13 addi	s0, s0, 1
0x8000005c: fe 05 1a e3 bnez	a0, -0xc
0x80000050: 35 40 00 ef jal	0x354
0x800003a4: a0 00 07 b7 lui	a5, 0xa0000
0x800003a8: 3e a7 8c 23 sb	a0, 0x3f8(a5)
0x800003ac: 00 00 80 67 ret
0x80000054: 00 14 45 03 lbu	a0, 1(s0)
0x80000058: 00 14 04 13 addi	s0, s0, 1
0x8000005c: fe 05 1a e3 bnez	a0, -0xc
0x80000050: 35 40 00 ef jal	0x354
0x800003a4: a0 00 07 b7 lui	a5, 0xa0000
0x800003a8: 3e a7 8c 23 sb	a0, 0x3f8(a5)
0x800003ac: 00 00 80 67 ret
0x80000054: 00 14 45 03 lbu	a0, 1(s0)
0x80000058: 00 14 04 13 addi	s0, s0, 1
0x8000005c: fe 05 1a e3 bnez	a0, -0xc
0x80000050: 35 40 00 ef jal	0x354
0x800003a4: a0 00 07 b7 lui	a5, 0xa0000
0x800003a8: 3e a7 8c 23 sb	a0, 0x3f8(a5)
0x800003ac: 00 00 80 67 ret
0x80000054: 00 14 45 03 lbu	a0, 1(s0)
0x80000058: 00 14 04 13 addi	s0, s0, 1
0x8000005c: fe 05 1a e3 bnez	a0, -0xc
0x80000050: 35 40 00 ef jal	0x354
0x800003a4: a0 00 07 b7 lui	a5, 0xa0000
0x800003a8: 3e a7 8c 23 sb	a0, 0x3f8(a5)
0x800003ac: 00 00 80 67 ret
0x80000054: 00 14 45 03 lbu	a0, 1(s0)
0x80000058: 00 14 04 13 addi	s0, s0, 1
0x8000005c: fe 05 1a e3 bnez	a0, -0xc
0x80000050: 35 40 00 ef jal	0x354
0x800003a4: a0 00 07 b7 lui	a5, 0xa0000
0x800003a8: 3e a7 8c 23 sb	a0, 0x3f8(a5)
0x800003ac: 00 00 80 67 ret
0x80000054: 00 14 45 03 lbu	a0, 1(s0)
0x80000058: 00 14 04 13 addi	s0, s0, 1
0x8000005c: fe 05 1a e3 bnez	a0, -0xc
0x80000060: 00 09 25 03 lw	a0, 0(s2)
0x80000064: 00 00 14 17 auipc	s0, 1
0x80000068: 76 84 04 13 addi	s0, s0, 0x768
0x8000006c: 03 05 05 13 addi	a0, a0, 0x30
0x80000070: 0f f5 75 13 andi	a0, a0, 0xff
0x80000074: 33 00 00 ef jal	0x330
0x800003a4: a0 00 07 b7 lui	a5, 0xa0000
0x800003a8: 3e a7 8c 23 sb	a0, 0x3f8(a5)
0x800003ac: 00 00 80 67 ret
0x80000078: 02 c0 05 13 addi	a0, zero, 0x2c
0x8000007c: 32 80 00 ef jal	0x328
0x800003a4: a0 00 07 b7 lui	a5, 0xa0000
0x800003a8: 3e a7 8c 23 sb	a0, 0x3f8(a5)
0x800003ac: 00 00 80 67 ret
0x80000080: 00 14 45 03 lbu	a0, 1(s0)
0x80000084: 00 14 04 13 addi	s0, s0, 1
0x80000088: fe 05 1a e3 bnez	a0, -0xc
0x8000007c: 32 80 00 ef jal	0x328
0x800003a4: a0 00 07 b7 lui	a5, 0xa0000
0x800003a8: 3e a7 8c 23 sb	a0, 0x3f8(a5)
0x800003ac: 00 00 80 67 ret
0x80000080: 00 14 45 03 lbu	a0, 1(s0)
0x80000084: 00 14 04 13 addi	s0, s0, 1
0x80000088: fe 05 1a e3 bnez	a0, -0xc
0x8000007c: 32 80 00 ef jal	0x328
0x800003a4: a0 00 07 b7 lui	a5, 0xa0000
0x800003a8: 3e a7 8c 23 sb	a0, 0x3f8(a5)
0x800003ac: 00 00 80 67 ret
0x80000080: 00 14 45 03 lbu	a0, 1(s0)
0x80000084: 00 14 04 13 addi	s0, s0, 1
0x80000088: fe 05 1a e3 bnez	a0, -0xc
0x8000007c: 32 80 00 ef jal	0x328
0x800003a4: a0 00 07 b7 lui	a5, 0xa0000
0x800003a8: 3e a7 8c 23 sb	a0, 0x3f8(a5)
0x800003ac: 00 00 80 67 ret
0x80000080: 00 14 45 03 lbu	a0, 1(s0)
0x80000084: 00 14 04 13 addi	s0, s0, 1
0x80000088: fe 05 1a e3 bnez	a0, -0xc
0x8000007c: 32 80 00 ef jal	0x328
0x800003a4: a0 00 07 b7 lui	a5, 0xa0000
0x800003a8: 3e a7 8c 23 sb	a0, 0x3f8(a5)
0x800003ac: 00 00 80 67 ret
0x80000080: 00 14 45 03 lbu	a0, 1(s0)
0x80000084: 00 14 04 13 addi	s0, s0, 1
0x80000088: fe 05 1a e3 bnez	a0, -0xc
0x8000007c: 32 80 00 ef jal	0x328
0x800003a4: a0 00 07 b7 lui	a5, 0xa0000
0x800003a8: 3e a7 8c 23 sb	a0, 0x3f8(a5)
0x800003ac: 00 00 80 67 ret
0x80000080: 00 14 45 03 lbu	a0, 1(s0)
0x80000084: 00 14 04 13 addi	s0, s0, 1
0x80000088: fe 05 1a e3 bnez	a0, -0xc
0x8000007c: 32 80 00 ef jal	0x328
0x800003a4: a0 00 07 b7 lui	a5, 0xa0000
0x800003a8: 3e a7 8c 23 sb	a0, 0x3f8(a5)
0x800003ac: 00 00 80 67 ret
0x80000080: 00 14 45 03 lbu	a0, 1(s0)
0x80000084: 00 14 04 13 addi	s0, s0, 1
0x80000088: fe 05 1a e3 bnez	a0, -0xc
0x8000007c: 32 80 00 ef jal	0x328
0x800003a4: a0 00 07 b7 lui	a5, 0xa0000
0x800003a8: 3e a7 8c 23 sb	a0, 0x3f8(a5)
0x800003ac: 00 00 80 67 ret
0x80000080: 00 14 45 03 lbu	a0, 1(s0)
0x80000084: 00 14 04 13 addi	s0, s0, 1
0x80000088: fe 05 1a e3 bnez	a0, -0xc
0x8000007c: 32 80 00 ef jal	0x328
0x800003a4: a0 00 07 b7 lui	a5, 0xa0000
0x800003a8: 3e a7 8c 23 sb	a0, 0x3f8(a5)
0x800003ac: 00 00 80 67 ret
0x80000080: 00 14 45 03 lbu	a0, 1(s0)
0x80000084: 00 14 04 13 addi	s0, s0, 1
0x80000088: fe 05 1a e3 bnez	a0, -0xc
0x8000008c: 00 09 a5 03 lw	a0, 0(s3)
0x80000090: 03 05 05 13 addi	a0, a0, 0x30
0x80000094: 0f f5 75 13 andi	a0, a0, 0xff
0x80000098: 30 c0 00 ef jal	0x30c
0x800003a4: a0 00 07 b7 lui	a5, 0xa0000
0x800003a8: 3e a7 8c 23 sb	a0, 0x3f8(a5)
0x800003ac: 00 00 80 67 ret
0x8000009c: 00 a0 05 13 addi	a0, zero, 0xa
0x800000a0: 30 40 00 ef jal	0x304
0x800003a4: a0 00 07 b7 lui	a5, 0xa0000
0x800003a8: 3e a7 8c 23 sb	a0, 0x3f8(a5)
0x800003ac: 00 00 80 67 ret
0x800000a4: 00 09 27 83 lw	a5, 0(s2)
0x800000a8: 00 10 07 13 addi	a4, zero, 1
0x800000ac: 06 e7 84 63 beq	a5, a4, 0x68
0x800000b0: 00 40 07 13 addi	a4, zero, 4
0x800000b4: 04 f7 40 63 blt	a4, a5, 0x40
0x800000f4: 00 00 14 17 auipc	s0, 1
0x800000f8: 71 c4 04 13 addi	s0, s0, 0x71c
0x800000fc: 05 30 05 13 addi	a0, zero, 0x53
0x80000100: 2a 40 00 ef jal	0x2a4
0x800003a4: a0 00 07 b7 lui	a5, 0xa0000
0x800003a8: 3e a7 8c 23 sb	a0, 0x3f8(a5)
0x800003ac: 00 00 80 67 ret
0x80000104: 00 14 45 03 lbu	a0, 1(s0)
0x80000108: 00 14 04 13 addi	s0, s0, 1
0x8000010c: fe 05 1a e3 bnez	a0, -0xc
0x80000100: 2a 40 00 ef jal	0x2a4
0x800003a4: a0 00 07 b7 lui	a5, 0xa0000
0x800003a8: 3e a7 8c 23 sb	a0, 0x3f8(a5)
0x800003ac: 00 00 80 67 ret
0x80000104: 00 14 45 03 lbu	a0, 1(s0)
0x80000108: 00 14 04 13 addi	s0, s0, 1
0x8000010c: fe 05 1a e3 bnez	a0, -0xc
0x80000100: 2a 40 00 ef jal	0x2a4
0x800003a4: a0 00 07 b7 lui	a5, 0xa0000
0x800003a8: 3e a7 8c 23 sb	a0, 0x3f8(a5)
0x800003ac: 00 00 80 67 ret
0x80000104: 00 14 45 03 lbu	a0, 1(s0)
0x80000108: 00 14 04 13 addi	s0, s0, 1
0x8000010c: fe 05 1a e3 bnez	a0, -0xc
0x80000100: 2a 40 00 ef jal	0x2a4
0x800003a4: a0 00 07 b7 lui	a5, 0xa0000
0x800003a8: 3e a7 8c 23 sb	a0, 0x3f8(a5)
0x800003ac: 00 00 80 67 ret
0x80000104: 00 14 45 03 lbu	a0, 1(s0)
0x80000108: 00 14 04 13 addi	s0, s0, 1
0x8000010c: fe 05 1a e3 bnez	a0, -0xc
0x80000100: 2a 40 00 ef jal	0x2a4
0x800003a4: a0 00 07 b7 lui	a5, 0xa0000
0x800003a8: 3e a7 8c 23 sb	a0, 0x3f8(a5)
0x800003ac: 00 00 80 67 ret
0x80000104: 00 14 45 03 lbu	a0, 1(s0)
0x80000108: 00 14 04 13 addi	s0, s0, 1
0x8000010c: fe 05 1a e3 bnez	a0, -0xc
0x80000100: 2a 40 00 ef jal	0x2a4
0x800003a4: a0 00 07 b7 lui	a5, 0xa0000
0x800003a8: 3e a7 8c 23 sb	a0, 0x3f8(a5)
0x800003ac: 00 00 80 67 ret
0x80000104: 00 14 45 03 lbu	a0, 1(s0)
0x80000108: 00 14 04 13 addi	s0, s0, 1
0x8000010c: fe 05 1a e3 bnez	a0, -0xc
0x80000100: 2a 40 00 ef jal	0x2a4
0x800003a4: a0 00 07 b7 lui	a5, 0xa0000
0x800003a8: 3e a7 8c 23 sb	a0, 0x3f8(a5)
0x800003ac: 00 00 80 67 ret
0x80000104: 00 14 45 03 lbu	a0, 1(s0)
0x80000108: 00 14 04 13 addi	s0, s0, 1
0x8000010c: fe 05 1a e3 bnez	a0, -0xc
0x80000100: 2a 40 00 ef jal	0x2a4
0x800003a4: a0 00 07 b7 lui	a5, 0xa0000
0x800003a8: 3e a7 8c 23 sb	a0, 0x3f8(a5)
0x800003ac: 00 00 80 67 ret
0x80000104: 00 14 45 03 lbu	a0, 1(s0)
0x80000108: 00 14 04 13 addi	s0, s0, 1
0x8000010c: fe 05 1a e3 bnez	a0, -0xc
0x80000100: 2a 40 00 ef jal	0x2a4
0x800003a4: a0 00 07 b7 lui	a5, 0xa0000
0x800003a8: 3e a7 8c 23 sb	a0, 0x3f8(a5)
0x800003ac: 00 00 80 67 ret
0x80000104: 00 14 45 03 lbu	a0, 1(s0)
0x80000108: 00 14 04 13 addi	s0, s0, 1
0x8000010c: fe 05 1a e3 bnez	a0, -0xc
0x80000100: 2a 40 00 ef jal	0x2a4
0x800003a4: a0 00 07 b7 lui	a5, 0xa0000
0x800003a8: 3e a7 8c 23 sb	a0, 0x3f8(a5)
0x800003ac: 00 00 80 67 ret
0x80000104: 00 14 45 03 lbu	a0, 1(s0)
0x80000108: 00 14 04 13 addi	s0, s0, 1
0x8000010c: fe 05 1a e3 bnez	a0, -0xc
0x80000100: 2a 40 00 ef jal	0x2a4
0x800003a4: a0 00 07 b7 lui	a5, 0xa0000
0x800003a8: 3e a7 8c 23 sb	a0, 0x3f8(a5)
0x800003ac: 00 00 80 67 ret
0x80000104: 00 14 45 03 lbu	a0, 1(s0)
0x80000108: 00 14 04 13 addi	s0, s0, 1
0x8000010c: fe 05 1a e3 bnez	a0, -0xc
0x80000100: 2a 40 00 ef jal	0x2a4
0x800003a4: a0 00 07 b7 lui	a5, 0xa0000
0x800003a8: 3e a7 8c 23 sb	a0, 0x3f8(a5)
0x800003ac: 00 00 80 67 ret
0x80000104: 00 14 45 03 lbu	a0, 1(s0)
0x80000108: 00 14 04 13 addi	s0, s0, 1
0x8000010c: fe 05 1a e3 bnez	a0, -0xc
0x80000100: 2a 40 00 ef jal	0x2a4
0x800003a4: a0 00 07 b7 lui	a5, 0xa0000
0x800003a8: 3e a7 8c 23 sb	a0, 0x3f8(a5)
0x800003ac: 00 00 80 67 ret
0x80000104: 00 14 45 03 lbu	a0, 1(s0)
0x80000108: 00 14 04 13 addi	s0, s0, 1
0x8000010c: fe 05 1a e3 bnez	a0, -0xc
0x80000100: 2a 40 00 ef jal	0x2a4
0x800003a4: a0 00 07 b7 lui	a5, 0xa0000
0x800003a8: 3e a7 8c 23 sb	a0, 0x3f8(a5)
0x800003ac: 00 00 80 67 ret
0x80000104: 00 14 45 03 lbu	a0, 1(s0)
0x80000108: 00 14 04 13 addi	s0, s0, 1
0x8000010c: fe 05 1a e3 bnez	a0, -0xc
0x80000100: 2a 40 00 ef jal	0x2a4
0x800003a4: a0 00 07 b7 lui	a5, 0xa0000
0x800003a8: 3e a7 8c 23 sb	a0, 0x3f8(a5)
0x800003ac: 00 00 80 67 ret
0x80000104: 00 14 45 03 lbu	a0, 1(s0)
0x80000108: 00 14 04 13 addi	s0, s0, 1
0x8000010c: fe 05 1a e3 bnez	a0, -0xc
0x80000100: 2a 40 00 ef jal	0x2a4
0x800003a4: a0 00 07 b7 lui	a5, 0xa0000
0x800003a8: 3e a7 8c 23 sb	a0, 0x3f8(a5)
0x800003ac: 00 00 80 67 ret
0x80000104: 00 14 45 03 lbu	a0, 1(s0)
0x80000108: 00 14 04 13 addi	s0, s0, 1
0x8000010c: fe 05 1a e3 bnez	a0, -0xc
0x80000100: 2a 40 00 ef jal	0x2a4
0x800003a4: a0 00 07 b7 lui	a5, 0xa0000
0x800003a8: 3e a7 8c 23 sb	a0, 0x3f8(a5)
0x800003ac: 00 00 80 67 ret
0x80000104: 00 14 45 03 lbu	a0, 1(s0)
0x80000108: 00 14 04 13 addi	s0, s0, 1
0x8000010c: fe 05 1a e3 bnez	a0, -0xc
0x80000100: 2a 40 00 ef jal	0x2a4
0x800003a4: a0 00 07 b7 lui	a5, 0xa0000
0x800003a8: 3e a7 8c 23 sb	a0, 0x3f8(a5)
0x800003ac: 00 00 80 67 ret
0x80000104: 00 14 45 03 lbu	a0, 1(s0)
0x80000108: 00 14 04 13 addi	s0, s0, 1
0x8000010c: fe 05 1a e3 bnez	a0, -0xc
0x80000100: 2a 40 00 ef jal	0x2a4
0x800003a4: a0 00 07 b7 lui	a5, 0xa0000
0x800003a8: 3e a7 8c 23 sb	a0, 0x3f8(a5)
0x800003ac: 00 00 80 67 ret
0x80000104: 00 14 45 03 lbu	a0, 1(s0)
0x80000108: 00 14 04 13 addi	s0, s0, 1
0x8000010c: fe 05 1a e3 bnez	a0, -0xc
0x80000100: 2a 40 00 ef jal	0x2a4
0x800003a4: a0 00 07 b7 lui	a5, 0xa0000
0x800003a8: 3e a7 8c 23 sb	a0, 0x3f8(a5)
0x800003ac: 00 00 80 67 ret
0x80000104: 00 14 45 03 lbu	a0, 1(s0)
0x80000108: 00 14 04 13 addi	s0, s0, 1
0x8000010c: fe 05 1a e3 bnez	a0, -0xc
0x80000100: 2a 40 00 ef jal	0x2a4
0x800003a4: a0 00 07 b7 lui	a5, 0xa0000
0x800003a8: 3e a7 8c 23 sb	a0, 0x3f8(a5)
0x800003ac: 00 00 80 67 ret
0x80000104: 00 14 45 03 lbu	a0, 1(s0)
0x80000108: 00 14 04 13 addi	s0, s0, 1
0x8000010c: fe 05 1a e3 bnez	a0, -0xc
0x80000100: 2a 40 00 ef jal	0x2a4
0x800003a4: a0 00 07 b7 lui	a5, 0xa0000
0x800003a8: 3e a7 8c 23 sb	a0, 0x3f8(a5)
0x800003ac: 00 00 80 67 ret
0x80000104: 00 14 45 03 lbu	a0, 1(s0)
0x80000108: 00 14 04 13 addi	s0, s0, 1
0x8000010c: fe 05 1a e3 bnez	a0, -0xc
0x80000100: 2a 40 00 ef jal	0x2a4
0x800003a4: a0 00 07 b7 lui	a5, 0xa0000
0x800003a8: 3e a7 8c 23 sb	a0, 0x3f8(a5)
0x800003ac: 00 00 80 67 ret
0x80000104: 00 14 45 03 lbu	a0, 1(s0)
0x80000108: 00 14 04 13 addi	s0, s0, 1
0x8000010c: fe 05 1a e3 bnez	a0, -0xc
0x80000100: 2a 40 00 ef jal	0x2a4
0x800003a4: a0 00 07 b7 lui	a5, 0xa0000
0x800003a8: 3e a7 8c 23 sb	a0, 0x3f8(a5)
0x800003ac: 00 00 80 67 ret
0x80000104: 00 14 45 03 lbu	a0, 1(s0)
0x80000108: 00 14 04 13 addi	s0, s0, 1
0x8000010c: fe 05 1a e3 bnez	a0, -0xc
0x80000100: 2a 40 00 ef jal	0x2a4
0x800003a4: a0 00 07 b7 lui	a5, 0xa0000
0x800003a8: 3e a7 8c 23 sb	a0, 0x3f8(a5)
0x800003ac: 00 00 80 67 ret
0x80000104: 00 14 45 03 lbu	a0, 1(s0)
0x80000108: 00 14 04 13 addi	s0, s0, 1
0x8000010c: fe 05 1a e3 bnez	a0, -0xc
0x80000100: 2a 40 00 ef jal	0x2a4
0x800003a4: a0 00 07 b7 lui	a5, 0xa0000
0x800003a8: 3e a7 8c 23 sb	a0, 0x3f8(a5)
0x800003ac: 00 00 80 67 ret
0x80000104: 00 14 45 03 lbu	a0, 1(s0)
0x80000108: 00 14 04 13 addi	s0, s0, 1
0x8000010c: fe 05 1a e3 bnez	a0, -0xc
0x80000100: 2a 40 00 ef jal	0x2a4
0x800003a4: a0 00 07 b7 lui	a5, 0xa0000
0x800003a8: 3e a7 8c 23 sb	a0, 0x3f8(a5)
0x800003ac: 00 00 80 67 ret
0x80000104: 00 14 45 03 lbu	a0, 1(s0)
0x80000108: 00 14 04 13 addi	s0, s0, 1
0x8000010c: fe 05 1a e3 bnez	a0, -0xc
0x80000110: fc 5f f0 6f j	-0x3c
0x800000d4: 01 c1 20 83 lw	ra, 0x1c(sp)
0x800000d8: 01 81 24 03 lw	s0, 0x18(sp)
0x800000dc: 01 01 29 03 lw	s2, 0x10(sp)
0x800000e0: 00 c1 29 83 lw	s3, 0xc(sp)
0x800000e4: 00 04 85 13 mv	a0, s1
0x800000e8: 01 41 24 83 lw	s1, 0x14(sp)
0x800000ec: 02 01 01 13 addi	sp, sp, 0x20
0x800000f0: 00 00 80 67 ret
0x80000434: 00 05 0e 63 beqz	a0, 0x1c
0x80000438: 02 c1 20 83 lw	ra, 0x2c(sp)
0x8000043c: 03 01 01 13 addi	sp, sp, 0x30
0x80000440: 00 00 80 67 ret
0x80000628: 00 05 01 13 mv	sp, a0
0x8000062c: 08 41 23 03 lw	t1, 0x84(sp)
0x80000630: 08 81 23 83 lw	t2, 0x88(sp)
0x80000634: 30 03 10 73 csrw	mstatus, t1
0x80000638: 34 13 90 73 csrw	mepc, t2
0x8000063c: 00 41 20 83 lw	ra, 4(sp)
0x80000640: 00 c1 21 83 lw	gp, 0xc(sp)
0x80000644: 01 01 22 03 lw	tp, 0x10(sp)
0x80000648: 01 41 22 83 lw	t0, 0x14(sp)
0x8000064c: 01 81 23 03 lw	t1, 0x18(sp)
0x80000650: 01 c1 23 83 lw	t2, 0x1c(sp)
0x80000654: 02 01 24 03 lw	s0, 0x20(sp)
0x80000658: 02 41 24 83 lw	s1, 0x24(sp)
0x8000065c: 02 81 25 03 lw	a0, 0x28(sp)
0x80000660: 02 c1 25 83 lw	a1, 0x2c(sp)
0x80000664: 03 01 26 03 lw	a2, 0x30(sp)
0x80000668: 03 41 26 83 lw	a3, 0x34(sp)
0x8000066c: 03 81 27 03 lw	a4, 0x38(sp)
0x80000670: 03 c1 27 83 lw	a5, 0x3c(sp)
0x80000674: 04 01 28 03 lw	a6, 0x40(sp)
0x80000678: 04 41 28 83 lw	a7, 0x44(sp)
0x8000067c: 04 81 29 03 lw	s2, 0x48(sp)
0x80000680: 04 c1 29 83 lw	s3, 0x4c(sp)
0x80000684: 05 01 2a 03 lw	s4, 0x50(sp)
0x80000688: 05 41 2a 83 lw	s5, 0x54(sp)
0x8000068c: 05 81 2b 03 lw	s6, 0x58(sp)
0x80000690: 05 c1 2b 83 lw	s7, 0x5c(sp)
0x80000694: 06 01 2c 03 lw	s8, 0x60(sp)
0x80000698: 06 41 2c 83 lw	s9, 0x64(sp)
0x8000069c: 06 81 2d 03 lw	s10, 0x68(sp)
0x800006a0: 06 c1 2d 83 lw	s11, 0x6c(sp)
0x800006a4: 07 01 2e 03 lw	t3, 0x70(sp)
0x800006a8: 07 41 2e 83 lw	t4, 0x74(sp)
0x800006ac: 07 81 2f 03 lw	t5, 0x78(sp)
0x800006b0: 07 c1 2f 83 lw	t6, 0x7c(sp)
0x800006b4: 08 c1 01 13 addi	sp, sp, 0x8c
0x800006b8: 30 20 00 73 mret
0x8000050c: 00 00 00 73 ecall
0x80000580: f7 41 01 13 addi	sp, sp, -0x8c
0x80000584: 00 11 22 23 sw	ra, 4(sp)
0x80000588: 00 31 26 23 sw	gp, 0xc(sp)
0x8000058c: 00 41 28 23 sw	tp, 0x10(sp)
0x80000590: 00 51 2a 23 sw	t0, 0x14(sp)
0x80000594: 00 61 2c 23 sw	t1, 0x18(sp)
0x80000598: 00 71 2e 23 sw	t2, 0x1c(sp)
0x8000059c: 02 81 20 23 sw	s0, 0x20(sp)
0x800005a0: 02 91 22 23 sw	s1, 0x24(sp)
0x800005a4: 02 a1 24 23 sw	a0, 0x28(sp)
0x800005a8: 02 b1 26 23 sw	a1, 0x2c(sp)
0x800005ac: 02 c1 28 23 sw	a2, 0x30(sp)
0x800005b0: 02 d1 2a 23 sw	a3, 0x34(sp)
0x800005b4: 02 e1 2c 23 sw	a4, 0x38(sp)
0x800005b8: 02 f1 2e 23 sw	a5, 0x3c(sp)
0x800005bc: 05 01 20 23 sw	a6, 0x40(sp)
0x800005c0: 05 11 22 23 sw	a7, 0x44(sp)
0x800005c4: 05 21 24 23 sw	s2, 0x48(sp)
0x800005c8: 05 31 26 23 sw	s3, 0x4c(sp)
0x800005cc: 05 41 28 23 sw	s4, 0x50(sp)
0x800005d0: 05 51 2a 23 sw	s5, 0x54(sp)
0x800005d4: 05 61 2c 23 sw	s6, 0x58(sp)
0x800005d8: 05 71 2e 23 sw	s7, 0x5c(sp)
0x800005dc: 07 81 20 23 sw	s8, 0x60(sp)
0x800005e0: 07 91 22 23 sw	s9, 0x64(sp)
0x800005e4: 07 a1 24 23 sw	s10, 0x68(sp)
0x800005e8: 07 b1 26 23 sw	s11, 0x6c(sp)
0x800005ec: 07 c1 28 23 sw	t3, 0x70(sp)
0x800005f0: 07 d1 2a 23 sw	t4, 0x74(sp)
0x800005f4: 07 e1 2c 23 sw	t5, 0x78(sp)
0x800005f8: 07 f1 2e 23 sw	t6, 0x7c(sp)
0x800005fc: 34 20 22 f3 csrr	t0, mcause
0x80000600: 30 00 23 73 csrr	t1, mstatus
0x80000604: 34 10 23 f3 csrr	t2, mepc
0x80000608: 08 51 20 23 sw	t0, 0x80(sp)
0x8000060c: 08 61 22 23 sw	t1, 0x84(sp)
0x80000610: 08 71 24 23 sw	t2, 0x88(sp)
0x80000614: 00 02 05 37 lui	a0, 0x20
0x80000618: 00 a3 63 33 or	t1, t1, a0
0x8000061c: 30 03 10 73 csrw	mstatus, t1
0x80000620: 00 01 05 13 mv	a0, sp
0x80000624: db 9f f0 ef jal	-0x248
0x800003dc: 00 00 37 97 auipc	a5, 3
0x800003e0: a0 c7 a7 83 lw	a5, -0x5f4(a5)
0x800003e4: 00 05 05 93 mv	a1, a0
0x800003e8: 06 07 82 63 beqz	a5, 0x64
0x800003ec: 08 05 26 03 lw	a2, 0x80(a0)
0x800003f0: fd 01 01 13 addi	sp, sp, -0x30
0x800003f4: 02 11 26 23 sw	ra, 0x2c(sp)
0x800003f8: 00 01 2a 23 sw	zero, 0x14(sp)
0x800003fc: 00 01 2c 23 sw	zero, 0x18(sp)
0x80000400: 00 01 2e 23 sw	zero, 0x1c(sp)
0x80000404: 00 b0 06 93 addi	a3, zero, 0xb
0x80000408: 00 40 07 13 addi	a4, zero, 4
0x8000040c: 02 d6 0c 63 beq	a2, a3, 0x38
0x80000444: 00 10 07 13 addi	a4, zero, 1
0x80000448: fc 9f f0 6f j	-0x38
0x80000410: 00 e1 20 23 sw	a4, 0(sp)
0x80000414: 01 41 27 03 lw	a4, 0x14(sp)
0x80000418: 00 01 05 13 mv	a0, sp
0x8000041c: 00 e1 22 23 sw	a4, 4(sp)
0x80000420: 01 81 27 03 lw	a4, 0x18(sp)
0x80000424: 00 e1 24 23 sw	a4, 8(sp)
0x80000428: 01 c1 27 03 lw	a4, 0x1c(sp)
0x8000042c: 00 e1 26 23 sw	a4, 0xc(sp)
0x80000430: 00 07 80 e7 jalr	a5
0x80000010: fe 01 01 13 addi	sp, sp, -0x20
0x80000014: 01 21 28 23 sw	s2, 0x10(sp)
0x80000018: 00 00 39 17 auipc	s2, 3
0x8000001c: dc 89 09 13 addi	s2, s2, -0x238
0x80000020: 00 09 27 83 lw	a5, 0(s2)
0x80000024: 00 81 2c 23 sw	s0, 0x18(sp)
0x80000028: 00 91 2a 23 sw	s1, 0x14(sp)
0x8000002c: 01 31 26 23 sw	s3, 0xc(sp)
0x80000030: 00 11 2e 23 sw	ra, 0x1c(sp)
0x80000034: 00 17 87 93 addi	a5, a5, 1
0x80000038: 00 05 09 93 mv	s3, a0
0x8000003c: 00 05 84 93 mv	s1, a1
0x80000040: 00 f9 20 23 sw	a5, 0(s2)
0x80000044: 00 00 14 17 auipc	s0, 1
0x80000048: 77 44 04 13 addi	s0, s0, 0x774
0x8000004c: 05 30 05 13 addi	a0, zero, 0x53
0x80000050: 35 40 00 ef jal	0x354
0x800003a4: a0 00 07 b7 lui	a5, 0xa0000
0x800003a8: 3e a7 8c 23 sb	a0, 0x3f8(a5)
0x800003ac: 00 00 80 67 ret
0x80000054: 00 14 45 03 lbu	a0, 1(s0)
0x80000058: 00 14 04 13 addi	s0, s0, 1
0x8000005c: fe 05 1a e3 bnez	a0, -0xc
0x80000050: 35 40 00 ef jal	0x354
0x800003a4: a0 00 07 b7 lui	a5, 0xa0000
0x800003a8: 3e a7 8c 23 sb	a0, 0x3f8(a5)
0x800003ac: 00 00 80 67 ret
0x80000054: 00 14 45 03 lbu	a0, 1(s0)
0x80000058: 00 14 04 13 addi	s0, s0, 1
0x8000005c: fe 05 1a e3 bnez	a0, -0xc
0x80000050: 35 40 00 ef jal	0x354
0x800003a4: a0 00 07 b7 lui	a5, 0xa0000
0x800003a8: 3e a7 8c 23 sb	a0, 0x3f8(a5)
0x800003ac: 00 00 80 67 ret
0x80000054: 00 14 45 03 lbu	a0, 1(s0)
0x80000058: 00 14 04 13 addi	s0, s0, 1
0x8000005c: fe 05 1a e3 bnez	a0, -0xc
0x80000050: 35 40 00 ef jal	0x354
0x800003a4: a0 00 07 b7 lui	a5, 0xa0000
0x800003a8: 3e a7 8c 23 sb	a0, 0x3f8(a5)
0x800003ac: 00 00 80 67 ret
0x80000054: 00 14 45 03 lbu	a0, 1(s0)
0x80000058: 00 14 04 13 addi	s0, s0, 1
0x8000005c: fe 05 1a e3 bnez	a0, -0xc
0x80000050: 35 40 00 ef jal	0x354
0x800003a4: a0 00 07 b7 lui	a5, 0xa0000
0x800003a8: 3e a7 8c 23 sb	a0, 0x3f8(a5)
0x800003ac: 00 00 80 67 ret
0x80000054: 00 14 45 03 lbu	a0, 1(s0)
0x80000058: 00 14 04 13 addi	s0, s0, 1
0x8000005c: fe 05 1a e3 bnez	a0, -0xc
0x80000050: 35 40 00 ef jal	0x354
0x800003a4: a0 00 07 b7 lui	a5, 0xa0000
0x800003a8: 3e a7 8c 23 sb	a0, 0x3f8(a5)
0x800003ac: 00 00 80 67 ret
0x80000054: 00 14 45 03 lbu	a0, 1(s0)
0x80000058: 00 14 04 13 addi	s0, s0, 1
0x8000005c: fe 05 1a e3 bnez	a0, -0xc
0x80000050: 35 40 00 ef jal	0x354
0x800003a4: a0 00 07 b7 lui	a5, 0xa0000
0x800003a8: 3e a7 8c 23 sb	a0, 0x3f8(a5)
0x800003ac: 00 00 80 67 ret
0x80000054: 00 14 45 03 lbu	a0, 1(s0)
0x80000058: 00 14 04 13 addi	s0, s0, 1
0x8000005c: fe 05 1a e3 bnez	a0, -0xc
0x80000050: 35 40 00 ef jal	0x354
0x800003a4: a0 00 07 b7 lui	a5, 0xa0000
0x800003a8: 3e a7 8c 23 sb	a0, 0x3f8(a5)
0x800003ac: 00 00 80 67 ret
0x80000054: 00 14 45 03 lbu	a0, 1(s0)
0x80000058: 00 14 04 13 addi	s0, s0, 1
0x8000005c: fe 05 1a e3 bnez	a0, -0xc
0x80000050: 35 40 00 ef jal	0x354
0x800003a4: a0 00 07 b7 lui	a5, 0xa0000
0x800003a8: 3e a7 8c 23 sb	a0, 0x3f8(a5)
0x800003ac: 00 00 80 67 ret
0x80000054: 00 14 45 03 lbu	a0, 1(s0)
0x80000058: 00 14 04 13 addi	s0, s0, 1
0x8000005c: fe 05 1a e3 bnez	a0, -0xc
0x80000050: 35 40 00 ef jal	0x354
0x800003a4: a0 00 07 b7 lui	a5, 0xa0000
0x800003a8: 3e a7 8c 23 sb	a0, 0x3f8(a5)
0x800003ac: 00 00 80 67 ret
0x80000054: 00 14 45 03 lbu	a0, 1(s0)
0x80000058: 00 14 04 13 addi	s0, s0, 1
0x8000005c: fe 05 1a e3 bnez	a0, -0xc
0x80000050: 35 40 00 ef jal	0x354
0x800003a4: a0 00 07 b7 lui	a5, 0xa0000
0x800003a8: 3e a7 8c 23 sb	a0, 0x3f8(a5)
0x800003ac: 00 00 80 67 ret
0x80000054: 00 14 45 03 lbu	a0, 1(s0)
0x80000058: 00 14 04 13 addi	s0, s0, 1
0x8000005c: fe 05 1a e3 bnez	a0, -0xc
0x80000050: 35 40 00 ef jal	0x354
0x800003a4: a0 00 07 b7 lui	a5, 0xa0000
0x800003a8: 3e a7 8c 23 sb	a0, 0x3f8(a5)
0x800003ac: 00 00 80 67 ret
0x80000054: 00 14 45 03 lbu	a0, 1(s0)
0x80000058: 00 14 04 13 addi	s0, s0, 1
0x8000005c: fe 05 1a e3 bnez	a0, -0xc
0x80000050: 35 40 00 ef jal	0x354
0x800003a4: a0 00 07 b7 lui	a5, 0xa0000
0x800003a8: 3e a7 8c 23 sb	a0, 0x3f8(a5)
0x800003ac: 00 00 80 67 ret
0x80000054: 00 14 45 03 lbu	a0, 1(s0)
0x80000058: 00 14 04 13 addi	s0, s0, 1
0x8000005c: fe 05 1a e3 bnez	a0, -0xc
0x80000050: 35 40 00 ef jal	0x354
0x800003a4: a0 00 07 b7 lui	a5, 0xa0000
0x800003a8: 3e a7 8c 23 sb	a0, 0x3f8(a5)
0x800003ac: 00 00 80 67 ret
0x80000054: 00 14 45 03 lbu	a0, 1(s0)
0x80000058: 00 14 04 13 addi	s0, s0, 1
0x8000005c: fe 05 1a e3 bnez	a0, -0xc
0x80000050: 35 40 00 ef jal	0x354
0x800003a4: a0 00 07 b7 lui	a5, 0xa0000
0x800003a8: 3e a7 8c 23 sb	a0, 0x3f8(a5)
0x800003ac: 00 00 80 67 ret
0x80000054: 00 14 45 03 lbu	a0, 1(s0)
0x80000058: 00 14 04 13 addi	s0, s0, 1
0x8000005c: fe 05 1a e3 bnez	a0, -0xc
0x80000050: 35 40 00 ef jal	0x354
0x800003a4: a0 00 07 b7 lui	a5, 0xa0000
0x800003a8: 3e a7 8c 23 sb	a0, 0x3f8(a5)
0x800003ac: 00 00 80 67 ret
0x80000054: 00 14 45 03 lbu	a0, 1(s0)
0x80000058: 00 14 04 13 addi	s0, s0, 1
0x8000005c: fe 05 1a e3 bnez	a0, -0xc
0x80000050: 35 40 00 ef jal	0x354
0x800003a4: a0 00 07 b7 lui	a5, 0xa0000
0x800003a8: 3e a7 8c 23 sb	a0, 0x3f8(a5)
0x800003ac: 00 00 80 67 ret
0x80000054: 00 14 45 03 lbu	a0, 1(s0)
0x80000058: 00 14 04 13 addi	s0, s0, 1
0x8000005c: fe 05 1a e3 bnez	a0, -0xc
0x80000060: 00 09 25 03 lw	a0, 0(s2)
0x80000064: 00 00 14 17 auipc	s0, 1
0x80000068: 76 84 04 13 addi	s0, s0, 0x768
0x8000006c: 03 05 05 13 addi	a0, a0, 0x30
0x80000070: 0f f5 75 13 andi	a0, a0, 0xff
0x80000074: 33 00 00 ef jal	0x330
0x800003a4: a0 00 07 b7 lui	a5, 0xa0000
0x800003a8: 3e a7 8c 23 sb	a0, 0x3f8(a5)
0x800003ac: 00 00 80 67 ret
0x80000078: 02 c0 05 13 addi	a0, zero, 0x2c
0x8000007c: 32 80 00 ef jal	0x328
0x800003a4: a0 00 07 b7 lui	a5, 0xa0000
0x800003a8: 3e a7 8c 23 sb	a0, 0x3f8(a5)
0x800003ac: 00 00 80 67 ret
0x80000080: 00 14 45 03 lbu	a0, 1(s0)
0x80000084: 00 14 04 13 addi	s0, s0, 1
0x80000088: fe 05 1a e3 bnez	a0, -0xc
0x8000007c: 32 80 00 ef jal	0x328
0x800003a4: a0 00 07 b7 lui	a5, 0xa0000
0x800003a8: 3e a7 8c 23 sb	a0, 0x3f8(a5)
0x800003ac: 00 00 80 67 ret
0x80000080: 00 14 45 03 lbu	a0, 1(s0)
0x80000084: 00 14 04 13 addi	s0, s0, 1
0x80000088: fe 05 1a e3 bnez	a0, -0xc
0x8000007c: 32 80 00 ef jal	0x328
0x800003a4: a0 00 07 b7 lui	a5, 0xa0000
0x800003a8: 3e a7 8c 23 sb	a0, 0x3f8(a5)
0x800003ac: 00 00 80 67 ret
0x80000080: 00 14 45 03 lbu	a0, 1(s0)
0x80000084: 00 14 04 13 addi	s0, s0, 1
0x80000088: fe 05 1a e3 bnez	a0, -0xc
0x8000007c: 32 80 00 ef jal	0x328
0x800003a4: a0 00 07 b7 lui	a5, 0xa0000
0x800003a8: 3e a7 8c 23 sb	a0, 0x3f8(a5)
0x800003ac: 00 00 80 67 ret
0x80000080: 00 14 45 03 lbu	a0, 1(s0)
0x80000084: 00 14 04 13 addi	s0, s0, 1
0x80000088: fe 05 1a e3 bnez	a0, -0xc
0x8000007c: 32 80 00 ef jal	0x328
0x800003a4: a0 00 07 b7 lui	a5, 0xa0000
0x800003a8: 3e a7 8c 23 sb	a0, 0x3f8(a5)
0x800003ac: 00 00 80 67 ret
0x80000080: 00 14 45 03 lbu	a0, 1(s0)
0x80000084: 00 14 04 13 addi	s0, s0, 1
0x80000088: fe 05 1a e3 bnez	a0, -0xc
0x8000007c: 32 80 00 ef jal	0x328
0x800003a4: a0 00 07 b7 lui	a5, 0xa0000
0x800003a8: 3e a7 8c 23 sb	a0, 0x3f8(a5)
0x800003ac: 00 00 80 67 ret
0x80000080: 00 14 45 03 lbu	a0, 1(s0)
0x80000084: 00 14 04 13 addi	s0, s0, 1
0x80000088: fe 05 1a e3 bnez	a0, -0xc
0x8000007c: 32 80 00 ef jal	0x328
0x800003a4: a0 00 07 b7 lui	a5, 0xa0000
0x800003a8: 3e a7 8c 23 sb	a0, 0x3f8(a5)
0x800003ac: 00 00 80 67 ret
0x80000080: 00 14 45 03 lbu	a0, 1(s0)
0x80000084: 00 14 04 13 addi	s0, s0, 1
0x80000088: fe 05 1a e3 bnez	a0, -0xc
0x8000007c: 32 80 00 ef jal	0x328
0x800003a4: a0 00 07 b7 lui	a5, 0xa0000
0x800003a8: 3e a7 8c 23 sb	a0, 0x3f8(a5)
0x800003ac: 00 00 80 67 ret
0x80000080: 00 14 45 03 lbu	a0, 1(s0)
0x80000084: 00 14 04 13 addi	s0, s0, 1
0x80000088: fe 05 1a e3 bnez	a0, -0xc
0x8000007c: 32 80 00 ef jal	0x328
0x800003a4: a0 00 07 b7 lui	a5, 0xa0000
0x800003a8: 3e a7 8c 23 sb	a0, 0x3f8(a5)
0x800003ac: 00 00 80 67 ret
0x80000080: 00 14 45 03 lbu	a0, 1(s0)
0x80000084: 00 14 04 13 addi	s0, s0, 1
0x80000088: fe 05 1a e3 bnez	a0, -0xc
0x8000008c: 00 09 a5 03 lw	a0, 0(s3)
0x80000090: 03 05 05 13 addi	a0, a0, 0x30
0x80000094: 0f f5 75 13 andi	a0, a0, 0xff
0x80000098: 30 c0 00 ef jal	0x30c
0x800003a4: a0 00 07 b7 lui	a5, 0xa0000
0x800003a8: 3e a7 8c 23 sb	a0, 0x3f8(a5)
0x800003ac: 00 00 80 67 ret
0x8000009c: 00 a0 05 13 addi	a0, zero, 0xa
0x800000a0: 30 40 00 ef jal	0x304
0x800003a4: a0 00 07 b7 lui	a5, 0xa0000
0x800003a8: 3e a7 8c 23 sb	a0, 0x3f8(a5)
0x800003ac: 00 00 80 67 ret
0x800000a4: 00 09 27 83 lw	a5, 0(s2)
0x800000a8: 00 10 07 13 addi	a4, zero, 1
0x800000ac: 06 e7 84 63 beq	a5, a4, 0x68
0x800000b0: 00 40 07 13 addi	a4, zero, 4
0x800000b4: 04 f7 40 63 blt	a4, a5, 0x40
0x800000f4: 00 00 14 17 auipc	s0, 1
0x800000f8: 71 c4 04 13 addi	s0, s0, 0x71c
0x800000fc: 05 30 05 13 addi	a0, zero, 0x53
0x80000100: 2a 40 00 ef jal	0x2a4
0x800003a4: a0 00 07 b7 lui	a5, 0xa0000
0x800003a8: 3e a7 8c 23 sb	a0, 0x3f8(a5)
0x800003ac: 00 00 80 67 ret
0x80000104: 00 14 45 03 lbu	a0, 1(s0)
0x80000108: 00 14 04 13 addi	s0, s0, 1
0x8000010c: fe 05 1a e3 bnez	a0, -0xc
0x80000100: 2a 40 00 ef jal	0x2a4
0x800003a4: a0 00 07 b7 lui	a5, 0xa0000
0x800003a8: 3e a7 8c 23 sb	a0, 0x3f8(a5)
0x800003ac: 00 00 80 67 ret
0x80000104: 00 14 45 03 lbu	a0, 1(s0)
0x80000108: 00 14 04 13 addi	s0, s0, 1
0x8000010c: fe 05 1a e3 bnez	a0, -0xc
0x80000100: 2a 40 00 ef jal	0x2a4
0x800003a4: a0 00 07 b7 lui	a5, 0xa0000
0x800003a8: 3e a7 8c 23 sb	a0, 0x3f8(a5)
0x800003ac: 00 00 80 67 ret
0x80000104: 00 14 45 03 lbu	a0, 1(s0)
0x80000108: 00 14 04 13 addi	s0, s0, 1
0x8000010c: fe 05 1a e3 bnez	a0, -0xc
0x80000100: 2a 40 00 ef jal	0x2a4
0x800003a4: a0 00 07 b7 lui	a5, 0xa0000
0x800003a8: 3e a7 8c 23 sb	a0, 0x3f8(a5)
0x800003ac: 00 00 80 67 ret
0x80000104: 00 14 45 03 lbu	a0, 1(s0)
0x80000108: 00 14 04 13 addi	s0, s0, 1
0x8000010c: fe 05 1a e3 bnez	a0, -0xc
0x80000100: 2a 40 00 ef jal	0x2a4
0x800003a4: a0 00 07 b7 lui	a5, 0xa0000
0x800003a8: 3e a7 8c 23 sb	a0, 0x3f8(a5)
0x800003ac: 00 00 80 67 ret
0x80000104: 00 14 45 03 lbu	a0, 1(s0)
0x80000108: 00 14 04 13 addi	s0, s0, 1
0x8000010c: fe 05 1a e3 bnez	a0, -0xc
0x80000100: 2a 40 00 ef jal	0x2a4
0x800003a4: a0 00 07 b7 lui	a5, 0xa0000
0x800003a8: 3e a7 8c 23 sb	a0, 0x3f8(a5)
0x800003ac: 00 00 80 67 ret
0x80000104: 00 14 45 03 lbu	a0, 1(s0)
0x80000108: 00 14 04 13 addi	s0, s0, 1
0x8000010c: fe 05 1a e3 bnez	a0, -0xc
0x80000100: 2a 40 00 ef jal	0x2a4
0x800003a4: a0 00 07 b7 lui	a5, 0xa0000
0x800003a8: 3e a7 8c 23 sb	a0, 0x3f8(a5)
0x800003ac: 00 00 80 67 ret
0x80000104: 00 14 45 03 lbu	a0, 1(s0)
0x80000108: 00 14 04 13 addi	s0, s0, 1
0x8000010c: fe 05 1a e3 bnez	a0, -0xc
0x80000100: 2a 40 00 ef jal	0x2a4
0x800003a4: a0 00 07 b7 lui	a5, 0xa0000
0x800003a8: 3e a7 8c 23 sb	a0, 0x3f8(a5)
0x800003ac: 00 00 80 67 ret
0x80000104: 00 14 45 03 lbu	a0, 1(s0)
0x80000108: 00 14 04 13 addi	s0, s0, 1
0x8000010c: fe 05 1a e3 bnez	a0, -0xc
0x80000100: 2a 40 00 ef jal	0x2a4
0x800003a4: a0 00 07 b7 lui	a5, 0xa0000
0x800003a8: 3e a7 8c 23 sb	a0, 0x3f8(a5)
0x800003ac: 00 00 80 67 ret
0x80000104: 00 14 45 03 lbu	a0, 1(s0)
0x80000108: 00 14 04 13 addi	s0, s0, 1
0x8000010c: fe 05 1a e3 bnez	a0, -0xc
0x80000100: 2a 40 00 ef jal	0x2a4
0x800003a4: a0 00 07 b7 lui	a5, 0xa0000
0x800003a8: 3e a7 8c 23 sb	a0, 0x3f8(a5)
0x800003ac: 00 00 80 67 ret
0x80000104: 00 14 45 03 lbu	a0, 1(s0)
0x80000108: 00 14 04 13 addi	s0, s0, 1
0x8000010c: fe 05 1a e3 bnez	a0, -0xc
0x80000100: 2a 40 00 ef jal	0x2a4
0x800003a4: a0 00 07 b7 lui	a5, 0xa0000
0x800003a8: 3e a7 8c 23 sb	a0, 0x3f8(a5)
0x800003ac: 00 00 80 67 ret
0x80000104: 00 14 45 03 lbu	a0, 1(s0)
0x80000108: 00 14 04 13 addi	s0, s0, 1
0x8000010c: fe 05 1a e3 bnez	a0, -0xc
0x80000100: 2a 40 00 ef jal	0x2a4
0x800003a4: a0 00 07 b7 lui	a5, 0xa0000
0x800003a8: 3e a7 8c 23 sb	a0, 0x3f8(a5)
0x800003ac: 00 00 80 67 ret
0x80000104: 00 14 45 03 lbu	a0, 1(s0)
0x80000108: 00 14 04 13 addi	s0, s0, 1
0x8000010c: fe 05 1a e3 bnez	a0, -0xc
0x80000100: 2a 40 00 ef jal	0x2a4
0x800003a4: a0 00 07 b7 lui	a5, 0xa0000
0x800003a8: 3e a7 8c 23 sb	a0, 0x3f8(a5)
0x800003ac: 00 00 80 67 ret
0x80000104: 00 14 45 03 lbu	a0, 1(s0)
0x80000108: 00 14 04 13 addi	s0, s0, 1
0x8000010c: fe 05 1a e3 bnez	a0, -0xc
0x80000100: 2a 40 00 ef jal	0x2a4
0x800003a4: a0 00 07 b7 lui	a5, 0xa0000
0x800003a8: 3e a7 8c 23 sb	a0, 0x3f8(a5)
0x800003ac: 00 00 80 67 ret
0x80000104: 00 14 45 03 lbu	a0, 1(s0)
0x80000108: 00 14 04 13 addi	s0, s0, 1
0x8000010c: fe 05 1a e3 bnez	a0, -0xc
0x80000100: 2a 40 00 ef jal	0x2a4
0x800003a4: a0 00 07 b7 lui	a5, 0xa0000
0x800003a8: 3e a7 8c 23 sb	a0, 0x3f8(a5)
0x800003ac: 00 00 80 67 ret
0x80000104: 00 14 45 03 lbu	a0, 1(s0)
0x80000108: 00 14 04 13 addi	s0, s0, 1
0x8000010c: fe 05 1a e3 bnez	a0, -0xc
0x80000100: 2a 40 00 ef jal	0x2a4
0x800003a4: a0 00 07 b7 lui	a5, 0xa0000
0x800003a8: 3e a7 8c 23 sb	a0, 0x3f8(a5)
0x800003ac: 00 00 80 67 ret
0x80000104: 00 14 45 03 lbu	a0, 1(s0)
0x80000108: 00 14 04 13 addi	s0, s0, 1
0x8000010c: fe 05 1a e3 bnez	a0, -0xc
0x80000100: 2a 40 00 ef jal	0x2a4
0x800003a4: a0 00 07 b7 lui	a5, 0xa0000
0x800003a8: 3e a7 8c 23 sb	a0, 0x3f8(a5)
0x800003ac: 00 00 80 67 ret
0x80000104: 00 14 45 03 lbu	a0, 1(s0)
0x80000108: 00 14 04 13 addi	s0, s0, 1
0x8000010c: fe 05 1a e3 bnez	a0, -0xc
0x80000100: 2a 40 00 ef jal	0x2a4
0x800003a4: a0 00 07 b7 lui	a5, 0xa0000
0x800003a8: 3e a7 8c 23 sb	a0, 0x3f8(a5)
0x800003ac: 00 00 80 67 ret
0x80000104: 00 14 45 03 lbu	a0, 1(s0)
0x80000108: 00 14 04 13 addi	s0, s0, 1
0x8000010c: fe 05 1a e3 bnez	a0, -0xc
0x80000100: 2a 40 00 ef jal	0x2a4
0x800003a4: a0 00 07 b7 lui	a5, 0xa0000
0x800003a8: 3e a7 8c 23 sb	a0, 0x3f8(a5)
0x800003ac: 00 00 80 67 ret
0x80000104: 00 14 45 03 lbu	a0, 1(s0)
0x80000108: 00 14 04 13 addi	s0, s0, 1
0x8000010c: fe 05 1a e3 bnez	a0, -0xc
0x80000100: 2a 40 00 ef jal	0x2a4
0x800003a4: a0 00 07 b7 lui	a5, 0xa0000
0x800003a8: 3e a7 8c 23 sb	a0, 0x3f8(a5)
0x800003ac: 00 00 80 67 ret
0x80000104: 00 14 45 03 lbu	a0, 1(s0)
0x80000108: 00 14 04 13 addi	s0, s0, 1
0x8000010c: fe 05 1a e3 bnez	a0, -0xc
0x80000100: 2a 40 00 ef jal	0x2a4
0x800003a4: a0 00 07 b7 lui	a5, 0xa0000
0x800003a8: 3e a7 8c 23 sb	a0, 0x3f8(a5)
0x800003ac: 00 00 80 67 ret
0x80000104: 00 14 45 03 lbu	a0, 1(s0)
0x80000108: 00 14 04 13 addi	s0, s0, 1
0x8000010c: fe 05 1a e3 bnez	a0, -0xc
0x80000100: 2a 40 00 ef jal	0x2a4
0x800003a4: a0 00 07 b7 lui	a5, 0xa0000
0x800003a8: 3e a7 8c 23 sb	a0, 0x3f8(a5)
0x800003ac: 00 00 80 67 ret
0x80000104: 00 14 45 03 lbu	a0, 1(s0)
0x80000108: 00 14 04 13 addi	s0, s0, 1
0x8000010c: fe 05 1a e3 bnez	a0, -0xc
0x80000100: 2a 40 00 ef jal	0x2a4
0x800003a4: a0 00 07 b7 lui	a5, 0xa0000
0x800003a8: 3e a7 8c 23 sb	a0, 0x3f8(a5)
0x800003ac: 00 00 80 67 ret
0x80000104: 00 14 45 03 lbu	a0, 1(s0)
0x80000108: 00 14 04 13 addi	s0, s0, 1
0x8000010c: fe 05 1a e3 bnez	a0, -0xc
0x80000100: 2a 40 00 ef jal	0x2a4
0x800003a4: a0 00 07 b7 lui	a5, 0xa0000
0x800003a8: 3e a7 8c 23 sb	a0, 0x3f8(a5)
0x800003ac: 00 00 80 67 ret
0x80000104: 00 14 45 03 lbu	a0, 1(s0)
0x80000108: 00 14 04 13 addi	s0, s0, 1
0x8000010c: fe 05 1a e3 bnez	a0, -0xc
0x80000100: 2a 40 00 ef jal	0x2a4
0x800003a4: a0 00 07 b7 lui	a5, 0xa0000
0x800003a8: 3e a7 8c 23 sb	a0, 0x3f8(a5)
0x800003ac: 00 00 80 67 ret
0x80000104: 00 14 45 03 lbu	a0, 1(s0)
0x80000108: 00 14 04 13 addi	s0, s0, 1
0x8000010c: fe 05 1a e3 bnez	a0, -0xc
0x80000100: 2a 40 00 ef jal	0x2a4
0x800003a4: a0 00 07 b7 lui	a5, 0xa0000
0x800003a8: 3e a7 8c 23 sb	a0, 0x3f8(a5)
0x800003ac: 00 00 80 67 ret
0x80000104: 00 14 45 03 lbu	a0, 1(s0)
0x80000108: 00 14 04 13 addi	s0, s0, 1
0x8000010c: fe 05 1a e3 bnez	a0, -0xc
0x80000100: 2a 40 00 ef jal	0x2a4
0x800003a4: a0 00 07 b7 lui	a5, 0xa0000
0x800003a8: 3e a7 8c 23 sb	a0, 0x3f8(a5)
0x800003ac: 00 00 80 67 ret
0x80000104: 00 14 45 03 lbu	a0, 1(s0)
0x80000108: 00 14 04 13 addi	s0, s0, 1
0x8000010c: fe 05 1a e3 bnez	a0, -0xc
0x80000110: fc 5f f0 6f j	-0x3c
0x800000d4: 01 c1 20 83 lw	ra, 0x1c(sp)
0x800000d8: 01 81 24 03 lw	s0, 0x18(sp)
0x800000dc: 01 01 29 03 lw	s2, 0x10(sp)
0x800000e0: 00 c1 29 83 lw	s3, 0xc(sp)
0x800000e4: 00 04 85 13 mv	a0, s1
0x800000e8: 01 41 24 83 lw	s1, 0x14(sp)
0x800000ec: 02 01 01 13 addi	sp, sp, 0x20
0x800000f0: 00 00 80 67 ret
0x80000434: 00 05 0e 63 beqz	a0, 0x1c
0x80000438: 02 c1 20 83 lw	ra, 0x2c(sp)
0x8000043c: 03 01 01 13 addi	sp, sp, 0x30
0x80000440: 00 00 80 67 ret
0x80000628: 00 05 01 13 mv	sp, a0
0x8000062c: 08 41 23 03 lw	t1, 0x84(sp)
0x80000630: 08 81 23 83 lw	t2, 0x88(sp)
0x80000634: 30 03 10 73 csrw	mstatus, t1
0x80000638: 34 13 90 73 csrw	mepc, t2
0x8000063c: 00 41 20 83 lw	ra, 4(sp)
0x80000640: 00 c1 21 83 lw	gp, 0xc(sp)
0x80000644: 01 01 22 03 lw	tp, 0x10(sp)
0x80000648: 01 41 22 83 lw	t0, 0x14(sp)
0x8000064c: 01 81 23 03 lw	t1, 0x18(sp)
0x80000650: 01 c1 23 83 lw	t2, 0x1c(sp)
0x80000654: 02 01 24 03 lw	s0, 0x20(sp)
0x80000658: 02 41 24 83 lw	s1, 0x24(sp)
0x8000065c: 02 81 25 03 lw	a0, 0x28(sp)
0x80000660: 02 c1 25 83 lw	a1, 0x2c(sp)
0x80000664: 03 01 26 03 lw	a2, 0x30(sp)
0x80000668: 03 41 26 83 lw	a3, 0x34(sp)
0x8000066c: 03 81 27 03 lw	a4, 0x38(sp)
0x80000670: 03 c1 27 83 lw	a5, 0x3c(sp)
0x80000674: 04 01 28 03 lw	a6, 0x40(sp)
0x80000678: 04 41 28 83 lw	a7, 0x44(sp)
0x8000067c: 04 81 29 03 lw	s2, 0x48(sp)
0x80000680: 04 c1 29 83 lw	s3, 0x4c(sp)
0x80000684: 05 01 2a 03 lw	s4, 0x50(sp)
0x80000688: 05 41 2a 83 lw	s5, 0x54(sp)
0x8000068c: 05 81 2b 03 lw	s6, 0x58(sp)
0x80000690: 05 c1 2b 83 lw	s7, 0x5c(sp)
0x80000694: 06 01 2c 03 lw	s8, 0x60(sp)
0x80000698: 06 41 2c 83 lw	s9, 0x64(sp)
0x8000069c: 06 81 2d 03 lw	s10, 0x68(sp)
0x800006a0: 06 c1 2d 83 lw	s11, 0x6c(sp)
0x800006a4: 07 01 2e 03 lw	t3, 0x70(sp)
0x800006a8: 07 41 2e 83 lw	t4, 0x74(sp)
0x800006ac: 07 81 2f 03 lw	t5, 0x78(sp)
0x800006b0: 07 c1 2f 83 lw	t6, 0x7c(sp)
0x800006b4: 08 c1 01 13 addi	sp, sp, 0x8c
0x800006b8: 30 20 00 73 mret
0x8000050c: 00 00 00 73 ecall
0x80000580: f7 41 01 13 addi	sp, sp, -0x8c
0x80000584: 00 11 22 23 sw	ra, 4(sp)
0x80000588: 00 31 26 23 sw	gp, 0xc(sp)
0x8000058c: 00 41 28 23 sw	tp, 0x10(sp)
0x80000590: 00 51 2a 23 sw	t0, 0x14(sp)
0x80000594: 00 61 2c 23 sw	t1, 0x18(sp)
0x80000598: 00 71 2e 23 sw	t2, 0x1c(sp)
0x8000059c: 02 81 20 23 sw	s0, 0x20(sp)
0x800005a0: 02 91 22 23 sw	s1, 0x24(sp)
0x800005a4: 02 a1 24 23 sw	a0, 0x28(sp)
0x800005a8: 02 b1 26 23 sw	a1, 0x2c(sp)
0x800005ac: 02 c1 28 23 sw	a2, 0x30(sp)
0x800005b0: 02 d1 2a 23 sw	a3, 0x34(sp)
0x800005b4: 02 e1 2c 23 sw	a4, 0x38(sp)
0x800005b8: 02 f1 2e 23 sw	a5, 0x3c(sp)
0x800005bc: 05 01 20 23 sw	a6, 0x40(sp)
0x800005c0: 05 11 22 23 sw	a7, 0x44(sp)
0x800005c4: 05 21 24 23 sw	s2, 0x48(sp)
0x800005c8: 05 31 26 23 sw	s3, 0x4c(sp)
0x800005cc: 05 41 28 23 sw	s4, 0x50(sp)
0x800005d0: 05 51 2a 23 sw	s5, 0x54(sp)
0x800005d4: 05 61 2c 23 sw	s6, 0x58(sp)
0x800005d8: 05 71 2e 23 sw	s7, 0x5c(sp)
0x800005dc: 07 81 20 23 sw	s8, 0x60(sp)
0x800005e0: 07 91 22 23 sw	s9, 0x64(sp)
0x800005e4: 07 a1 24 23 sw	s10, 0x68(sp)
0x800005e8: 07 b1 26 23 sw	s11, 0x6c(sp)
0x800005ec: 07 c1 28 23 sw	t3, 0x70(sp)
0x800005f0: 07 d1 2a 23 sw	t4, 0x74(sp)
0x800005f4: 07 e1 2c 23 sw	t5, 0x78(sp)
0x800005f8: 07 f1 2e 23 sw	t6, 0x7c(sp)
0x800005fc: 34 20 22 f3 csrr	t0, mcause
0x80000600: 30 00 23 73 csrr	t1, mstatus
0x80000604: 34 10 23 f3 csrr	t2, mepc
0x80000608: 08 51 20 23 sw	t0, 0x80(sp)
0x8000060c: 08 61 22 23 sw	t1, 0x84(sp)
0x80000610: 08 71 24 23 sw	t2, 0x88(sp)
0x80000614: 00 02 05 37 lui	a0, 0x20
0x80000618: 00 a3 63 33 or	t1, t1, a0
0x8000061c: 30 03 10 73 csrw	mstatus, t1
0x80000620: 00 01 05 13 mv	a0, sp
0x80000624: db 9f f0 ef jal	-0x248
0x800003dc: 00 00 37 97 auipc	a5, 3
0x800003e0: a0 c7 a7 83 lw	a5, -0x5f4(a5)
0x800003e4: 00 05 05 93 mv	a1, a0
0x800003e8: 06 07 82 63 beqz	a5, 0x64
0x800003ec: 08 05 26 03 lw	a2, 0x80(a0)
0x800003f0: fd 01 01 13 addi	sp, sp, -0x30
0x800003f4: 02 11 26 23 sw	ra, 0x2c(sp)
0x800003f8: 00 01 2a 23 sw	zero, 0x14(sp)
0x800003fc: 00 01 2c 23 sw	zero, 0x18(sp)
0x80000400: 00 01 2e 23 sw	zero, 0x1c(sp)
0x80000404: 00 b0 06 93 addi	a3, zero, 0xb
0x80000408: 00 40 07 13 addi	a4, zero, 4
0x8000040c: 02 d6 0c 63 beq	a2, a3, 0x38
0x80000444: 00 10 07 13 addi	a4, zero, 1
0x80000448: fc 9f f0 6f j	-0x38
0x80000410: 00 e1 20 23 sw	a4, 0(sp)
0x80000414: 01 41 27 03 lw	a4, 0x14(sp)
0x80000418: 00 01 05 13 mv	a0, sp
0x8000041c: 00 e1 22 23 sw	a4, 4(sp)
0x80000420: 01 81 27 03 lw	a4, 0x18(sp)
0x80000424: 00 e1 24 23 sw	a4, 8(sp)
0x80000428: 01 c1 27 03 lw	a4, 0x1c(sp)
0x8000042c: 00 e1 26 23 sw	a4, 0xc(sp)
0x80000430: 00 07 80 e7 jalr	a5
0x80000010: fe 01 01 13 addi	sp, sp, -0x20
0x80000014: 01 21 28 23 sw	s2, 0x10(sp)
0x80000018: 00 00 39 17 auipc	s2, 3
0x8000001c: dc 89 09 13 addi	s2, s2, -0x238
0x80000020: 00 09 27 83 lw	a5, 0(s2)
0x80000024: 00 81 2c 23 sw	s0, 0x18(sp)
0x80000028: 00 91 2a 23 sw	s1, 0x14(sp)
0x8000002c: 01 31 26 23 sw	s3, 0xc(sp)
0x80000030: 00 11 2e 23 sw	ra, 0x1c(sp)
0x80000034: 00 17 87 93 addi	a5, a5, 1
0x80000038: 00 05 09 93 mv	s3, a0
0x8000003c: 00 05 84 93 mv	s1, a1
0x80000040: 00 f9 20 23 sw	a5, 0(s2)
0x80000044: 00 00 14 17 auipc	s0, 1
0x80000048: 77 44 04 13 addi	s0, s0, 0x774
0x8000004c: 05 30 05 13 addi	a0, zero, 0x53
0x80000050: 35 40 00 ef jal	0x354
0x800003a4: a0 00 07 b7 lui	a5, 0xa0000
0x800003a8: 3e a7 8c 23 sb	a0, 0x3f8(a5)
0x800003ac: 00 00 80 67 ret
0x80000054: 00 14 45 03 lbu	a0, 1(s0)
0x80000058: 00 14 04 13 addi	s0, s0, 1
0x8000005c: fe 05 1a e3 bnez	a0, -0xc
0x80000050: 35 40 00 ef jal	0x354
0x800003a4: a0 00 07 b7 lui	a5, 0xa0000
0x800003a8: 3e a7 8c 23 sb	a0, 0x3f8(a5)
0x800003ac: 00 00 80 67 ret
0x80000054: 00 14 45 03 lbu	a0, 1(s0)
0x80000058: 00 14 04 13 addi	s0, s0, 1
0x8000005c: fe 05 1a e3 bnez	a0, -0xc
0x80000050: 35 40 00 ef jal	0x354
0x800003a4: a0 00 07 b7 lui	a5, 0xa0000
0x800003a8: 3e a7 8c 23 sb	a0, 0x3f8(a5)
0x800003ac: 00 00 80 67 ret
0x80000054: 00 14 45 03 lbu	a0, 1(s0)
0x80000058: 00 14 04 13 addi	s0, s0, 1
0x8000005c: fe 05 1a e3 bnez	a0, -0xc
0x80000050: 35 40 00 ef jal	0x354
0x800003a4: a0 00 07 b7 lui	a5, 0xa0000
0x800003a8: 3e a7 8c 23 sb	a0, 0x3f8(a5)
0x800003ac: 00 00 80 67 ret
0x80000054: 00 14 45 03 lbu	a0, 1(s0)
0x80000058: 00 14 04 13 addi	s0, s0, 1
0x8000005c: fe 05 1a e3 bnez	a0, -0xc
0x80000050: 35 40 00 ef jal	0x354
0x800003a4: a0 00 07 b7 lui	a5, 0xa0000
0x800003a8: 3e a7 8c 23 sb	a0, 0x3f8(a5)
0x800003ac: 00 00 80 67 ret
0x80000054: 00 14 45 03 lbu	a0, 1(s0)
0x80000058: 00 14 04 13 addi	s0, s0, 1
0x8000005c: fe 05 1a e3 bnez	a0, -0xc
0x80000050: 35 40 00 ef jal	0x354
0x800003a4: a0 00 07 b7 lui	a5, 0xa0000
0x800003a8: 3e a7 8c 23 sb	a0, 0x3f8(a5)
0x800003ac: 00 00 80 67 ret
0x80000054: 00 14 45 03 lbu	a0, 1(s0)
0x80000058: 00 14 04 13 addi	s0, s0, 1
0x8000005c: fe 05 1a e3 bnez	a0, -0xc
0x80000050: 35 40 00 ef jal	0x354
0x800003a4: a0 00 07 b7 lui	a5, 0xa0000
0x800003a8: 3e a7 8c 23 sb	a0, 0x3f8(a5)
0x800003ac: 00 00 80 67 ret
0x80000054: 00 14 45 03 lbu	a0, 1(s0)
0x80000058: 00 14 04 13 addi	s0, s0, 1
0x8000005c: fe 05 1a e3 bnez	a0, -0xc
0x80000050: 35 40 00 ef jal	0x354
0x800003a4: a0 00 07 b7 lui	a5, 0xa0000
0x800003a8: 3e a7 8c 23 sb	a0, 0x3f8(a5)
0x800003ac: 00 00 80 67 ret
0x80000054: 00 14 45 03 lbu	a0, 1(s0)
0x80000058: 00 14 04 13 addi	s0, s0, 1
0x8000005c: fe 05 1a e3 bnez	a0, -0xc
0x80000050: 35 40 00 ef jal	0x354
0x800003a4: a0 00 07 b7 lui	a5, 0xa0000
0x800003a8: 3e a7 8c 23 sb	a0, 0x3f8(a5)
0x800003ac: 00 00 80 67 ret
0x80000054: 00 14 45 03 lbu	a0, 1(s0)
0x80000058: 00 14 04 13 addi	s0, s0, 1
0x8000005c: fe 05 1a e3 bnez	a0, -0xc
0x80000050: 35 40 00 ef jal	0x354
0x800003a4: a0 00 07 b7 lui	a5, 0xa0000
0x800003a8: 3e a7 8c 23 sb	a0, 0x3f8(a5)
0x800003ac: 00 00 80 67 ret
0x80000054: 00 14 45 03 lbu	a0, 1(s0)
0x80000058: 00 14 04 13 addi	s0, s0, 1
0x8000005c: fe 05 1a e3 bnez	a0, -0xc
0x80000050: 35 40 00 ef jal	0x354
0x800003a4: a0 00 07 b7 lui	a5, 0xa0000
0x800003a8: 3e a7 8c 23 sb	a0, 0x3f8(a5)
0x800003ac: 00 00 80 67 ret
0x80000054: 00 14 45 03 lbu	a0, 1(s0)
0x80000058: 00 14 04 13 addi	s0, s0, 1
0x8000005c: fe 05 1a e3 bnez	a0, -0xc
0x80000050: 35 40 00 ef jal	0x354
0x800003a4: a0 00 07 b7 lui	a5, 0xa0000
0x800003a8: 3e a7 8c 23 sb	a0, 0x3f8(a5)
0x800003ac: 00 00 80 67 ret
0x80000054: 00 14 45 03 lbu	a0, 1(s0)
0x80000058: 00 14 04 13 addi	s0, s0, 1
0x8000005c: fe 05 1a e3 bnez	a0, -0xc
0x80000050: 35 40 00 ef jal	0x354
0x800003a4: a0 00 07 b7 lui	a5, 0xa0000
0x800003a8: 3e a7 8c 23 sb	a0, 0x3f8(a5)
0x800003ac: 00 00 80 67 ret
0x80000054: 00 14 45 03 lbu	a0, 1(s0)
0x80000058: 00 14 04 13 addi	s0, s0, 1
0x8000005c: fe 05 1a e3 bnez	a0, -0xc
0x80000050: 35 40 00 ef jal	0x354
0x800003a4: a0 00 07 b7 lui	a5, 0xa0000
0x800003a8: 3e a7 8c 23 sb	a0, 0x3f8(a5)
0x800003ac: 00 00 80 67 ret
0x80000054: 00 14 45 03 lbu	a0, 1(s0)
0x80000058: 00 14 04 13 addi	s0, s0, 1
0x8000005c: fe 05 1a e3 bnez	a0, -0xc
0x80000050: 35 40 00 ef jal	0x354
0x800003a4: a0 00 07 b7 lui	a5, 0xa0000
0x800003a8: 3e a7 8c 23 sb	a0, 0x3f8(a5)
0x800003ac: 00 00 80 67 ret
0x80000054: 00 14 45 03 lbu	a0, 1(s0)
0x80000058: 00 14 04 13 addi	s0, s0, 1
0x8000005c: fe 05 1a e3 bnez	a0, -0xc
0x80000050: 35 40 00 ef jal	0x354
0x800003a4: a0 00 07 b7 lui	a5, 0xa0000
0x800003a8: 3e a7 8c 23 sb	a0, 0x3f8(a5)
0x800003ac: 00 00 80 67 ret
0x80000054: 00 14 45 03 lbu	a0, 1(s0)
0x80000058: 00 14 04 13 addi	s0, s0, 1
0x8000005c: fe 05 1a e3 bnez	a0, -0xc
0x80000050: 35 40 00 ef jal	0x354
0x800003a4: a0 00 07 b7 lui	a5, 0xa0000
0x800003a8: 3e a7 8c 23 sb	a0, 0x3f8(a5)
0x800003ac: 00 00 80 67 ret
0x80000054: 00 14 45 03 lbu	a0, 1(s0)
0x80000058: 00 14 04 13 addi	s0, s0, 1
0x8000005c: fe 05 1a e3 bnez	a0, -0xc
0x80000060: 00 09 25 03 lw	a0, 0(s2)
0x80000064: 00 00 14 17 auipc	s0, 1
0x80000068: 76 84 04 13 addi	s0, s0, 0x768
0x8000006c: 03 05 05 13 addi	a0, a0, 0x30
0x80000070: 0f f5 75 13 andi	a0, a0, 0xff
0x80000074: 33 00 00 ef jal	0x330
0x800003a4: a0 00 07 b7 lui	a5, 0xa0000
0x800003a8: 3e a7 8c 23 sb	a0, 0x3f8(a5)
0x800003ac: 00 00 80 67 ret
0x80000078: 02 c0 05 13 addi	a0, zero, 0x2c
0x8000007c: 32 80 00 ef jal	0x328
0x800003a4: a0 00 07 b7 lui	a5, 0xa0000
0x800003a8: 3e a7 8c 23 sb	a0, 0x3f8(a5)
0x800003ac: 00 00 80 67 ret
0x80000080: 00 14 45 03 lbu	a0, 1(s0)
0x80000084: 00 14 04 13 addi	s0, s0, 1
0x80000088: fe 05 1a e3 bnez	a0, -0xc
0x8000007c: 32 80 00 ef jal	0x328
0x800003a4: a0 00 07 b7 lui	a5, 0xa0000
0x800003a8: 3e a7 8c 23 sb	a0, 0x3f8(a5)
0x800003ac: 00 00 80 67 ret
0x80000080: 00 14 45 03 lbu	a0, 1(s0)
0x80000084: 00 14 04 13 addi	s0, s0, 1
0x80000088: fe 05 1a e3 bnez	a0, -0xc
0x8000007c: 32 80 00 ef jal	0x328
0x800003a4: a0 00 07 b7 lui	a5, 0xa0000
0x800003a8: 3e a7 8c 23 sb	a0, 0x3f8(a5)
0x800003ac: 00 00 80 67 ret
0x80000080: 00 14 45 03 lbu	a0, 1(s0)
0x80000084: 00 14 04 13 addi	s0, s0, 1
0x80000088: fe 05 1a e3 bnez	a0, -0xc
0x8000007c: 32 80 00 ef jal	0x328
0x800003a4: a0 00 07 b7 lui	a5, 0xa0000
0x800003a8: 3e a7 8c 23 sb	a0, 0x3f8(a5)
0x800003ac: 00 00 80 67 ret
0x80000080: 00 14 45 03 lbu	a0, 1(s0)
0x80000084: 00 14 04 13 addi	s0, s0, 1
0x80000088: fe 05 1a e3 bnez	a0, -0xc
0x8000007c: 32 80 00 ef jal	0x328
0x800003a4: a0 00 07 b7 lui	a5, 0xa0000
0x800003a8: 3e a7 8c 23 sb	a0, 0x3f8(a5)
0x800003ac: 00 00 80 67 ret
0x80000080: 00 14 45 03 lbu	a0, 1(s0)
0x80000084: 00 14 04 13 addi	s0, s0, 1
0x80000088: fe 05 1a e3 bnez	a0, -0xc
0x8000007c: 32 80 00 ef jal	0x328
0x800003a4: a0 00 07 b7 lui	a5, 0xa0000
0x800003a8: 3e a7 8c 23 sb	a0, 0x3f8(a5)
0x800003ac: 00 00 80 67 ret
0x80000080: 00 14 45 03 lbu	a0, 1(s0)
0x80000084: 00 14 04 13 addi	s0, s0, 1
0x80000088: fe 05 1a e3 bnez	a0, -0xc
0x8000007c: 32 80 00 ef jal	0x328
0x800003a4: a0 00 07 b7 lui	a5, 0xa0000
0x800003a8: 3e a7 8c 23 sb	a0, 0x3f8(a5)
0x800003ac: 00 00 80 67 ret
0x80000080: 00 14 45 03 lbu	a0, 1(s0)
0x80000084: 00 14 04 13 addi	s0, s0, 1
0x80000088: fe 05 1a e3 bnez	a0, -0xc
0x8000007c: 32 80 00 ef jal	0x328
0x800003a4: a0 00 07 b7 lui	a5, 0xa0000
0x800003a8: 3e a7 8c 23 sb	a0, 0x3f8(a5)
0x800003ac: 00 00 80 67 ret
0x80000080: 00 14 45 03 lbu	a0, 1(s0)
0x80000084: 00 14 04 13 addi	s0, s0, 1
0x80000088: fe 05 1a e3 bnez	a0, -0xc
0x8000007c: 32 80 00 ef jal	0x328
0x800003a4: a0 00 07 b7 lui	a5, 0xa0000
0x800003a8: 3e a7 8c 23 sb	a0, 0x3f8(a5)
0x800003ac: 00 00 80 67 ret
0x80000080: 00 14 45 03 lbu	a0, 1(s0)
0x80000084: 00 14 04 13 addi	s0, s0, 1
0x80000088: fe 05 1a e3 bnez	a0, -0xc
0x8000008c: 00 09 a5 03 lw	a0, 0(s3)
0x80000090: 03 05 05 13 addi	a0, a0, 0x30
0x80000094: 0f f5 75 13 andi	a0, a0, 0xff
0x80000098: 30 c0 00 ef jal	0x30c
0x800003a4: a0 00 07 b7 lui	a5, 0xa0000
0x800003a8: 3e a7 8c 23 sb	a0, 0x3f8(a5)
0x800003ac: 00 00 80 67 ret
0x8000009c: 00 a0 05 13 addi	a0, zero, 0xa
0x800000a0: 30 40 00 ef jal	0x304
0x800003a4: a0 00 07 b7 lui	a5, 0xa0000
0x800003a8: 3e a7 8c 23 sb	a0, 0x3f8(a5)
0x800003ac: 00 00 80 67 ret
0x800000a4: 00 09 27 83 lw	a5, 0(s2)
0x800000a8: 00 10 07 13 addi	a4, zero, 1
0x800000ac: 06 e7 84 63 beq	a5, a4, 0x68
0x800000b0: 00 40 07 13 addi	a4, zero, 4
0x800000b4: 04 f7 40 63 blt	a4, a5, 0x40
0x800000f4: 00 00 14 17 auipc	s0, 1
0x800000f8: 71 c4 04 13 addi	s0, s0, 0x71c
0x800000fc: 05 30 05 13 addi	a0, zero, 0x53
0x80000100: 2a 40 00 ef jal	0x2a4
0x800003a4: a0 00 07 b7 lui	a5, 0xa0000
0x800003a8: 3e a7 8c 23 sb	a0, 0x3f8(a5)
0x800003ac: 00 00 80 67 ret
0x80000104: 00 14 45 03 lbu	a0, 1(s0)
0x80000108: 00 14 04 13 addi	s0, s0, 1
0x8000010c: fe 05 1a e3 bnez	a0, -0xc
0x80000100: 2a 40 00 ef jal	0x2a4
0x800003a4: a0 00 07 b7 lui	a5, 0xa0000
0x800003a8: 3e a7 8c 23 sb	a0, 0x3f8(a5)
0x800003ac: 00 00 80 67 ret
0x80000104: 00 14 45 03 lbu	a0, 1(s0)
0x80000108: 00 14 04 13 addi	s0, s0, 1
0x8000010c: fe 05 1a e3 bnez	a0, -0xc
0x80000100: 2a 40 00 ef jal	0x2a4
0x800003a4: a0 00 07 b7 lui	a5, 0xa0000
0x800003a8: 3e a7 8c 23 sb	a0, 0x3f8(a5)
0x800003ac: 00 00 80 67 ret
0x80000104: 00 14 45 03 lbu	a0, 1(s0)
0x80000108: 00 14 04 13 addi	s0, s0, 1
0x8000010c: fe 05 1a e3 bnez	a0, -0xc
0x80000100: 2a 40 00 ef jal	0x2a4
0x800003a4: a0 00 07 b7 lui	a5, 0xa0000
0x800003a8: 3e a7 8c 23 sb	a0, 0x3f8(a5)
0x800003ac: 00 00 80 67 ret
0x80000104: 00 14 45 03 lbu	a0, 1(s0)
0x80000108: 00 14 04 13 addi	s0, s0, 1
0x8000010c: fe 05 1a e3 bnez	a0, -0xc
0x80000100: 2a 40 00 ef jal	0x2a4
0x800003a4: a0 00 07 b7 lui	a5, 0xa0000
0x800003a8: 3e a7 8c 23 sb	a0, 0x3f8(a5)
0x800003ac: 00 00 80 67 ret
0x80000104: 00 14 45 03 lbu	a0, 1(s0)
0x80000108: 00 14 04 13 addi	s0, s0, 1
0x8000010c: fe 05 1a e3 bnez	a0, -0xc
0x80000100: 2a 40 00 ef jal	0x2a4
0x800003a4: a0 00 07 b7 lui	a5, 0xa0000
0x800003a8: 3e a7 8c 23 sb	a0, 0x3f8(a5)
0x800003ac: 00 00 80 67 ret
0x80000104: 00 14 45 03 lbu	a0, 1(s0)
0x80000108: 00 14 04 13 addi	s0, s0, 1
0x8000010c: fe 05 1a e3 bnez	a0, -0xc
0x80000100: 2a 40 00 ef jal	0x2a4
0x800003a4: a0 00 07 b7 lui	a5, 0xa0000
0x800003a8: 3e a7 8c 23 sb	a0, 0x3f8(a5)
0x800003ac: 00 00 80 67 ret
0x80000104: 00 14 45 03 lbu	a0, 1(s0)
0x80000108: 00 14 04 13 addi	s0, s0, 1
0x8000010c: fe 05 1a e3 bnez	a0, -0xc
0x80000100: 2a 40 00 ef jal	0x2a4
0x800003a4: a0 00 07 b7 lui	a5, 0xa0000
0x800003a8: 3e a7 8c 23 sb	a0, 0x3f8(a5)
0x800003ac: 00 00 80 67 ret
0x80000104: 00 14 45 03 lbu	a0, 1(s0)
0x80000108: 00 14 04 13 addi	s0, s0, 1
0x8000010c: fe 05 1a e3 bnez	a0, -0xc
0x80000100: 2a 40 00 ef jal	0x2a4
0x800003a4: a0 00 07 b7 lui	a5, 0xa0000
0x800003a8: 3e a7 8c 23 sb	a0, 0x3f8(a5)
0x800003ac: 00 00 80 67 ret
0x80000104: 00 14 45 03 lbu	a0, 1(s0)
0x80000108: 00 14 04 13 addi	s0, s0, 1
0x8000010c: fe 05 1a e3 bnez	a0, -0xc
0x80000100: 2a 40 00 ef jal	0x2a4
0x800003a4: a0 00 07 b7 lui	a5, 0xa0000
0x800003a8: 3e a7 8c 23 sb	a0, 0x3f8(a5)
0x800003ac: 00 00 80 67 ret
0x80000104: 00 14 45 03 lbu	a0, 1(s0)
0x80000108: 00 14 04 13 addi	s0, s0, 1
0x8000010c: fe 05 1a e3 bnez	a0, -0xc
0x80000100: 2a 40 00 ef jal	0x2a4
0x800003a4: a0 00 07 b7 lui	a5, 0xa0000
0x800003a8: 3e a7 8c 23 sb	a0, 0x3f8(a5)
0x800003ac: 00 00 80 67 ret
0x80000104: 00 14 45 03 lbu	a0, 1(s0)
0x80000108: 00 14 04 13 addi	s0, s0, 1
0x8000010c: fe 05 1a e3 bnez	a0, -0xc
0x80000100: 2a 40 00 ef jal	0x2a4
0x800003a4: a0 00 07 b7 lui	a5, 0xa0000
0x800003a8: 3e a7 8c 23 sb	a0, 0x3f8(a5)
0x800003ac: 00 00 80 67 ret
0x80000104: 00 14 45 03 lbu	a0, 1(s0)
0x80000108: 00 14 04 13 addi	s0, s0, 1
0x8000010c: fe 05 1a e3 bnez	a0, -0xc
0x80000100: 2a 40 00 ef jal	0x2a4
0x800003a4: a0 00 07 b7 lui	a5, 0xa0000
0x800003a8: 3e a7 8c 23 sb	a0, 0x3f8(a5)
0x800003ac: 00 00 80 67 ret
0x80000104: 00 14 45 03 lbu	a0, 1(s0)
0x80000108: 00 14 04 13 addi	s0, s0, 1
0x8000010c: fe 05 1a e3 bnez	a0, -0xc
0x80000100: 2a 40 00 ef jal	0x2a4
0x800003a4: a0 00 07 b7 lui	a5, 0xa0000
0x800003a8: 3e a7 8c 23 sb	a0, 0x3f8(a5)
0x800003ac: 00 00 80 67 ret
0x80000104: 00 14 45 03 lbu	a0, 1(s0)
0x80000108: 00 14 04 13 addi	s0, s0, 1
0x8000010c: fe 05 1a e3 bnez	a0, -0xc
0x80000100: 2a 40 00 ef jal	0x2a4
0x800003a4: a0 00 07 b7 lui	a5, 0xa0000
0x800003a8: 3e a7 8c 23 sb	a0, 0x3f8(a5)
0x800003ac: 00 00 80 67 ret
0x80000104: 00 14 45 03 lbu	a0, 1(s0)
0x80000108: 00 14 04 13 addi	s0, s0, 1
0x8000010c: fe 05 1a e3 bnez	a0, -0xc
0x80000100: 2a 40 00 ef jal	0x2a4
0x800003a4: a0 00 07 b7 lui	a5, 0xa0000
0x800003a8: 3e a7 8c 23 sb	a0, 0x3f8(a5)
0x800003ac: 00 00 80 67 ret
0x80000104: 00 14 45 03 lbu	a0, 1(s0)
0x80000108: 00 14 04 13 addi	s0, s0, 1
0x8000010c: fe 05 1a e3 bnez	a0, -0xc
0x80000100: 2a 40 00 ef jal	0x2a4
0x800003a4: a0 00 07 b7 lui	a5, 0xa0000
0x800003a8: 3e a7 8c 23 sb	a0, 0x3f8(a5)
0x800003ac: 00 00 80 67 ret
0x80000104: 00 14 45 03 lbu	a0, 1(s0)
0x80000108: 00 14 04 13 addi	s0, s0, 1
0x8000010c: fe 05 1a e3 bnez	a0, -0xc
0x80000100: 2a 40 00 ef jal	0x2a4
0x800003a4: a0 00 07 b7 lui	a5, 0xa0000
0x800003a8: 3e a7 8c 23 sb	a0, 0x3f8(a5)
0x800003ac: 00 00 80 67 ret
0x80000104: 00 14 45 03 lbu	a0, 1(s0)
0x80000108: 00 14 04 13 addi	s0, s0, 1
0x8000010c: fe 05 1a e3 bnez	a0, -0xc
0x80000100: 2a 40 00 ef jal	0x2a4
0x800003a4: a0 00 07 b7 lui	a5, 0xa0000
0x800003a8: 3e a7 8c 23 sb	a0, 0x3f8(a5)
0x800003ac: 00 00 80 67 ret
0x80000104: 00 14 45 03 lbu	a0, 1(s0)
0x80000108: 00 14 04 13 addi	s0, s0, 1
0x8000010c: fe 05 1a e3 bnez	a0, -0xc
0x80000100: 2a 40 00 ef jal	0x2a4
0x800003a4: a0 00 07 b7 lui	a5, 0xa0000
0x800003a8: 3e a7 8c 23 sb	a0, 0x3f8(a5)
0x800003ac: 00 00 80 67 ret
0x80000104: 00 14 45 03 lbu	a0, 1(s0)
0x80000108: 00 14 04 13 addi	s0, s0, 1
0x8000010c: fe 05 1a e3 bnez	a0, -0xc
0x80000100: 2a 40 00 ef jal	0x2a4
0x800003a4: a0 00 07 b7 lui	a5, 0xa0000
0x800003a8: 3e a7 8c 23 sb	a0, 0x3f8(a5)
0x800003ac: 00 00 80 67 ret
0x80000104: 00 14 45 03 lbu	a0, 1(s0)
0x80000108: 00 14 04 13 addi	s0, s0, 1
0x8000010c: fe 05 1a e3 bnez	a0, -0xc
0x80000100: 2a 40 00 ef jal	0x2a4
0x800003a4: a0 00 07 b7 lui	a5, 0xa0000
0x800003a8: 3e a7 8c 23 sb	a0, 0x3f8(a5)
0x800003ac: 00 00 80 67 ret
0x80000104: 00 14 45 03 lbu	a0, 1(s0)
0x80000108: 00 14 04 13 addi	s0, s0, 1
0x8000010c: fe 05 1a e3 bnez	a0, -0xc
0x80000100: 2a 40 00 ef jal	0x2a4
0x800003a4: a0 00 07 b7 lui	a5, 0xa0000
0x800003a8: 3e a7 8c 23 sb	a0, 0x3f8(a5)
0x800003ac: 00 00 80 67 ret
0x80000104: 00 14 45 03 lbu	a0, 1(s0)
0x80000108: 00 14 04 13 addi	s0, s0, 1
0x8000010c: fe 05 1a e3 bnez	a0, -0xc
0x80000100: 2a 40 00 ef jal	0x2a4
0x800003a4: a0 00 07 b7 lui	a5, 0xa0000
0x800003a8: 3e a7 8c 23 sb	a0, 0x3f8(a5)
0x800003ac: 00 00 80 67 ret
0x80000104: 00 14 45 03 lbu	a0, 1(s0)
0x80000108: 00 14 04 13 addi	s0, s0, 1
0x8000010c: fe 05 1a e3 bnez	a0, -0xc
0x80000100: 2a 40 00 ef jal	0x2a4
0x800003a4: a0 00 07 b7 lui	a5, 0xa0000
0x800003a8: 3e a7 8c 23 sb	a0, 0x3f8(a5)
0x800003ac: 00 00 80 67 ret
0x80000104: 00 14 45 03 lbu	a0, 1(s0)
0x80000108: 00 14 04 13 addi	s0, s0, 1
0x8000010c: fe 05 1a e3 bnez	a0, -0xc
0x80000100: 2a 40 00 ef jal	0x2a4
0x800003a4: a0 00 07 b7 lui	a5, 0xa0000
0x800003a8: 3e a7 8c 23 sb	a0, 0x3f8(a5)
0x800003ac: 00 00 80 67 ret
0x80000104: 00 14 45 03 lbu	a0, 1(s0)
0x80000108: 00 14 04 13 addi	s0, s0, 1
0x8000010c: fe 05 1a e3 bnez	a0, -0xc
0x80000100: 2a 40 00 ef jal	0x2a4
0x800003a4: a0 00 07 b7 lui	a5, 0xa0000
0x800003a8: 3e a7 8c 23 sb	a0, 0x3f8(a5)
0x800003ac: 00 00 80 67 ret
0x80000104: 00 14 45 03 lbu	a0, 1(s0)
0x80000108: 00 14 04 13 addi	s0, s0, 1
0x8000010c: fe 05 1a e3 bnez	a0, -0xc
0x80000110: fc 5f f0 6f j	-0x3c
0x800000d4: 01 c1 20 83 lw	ra, 0x1c(sp)
0x800000d8: 01 81 24 03 lw	s0, 0x18(sp)
0x800000dc: 01 01 29 03 lw	s2, 0x10(sp)
0x800000e0: 00 c1 29 83 lw	s3, 0xc(sp)
0x800000e4: 00 04 85 13 mv	a0, s1
0x800000e8: 01 41 24 83 lw	s1, 0x14(sp)
0x800000ec: 02 01 01 13 addi	sp, sp, 0x20
0x800000f0: 00 00 80 67 ret
0x80000434: 00 05 0e 63 beqz	a0, 0x1c
0x80000438: 02 c1 20 83 lw	ra, 0x2c(sp)
0x8000043c: 03 01 01 13 addi	sp, sp, 0x30
0x80000440: 00 00 80 67 ret
0x80000628: 00 05 01 13 mv	sp, a0
0x8000062c: 08 41 23 03 lw	t1, 0x84(sp)
0x80000630: 08 81 23 83 lw	t2, 0x88(sp)
0x80000634: 30 03 10 73 csrw	mstatus, t1
0x80000638: 34 13 90 73 csrw	mepc, t2
0x8000063c: 00 41 20 83 lw	ra, 4(sp)
0x80000640: 00 c1 21 83 lw	gp, 0xc(sp)
0x80000644: 01 01 22 03 lw	tp, 0x10(sp)
0x80000648: 01 41 22 83 lw	t0, 0x14(sp)
0x8000064c: 01 81 23 03 lw	t1, 0x18(sp)
0x80000650: 01 c1 23 83 lw	t2, 0x1c(sp)
0x80000654: 02 01 24 03 lw	s0, 0x20(sp)
0x80000658: 02 41 24 83 lw	s1, 0x24(sp)
0x8000065c: 02 81 25 03 lw	a0, 0x28(sp)
0x80000660: 02 c1 25 83 lw	a1, 0x2c(sp)
0x80000664: 03 01 26 03 lw	a2, 0x30(sp)
0x80000668: 03 41 26 83 lw	a3, 0x34(sp)
0x8000066c: 03 81 27 03 lw	a4, 0x38(sp)
0x80000670: 03 c1 27 83 lw	a5, 0x3c(sp)
0x80000674: 04 01 28 03 lw	a6, 0x40(sp)
0x80000678: 04 41 28 83 lw	a7, 0x44(sp)
0x8000067c: 04 81 29 03 lw	s2, 0x48(sp)
0x80000680: 04 c1 29 83 lw	s3, 0x4c(sp)
0x80000684: 05 01 2a 03 lw	s4, 0x50(sp)
0x80000688: 05 41 2a 83 lw	s5, 0x54(sp)
0x8000068c: 05 81 2b 03 lw	s6, 0x58(sp)
0x80000690: 05 c1 2b 83 lw	s7, 0x5c(sp)
0x80000694: 06 01 2c 03 lw	s8, 0x60(sp)
0x80000698: 06 41 2c 83 lw	s9, 0x64(sp)
0x8000069c: 06 81 2d 03 lw	s10, 0x68(sp)
0x800006a0: 06 c1 2d 83 lw	s11, 0x6c(sp)
0x800006a4: 07 01 2e 03 lw	t3, 0x70(sp)
0x800006a8: 07 41 2e 83 lw	t4, 0x74(sp)
0x800006ac: 07 81 2f 03 lw	t5, 0x78(sp)
0x800006b0: 07 c1 2f 83 lw	t6, 0x7c(sp)
0x800006b4: 08 c1 01 13 addi	sp, sp, 0x8c
0x800006b8: 30 20 00 73 mret
0x8000050c: 00 00 00 73 ecall
0x80000580: f7 41 01 13 addi	sp, sp, -0x8c
0x80000584: 00 11 22 23 sw	ra, 4(sp)
0x80000588: 00 31 26 23 sw	gp, 0xc(sp)
0x8000058c: 00 41 28 23 sw	tp, 0x10(sp)
0x80000590: 00 51 2a 23 sw	t0, 0x14(sp)
0x80000594: 00 61 2c 23 sw	t1, 0x18(sp)
0x80000598: 00 71 2e 23 sw	t2, 0x1c(sp)
0x8000059c: 02 81 20 23 sw	s0, 0x20(sp)
0x800005a0: 02 91 22 23 sw	s1, 0x24(sp)
0x800005a4: 02 a1 24 23 sw	a0, 0x28(sp)
