
/home/mubai/ysyx-workbench/am-kernels/tests/am-tests/build/amtest-riscv32-nemu.elf:     file format elf32-littleriscv


Disassembly of section .text:

80000000 <_start>:
80000000:	00000413          	li	s0,0
80000004:	0009e117          	auipc	sp,0x9e
80000008:	ffc10113          	addi	sp,sp,-4 # 8009e000 <_end>
8000000c:	785000ef          	jal	80000f90 <_trm_init>

80000010 <main>:
80000010:	fe010113          	addi	sp,sp,-32
80000014:	00112e23          	sw	ra,28(sp)
80000018:	00054783          	lbu	a5,0(a0)
8000001c:	01500713          	li	a4,21
80000020:	f9f78793          	addi	a5,a5,-97
80000024:	0ff7f793          	zext.b	a5,a5
80000028:	02f76063          	bltu	a4,a5,80000048 <main+0x38>
8000002c:	00003717          	auipc	a4,0x3
80000030:	2f070713          	addi	a4,a4,752 # 8000331c <_etext+0x770>
80000034:	00279793          	slli	a5,a5,0x2
80000038:	00e787b3          	add	a5,a5,a4
8000003c:	0007a783          	lw	a5,0(a5)
80000040:	00e787b3          	add	a5,a5,a4
80000044:	00078067          	jr	a5
80000048:	00003517          	auipc	a0,0x3
8000004c:	b6450513          	addi	a0,a0,-1180 # 80002bac <_etext>
80000050:	00812c23          	sw	s0,24(sp)
80000054:	00912a23          	sw	s1,20(sp)
80000058:	01212823          	sw	s2,16(sp)
8000005c:	01312623          	sw	s3,12(sp)
80000060:	00003497          	auipc	s1,0x3
80000064:	31448493          	addi	s1,s1,788 # 80003374 <tests>
80000068:	249020ef          	jal	80002ab0 <printf>
8000006c:	00000413          	li	s0,0
80000070:	00003997          	auipc	s3,0x3
80000074:	b5898993          	addi	s3,s3,-1192 # 80002bc8 <_etext+0x1c>
80000078:	10000913          	li	s2,256
8000007c:	0004a603          	lw	a2,0(s1)
80000080:	00060863          	beqz	a2,80000090 <main+0x80>
80000084:	00040593          	mv	a1,s0
80000088:	00098513          	mv	a0,s3
8000008c:	225020ef          	jal	80002ab0 <printf>
80000090:	00140413          	addi	s0,s0,1
80000094:	00448493          	addi	s1,s1,4
80000098:	ff2412e3          	bne	s0,s2,8000007c <main+0x6c>
8000009c:	01812403          	lw	s0,24(sp)
800000a0:	01412483          	lw	s1,20(sp)
800000a4:	01012903          	lw	s2,16(sp)
800000a8:	00c12983          	lw	s3,12(sp)
800000ac:	01c12083          	lw	ra,28(sp)
800000b0:	00000513          	li	a0,0
800000b4:	02010113          	addi	sp,sp,32
800000b8:	00008067          	ret
800000bc:	00000797          	auipc	a5,0x0
800000c0:	5c078793          	addi	a5,a5,1472 # 8000067c <audio_test>
800000c4:	00096717          	auipc	a4,0x96
800000c8:	d8f72023          	sw	a5,-640(a4) # 80095e44 <entry>
800000cc:	779000ef          	jal	80001044 <ioe_init>
800000d0:	5ac000ef          	jal	8000067c <audio_test>
800000d4:	fd9ff06f          	j	800000ac <main+0x9c>
800000d8:	00000797          	auipc	a5,0x0
800000dc:	2cc78793          	addi	a5,a5,716 # 800003a4 <devscan>
800000e0:	00096717          	auipc	a4,0x96
800000e4:	d6f72223          	sw	a5,-668(a4) # 80095e44 <entry>
800000e8:	75d000ef          	jal	80001044 <ioe_init>
800000ec:	2b8000ef          	jal	800003a4 <devscan>
800000f0:	fbdff06f          	j	800000ac <main+0x9c>
800000f4:	00000797          	auipc	a5,0x0
800000f8:	51478793          	addi	a5,a5,1300 # 80000608 <hello>
800000fc:	00096717          	auipc	a4,0x96
80000100:	d4f72423          	sw	a5,-696(a4) # 80095e44 <entry>
80000104:	504000ef          	jal	80000608 <hello>
80000108:	fa5ff06f          	j	800000ac <main+0x9c>
8000010c:	00000797          	auipc	a5,0x0
80000110:	15478793          	addi	a5,a5,340 # 80000260 <hello_intr>
80000114:	00096717          	auipc	a4,0x96
80000118:	d2f72823          	sw	a5,-720(a4) # 80095e44 <entry>
8000011c:	729000ef          	jal	80001044 <ioe_init>
80000120:	00000517          	auipc	a0,0x0
80000124:	0c050513          	addi	a0,a0,192 # 800001e0 <simple_trap>
80000128:	208010ef          	jal	80001330 <cte_init>
8000012c:	134000ef          	jal	80000260 <hello_intr>
80000130:	f7dff06f          	j	800000ac <main+0x9c>
80000134:	00001797          	auipc	a5,0x1
80000138:	d3878793          	addi	a5,a5,-712 # 80000e6c <keyboard_test>
8000013c:	00096717          	auipc	a4,0x96
80000140:	d0f72423          	sw	a5,-760(a4) # 80095e44 <entry>
80000144:	701000ef          	jal	80001044 <ioe_init>
80000148:	525000ef          	jal	80000e6c <keyboard_test>
8000014c:	f61ff06f          	j	800000ac <main+0x9c>
80000150:	00000797          	auipc	a5,0x0
80000154:	50478793          	addi	a5,a5,1284 # 80000654 <mp_print>
80000158:	00078513          	mv	a0,a5
8000015c:	00096717          	auipc	a4,0x96
80000160:	cef72423          	sw	a5,-792(a4) # 80095e44 <entry>
80000164:	0f0010ef          	jal	80001254 <mpe_init>
80000168:	4ec000ef          	jal	80000654 <mp_print>
8000016c:	f41ff06f          	j	800000ac <main+0x9c>
80000170:	00000797          	auipc	a5,0x0
80000174:	7bc78793          	addi	a5,a5,1980 # 8000092c <vm_test>
80000178:	00000517          	auipc	a0,0x0
8000017c:	66c50513          	addi	a0,a0,1644 # 800007e4 <vm_handler>
80000180:	00096717          	auipc	a4,0x96
80000184:	ccf72223          	sw	a5,-828(a4) # 80095e44 <entry>
80000188:	1a8010ef          	jal	80001330 <cte_init>
8000018c:	00000597          	auipc	a1,0x0
80000190:	65458593          	addi	a1,a1,1620 # 800007e0 <simple_pgfree>
80000194:	00000517          	auipc	a0,0x0
80000198:	60850513          	addi	a0,a0,1544 # 8000079c <simple_pgalloc>
8000019c:	2fc010ef          	jal	80001498 <vme_init>
800001a0:	78c000ef          	jal	8000092c <vm_test>
800001a4:	f09ff06f          	j	800000ac <main+0x9c>
800001a8:	00000797          	auipc	a5,0x0
800001ac:	12078793          	addi	a5,a5,288 # 800002c8 <rtc_test>
800001b0:	00096717          	auipc	a4,0x96
800001b4:	c8f72a23          	sw	a5,-876(a4) # 80095e44 <entry>
800001b8:	68d000ef          	jal	80001044 <ioe_init>
800001bc:	10c000ef          	jal	800002c8 <rtc_test>
800001c0:	eedff06f          	j	800000ac <main+0x9c>
800001c4:	00001797          	auipc	a5,0x1
800001c8:	c0478793          	addi	a5,a5,-1020 # 80000dc8 <video_test>
800001cc:	00096717          	auipc	a4,0x96
800001d0:	c6f72c23          	sw	a5,-904(a4) # 80095e44 <entry>
800001d4:	671000ef          	jal	80001044 <ioe_init>
800001d8:	3f1000ef          	jal	80000dc8 <video_test>
800001dc:	ed1ff06f          	j	800000ac <main+0x9c>

800001e0 <simple_trap>:
800001e0:	00052783          	lw	a5,0(a0)
800001e4:	ff010113          	addi	sp,sp,-16
800001e8:	00812423          	sw	s0,8(sp)
800001ec:	00112623          	sw	ra,12(sp)
800001f0:	00500713          	li	a4,5
800001f4:	00058413          	mv	s0,a1
800001f8:	04e78663          	beq	a5,a4,80000244 <simple_trap+0x64>
800001fc:	00600713          	li	a4,6
80000200:	02e78463          	beq	a5,a4,80000228 <simple_trap+0x48>
80000204:	00100713          	li	a4,1
80000208:	00e79663          	bne	a5,a4,80000214 <simple_trap+0x34>
8000020c:	07900513          	li	a0,121
80000210:	569000ef          	jal	80000f78 <putch>
80000214:	00c12083          	lw	ra,12(sp)
80000218:	00040513          	mv	a0,s0
8000021c:	00812403          	lw	s0,8(sp)
80000220:	01010113          	addi	sp,sp,16
80000224:	00008067          	ret
80000228:	06400513          	li	a0,100
8000022c:	54d000ef          	jal	80000f78 <putch>
80000230:	00c12083          	lw	ra,12(sp)
80000234:	00040513          	mv	a0,s0
80000238:	00812403          	lw	s0,8(sp)
8000023c:	01010113          	addi	sp,sp,16
80000240:	00008067          	ret
80000244:	07400513          	li	a0,116
80000248:	531000ef          	jal	80000f78 <putch>
8000024c:	00c12083          	lw	ra,12(sp)
80000250:	00040513          	mv	a0,s0
80000254:	00812403          	lw	s0,8(sp)
80000258:	01010113          	addi	sp,sp,16
8000025c:	00008067          	ret

80000260 <hello_intr>:
80000260:	fe010113          	addi	sp,sp,-32
80000264:	00003517          	auipc	a0,0x3
80000268:	a2c50513          	addi	a0,a0,-1492 # 80002c90 <_etext+0xe4>
8000026c:	00112e23          	sw	ra,28(sp)
80000270:	041020ef          	jal	80002ab0 <printf>
80000274:	00003517          	auipc	a0,0x3
80000278:	a3850513          	addi	a0,a0,-1480 # 80002cac <_etext+0x100>
8000027c:	035020ef          	jal	80002ab0 <printf>
80000280:	00c10593          	addi	a1,sp,12
80000284:	00700513          	li	a0,7
80000288:	619000ef          	jal	800010a0 <ioe_read>
8000028c:	00100513          	li	a0,1
80000290:	0cc010ef          	jal	8000135c <iset>
80000294:	00012623          	sw	zero,12(sp)
80000298:	00c12783          	lw	a5,12(sp)
8000029c:	00989737          	lui	a4,0x989
800002a0:	67f70713          	addi	a4,a4,1663 # 98967f <_entry_offset+0x98967f>
800002a4:	00f74c63          	blt	a4,a5,800002bc <hello_intr+0x5c>
800002a8:	00c12783          	lw	a5,12(sp)
800002ac:	00178793          	addi	a5,a5,1
800002b0:	00f12623          	sw	a5,12(sp)
800002b4:	00c12783          	lw	a5,12(sp)
800002b8:	fef758e3          	bge	a4,a5,800002a8 <hello_intr+0x48>
800002bc:	01c12083          	lw	ra,28(sp)
800002c0:	02010113          	addi	sp,sp,32
800002c4:	08c0106f          	j	80001350 <yield>

800002c8 <rtc_test>:
800002c8:	fb010113          	addi	sp,sp,-80
800002cc:	05212023          	sw	s2,64(sp)
800002d0:	000f4937          	lui	s2,0xf4
800002d4:	04812423          	sw	s0,72(sp)
800002d8:	04912223          	sw	s1,68(sp)
800002dc:	03312e23          	sw	s3,60(sp)
800002e0:	03412c23          	sw	s4,56(sp)
800002e4:	03512a23          	sw	s5,52(sp)
800002e8:	03612823          	sw	s6,48(sp)
800002ec:	03712623          	sw	s7,44(sp)
800002f0:	04112623          	sw	ra,76(sp)
800002f4:	00100493          	li	s1,1
800002f8:	00000413          	li	s0,0
800002fc:	24090913          	addi	s2,s2,576 # f4240 <_entry_offset+0xf4240>
80000300:	00000993          	li	s3,0
80000304:	00003b17          	auipc	s6,0x3
80000308:	9ccb0b13          	addi	s6,s6,-1588 # 80002cd0 <_etext+0x124>
8000030c:	00100a93          	li	s5,1
80000310:	00003b97          	auipc	s7,0x3
80000314:	9f0b8b93          	addi	s7,s7,-1552 # 80002d00 <_etext+0x154>
80000318:	00003a17          	auipc	s4,0x3
8000031c:	9d8a0a13          	addi	s4,s4,-1576 # 80002cf0 <_etext+0x144>
80000320:	00810593          	addi	a1,sp,8
80000324:	00600513          	li	a0,6
80000328:	579000ef          	jal	800010a0 <ioe_read>
8000032c:	00812503          	lw	a0,8(sp)
80000330:	00c12583          	lw	a1,12(sp)
80000334:	00090613          	mv	a2,s2
80000338:	00098693          	mv	a3,s3
8000033c:	580010ef          	jal	800018bc <__udivdi3>
80000340:	fe85e0e3          	bltu	a1,s0,80000320 <rtc_test+0x58>
80000344:	00b41463          	bne	s0,a1,8000034c <rtc_test+0x84>
80000348:	fc956ce3          	bltu	a0,s1,80000320 <rtc_test+0x58>
8000034c:	00810593          	addi	a1,sp,8
80000350:	00500513          	li	a0,5
80000354:	54d000ef          	jal	800010a0 <ioe_read>
80000358:	00812583          	lw	a1,8(sp)
8000035c:	01c12803          	lw	a6,28(sp)
80000360:	01812783          	lw	a5,24(sp)
80000364:	01412703          	lw	a4,20(sp)
80000368:	01012683          	lw	a3,16(sp)
8000036c:	00c12603          	lw	a2,12(sp)
80000370:	000b0513          	mv	a0,s6
80000374:	73c020ef          	jal	80002ab0 <printf>
80000378:	00100593          	li	a1,1
8000037c:	000a0513          	mv	a0,s4
80000380:	01548663          	beq	s1,s5,8000038c <rtc_test+0xc4>
80000384:	00048593          	mv	a1,s1
80000388:	000b8513          	mv	a0,s7
8000038c:	724020ef          	jal	80002ab0 <printf>
80000390:	00148793          	addi	a5,s1,1
80000394:	0097b4b3          	sltu	s1,a5,s1
80000398:	00848433          	add	s0,s1,s0
8000039c:	00078493          	mv	s1,a5
800003a0:	f81ff06f          	j	80000320 <rtc_test+0x58>

800003a4 <devscan>:
800003a4:	00012797          	auipc	a5,0x12
800003a8:	87478793          	addi	a5,a5,-1932 # 80011c18 <heap>
800003ac:	0047a603          	lw	a2,4(a5)
800003b0:	0007a583          	lw	a1,0(a5)
800003b4:	fc010113          	addi	sp,sp,-64
800003b8:	00003517          	auipc	a0,0x3
800003bc:	95850513          	addi	a0,a0,-1704 # 80002d10 <_etext+0x164>
800003c0:	02112e23          	sw	ra,60(sp)
800003c4:	02812c23          	sw	s0,56(sp)
800003c8:	02912a23          	sw	s1,52(sp)
800003cc:	03212823          	sw	s2,48(sp)
800003d0:	03312623          	sw	s3,44(sp)
800003d4:	03412423          	sw	s4,40(sp)
800003d8:	6d8020ef          	jal	80002ab0 <printf>
800003dc:	00003517          	auipc	a0,0x3
800003e0:	94c50513          	addi	a0,a0,-1716 # 80002d28 <_etext+0x17c>
800003e4:	6cc020ef          	jal	80002ab0 <printf>
800003e8:	01010593          	addi	a1,sp,16
800003ec:	00600513          	li	a0,6
800003f0:	4b1000ef          	jal	800010a0 <ioe_read>
800003f4:	01012503          	lw	a0,16(sp)
800003f8:	01412583          	lw	a1,20(sp)
800003fc:	3e800613          	li	a2,1000
80000400:	00000693          	li	a3,0
80000404:	4b8010ef          	jal	800018bc <__udivdi3>
80000408:	00012623          	sw	zero,12(sp)
8000040c:	00c12783          	lw	a5,12(sp)
80000410:	00989737          	lui	a4,0x989
80000414:	67f70713          	addi	a4,a4,1663 # 98967f <_entry_offset+0x98967f>
80000418:	00050413          	mv	s0,a0
8000041c:	00f74c63          	blt	a4,a5,80000434 <devscan+0x90>
80000420:	00c12783          	lw	a5,12(sp)
80000424:	00178793          	addi	a5,a5,1
80000428:	00f12623          	sw	a5,12(sp)
8000042c:	00c12783          	lw	a5,12(sp)
80000430:	fef758e3          	bge	a4,a5,80000420 <devscan+0x7c>
80000434:	01010593          	addi	a1,sp,16
80000438:	00600513          	li	a0,6
8000043c:	465000ef          	jal	800010a0 <ioe_read>
80000440:	01012503          	lw	a0,16(sp)
80000444:	01412583          	lw	a1,20(sp)
80000448:	3e800613          	li	a2,1000
8000044c:	00000693          	li	a3,0
80000450:	46c010ef          	jal	800018bc <__udivdi3>
80000454:	408505b3          	sub	a1,a0,s0
80000458:	00003517          	auipc	a0,0x3
8000045c:	8ec50513          	addi	a0,a0,-1812 # 80002d44 <_etext+0x198>
80000460:	650020ef          	jal	80002ab0 <printf>
80000464:	01010593          	addi	a1,sp,16
80000468:	00900513          	li	a0,9
8000046c:	435000ef          	jal	800010a0 <ioe_read>
80000470:	01412983          	lw	s3,20(sp)
80000474:	01812903          	lw	s2,24(sp)
80000478:	00003517          	auipc	a0,0x3
8000047c:	8ec50513          	addi	a0,a0,-1812 # 80002d64 <_etext+0x1b8>
80000480:	00098593          	mv	a1,s3
80000484:	00090613          	mv	a2,s2
80000488:	628020ef          	jal	80002ab0 <printf>
8000048c:	00012417          	auipc	s0,0x12
80000490:	a6840413          	addi	s0,s0,-1432 # 80011ef4 <vmem+0xd0>
80000494:	00092497          	auipc	s1,0x92
80000498:	99048493          	addi	s1,s1,-1648 # 80091e24 <stack.0>
8000049c:	614010ef          	jal	80001ab0 <rand>
800004a0:	00a40023          	sb	a0,0(s0)
800004a4:	00140413          	addi	s0,s0,1
800004a8:	fe941ae3          	bne	s0,s1,8000049c <devscan+0xf8>
800004ac:	41f9d713          	srai	a4,s3,0x1f
800004b0:	00377713          	andi	a4,a4,3
800004b4:	01370733          	add	a4,a4,s3
800004b8:	00012797          	auipc	a5,0x12
800004bc:	96c78793          	addi	a5,a5,-1684 # 80011e24 <vmem>
800004c0:	40275713          	srai	a4,a4,0x2
800004c4:	00e79323          	sh	a4,6(a5)
800004c8:	00012717          	auipc	a4,0x12
800004cc:	96071223          	sh	zero,-1692(a4) # 80011e2c <vmem+0x8>
800004d0:	01f9d693          	srli	a3,s3,0x1f
800004d4:	02500713          	li	a4,37
800004d8:	00e79923          	sh	a4,18(a5)
800004dc:	013686b3          	add	a3,a3,s3
800004e0:	00a00713          	li	a4,10
800004e4:	ffff0837          	lui	a6,0xffff0
800004e8:	fff00613          	li	a2,-1
800004ec:	00180813          	addi	a6,a6,1 # ffff0001 <_end+0x7ff52001>
800004f0:	4016d693          	srai	a3,a3,0x1
800004f4:	00e79a23          	sh	a4,20(a5)
800004f8:	f9c90913          	addi	s2,s2,-100
800004fc:	0d000713          	li	a4,208
80000500:	00e79b23          	sh	a4,22(a5)
80000504:	0107a023          	sw	a6,0(a5)
80000508:	00d79523          	sh	a3,10(a5)
8000050c:	00c79223          	sh	a2,4(a5)
80000510:	00c79723          	sh	a2,14(a5)
80000514:	00c79823          	sh	a2,16(a5)
80000518:	01279623          	sh	s2,12(a5)
8000051c:	01010593          	addi	a1,sp,16
80000520:	00c00513          	li	a0,12
80000524:	00f12a23          	sw	a5,20(sp)
80000528:	000807b7          	lui	a5,0x80
8000052c:	00f12c23          	sw	a5,24(sp)
80000530:	00012717          	auipc	a4,0x12
80000534:	90071623          	sh	zero,-1780(a4) # 80011e3c <vmem+0x18>
80000538:	00012823          	sw	zero,16(sp)
8000053c:	381000ef          	jal	800010bc <ioe_write>
80000540:	01010593          	addi	a1,sp,16
80000544:	00d00513          	li	a0,13
80000548:	00012823          	sw	zero,16(sp)
8000054c:	371000ef          	jal	800010bc <ioe_write>
80000550:	01010593          	addi	a1,sp,16
80000554:	01200513          	li	a0,18
80000558:	349000ef          	jal	800010a0 <ioe_read>
8000055c:	01412403          	lw	s0,20(sp)
80000560:	01812583          	lw	a1,24(sp)
80000564:	00003517          	auipc	a0,0x3
80000568:	81850513          	addi	a0,a0,-2024 # 80002d7c <_etext+0x1d0>
8000056c:	00040613          	mv	a2,s0
80000570:	540020ef          	jal	80002ab0 <printf>
80000574:	20000793          	li	a5,512
80000578:	0287c7b3          	div	a5,a5,s0
8000057c:	01010593          	addi	a1,sp,16
80000580:	00011417          	auipc	s0,0x11
80000584:	6a440413          	addi	s0,s0,1700 # 80011c24 <buf.0>
80000588:	01400513          	li	a0,20
8000058c:	00200493          	li	s1,2
80000590:	00010823          	sb	zero,16(sp)
80000594:	00812a23          	sw	s0,20(sp)
80000598:	00012c23          	sw	zero,24(sp)
8000059c:	00012997          	auipc	s3,0x12
800005a0:	88898993          	addi	s3,s3,-1912 # 80011e24 <vmem>
800005a4:	00003917          	auipc	s2,0x3
800005a8:	81090913          	addi	s2,s2,-2032 # 80002db4 <_etext+0x208>
800005ac:	408484b3          	sub	s1,s1,s0
800005b0:	00002a17          	auipc	s4,0x2
800005b4:	75ca0a13          	addi	s4,s4,1884 # 80002d0c <_etext+0x160>
800005b8:	00f12e23          	sw	a5,28(sp)
800005bc:	301000ef          	jal	800010bc <ioe_write>
800005c0:	00c0006f          	j	800005cc <devscan+0x228>
800005c4:	00240413          	addi	s0,s0,2
800005c8:	03340863          	beq	s0,s3,800005f8 <devscan+0x254>
800005cc:	00144603          	lbu	a2,1(s0)
800005d0:	00044583          	lbu	a1,0(s0)
800005d4:	00090513          	mv	a0,s2
800005d8:	4d8020ef          	jal	80002ab0 <printf>
800005dc:	008487b3          	add	a5,s1,s0
800005e0:	01f7f793          	andi	a5,a5,31
800005e4:	fe0790e3          	bnez	a5,800005c4 <devscan+0x220>
800005e8:	000a0513          	mv	a0,s4
800005ec:	00240413          	addi	s0,s0,2
800005f0:	4c0020ef          	jal	80002ab0 <printf>
800005f4:	fd341ce3          	bne	s0,s3,800005cc <devscan+0x228>
800005f8:	00002517          	auipc	a0,0x2
800005fc:	7c850513          	addi	a0,a0,1992 # 80002dc0 <_etext+0x214>
80000600:	4b0020ef          	jal	80002ab0 <printf>
80000604:	0000006f          	j	80000604 <devscan+0x260>

80000608 <hello>:
80000608:	ff010113          	addi	sp,sp,-16
8000060c:	00912223          	sw	s1,4(sp)
80000610:	00112623          	sw	ra,12(sp)
80000614:	00812423          	sw	s0,8(sp)
80000618:	00a00493          	li	s1,10
8000061c:	00002417          	auipc	s0,0x2
80000620:	67440413          	addi	s0,s0,1652 # 80002c90 <_etext+0xe4>
80000624:	04800513          	li	a0,72
80000628:	151000ef          	jal	80000f78 <putch>
8000062c:	00144503          	lbu	a0,1(s0)
80000630:	00140413          	addi	s0,s0,1
80000634:	fe051ae3          	bnez	a0,80000628 <hello+0x20>
80000638:	fff48493          	addi	s1,s1,-1
8000063c:	fe0490e3          	bnez	s1,8000061c <hello+0x14>
80000640:	00c12083          	lw	ra,12(sp)
80000644:	00812403          	lw	s0,8(sp)
80000648:	00412483          	lw	s1,4(sp)
8000064c:	01010113          	addi	sp,sp,16
80000650:	00008067          	ret

80000654 <mp_print>:
80000654:	ff010113          	addi	sp,sp,-16
80000658:	00812423          	sw	s0,8(sp)
8000065c:	00112623          	sw	ra,12(sp)
80000660:	00002417          	auipc	s0,0x2
80000664:	76c40413          	addi	s0,s0,1900 # 80002dcc <_etext+0x220>
80000668:	459000ef          	jal	800012c0 <cpu_current>
8000066c:	00050593          	mv	a1,a0
80000670:	00040513          	mv	a0,s0
80000674:	43c020ef          	jal	80002ab0 <printf>
80000678:	ff1ff06f          	j	80000668 <mp_print+0x14>

8000067c <audio_test>:
8000067c:	fd010113          	addi	sp,sp,-48
80000680:	00410593          	addi	a1,sp,4
80000684:	00e00513          	li	a0,14
80000688:	02112623          	sw	ra,44(sp)
8000068c:	215000ef          	jal	800010a0 <ioe_read>
80000690:	00414783          	lbu	a5,4(sp)
80000694:	0e078663          	beqz	a5,80000780 <audio_test+0x104>
80000698:	000027b7          	lui	a5,0x2
8000069c:	f4078793          	addi	a5,a5,-192 # 1f40 <_entry_offset+0x1f40>
800006a0:	00f12223          	sw	a5,4(sp)
800006a4:	00100793          	li	a5,1
800006a8:	00f12423          	sw	a5,8(sp)
800006ac:	00410593          	addi	a1,sp,4
800006b0:	40000793          	li	a5,1024
800006b4:	00f00513          	li	a0,15
800006b8:	03212023          	sw	s2,32(sp)
800006bc:	01312e23          	sw	s3,28(sp)
800006c0:	00f12623          	sw	a5,12(sp)
800006c4:	1f9000ef          	jal	800010bc <ioe_write>
800006c8:	00011797          	auipc	a5,0x11
800006cc:	33c78793          	addi	a5,a5,828 # 80011a04 <code>
800006d0:	00003917          	auipc	s2,0x3
800006d4:	52890913          	addi	s2,s2,1320 # 80003bf8 <audio_payload>
800006d8:	412789b3          	sub	s3,a5,s2
800006dc:	07278e63          	beq	a5,s2,80000758 <audio_test+0xdc>
800006e0:	02812423          	sw	s0,40(sp)
800006e4:	02912223          	sw	s1,36(sp)
800006e8:	01412c23          	sw	s4,24(sp)
800006ec:	01512a23          	sw	s5,20(sp)
800006f0:	00000493          	li	s1,0
800006f4:	00000413          	li	s0,0
800006f8:	00001ab7          	lui	s5,0x1
800006fc:	00002a17          	auipc	s4,0x2
80000700:	708a0a13          	addi	s4,s4,1800 # 80002e04 <_etext+0x258>
80000704:	40898433          	sub	s0,s3,s0
80000708:	00090793          	mv	a5,s2
8000070c:	00410593          	addi	a1,sp,4
80000710:	01100513          	li	a0,17
80000714:	008af463          	bgeu	s5,s0,8000071c <audio_test+0xa0>
80000718:	00001437          	lui	s0,0x1
8000071c:	00890933          	add	s2,s2,s0
80000720:	00f12223          	sw	a5,4(sp)
80000724:	008484b3          	add	s1,s1,s0
80000728:	01212423          	sw	s2,8(sp)
8000072c:	191000ef          	jal	800010bc <ioe_write>
80000730:	00098613          	mv	a2,s3
80000734:	00048593          	mv	a1,s1
80000738:	000a0513          	mv	a0,s4
8000073c:	374020ef          	jal	80002ab0 <printf>
80000740:	00048413          	mv	s0,s1
80000744:	fd34e0e3          	bltu	s1,s3,80000704 <audio_test+0x88>
80000748:	02812403          	lw	s0,40(sp)
8000074c:	02412483          	lw	s1,36(sp)
80000750:	01812a03          	lw	s4,24(sp)
80000754:	01412a83          	lw	s5,20(sp)
80000758:	00410593          	addi	a1,sp,4
8000075c:	01000513          	li	a0,16
80000760:	141000ef          	jal	800010a0 <ioe_read>
80000764:	00412783          	lw	a5,4(sp)
80000768:	fef048e3          	bgtz	a5,80000758 <audio_test+0xdc>
8000076c:	02c12083          	lw	ra,44(sp)
80000770:	02012903          	lw	s2,32(sp)
80000774:	01c12983          	lw	s3,28(sp)
80000778:	03010113          	addi	sp,sp,48
8000077c:	00008067          	ret
80000780:	02c12083          	lw	ra,44(sp)
80000784:	00002597          	auipc	a1,0x2
80000788:	64c58593          	addi	a1,a1,1612 # 80002dd0 <_etext+0x224>
8000078c:	00002517          	auipc	a0,0x2
80000790:	65450513          	addi	a0,a0,1620 # 80002de0 <_etext+0x234>
80000794:	03010113          	addi	sp,sp,48
80000798:	3180206f          	j	80002ab0 <printf>

8000079c <simple_pgalloc>:
8000079c:	00095617          	auipc	a2,0x95
800007a0:	6ac60613          	addi	a2,a2,1708 # 80095e48 <st>
800007a4:	00062683          	lw	a3,0(a2)
800007a8:	00069663          	bnez	a3,800007b4 <simple_pgalloc+0x18>
800007ac:	00011697          	auipc	a3,0x11
800007b0:	46c6a683          	lw	a3,1132(a3) # 80011c18 <heap>
800007b4:	02a6f7b3          	remu	a5,a3,a0
800007b8:	00078c63          	beqz	a5,800007d0 <simple_pgalloc+0x34>
800007bc:	00168793          	addi	a5,a3,1
800007c0:	02a7f733          	remu	a4,a5,a0
800007c4:	00078693          	mv	a3,a5
800007c8:	00178793          	addi	a5,a5,1
800007cc:	fe071ae3          	bnez	a4,800007c0 <simple_pgalloc+0x24>
800007d0:	00d50533          	add	a0,a0,a3
800007d4:	00a62023          	sw	a0,0(a2)
800007d8:	00068513          	mv	a0,a3
800007dc:	00008067          	ret

800007e0 <simple_pgfree>:
800007e0:	00008067          	ret

800007e4 <vm_handler>:
800007e4:	00052783          	lw	a5,0(a0)
800007e8:	fe010113          	addi	sp,sp,-32
800007ec:	00812c23          	sw	s0,24(sp)
800007f0:	00112e23          	sw	ra,28(sp)
800007f4:	00300713          	li	a4,3
800007f8:	00452603          	lw	a2,4(a0)
800007fc:	00058413          	mv	s0,a1
80000800:	0ae78a63          	beq	a5,a4,800008b4 <vm_handler+0xd0>
80000804:	08f76263          	bltu	a4,a5,80000888 <vm_handler+0xa4>
80000808:	00100713          	li	a4,1
8000080c:	04e78663          	beq	a5,a4,80000858 <vm_handler+0x74>
80000810:	00200713          	li	a4,2
80000814:	0ee79c63          	bne	a5,a4,8000090c <vm_handler+0x128>
80000818:	00100513          	li	a0,1
8000081c:	341000ef          	jal	8000135c <iset>
80000820:	00012623          	sw	zero,12(sp)
80000824:	00c12783          	lw	a5,12(sp)
80000828:	000f4737          	lui	a4,0xf4
8000082c:	23f70713          	addi	a4,a4,575 # f423f <_entry_offset+0xf423f>
80000830:	00f74c63          	blt	a4,a5,80000848 <vm_handler+0x64>
80000834:	00c12783          	lw	a5,12(sp)
80000838:	00178793          	addi	a5,a5,1
8000083c:	00f12623          	sw	a5,12(sp)
80000840:	00c12783          	lw	a5,12(sp)
80000844:	fef758e3          	bge	a4,a5,80000834 <vm_handler+0x50>
80000848:	00842583          	lw	a1,8(s0) # 1008 <_entry_offset+0x1008>
8000084c:	00002517          	auipc	a0,0x2
80000850:	62450513          	addi	a0,a0,1572 # 80002e70 <_etext+0x2c4>
80000854:	25c020ef          	jal	80002ab0 <printf>
80000858:	00011797          	auipc	a5,0x11
8000085c:	3bc7a783          	lw	a5,956(a5) # 80011c14 <first_trap>
80000860:	00078a63          	beqz	a5,80000874 <vm_handler+0x90>
80000864:	00011797          	auipc	a5,0x11
80000868:	3a07a823          	sw	zero,944(a5) # 80011c14 <first_trap>
8000086c:	00095417          	auipc	s0,0x95
80000870:	5e042403          	lw	s0,1504(s0) # 80095e4c <uctx>
80000874:	01c12083          	lw	ra,28(sp)
80000878:	00040513          	mv	a0,s0
8000087c:	01812403          	lw	s0,24(sp)
80000880:	02010113          	addi	sp,sp,32
80000884:	00008067          	ret
80000888:	ffb78793          	addi	a5,a5,-5
8000088c:	00100713          	li	a4,1
80000890:	06f76e63          	bltu	a4,a5,8000090c <vm_handler+0x128>
80000894:	00c52583          	lw	a1,12(a0)
80000898:	00002517          	auipc	a0,0x2
8000089c:	5ac50513          	addi	a0,a0,1452 # 80002e44 <_etext+0x298>
800008a0:	210020ef          	jal	80002ab0 <printf>
800008a4:	00011797          	auipc	a5,0x11
800008a8:	3707a783          	lw	a5,880(a5) # 80011c14 <first_trap>
800008ac:	fc0784e3          	beqz	a5,80000874 <vm_handler+0x90>
800008b0:	fb5ff06f          	j	80000864 <vm_handler+0x80>
800008b4:	00167793          	andi	a5,a2,1
800008b8:	00852583          	lw	a1,8(a0)
800008bc:	00002697          	auipc	a3,0x2
800008c0:	73468693          	addi	a3,a3,1844 # 80002ff0 <_etext+0x444>
800008c4:	00078663          	beqz	a5,800008d0 <vm_handler+0xec>
800008c8:	00002697          	auipc	a3,0x2
800008cc:	56068693          	addi	a3,a3,1376 # 80002e28 <_etext+0x27c>
800008d0:	00267613          	andi	a2,a2,2
800008d4:	00002717          	auipc	a4,0x2
800008d8:	71c70713          	addi	a4,a4,1820 # 80002ff0 <_etext+0x444>
800008dc:	00060663          	beqz	a2,800008e8 <vm_handler+0x104>
800008e0:	00002717          	auipc	a4,0x2
800008e4:	55470713          	addi	a4,a4,1364 # 80002e34 <_etext+0x288>
800008e8:	00002617          	auipc	a2,0x2
800008ec:	70860613          	addi	a2,a2,1800 # 80002ff0 <_etext+0x444>
800008f0:	00002517          	auipc	a0,0x2
800008f4:	57050513          	addi	a0,a0,1392 # 80002e60 <_etext+0x2b4>
800008f8:	1b8020ef          	jal	80002ab0 <printf>
800008fc:	00011797          	auipc	a5,0x11
80000900:	3187a783          	lw	a5,792(a5) # 80011c14 <first_trap>
80000904:	f60788e3          	beqz	a5,80000874 <vm_handler+0x90>
80000908:	f5dff06f          	j	80000864 <vm_handler+0x80>
8000090c:	02800613          	li	a2,40
80000910:	00002597          	auipc	a1,0x2
80000914:	56458593          	addi	a1,a1,1380 # 80002e74 <_etext+0x2c8>
80000918:	00002517          	auipc	a0,0x2
8000091c:	5a050513          	addi	a0,a0,1440 # 80002eb8 <_etext+0x30c>
80000920:	190020ef          	jal	80002ab0 <printf>
80000924:	00100513          	li	a0,1
80000928:	65c000ef          	jal	80000f84 <halt>

8000092c <vm_test>:
8000092c:	fe010113          	addi	sp,sp,-32
80000930:	00300613          	li	a2,3
80000934:	00002597          	auipc	a1,0x2
80000938:	5a058593          	addi	a1,a1,1440 # 80002ed4 <_etext+0x328>
8000093c:	00002517          	auipc	a0,0x2
80000940:	59c50513          	addi	a0,a0,1436 # 80002ed8 <_etext+0x32c>
80000944:	00112e23          	sw	ra,28(sp)
80000948:	0c8010ef          	jal	80001a10 <strncmp>
8000094c:	00050e63          	beqz	a0,80000968 <vm_test+0x3c>
80000950:	00002597          	auipc	a1,0x2
80000954:	59058593          	addi	a1,a1,1424 # 80002ee0 <_etext+0x334>
80000958:	00002517          	auipc	a0,0x2
8000095c:	58050513          	addi	a0,a0,1408 # 80002ed8 <_etext+0x32c>
80000960:	06c010ef          	jal	800019cc <strcmp>
80000964:	10051863          	bnez	a0,80000a74 <vm_test+0x148>
80000968:	00092517          	auipc	a0,0x92
8000096c:	4bc50513          	addi	a0,a0,1212 # 80092e24 <prot>
80000970:	00812c23          	sw	s0,24(sp)
80000974:	00912a23          	sw	s1,20(sp)
80000978:	01212823          	sw	s2,16(sp)
8000097c:	36d000ef          	jal	800014e8 <protect>
80000980:	00092917          	auipc	s2,0x92
80000984:	4a490913          	addi	s2,s2,1188 # 80092e24 <prot>
80000988:	00892603          	lw	a2,8(s2)
8000098c:	00492583          	lw	a1,4(s2)
80000990:	00002517          	auipc	a0,0x2
80000994:	57850513          	addi	a0,a0,1400 # 80002f08 <_etext+0x35c>
80000998:	118020ef          	jal	80002ab0 <printf>
8000099c:	00492783          	lw	a5,4(s2)
800009a0:	00892483          	lw	s1,8(s2)
800009a4:	00095697          	auipc	a3,0x95
800009a8:	4a468693          	addi	a3,a3,1188 # 80095e48 <st>
800009ac:	0006a403          	lw	s0,0(a3)
800009b0:	40f484b3          	sub	s1,s1,a5
800009b4:	0014d493          	srli	s1,s1,0x1
800009b8:	00092703          	lw	a4,0(s2)
800009bc:	00f484b3          	add	s1,s1,a5
800009c0:	00041c63          	bnez	s0,800009d8 <vm_test+0xac>
800009c4:	00011417          	auipc	s0,0x11
800009c8:	25442403          	lw	s0,596(s0) # 80011c18 <heap>
800009cc:	02e477b3          	remu	a5,s0,a4
800009d0:	00078863          	beqz	a5,800009e0 <vm_test+0xb4>
800009d4:	00140413          	addi	s0,s0,1
800009d8:	02e477b3          	remu	a5,s0,a4
800009dc:	fe079ce3          	bnez	a5,800009d4 <vm_test+0xa8>
800009e0:	00870733          	add	a4,a4,s0
800009e4:	00f00613          	li	a2,15
800009e8:	00011597          	auipc	a1,0x11
800009ec:	01c58593          	addi	a1,a1,28 # 80011a04 <code>
800009f0:	00040513          	mv	a0,s0
800009f4:	00e6a023          	sw	a4,0(a3)
800009f8:	054010ef          	jal	80001a4c <memcpy>
800009fc:	00300693          	li	a3,3
80000a00:	00040613          	mv	a2,s0
80000a04:	00048593          	mv	a1,s1
80000a08:	00092517          	auipc	a0,0x92
80000a0c:	41c50513          	addi	a0,a0,1052 # 80092e24 <prot>
80000a10:	331000ef          	jal	80001540 <map>
80000a14:	00040613          	mv	a2,s0
80000a18:	00048593          	mv	a1,s1
80000a1c:	00002517          	auipc	a0,0x2
80000a20:	51050513          	addi	a0,a0,1296 # 80002f2c <_etext+0x380>
80000a24:	08c020ef          	jal	80002ab0 <printf>
80000a28:	00048693          	mv	a3,s1
80000a2c:	00091597          	auipc	a1,0x91
80000a30:	3f858593          	addi	a1,a1,1016 # 80091e24 <stack.0>
80000a34:	00092617          	auipc	a2,0x92
80000a38:	3f060613          	addi	a2,a2,1008 # 80092e24 <prot>
80000a3c:	00092517          	auipc	a0,0x92
80000a40:	3e850513          	addi	a0,a0,1000 # 80092e24 <prot>
80000a44:	301000ef          	jal	80001544 <ucontext>
80000a48:	00050793          	mv	a5,a0
80000a4c:	00100513          	li	a0,1
80000a50:	00095717          	auipc	a4,0x95
80000a54:	3ef72e23          	sw	a5,1020(a4) # 80095e4c <uctx>
80000a58:	105000ef          	jal	8000135c <iset>
80000a5c:	01812403          	lw	s0,24(sp)
80000a60:	01412483          	lw	s1,20(sp)
80000a64:	01012903          	lw	s2,16(sp)
80000a68:	01c12083          	lw	ra,28(sp)
80000a6c:	02010113          	addi	sp,sp,32
80000a70:	0e10006f          	j	80001350 <yield>
80000a74:	01c12083          	lw	ra,28(sp)
80000a78:	00002517          	auipc	a0,0x2
80000a7c:	47050513          	addi	a0,a0,1136 # 80002ee8 <_etext+0x33c>
80000a80:	02010113          	addi	sp,sp,32
80000a84:	02c0206f          	j	80002ab0 <printf>

80000a88 <redraw>:
80000a88:	fb010113          	addi	sp,sp,-80
80000a8c:	00810593          	addi	a1,sp,8
80000a90:	00900513          	li	a0,9
80000a94:	04112623          	sw	ra,76(sp)
80000a98:	03312e23          	sw	s3,60(sp)
80000a9c:	03512a23          	sw	s5,52(sp)
80000aa0:	03712623          	sw	s7,44(sp)
80000aa4:	04812423          	sw	s0,72(sp)
80000aa8:	04912223          	sw	s1,68(sp)
80000aac:	05212023          	sw	s2,64(sp)
80000ab0:	03412c23          	sw	s4,56(sp)
80000ab4:	03612823          	sw	s6,48(sp)
80000ab8:	03812423          	sw	s8,40(sp)
80000abc:	03912223          	sw	s9,36(sp)
80000ac0:	5e0000ef          	jal	800010a0 <ioe_read>
80000ac4:	00c12783          	lw	a5,12(sp)
80000ac8:	00810593          	addi	a1,sp,8
80000acc:	00900513          	li	a0,9
80000ad0:	41f7d993          	srai	s3,a5,0x1f
80000ad4:	01f9f993          	andi	s3,s3,31
80000ad8:	00f989b3          	add	s3,s3,a5
80000adc:	5c4000ef          	jal	800010a0 <ioe_read>
80000ae0:	01012783          	lw	a5,16(sp)
80000ae4:	4059d993          	srai	s3,s3,0x5
80000ae8:	40000713          	li	a4,1024
80000aec:	41f7da93          	srai	s5,a5,0x1f
80000af0:	01fafa93          	andi	s5,s5,31
80000af4:	00fa8ab3          	add	s5,s5,a5
80000af8:	405ada93          	srai	s5,s5,0x5
80000afc:	03598bb3          	mul	s7,s3,s5
80000b00:	0f776063          	bltu	a4,s7,80000be0 <redraw+0x158>
80000b04:	00092a17          	auipc	s4,0x92
80000b08:	330a0a13          	addi	s4,s4,816 # 80092e34 <color_buf>
80000b0c:	002b9413          	slli	s0,s7,0x2
80000b10:	00094b17          	auipc	s6,0x94
80000b14:	3a4b0b13          	addi	s6,s6,932 # 80094eb4 <canvas+0x80>
80000b18:	00095c17          	auipc	s8,0x95
80000b1c:	39cc0c13          	addi	s8,s8,924 # 80095eb4 <pgalloc_usr+0x54>
80000b20:	008a0433          	add	s0,s4,s0
80000b24:	00000c93          	li	s9,0
80000b28:	f80b0493          	addi	s1,s6,-128
80000b2c:	00000913          	li	s2,0
80000b30:	000b8c63          	beqz	s7,80000b48 <redraw+0xc0>
80000b34:	0004a703          	lw	a4,0(s1)
80000b38:	000a0793          	mv	a5,s4
80000b3c:	00e7a023          	sw	a4,0(a5)
80000b40:	00478793          	addi	a5,a5,4
80000b44:	fe879ce3          	bne	a5,s0,80000b3c <redraw+0xb4>
80000b48:	00810593          	addi	a1,sp,8
80000b4c:	00b00513          	li	a0,11
80000b50:	00448493          	addi	s1,s1,4
80000b54:	01212423          	sw	s2,8(sp)
80000b58:	01912623          	sw	s9,12(sp)
80000b5c:	01412823          	sw	s4,16(sp)
80000b60:	01312a23          	sw	s3,20(sp)
80000b64:	01512c23          	sw	s5,24(sp)
80000b68:	00010e23          	sb	zero,28(sp)
80000b6c:	01390933          	add	s2,s2,s3
80000b70:	54c000ef          	jal	800010bc <ioe_write>
80000b74:	fb649ee3          	bne	s1,s6,80000b30 <redraw+0xa8>
80000b78:	08048b13          	addi	s6,s1,128
80000b7c:	015c8cb3          	add	s9,s9,s5
80000b80:	fb8b14e3          	bne	s6,s8,80000b28 <redraw+0xa0>
80000b84:	00810593          	addi	a1,sp,8
80000b88:	00100793          	li	a5,1
80000b8c:	00b00513          	li	a0,11
80000b90:	00012423          	sw	zero,8(sp)
80000b94:	00012623          	sw	zero,12(sp)
80000b98:	00012823          	sw	zero,16(sp)
80000b9c:	00012a23          	sw	zero,20(sp)
80000ba0:	00012c23          	sw	zero,24(sp)
80000ba4:	00f10e23          	sb	a5,28(sp)
80000ba8:	514000ef          	jal	800010bc <ioe_write>
80000bac:	04c12083          	lw	ra,76(sp)
80000bb0:	04812403          	lw	s0,72(sp)
80000bb4:	04412483          	lw	s1,68(sp)
80000bb8:	04012903          	lw	s2,64(sp)
80000bbc:	03c12983          	lw	s3,60(sp)
80000bc0:	03812a03          	lw	s4,56(sp)
80000bc4:	03412a83          	lw	s5,52(sp)
80000bc8:	03012b03          	lw	s6,48(sp)
80000bcc:	02c12b83          	lw	s7,44(sp)
80000bd0:	02812c03          	lw	s8,40(sp)
80000bd4:	02412c83          	lw	s9,36(sp)
80000bd8:	05010113          	addi	sp,sp,80
80000bdc:	00008067          	ret
80000be0:	01600613          	li	a2,22
80000be4:	00002597          	auipc	a1,0x2
80000be8:	37458593          	addi	a1,a1,884 # 80002f58 <_etext+0x3ac>
80000bec:	00002517          	auipc	a0,0x2
80000bf0:	2cc50513          	addi	a0,a0,716 # 80002eb8 <_etext+0x30c>
80000bf4:	6bd010ef          	jal	80002ab0 <printf>
80000bf8:	00100513          	li	a0,1
80000bfc:	388000ef          	jal	80000f84 <halt>

80000c00 <update>:
80000c00:	00095797          	auipc	a5,0x95
80000c04:	25078793          	addi	a5,a5,592 # 80095e50 <tsc.2>
80000c08:	0007a383          	lw	t2,0(a5)
80000c0c:	fe010113          	addi	sp,sp,-32
80000c10:	00812e23          	sw	s0,28(sp)
80000c14:	00912c23          	sw	s1,24(sp)
80000c18:	01212a23          	sw	s2,20(sp)
80000c1c:	01312823          	sw	s3,16(sp)
80000c20:	01412623          	sw	s4,12(sp)
80000c24:	00138393          	addi	t2,t2,1
80000c28:	00093717          	auipc	a4,0x93
80000c2c:	28c70713          	addi	a4,a4,652 # 80093eb4 <used+0x80>
80000c30:	00094697          	auipc	a3,0x94
80000c34:	28468693          	addi	a3,a3,644 # 80094eb4 <canvas+0x80>
80000c38:	0077a023          	sw	t2,0(a5)
80000c3c:	f8070793          	addi	a5,a4,-128
80000c40:	0007a023          	sw	zero,0(a5)
80000c44:	00478793          	addi	a5,a5,4
80000c48:	fef71ce3          	bne	a4,a5,80000c40 <update+0x40>
80000c4c:	08070713          	addi	a4,a4,128
80000c50:	fee696e3          	bne	a3,a4,80000c3c <update+0x3c>
80000c54:	0ff3f693          	zext.b	a3,t2
80000c58:	00169793          	slli	a5,a3,0x1
80000c5c:	00f687b3          	add	a5,a3,a5
80000c60:	00369713          	slli	a4,a3,0x3
80000c64:	40d70733          	sub	a4,a4,a3
80000c68:	00179793          	slli	a5,a5,0x1
80000c6c:	0ff7f793          	zext.b	a5,a5
80000c70:	0ff77713          	zext.b	a4,a4
80000c74:	00871713          	slli	a4,a4,0x8
80000c78:	01079793          	slli	a5,a5,0x10
80000c7c:	00e7e7b3          	or	a5,a5,a4
80000c80:	0ff3f713          	zext.b	a4,t2
80000c84:	00e7e7b3          	or	a5,a5,a4
80000c88:	00094417          	auipc	s0,0x94
80000c8c:	1ac40413          	addi	s0,s0,428 # 80094e34 <canvas>
80000c90:	00093e97          	auipc	t4,0x93
80000c94:	1a4e8e93          	addi	t4,t4,420 # 80093e34 <used>
80000c98:	00f42023          	sw	a5,0(s0)
80000c9c:	00100793          	li	a5,1
80000ca0:	00fea023          	sw	a5,0(t4)
80000ca4:	00100693          	li	a3,1
80000ca8:	00000713          	li	a4,0
80000cac:	00100f93          	li	t6,1
80000cb0:	00000813          	li	a6,0
80000cb4:	00000913          	li	s2,0
80000cb8:	00000e13          	li	t3,0
80000cbc:	01f00f13          	li	t5,31
80000cc0:	00003317          	auipc	t1,0x3
80000cc4:	ac430313          	addi	t1,t1,-1340 # 80003784 <dx.1>
80000cc8:	00003897          	auipc	a7,0x3
80000ccc:	aac88893          	addi	a7,a7,-1364 # 80003774 <dy.0>
80000cd0:	00100493          	li	s1,1
80000cd4:	40000293          	li	t0,1024
80000cd8:	00400513          	li	a0,4
80000cdc:	00180793          	addi	a5,a6,1
80000ce0:	00ee05b3          	add	a1,t3,a4
80000ce4:	41f7d613          	srai	a2,a5,0x1f
80000ce8:	00d906b3          	add	a3,s2,a3
80000cec:	00559713          	slli	a4,a1,0x5
80000cf0:	01e65613          	srli	a2,a2,0x1e
80000cf4:	00d70733          	add	a4,a4,a3
80000cf8:	00271713          	slli	a4,a4,0x2
80000cfc:	00c787b3          	add	a5,a5,a2
80000d00:	00d5e9b3          	or	s3,a1,a3
80000d04:	00ee8a33          	add	s4,t4,a4
80000d08:	0037f793          	andi	a5,a5,3
80000d0c:	fff50513          	addi	a0,a0,-1
80000d10:	013f6663          	bltu	t5,s3,80000d1c <update+0x11c>
80000d14:	000a2983          	lw	s3,0(s4)
80000d18:	02098263          	beqz	s3,80000d3c <update+0x13c>
80000d1c:	40c78833          	sub	a6,a5,a2
80000d20:	00281793          	slli	a5,a6,0x2
80000d24:	00f30733          	add	a4,t1,a5
80000d28:	00f887b3          	add	a5,a7,a5
80000d2c:	06050063          	beqz	a0,80000d8c <update+0x18c>
80000d30:	00072703          	lw	a4,0(a4)
80000d34:	0007a683          	lw	a3,0(a5)
80000d38:	fa5ff06f          	j	80000cdc <update+0xdc>
80000d3c:	401fd513          	srai	a0,t6,0x1
80000d40:	00750533          	add	a0,a0,t2
80000d44:	0ff57e13          	zext.b	t3,a0
80000d48:	001e1613          	slli	a2,t3,0x1
80000d4c:	00ce0633          	add	a2,t3,a2
80000d50:	003e1793          	slli	a5,t3,0x3
80000d54:	41c787b3          	sub	a5,a5,t3
80000d58:	00161613          	slli	a2,a2,0x1
80000d5c:	0ff67613          	zext.b	a2,a2
80000d60:	0ff7f793          	zext.b	a5,a5
80000d64:	00879793          	slli	a5,a5,0x8
80000d68:	01061613          	slli	a2,a2,0x10
80000d6c:	00f66633          	or	a2,a2,a5
80000d70:	0ff57513          	zext.b	a0,a0
80000d74:	00e407b3          	add	a5,s0,a4
80000d78:	00a66733          	or	a4,a2,a0
80000d7c:	009a2023          	sw	s1,0(s4)
80000d80:	00e7a023          	sw	a4,0(a5)
80000d84:	00068913          	mv	s2,a3
80000d88:	00058e13          	mv	t3,a1
80000d8c:	001f8f93          	addi	t6,t6,1
80000d90:	005f8e63          	beq	t6,t0,80000dac <update+0x1ac>
80000d94:	00281793          	slli	a5,a6,0x2
80000d98:	00f30733          	add	a4,t1,a5
80000d9c:	00f887b3          	add	a5,a7,a5
80000da0:	00072703          	lw	a4,0(a4)
80000da4:	0007a683          	lw	a3,0(a5)
80000da8:	f31ff06f          	j	80000cd8 <update+0xd8>
80000dac:	01c12403          	lw	s0,28(sp)
80000db0:	01812483          	lw	s1,24(sp)
80000db4:	01412903          	lw	s2,20(sp)
80000db8:	01012983          	lw	s3,16(sp)
80000dbc:	00c12a03          	lw	s4,12(sp)
80000dc0:	02010113          	addi	sp,sp,32
80000dc4:	00008067          	ret

80000dc8 <video_test>:
80000dc8:	fd010113          	addi	sp,sp,-48
80000dcc:	02912223          	sw	s1,36(sp)
80000dd0:	03212023          	sw	s2,32(sp)
80000dd4:	01312e23          	sw	s3,28(sp)
80000dd8:	01412c23          	sw	s4,24(sp)
80000ddc:	01512a23          	sw	s5,20(sp)
80000de0:	01612823          	sw	s6,16(sp)
80000de4:	02112623          	sw	ra,44(sp)
80000de8:	02812423          	sw	s0,40(sp)
80000dec:	00000993          	li	s3,0
80000df0:	00000913          	li	s2,0
80000df4:	00000493          	li	s1,0
80000df8:	02100a93          	li	s5,33
80000dfc:	3e800a13          	li	s4,1000
80000e00:	00002b17          	auipc	s6,0x2
80000e04:	1a0b0b13          	addi	s6,s6,416 # 80002fa0 <_etext+0x3f4>
80000e08:	00810593          	addi	a1,sp,8
80000e0c:	00600513          	li	a0,6
80000e10:	290000ef          	jal	800010a0 <ioe_read>
80000e14:	00812503          	lw	a0,8(sp)
80000e18:	00c12583          	lw	a1,12(sp)
80000e1c:	3e800613          	li	a2,1000
80000e20:	00000693          	li	a3,0
80000e24:	299000ef          	jal	800018bc <__udivdi3>
80000e28:	409507b3          	sub	a5,a0,s1
80000e2c:	00050413          	mv	s0,a0
80000e30:	02fae463          	bltu	s5,a5,80000e58 <video_test+0x90>
80000e34:	412407b3          	sub	a5,s0,s2
80000e38:	fcfa78e3          	bgeu	s4,a5,80000e08 <video_test+0x40>
80000e3c:	00098613          	mv	a2,s3
80000e40:	00040593          	mv	a1,s0
80000e44:	000b0513          	mv	a0,s6
80000e48:	469010ef          	jal	80002ab0 <printf>
80000e4c:	00040913          	mv	s2,s0
80000e50:	00000993          	li	s3,0
80000e54:	fb5ff06f          	j	80000e08 <video_test+0x40>
80000e58:	da9ff0ef          	jal	80000c00 <update>
80000e5c:	00198993          	addi	s3,s3,1
80000e60:	c29ff0ef          	jal	80000a88 <redraw>
80000e64:	00040493          	mv	s1,s0
80000e68:	fcdff06f          	j	80000e34 <video_test+0x6c>

80000e6c <keyboard_test>:
80000e6c:	fc010113          	addi	sp,sp,-64
80000e70:	00002517          	auipc	a0,0x2
80000e74:	14050513          	addi	a0,a0,320 # 80002fb0 <_etext+0x404>
80000e78:	02112e23          	sw	ra,60(sp)
80000e7c:	02812c23          	sw	s0,56(sp)
80000e80:	02912a23          	sw	s1,52(sp)
80000e84:	03212823          	sw	s2,48(sp)
80000e88:	03312623          	sw	s3,44(sp)
80000e8c:	03412423          	sw	s4,40(sp)
80000e90:	03512223          	sw	s5,36(sp)
80000e94:	03612023          	sw	s6,32(sp)
80000e98:	01712e23          	sw	s7,28(sp)
80000e9c:	415010ef          	jal	80002ab0 <printf>
80000ea0:	00810593          	addi	a1,sp,8
80000ea4:	00100513          	li	a0,1
80000ea8:	1f8000ef          	jal	800010a0 <ioe_read>
80000eac:	00814783          	lbu	a5,8(sp)
80000eb0:	00095b97          	auipc	s7,0x95
80000eb4:	fa5b8b93          	addi	s7,s7,-91 # 80095e55 <has_uart>
80000eb8:	00810593          	addi	a1,sp,8
80000ebc:	00700513          	li	a0,7
80000ec0:	00fb8023          	sb	a5,0(s7)
80000ec4:	1dc000ef          	jal	800010a0 <ioe_read>
80000ec8:	00814783          	lbu	a5,8(sp)
80000ecc:	00095b17          	auipc	s6,0x95
80000ed0:	f88b0b13          	addi	s6,s6,-120 # 80095e54 <has_kbd>
80000ed4:	00003997          	auipc	s3,0x3
80000ed8:	8c098993          	addi	s3,s3,-1856 # 80003794 <names>
80000edc:	00fb0023          	sb	a5,0(s6)
80000ee0:	0ff00913          	li	s2,255
80000ee4:	00002497          	auipc	s1,0x2
80000ee8:	0f848493          	addi	s1,s1,248 # 80002fdc <_etext+0x430>
80000eec:	00002a17          	auipc	s4,0x2
80000ef0:	2c4a0a13          	addi	s4,s4,708 # 800031b0 <_etext+0x604>
80000ef4:	00002a97          	auipc	s5,0x2
80000ef8:	2c4a8a93          	addi	s5,s5,708 # 800031b8 <_etext+0x60c>
80000efc:	00002417          	auipc	s0,0x2
80000f00:	0f840413          	addi	s0,s0,248 # 80002ff4 <_etext+0x448>
80000f04:	000bc783          	lbu	a5,0(s7)
80000f08:	00079a63          	bnez	a5,80000f1c <keyboard_test+0xb0>
80000f0c:	000b4783          	lbu	a5,0(s6)
80000f10:	fe078ae3          	beqz	a5,80000f04 <keyboard_test+0x98>
80000f14:	03c0006f          	j	80000f50 <keyboard_test+0xe4>
80000f18:	399010ef          	jal	80002ab0 <printf>
80000f1c:	00810593          	addi	a1,sp,8
80000f20:	00300513          	li	a0,3
80000f24:	17c000ef          	jal	800010a0 <ioe_read>
80000f28:	00814603          	lbu	a2,8(sp)
80000f2c:	00048513          	mv	a0,s1
80000f30:	00060593          	mv	a1,a2
80000f34:	ff2612e3          	bne	a2,s2,80000f18 <keyboard_test+0xac>
80000f38:	fd5ff06f          	j	80000f0c <keyboard_test+0xa0>
80000f3c:	0007a583          	lw	a1,0(a5)
80000f40:	000a0693          	mv	a3,s4
80000f44:	00070463          	beqz	a4,80000f4c <keyboard_test+0xe0>
80000f48:	000a8693          	mv	a3,s5
80000f4c:	365010ef          	jal	80002ab0 <printf>
80000f50:	00800513          	li	a0,8
80000f54:	00810593          	addi	a1,sp,8
80000f58:	148000ef          	jal	800010a0 <ioe_read>
80000f5c:	00c12603          	lw	a2,12(sp)
80000f60:	00814703          	lbu	a4,8(sp)
80000f64:	00040513          	mv	a0,s0
80000f68:	00261793          	slli	a5,a2,0x2
80000f6c:	00f987b3          	add	a5,s3,a5
80000f70:	fc0616e3          	bnez	a2,80000f3c <keyboard_test+0xd0>
80000f74:	f91ff06f          	j	80000f04 <keyboard_test+0x98>

80000f78 <putch>:
80000f78:	a00007b7          	lui	a5,0xa0000
80000f7c:	3ea78c23          	sb	a0,1016(a5) # a00003f8 <_end+0x1ff623f8>
80000f80:	00008067          	ret

80000f84 <halt>:
80000f84:	00050513          	mv	a0,a0
80000f88:	00100073          	ebreak
80000f8c:	0000006f          	j	80000f8c <halt+0x8>

80000f90 <_trm_init>:
80000f90:	ff010113          	addi	sp,sp,-16
80000f94:	00003517          	auipc	a0,0x3
80000f98:	94c50513          	addi	a0,a0,-1716 # 800038e0 <mainargs>
80000f9c:	00112623          	sw	ra,12(sp)
80000fa0:	870ff0ef          	jal	80000010 <main>
80000fa4:	00050513          	mv	a0,a0
80000fa8:	00100073          	ebreak
80000fac:	0000006f          	j	80000fac <_trm_init+0x1c>

80000fb0 <__am_timer_config>:
80000fb0:	00100793          	li	a5,1
80000fb4:	00f50023          	sb	a5,0(a0)
80000fb8:	00f500a3          	sb	a5,1(a0)
80000fbc:	00008067          	ret

80000fc0 <__am_input_config>:
80000fc0:	00100793          	li	a5,1
80000fc4:	00f50023          	sb	a5,0(a0)
80000fc8:	00008067          	ret

80000fcc <__am_uart_config>:
80000fcc:	00050023          	sb	zero,0(a0)
80000fd0:	00008067          	ret

80000fd4 <__am_net_config>:
80000fd4:	00050023          	sb	zero,0(a0)
80000fd8:	00008067          	ret

80000fdc <fail>:
80000fdc:	ff010113          	addi	sp,sp,-16
80000fe0:	00812423          	sw	s0,8(sp)
80000fe4:	00112623          	sw	ra,12(sp)
80000fe8:	00002417          	auipc	s0,0x2
80000fec:	1d840413          	addi	s0,s0,472 # 800031c0 <_etext+0x614>
80000ff0:	04100513          	li	a0,65
80000ff4:	f85ff0ef          	jal	80000f78 <putch>
80000ff8:	00144503          	lbu	a0,1(s0)
80000ffc:	00140413          	addi	s0,s0,1
80001000:	fe051ae3          	bnez	a0,80000ff4 <fail+0x18>
80001004:	00002417          	auipc	s0,0x2
80001008:	1c840413          	addi	s0,s0,456 # 800031cc <_etext+0x620>
8000100c:	06100513          	li	a0,97
80001010:	f69ff0ef          	jal	80000f78 <putch>
80001014:	00144503          	lbu	a0,1(s0)
80001018:	00140413          	addi	s0,s0,1
8000101c:	fe051ae3          	bnez	a0,80001010 <fail+0x34>
80001020:	00002417          	auipc	s0,0x2
80001024:	1c840413          	addi	s0,s0,456 # 800031e8 <_etext+0x63c>
80001028:	02000513          	li	a0,32
8000102c:	f4dff0ef          	jal	80000f78 <putch>
80001030:	00144503          	lbu	a0,1(s0)
80001034:	00140413          	addi	s0,s0,1
80001038:	fe051ae3          	bnez	a0,8000102c <fail+0x50>
8000103c:	00100513          	li	a0,1
80001040:	f45ff0ef          	jal	80000f84 <halt>

80001044 <ioe_init>:
80001044:	ff010113          	addi	sp,sp,-16
80001048:	00112623          	sw	ra,12(sp)
8000104c:	00011797          	auipc	a5,0x11
80001050:	9c878793          	addi	a5,a5,-1592 # 80011a14 <lut>
80001054:	00011697          	auipc	a3,0x11
80001058:	bc068693          	addi	a3,a3,-1088 # 80011c14 <first_trap>
8000105c:	00000617          	auipc	a2,0x0
80001060:	f8060613          	addi	a2,a2,-128 # 80000fdc <fail>
80001064:	00c0006f          	j	80001070 <ioe_init+0x2c>
80001068:	00478793          	addi	a5,a5,4
8000106c:	00d78c63          	beq	a5,a3,80001084 <ioe_init+0x40>
80001070:	0007a703          	lw	a4,0(a5)
80001074:	fe071ae3          	bnez	a4,80001068 <ioe_init+0x24>
80001078:	00c7a023          	sw	a2,0(a5)
8000107c:	00478793          	addi	a5,a5,4
80001080:	fed798e3          	bne	a5,a3,80001070 <ioe_init+0x2c>
80001084:	0c0000ef          	jal	80001144 <__am_gpu_init>
80001088:	050000ef          	jal	800010d8 <__am_timer_init>
8000108c:	19c000ef          	jal	80001228 <__am_audio_init>
80001090:	00c12083          	lw	ra,12(sp)
80001094:	00100513          	li	a0,1
80001098:	01010113          	addi	sp,sp,16
8000109c:	00008067          	ret

800010a0 <ioe_read>:
800010a0:	00251513          	slli	a0,a0,0x2
800010a4:	00011797          	auipc	a5,0x11
800010a8:	97078793          	addi	a5,a5,-1680 # 80011a14 <lut>
800010ac:	00a787b3          	add	a5,a5,a0
800010b0:	0007a783          	lw	a5,0(a5)
800010b4:	00058513          	mv	a0,a1
800010b8:	00078067          	jr	a5

800010bc <ioe_write>:
800010bc:	00251513          	slli	a0,a0,0x2
800010c0:	00011797          	auipc	a5,0x11
800010c4:	95478793          	addi	a5,a5,-1708 # 80011a14 <lut>
800010c8:	00a787b3          	add	a5,a5,a0
800010cc:	0007a783          	lw	a5,0(a5)
800010d0:	00058513          	mv	a0,a1
800010d4:	00078067          	jr	a5

800010d8 <__am_timer_init>:
800010d8:	00008067          	ret

800010dc <__am_timer_uptime>:
800010dc:	a0000737          	lui	a4,0xa0000
800010e0:	a00007b7          	lui	a5,0xa0000
800010e4:	04870713          	addi	a4,a4,72 # a0000048 <_end+0x1ff62048>
800010e8:	04c7a683          	lw	a3,76(a5) # a000004c <_end+0x1ff6204c>
800010ec:	00072703          	lw	a4,0(a4)
800010f0:	00d52223          	sw	a3,4(a0)
800010f4:	00e52023          	sw	a4,0(a0)
800010f8:	00008067          	ret

800010fc <__am_timer_rtc>:
800010fc:	76c00793          	li	a5,1900
80001100:	00052a23          	sw	zero,20(a0)
80001104:	00052823          	sw	zero,16(a0)
80001108:	00052623          	sw	zero,12(a0)
8000110c:	00052423          	sw	zero,8(a0)
80001110:	00052223          	sw	zero,4(a0)
80001114:	00f52023          	sw	a5,0(a0)
80001118:	00008067          	ret

8000111c <__am_input_keybrd>:
8000111c:	a00006b7          	lui	a3,0xa0000
80001120:	0606a783          	lw	a5,96(a3) # a0000060 <_end+0x1ff62060>
80001124:	ffff8637          	lui	a2,0xffff8
80001128:	fff60613          	addi	a2,a2,-1 # ffff7fff <_end+0x7ff59fff>
8000112c:	00f7d713          	srli	a4,a5,0xf
80001130:	00177713          	andi	a4,a4,1
80001134:	00c7f7b3          	and	a5,a5,a2
80001138:	00e50023          	sb	a4,0(a0)
8000113c:	00f52223          	sw	a5,4(a0)
80001140:	00008067          	ret

80001144 <__am_gpu_init>:
80001144:	00008067          	ret

80001148 <__am_gpu_config>:
80001148:	a00006b7          	lui	a3,0xa0000
8000114c:	1006a783          	lw	a5,256(a3) # a0000100 <_end+0x1ff62100>
80001150:	00100693          	li	a3,1
80001154:	00d51023          	sh	a3,0(a0)
80001158:	0107d613          	srli	a2,a5,0x10
8000115c:	01079793          	slli	a5,a5,0x10
80001160:	0107d793          	srli	a5,a5,0x10
80001164:	02f60733          	mul	a4,a2,a5
80001168:	00f52423          	sw	a5,8(a0)
8000116c:	00c52223          	sw	a2,4(a0)
80001170:	00271793          	slli	a5,a4,0x2
80001174:	00f52623          	sw	a5,12(a0)
80001178:	00008067          	ret

8000117c <__am_gpu_fbdraw>:
8000117c:	00c52783          	lw	a5,12(a0)
80001180:	08f05263          	blez	a5,80001204 <__am_gpu_fbdraw+0x88>
80001184:	01052f03          	lw	t5,16(a0)
80001188:	07e05e63          	blez	t5,80001204 <__am_gpu_fbdraw+0x88>
8000118c:	a00006b7          	lui	a3,0xa0000
80001190:	1006a703          	lw	a4,256(a3) # a0000100 <_end+0x1ff62100>
80001194:	00452603          	lw	a2,4(a0)
80001198:	00052e03          	lw	t3,0(a0)
8000119c:	01075713          	srli	a4,a4,0x10
800011a0:	02c70633          	mul	a2,a4,a2
800011a4:	00852303          	lw	t1,8(a0)
800011a8:	40f70733          	sub	a4,a4,a5
800011ac:	00279f93          	slli	t6,a5,0x2
800011b0:	40f007b3          	neg	a5,a5
800011b4:	00271e93          	slli	t4,a4,0x2
800011b8:	01f305b3          	add	a1,t1,t6
800011bc:	00000893          	li	a7,0
800011c0:	a1000837          	lui	a6,0xa1000
800011c4:	01c60633          	add	a2,a2,t3
800011c8:	00261613          	slli	a2,a2,0x2
800011cc:	40660633          	sub	a2,a2,t1
800011d0:	00379e13          	slli	t3,a5,0x3
800011d4:	41f58333          	sub	t1,a1,t6
800011d8:	00030793          	mv	a5,t1
800011dc:	0007a683          	lw	a3,0(a5)
800011e0:	00c78733          	add	a4,a5,a2
800011e4:	00e80733          	add	a4,a6,a4
800011e8:	00d72023          	sw	a3,0(a4)
800011ec:	00478793          	addi	a5,a5,4
800011f0:	feb796e3          	bne	a5,a1,800011dc <__am_gpu_fbdraw+0x60>
800011f4:	00188893          	addi	a7,a7,1
800011f8:	01d60633          	add	a2,a2,t4
800011fc:	41c305b3          	sub	a1,t1,t3
80001200:	fd1f1ae3          	bne	t5,a7,800011d4 <__am_gpu_fbdraw+0x58>
80001204:	01454783          	lbu	a5,20(a0)
80001208:	00078863          	beqz	a5,80001218 <__am_gpu_fbdraw+0x9c>
8000120c:	a00007b7          	lui	a5,0xa0000
80001210:	00100713          	li	a4,1
80001214:	10e7a223          	sw	a4,260(a5) # a0000104 <_end+0x1ff62104>
80001218:	00008067          	ret

8000121c <__am_gpu_status>:
8000121c:	00100793          	li	a5,1
80001220:	00f50023          	sb	a5,0(a0)
80001224:	00008067          	ret

80001228 <__am_audio_init>:
80001228:	00008067          	ret

8000122c <__am_audio_config>:
8000122c:	00050023          	sb	zero,0(a0)
80001230:	00008067          	ret

80001234 <__am_audio_ctrl>:
80001234:	00008067          	ret

80001238 <__am_audio_status>:
80001238:	00052023          	sw	zero,0(a0)
8000123c:	00008067          	ret

80001240 <__am_audio_play>:
80001240:	00008067          	ret

80001244 <__am_disk_config>:
80001244:	00050023          	sb	zero,0(a0)
80001248:	00008067          	ret

8000124c <__am_disk_status>:
8000124c:	00008067          	ret

80001250 <__am_disk_blkio>:
80001250:	00008067          	ret

80001254 <mpe_init>:
80001254:	ff010113          	addi	sp,sp,-16
80001258:	00812423          	sw	s0,8(sp)
8000125c:	00112623          	sw	ra,12(sp)
80001260:	000500e7          	jalr	a0
80001264:	00002417          	auipc	s0,0x2
80001268:	f5c40413          	addi	s0,s0,-164 # 800031c0 <_etext+0x614>
8000126c:	04100513          	li	a0,65
80001270:	d09ff0ef          	jal	80000f78 <putch>
80001274:	00144503          	lbu	a0,1(s0)
80001278:	00140413          	addi	s0,s0,1
8000127c:	fe051ae3          	bnez	a0,80001270 <mpe_init+0x1c>
80001280:	00002417          	auipc	s0,0x2
80001284:	fbc40413          	addi	s0,s0,-68 # 8000323c <_etext+0x690>
80001288:	04d00513          	li	a0,77
8000128c:	cedff0ef          	jal	80000f78 <putch>
80001290:	00144503          	lbu	a0,1(s0)
80001294:	00140413          	addi	s0,s0,1
80001298:	fe051ae3          	bnez	a0,8000128c <mpe_init+0x38>
8000129c:	00002417          	auipc	s0,0x2
800012a0:	fb440413          	addi	s0,s0,-76 # 80003250 <_etext+0x6a4>
800012a4:	02000513          	li	a0,32
800012a8:	cd1ff0ef          	jal	80000f78 <putch>
800012ac:	00144503          	lbu	a0,1(s0)
800012b0:	00140413          	addi	s0,s0,1
800012b4:	fe051ae3          	bnez	a0,800012a8 <mpe_init+0x54>
800012b8:	00100513          	li	a0,1
800012bc:	cc9ff0ef          	jal	80000f84 <halt>

800012c0 <cpu_current>:
800012c0:	00000513          	li	a0,0
800012c4:	00008067          	ret

800012c8 <__am_irq_handle>:
800012c8:	00095797          	auipc	a5,0x95
800012cc:	b907a783          	lw	a5,-1136(a5) # 80095e58 <user_handler>
800012d0:	00050593          	mv	a1,a0
800012d4:	02078c63          	beqz	a5,8000130c <__am_irq_handle+0x44>
800012d8:	fd010113          	addi	sp,sp,-48
800012dc:	00400713          	li	a4,4
800012e0:	02112623          	sw	ra,44(sp)
800012e4:	00e12023          	sw	a4,0(sp)
800012e8:	00012223          	sw	zero,4(sp)
800012ec:	00012423          	sw	zero,8(sp)
800012f0:	00012623          	sw	zero,12(sp)
800012f4:	00010513          	mv	a0,sp
800012f8:	000780e7          	jalr	a5
800012fc:	00050a63          	beqz	a0,80001310 <__am_irq_handle+0x48>
80001300:	02c12083          	lw	ra,44(sp)
80001304:	03010113          	addi	sp,sp,48
80001308:	00008067          	ret
8000130c:	00008067          	ret
80001310:	00f00613          	li	a2,15
80001314:	00002597          	auipc	a1,0x2
80001318:	f8c58593          	addi	a1,a1,-116 # 800032a0 <_etext+0x6f4>
8000131c:	00002517          	auipc	a0,0x2
80001320:	b9c50513          	addi	a0,a0,-1124 # 80002eb8 <_etext+0x30c>
80001324:	78c010ef          	jal	80002ab0 <printf>
80001328:	00100513          	li	a0,1
8000132c:	c59ff0ef          	jal	80000f84 <halt>

80001330 <cte_init>:
80001330:	00050793          	mv	a5,a0
80001334:	00000717          	auipc	a4,0x0
80001338:	02c70713          	addi	a4,a4,44 # 80001360 <__am_asm_trap>
8000133c:	30571073          	csrw	mtvec,a4
80001340:	00100513          	li	a0,1
80001344:	00095717          	auipc	a4,0x95
80001348:	b0f72a23          	sw	a5,-1260(a4) # 80095e58 <user_handler>
8000134c:	00008067          	ret

80001350 <yield>:
80001350:	fff00893          	li	a7,-1
80001354:	00000073          	ecall
80001358:	00008067          	ret

8000135c <iset>:
8000135c:	00008067          	ret

80001360 <__am_asm_trap>:
80001360:	f7410113          	addi	sp,sp,-140
80001364:	00112223          	sw	ra,4(sp)
80001368:	00312623          	sw	gp,12(sp)
8000136c:	00412823          	sw	tp,16(sp)
80001370:	00512a23          	sw	t0,20(sp)
80001374:	00612c23          	sw	t1,24(sp)
80001378:	00712e23          	sw	t2,28(sp)
8000137c:	02812023          	sw	s0,32(sp)
80001380:	02912223          	sw	s1,36(sp)
80001384:	02a12423          	sw	a0,40(sp)
80001388:	02b12623          	sw	a1,44(sp)
8000138c:	02c12823          	sw	a2,48(sp)
80001390:	02d12a23          	sw	a3,52(sp)
80001394:	02e12c23          	sw	a4,56(sp)
80001398:	02f12e23          	sw	a5,60(sp)
8000139c:	05012023          	sw	a6,64(sp)
800013a0:	05112223          	sw	a7,68(sp)
800013a4:	05212423          	sw	s2,72(sp)
800013a8:	05312623          	sw	s3,76(sp)
800013ac:	05412823          	sw	s4,80(sp)
800013b0:	05512a23          	sw	s5,84(sp)
800013b4:	05612c23          	sw	s6,88(sp)
800013b8:	05712e23          	sw	s7,92(sp)
800013bc:	07812023          	sw	s8,96(sp)
800013c0:	07912223          	sw	s9,100(sp)
800013c4:	07a12423          	sw	s10,104(sp)
800013c8:	07b12623          	sw	s11,108(sp)
800013cc:	07c12823          	sw	t3,112(sp)
800013d0:	07d12a23          	sw	t4,116(sp)
800013d4:	07e12c23          	sw	t5,120(sp)
800013d8:	07f12e23          	sw	t6,124(sp)
800013dc:	342022f3          	csrr	t0,mcause
800013e0:	30002373          	csrr	t1,mstatus
800013e4:	341023f3          	csrr	t2,mepc
800013e8:	08512023          	sw	t0,128(sp)
800013ec:	08612223          	sw	t1,132(sp)
800013f0:	08712423          	sw	t2,136(sp)
800013f4:	00020537          	lui	a0,0x20
800013f8:	00a36333          	or	t1,t1,a0
800013fc:	30031073          	csrw	mstatus,t1
80001400:	00010513          	mv	a0,sp
80001404:	ec5ff0ef          	jal	800012c8 <__am_irq_handle>
80001408:	08412303          	lw	t1,132(sp)
8000140c:	08812383          	lw	t2,136(sp)
80001410:	30031073          	csrw	mstatus,t1
80001414:	34139073          	csrw	mepc,t2
80001418:	00412083          	lw	ra,4(sp)
8000141c:	00c12183          	lw	gp,12(sp)
80001420:	01012203          	lw	tp,16(sp)
80001424:	01412283          	lw	t0,20(sp)
80001428:	01812303          	lw	t1,24(sp)
8000142c:	01c12383          	lw	t2,28(sp)
80001430:	02012403          	lw	s0,32(sp)
80001434:	02412483          	lw	s1,36(sp)
80001438:	02812503          	lw	a0,40(sp)
8000143c:	02c12583          	lw	a1,44(sp)
80001440:	03012603          	lw	a2,48(sp)
80001444:	03412683          	lw	a3,52(sp)
80001448:	03812703          	lw	a4,56(sp)
8000144c:	03c12783          	lw	a5,60(sp)
80001450:	04012803          	lw	a6,64(sp)
80001454:	04412883          	lw	a7,68(sp)
80001458:	04812903          	lw	s2,72(sp)
8000145c:	04c12983          	lw	s3,76(sp)
80001460:	05012a03          	lw	s4,80(sp)
80001464:	05412a83          	lw	s5,84(sp)
80001468:	05812b03          	lw	s6,88(sp)
8000146c:	05c12b83          	lw	s7,92(sp)
80001470:	06012c03          	lw	s8,96(sp)
80001474:	06412c83          	lw	s9,100(sp)
80001478:	06812d03          	lw	s10,104(sp)
8000147c:	06c12d83          	lw	s11,108(sp)
80001480:	07012e03          	lw	t3,112(sp)
80001484:	07412e83          	lw	t4,116(sp)
80001488:	07812f03          	lw	t5,120(sp)
8000148c:	07c12f83          	lw	t6,124(sp)
80001490:	08c10113          	addi	sp,sp,140
80001494:	30200073          	mret

80001498 <vme_init>:
80001498:	ff010113          	addi	sp,sp,-16
8000149c:	00112623          	sw	ra,12(sp)
800014a0:	00050793          	mv	a5,a0
800014a4:	00001537          	lui	a0,0x1
800014a8:	00095717          	auipc	a4,0x95
800014ac:	9af72c23          	sw	a5,-1608(a4) # 80095e60 <pgalloc_usr>
800014b0:	000780e7          	jalr	a5
800014b4:	00095717          	auipc	a4,0x95
800014b8:	98a72623          	sw	a0,-1652(a4) # 80095e40 <kas+0xc>
800014bc:	00c55793          	srli	a5,a0,0xc
800014c0:	80000737          	lui	a4,0x80000
800014c4:	00e7e7b3          	or	a5,a5,a4
800014c8:	18079073          	csrw	satp,a5
800014cc:	00c12083          	lw	ra,12(sp)
800014d0:	00100793          	li	a5,1
800014d4:	00095717          	auipc	a4,0x95
800014d8:	98f72423          	sw	a5,-1656(a4) # 80095e5c <vme_enable>
800014dc:	00100513          	li	a0,1
800014e0:	01010113          	addi	sp,sp,16
800014e4:	00008067          	ret

800014e8 <protect>:
800014e8:	ff010113          	addi	sp,sp,-16
800014ec:	00812423          	sw	s0,8(sp)
800014f0:	00112623          	sw	ra,12(sp)
800014f4:	00050413          	mv	s0,a0
800014f8:	00095797          	auipc	a5,0x95
800014fc:	9687a783          	lw	a5,-1688(a5) # 80095e60 <pgalloc_usr>
80001500:	00001537          	lui	a0,0x1
80001504:	000780e7          	jalr	a5
80001508:	400007b7          	lui	a5,0x40000
8000150c:	00f42223          	sw	a5,4(s0)
80001510:	800007b7          	lui	a5,0x80000
80001514:	00f42423          	sw	a5,8(s0)
80001518:	000017b7          	lui	a5,0x1
8000151c:	00a42623          	sw	a0,12(s0)
80001520:	00f42023          	sw	a5,0(s0)
80001524:	00812403          	lw	s0,8(sp)
80001528:	00c12083          	lw	ra,12(sp)
8000152c:	00095597          	auipc	a1,0x95
80001530:	9145a583          	lw	a1,-1772(a1) # 80095e40 <kas+0xc>
80001534:	00001637          	lui	a2,0x1
80001538:	01010113          	addi	sp,sp,16
8000153c:	5100006f          	j	80001a4c <memcpy>

80001540 <map>:
80001540:	00008067          	ret

80001544 <ucontext>:
80001544:	ff010113          	addi	sp,sp,-16
80001548:	00000513          	li	a0,0
8000154c:	01010113          	addi	sp,sp,16
80001550:	00008067          	ret

80001554 <__udivmoddi4>:
80001554:	fd010113          	addi	sp,sp,-48
80001558:	01312e23          	sw	s3,28(sp)
8000155c:	01412c23          	sw	s4,24(sp)
80001560:	01612823          	sw	s6,16(sp)
80001564:	01712623          	sw	s7,12(sp)
80001568:	02112623          	sw	ra,44(sp)
8000156c:	00068b13          	mv	s6,a3
80001570:	00050993          	mv	s3,a0
80001574:	00060a13          	mv	s4,a2
80001578:	00070b93          	mv	s7,a4
8000157c:	02059e63          	bnez	a1,800015b8 <__udivmoddi4+0x64>
80001580:	1a069263          	bnez	a3,80001724 <__udivmoddi4+0x1d0>
80001584:	00070863          	beqz	a4,80001594 <__udivmoddi4+0x40>
80001588:	02c577b3          	remu	a5,a0,a2
8000158c:	00072223          	sw	zero,4(a4)
80001590:	00f72023          	sw	a5,0(a4)
80001594:	0349d533          	divu	a0,s3,s4
80001598:	00000593          	li	a1,0
8000159c:	02c12083          	lw	ra,44(sp)
800015a0:	01c12983          	lw	s3,28(sp)
800015a4:	01812a03          	lw	s4,24(sp)
800015a8:	01012b03          	lw	s6,16(sp)
800015ac:	00c12b83          	lw	s7,12(sp)
800015b0:	03010113          	addi	sp,sp,48
800015b4:	00008067          	ret
800015b8:	02912223          	sw	s1,36(sp)
800015bc:	03212023          	sw	s2,32(sp)
800015c0:	01512a23          	sw	s5,20(sp)
800015c4:	02812423          	sw	s0,40(sp)
800015c8:	00058913          	mv	s2,a1
800015cc:	00058493          	mv	s1,a1
800015d0:	00060a93          	mv	s5,a2
800015d4:	0e061e63          	bnez	a2,800016d0 <__udivmoddi4+0x17c>
800015d8:	1c068063          	beqz	a3,80001798 <__udivmoddi4+0x244>
800015dc:	22050a63          	beqz	a0,80001810 <__udivmoddi4+0x2bc>
800015e0:	fff68793          	addi	a5,a3,-1
800015e4:	00d7f733          	and	a4,a5,a3
800015e8:	28070263          	beqz	a4,8000186c <__udivmoddi4+0x318>
800015ec:	00068513          	mv	a0,a3
800015f0:	2d4000ef          	jal	800018c4 <__clzsi2>
800015f4:	00050413          	mv	s0,a0
800015f8:	00090513          	mv	a0,s2
800015fc:	2c8000ef          	jal	800018c4 <__clzsi2>
80001600:	40a406b3          	sub	a3,s0,a0
80001604:	01e00793          	li	a5,30
80001608:	18d7ea63          	bltu	a5,a3,8000179c <__udivmoddi4+0x248>
8000160c:	00168693          	addi	a3,a3,1
80001610:	02000793          	li	a5,32
80001614:	40d787b3          	sub	a5,a5,a3
80001618:	00f91633          	sll	a2,s2,a5
8000161c:	00d9d733          	srl	a4,s3,a3
80001620:	00d95433          	srl	s0,s2,a3
80001624:	00f99833          	sll	a6,s3,a5
80001628:	00e664b3          	or	s1,a2,a4
8000162c:	00000713          	li	a4,0
80001630:	01f85793          	srli	a5,a6,0x1f
80001634:	00149593          	slli	a1,s1,0x1
80001638:	00f5e5b3          	or	a1,a1,a5
8000163c:	01f4d493          	srli	s1,s1,0x1f
80001640:	00141793          	slli	a5,s0,0x1
80001644:	0097e7b3          	or	a5,a5,s1
80001648:	40ba0333          	sub	t1,s4,a1
8000164c:	006a3633          	sltu	a2,s4,t1
80001650:	40fb08b3          	sub	a7,s6,a5
80001654:	40c888b3          	sub	a7,a7,a2
80001658:	00133313          	seqz	t1,t1
8000165c:	406888b3          	sub	a7,a7,t1
80001660:	41f8d313          	srai	t1,a7,0x1f
80001664:	014374b3          	and	s1,t1,s4
80001668:	409584b3          	sub	s1,a1,s1
8000166c:	01637333          	and	t1,t1,s6
80001670:	01fad613          	srli	a2,s5,0x1f
80001674:	00181813          	slli	a6,a6,0x1
80001678:	001a9a93          	slli	s5,s5,0x1
8000167c:	0095b5b3          	sltu	a1,a1,s1
80001680:	406787b3          	sub	a5,a5,t1
80001684:	fff68693          	addi	a3,a3,-1
80001688:	00eaeab3          	or	s5,s5,a4
8000168c:	00c86833          	or	a6,a6,a2
80001690:	01f8d713          	srli	a4,a7,0x1f
80001694:	40b78433          	sub	s0,a5,a1
80001698:	f8069ce3          	bnez	a3,80001630 <__udivmoddi4+0xdc>
8000169c:	000b8663          	beqz	s7,800016a8 <__udivmoddi4+0x154>
800016a0:	009ba023          	sw	s1,0(s7)
800016a4:	008ba223          	sw	s0,4(s7)
800016a8:	01fad913          	srli	s2,s5,0x1f
800016ac:	001a9993          	slli	s3,s5,0x1
800016b0:	00181793          	slli	a5,a6,0x1
800016b4:	00f965b3          	or	a1,s2,a5
800016b8:	02812403          	lw	s0,40(sp)
800016bc:	02412483          	lw	s1,36(sp)
800016c0:	02012903          	lw	s2,32(sp)
800016c4:	01412a83          	lw	s5,20(sp)
800016c8:	00e9e533          	or	a0,s3,a4
800016cc:	ed1ff06f          	j	8000159c <__udivmoddi4+0x48>
800016d0:	06068663          	beqz	a3,8000173c <__udivmoddi4+0x1e8>
800016d4:	00068513          	mv	a0,a3
800016d8:	1ec000ef          	jal	800018c4 <__clzsi2>
800016dc:	00050413          	mv	s0,a0
800016e0:	00090513          	mv	a0,s2
800016e4:	1e0000ef          	jal	800018c4 <__clzsi2>
800016e8:	40a406b3          	sub	a3,s0,a0
800016ec:	01f00793          	li	a5,31
800016f0:	0ad7e663          	bltu	a5,a3,8000179c <__udivmoddi4+0x248>
800016f4:	00168693          	addi	a3,a3,1
800016f8:	02000793          	li	a5,32
800016fc:	00098813          	mv	a6,s3
80001700:	18f68663          	beq	a3,a5,8000188c <__udivmoddi4+0x338>
80001704:	40d787b3          	sub	a5,a5,a3
80001708:	00d9d733          	srl	a4,s3,a3
8000170c:	00f91633          	sll	a2,s2,a5
80001710:	00d95433          	srl	s0,s2,a3
80001714:	00f99833          	sll	a6,s3,a5
80001718:	00e664b3          	or	s1,a2,a4
8000171c:	00000a93          	li	s5,0
80001720:	f0dff06f          	j	8000162c <__udivmoddi4+0xd8>
80001724:	00070663          	beqz	a4,80001730 <__udivmoddi4+0x1dc>
80001728:	00aba023          	sw	a0,0(s7)
8000172c:	00072223          	sw	zero,4(a4)
80001730:	00000513          	li	a0,0
80001734:	00000593          	li	a1,0
80001738:	e65ff06f          	j	8000159c <__udivmoddi4+0x48>
8000173c:	fff60793          	addi	a5,a2,-1 # fff <_entry_offset+0xfff>
80001740:	00c7f733          	and	a4,a5,a2
80001744:	06071c63          	bnez	a4,800017bc <__udivmoddi4+0x268>
80001748:	000b8863          	beqz	s7,80001758 <__udivmoddi4+0x204>
8000174c:	00a7f7b3          	and	a5,a5,a0
80001750:	00fba023          	sw	a5,0(s7)
80001754:	000ba223          	sw	zero,4(s7)
80001758:	00100793          	li	a5,1
8000175c:	0efa0063          	beq	s4,a5,8000183c <__udivmoddi4+0x2e8>
80001760:	000a0513          	mv	a0,s4
80001764:	1f0000ef          	jal	80001954 <__ctzsi2>
80001768:	02000713          	li	a4,32
8000176c:	40a70733          	sub	a4,a4,a0
80001770:	00050793          	mv	a5,a0
80001774:	00e91733          	sll	a4,s2,a4
80001778:	00a9d833          	srl	a6,s3,a0
8000177c:	00f955b3          	srl	a1,s2,a5
80001780:	02812403          	lw	s0,40(sp)
80001784:	02412483          	lw	s1,36(sp)
80001788:	02012903          	lw	s2,32(sp)
8000178c:	01412a83          	lw	s5,20(sp)
80001790:	01076533          	or	a0,a4,a6
80001794:	e09ff06f          	j	8000159c <__udivmoddi4+0x48>
80001798:	00100073          	ebreak
8000179c:	0a0b8e63          	beqz	s7,80001858 <__udivmoddi4+0x304>
800017a0:	012ba223          	sw	s2,4(s7)
800017a4:	02812403          	lw	s0,40(sp)
800017a8:	02412483          	lw	s1,36(sp)
800017ac:	02012903          	lw	s2,32(sp)
800017b0:	01412a83          	lw	s5,20(sp)
800017b4:	013ba023          	sw	s3,0(s7)
800017b8:	f79ff06f          	j	80001730 <__udivmoddi4+0x1dc>
800017bc:	00060513          	mv	a0,a2
800017c0:	00068413          	mv	s0,a3
800017c4:	100000ef          	jal	800018c4 <__clzsi2>
800017c8:	00050913          	mv	s2,a0
800017cc:	00048513          	mv	a0,s1
800017d0:	0f4000ef          	jal	800018c4 <__clzsi2>
800017d4:	40a90533          	sub	a0,s2,a0
800017d8:	02150693          	addi	a3,a0,33 # 1021 <_entry_offset+0x1021>
800017dc:	02000793          	li	a5,32
800017e0:	00098813          	mv	a6,s3
800017e4:	00000a93          	li	s5,0
800017e8:	e4f682e3          	beq	a3,a5,8000162c <__udivmoddi4+0xd8>
800017ec:	01f00713          	li	a4,31
800017f0:	0ad76463          	bltu	a4,a3,80001898 <__udivmoddi4+0x344>
800017f4:	40d78733          	sub	a4,a5,a3
800017f8:	00d4d433          	srl	s0,s1,a3
800017fc:	00d9d7b3          	srl	a5,s3,a3
80001800:	00e494b3          	sll	s1,s1,a4
80001804:	00f4e4b3          	or	s1,s1,a5
80001808:	00e99833          	sll	a6,s3,a4
8000180c:	e21ff06f          	j	8000162c <__udivmoddi4+0xd8>
80001810:	00070863          	beqz	a4,80001820 <__udivmoddi4+0x2cc>
80001814:	02d5f7b3          	remu	a5,a1,a3
80001818:	00072023          	sw	zero,0(a4)
8000181c:	00f72223          	sw	a5,4(a4)
80001820:	03695533          	divu	a0,s2,s6
80001824:	02812403          	lw	s0,40(sp)
80001828:	02412483          	lw	s1,36(sp)
8000182c:	02012903          	lw	s2,32(sp)
80001830:	01412a83          	lw	s5,20(sp)
80001834:	00000593          	li	a1,0
80001838:	d65ff06f          	j	8000159c <__udivmoddi4+0x48>
8000183c:	00090593          	mv	a1,s2
80001840:	02812403          	lw	s0,40(sp)
80001844:	02412483          	lw	s1,36(sp)
80001848:	02012903          	lw	s2,32(sp)
8000184c:	01412a83          	lw	s5,20(sp)
80001850:	00098513          	mv	a0,s3
80001854:	d49ff06f          	j	8000159c <__udivmoddi4+0x48>
80001858:	02812403          	lw	s0,40(sp)
8000185c:	02412483          	lw	s1,36(sp)
80001860:	02012903          	lw	s2,32(sp)
80001864:	01412a83          	lw	s5,20(sp)
80001868:	ec9ff06f          	j	80001730 <__udivmoddi4+0x1dc>
8000186c:	000b8863          	beqz	s7,8000187c <__udivmoddi4+0x328>
80001870:	00b7f7b3          	and	a5,a5,a1
80001874:	00aba023          	sw	a0,0(s7)
80001878:	00fba223          	sw	a5,4(s7)
8000187c:	000b0513          	mv	a0,s6
80001880:	0d4000ef          	jal	80001954 <__ctzsi2>
80001884:	00a95533          	srl	a0,s2,a0
80001888:	f9dff06f          	j	80001824 <__udivmoddi4+0x2d0>
8000188c:	00000413          	li	s0,0
80001890:	00000a93          	li	s5,0
80001894:	d99ff06f          	j	8000162c <__udivmoddi4+0xd8>
80001898:	04000a93          	li	s5,64
8000189c:	40da8ab3          	sub	s5,s5,a3
800018a0:	00150513          	addi	a0,a0,1
800018a4:	01549733          	sll	a4,s1,s5
800018a8:	00a9d7b3          	srl	a5,s3,a0
800018ac:	01599ab3          	sll	s5,s3,s5
800018b0:	00a4d4b3          	srl	s1,s1,a0
800018b4:	00f76833          	or	a6,a4,a5
800018b8:	d75ff06f          	j	8000162c <__udivmoddi4+0xd8>

800018bc <__udivdi3>:
800018bc:	00000713          	li	a4,0
800018c0:	c95ff06f          	j	80001554 <__udivmoddi4>

800018c4 <__clzsi2>:
800018c4:	000105b7          	lui	a1,0x10
800018c8:	00b535b3          	sltu	a1,a0,a1
800018cc:	00459593          	slli	a1,a1,0x4
800018d0:	01000793          	li	a5,16
800018d4:	40b787b3          	sub	a5,a5,a1
800018d8:	00010737          	lui	a4,0x10
800018dc:	00f557b3          	srl	a5,a0,a5
800018e0:	f0070713          	addi	a4,a4,-256 # ff00 <_entry_offset+0xff00>
800018e4:	00e7f733          	and	a4,a5,a4
800018e8:	00173713          	seqz	a4,a4
800018ec:	00371713          	slli	a4,a4,0x3
800018f0:	00800693          	li	a3,8
800018f4:	40e686b3          	sub	a3,a3,a4
800018f8:	00d7d7b3          	srl	a5,a5,a3
800018fc:	0f07f613          	andi	a2,a5,240
80001900:	00163613          	seqz	a2,a2
80001904:	00261613          	slli	a2,a2,0x2
80001908:	00400693          	li	a3,4
8000190c:	40c686b3          	sub	a3,a3,a2
80001910:	00d7d7b3          	srl	a5,a5,a3
80001914:	00c7f693          	andi	a3,a5,12
80001918:	0016b693          	seqz	a3,a3
8000191c:	00200513          	li	a0,2
80001920:	00169693          	slli	a3,a3,0x1
80001924:	40d50833          	sub	a6,a0,a3
80001928:	0107d7b3          	srl	a5,a5,a6
8000192c:	0017d813          	srli	a6,a5,0x1
80001930:	00b70733          	add	a4,a4,a1
80001934:	00187593          	andi	a1,a6,1
80001938:	00e60633          	add	a2,a2,a4
8000193c:	40f50533          	sub	a0,a0,a5
80001940:	00058463          	beqz	a1,80001948 <__clzsi2+0x84>
80001944:	00000513          	li	a0,0
80001948:	00c686b3          	add	a3,a3,a2
8000194c:	00d50533          	add	a0,a0,a3
80001950:	00008067          	ret

80001954 <__ctzsi2>:
80001954:	01051593          	slli	a1,a0,0x10
80001958:	0105d593          	srli	a1,a1,0x10
8000195c:	0015b593          	seqz	a1,a1
80001960:	00459593          	slli	a1,a1,0x4
80001964:	00b557b3          	srl	a5,a0,a1
80001968:	0ff7f613          	zext.b	a2,a5
8000196c:	00163613          	seqz	a2,a2
80001970:	00361613          	slli	a2,a2,0x3
80001974:	00c7d7b3          	srl	a5,a5,a2
80001978:	00f7f693          	andi	a3,a5,15
8000197c:	0016b693          	seqz	a3,a3
80001980:	00269693          	slli	a3,a3,0x2
80001984:	00d7d7b3          	srl	a5,a5,a3
80001988:	0037f713          	andi	a4,a5,3
8000198c:	00173713          	seqz	a4,a4
80001990:	00171713          	slli	a4,a4,0x1
80001994:	00e7d7b3          	srl	a5,a5,a4
80001998:	0017d513          	srli	a0,a5,0x1
8000199c:	fff7c793          	not	a5,a5
800019a0:	00b60633          	add	a2,a2,a1
800019a4:	0017f793          	andi	a5,a5,1
800019a8:	00157593          	andi	a1,a0,1
800019ac:	00200513          	li	a0,2
800019b0:	00c686b3          	add	a3,a3,a2
800019b4:	40b50533          	sub	a0,a0,a1
800019b8:	40f007b3          	neg	a5,a5
800019bc:	00f57533          	and	a0,a0,a5
800019c0:	00d70733          	add	a4,a4,a3
800019c4:	00e50533          	add	a0,a0,a4
800019c8:	00008067          	ret

800019cc <strcmp>:
800019cc:	00054783          	lbu	a5,0(a0)
800019d0:	00079a63          	bnez	a5,800019e4 <strcmp+0x18>
800019d4:	0340006f          	j	80001a08 <strcmp+0x3c>
800019d8:	00054783          	lbu	a5,0(a0)
800019dc:	02078063          	beqz	a5,800019fc <strcmp+0x30>
800019e0:	00068593          	mv	a1,a3
800019e4:	0005c703          	lbu	a4,0(a1) # 10000 <_entry_offset+0x10000>
800019e8:	00150513          	addi	a0,a0,1
800019ec:	00158693          	addi	a3,a1,1
800019f0:	fef704e3          	beq	a4,a5,800019d8 <strcmp+0xc>
800019f4:	40e78533          	sub	a0,a5,a4
800019f8:	00008067          	ret
800019fc:	0015c703          	lbu	a4,1(a1)
80001a00:	40e78533          	sub	a0,a5,a4
80001a04:	00008067          	ret
80001a08:	0005c703          	lbu	a4,0(a1)
80001a0c:	fe9ff06f          	j	800019f4 <strcmp+0x28>

80001a10 <strncmp>:
80001a10:	02060263          	beqz	a2,80001a34 <strncmp+0x24>
80001a14:	00054783          	lbu	a5,0(a0)
80001a18:	fff60613          	addi	a2,a2,-1
80001a1c:	02078063          	beqz	a5,80001a3c <strncmp+0x2c>
80001a20:	0005c703          	lbu	a4,0(a1)
80001a24:	00f71c63          	bne	a4,a5,80001a3c <strncmp+0x2c>
80001a28:	00150513          	addi	a0,a0,1
80001a2c:	00158593          	addi	a1,a1,1
80001a30:	fe0612e3          	bnez	a2,80001a14 <strncmp+0x4>
80001a34:	00000513          	li	a0,0
80001a38:	00008067          	ret
80001a3c:	00054503          	lbu	a0,0(a0)
80001a40:	0005c783          	lbu	a5,0(a1)
80001a44:	40f50533          	sub	a0,a0,a5
80001a48:	00008067          	ret

80001a4c <memcpy>:
80001a4c:	00300793          	li	a5,3
80001a50:	04c7fc63          	bgeu	a5,a2,80001aa8 <memcpy+0x5c>
80001a54:	ffc60893          	addi	a7,a2,-4
80001a58:	ffc8f893          	andi	a7,a7,-4
80001a5c:	00488893          	addi	a7,a7,4
80001a60:	01150833          	add	a6,a0,a7
80001a64:	00058713          	mv	a4,a1
80001a68:	00050793          	mv	a5,a0
80001a6c:	00072683          	lw	a3,0(a4)
80001a70:	00478793          	addi	a5,a5,4 # 1004 <_entry_offset+0x1004>
80001a74:	00470713          	addi	a4,a4,4
80001a78:	fed7ae23          	sw	a3,-4(a5)
80001a7c:	ff0798e3          	bne	a5,a6,80001a6c <memcpy+0x20>
80001a80:	00367613          	andi	a2,a2,3
80001a84:	011585b3          	add	a1,a1,a7
80001a88:	00060e63          	beqz	a2,80001aa4 <memcpy+0x58>
80001a8c:	00c80633          	add	a2,a6,a2
80001a90:	0005c783          	lbu	a5,0(a1)
80001a94:	00180813          	addi	a6,a6,1 # a1000001 <_end+0x20f62001>
80001a98:	00158593          	addi	a1,a1,1
80001a9c:	fef80fa3          	sb	a5,-1(a6)
80001aa0:	fec818e3          	bne	a6,a2,80001a90 <memcpy+0x44>
80001aa4:	00008067          	ret
80001aa8:	00050813          	mv	a6,a0
80001aac:	fddff06f          	j	80001a88 <memcpy+0x3c>

80001ab0 <rand>:
80001ab0:	00010697          	auipc	a3,0x10
80001ab4:	17068693          	addi	a3,a3,368 # 80011c20 <next>
80001ab8:	0006a783          	lw	a5,0(a3)
80001abc:	41c65737          	lui	a4,0x41c65
80001ac0:	e6d70713          	addi	a4,a4,-403 # 41c64e6d <_entry_offset+0x41c64e6d>
80001ac4:	02e787b3          	mul	a5,a5,a4
80001ac8:	00003737          	lui	a4,0x3
80001acc:	03970713          	addi	a4,a4,57 # 3039 <_entry_offset+0x3039>
80001ad0:	00e787b3          	add	a5,a5,a4
80001ad4:	00179513          	slli	a0,a5,0x1
80001ad8:	00f6a023          	sw	a5,0(a3)
80001adc:	01155513          	srli	a0,a0,0x11
80001ae0:	00008067          	ret

80001ae4 <vsnprintf>:
80001ae4:	16058ae3          	beqz	a1,80002458 <vsnprintf+0x974>
80001ae8:	00100793          	li	a5,1
80001aec:	00050f13          	mv	t5,a0
80001af0:	16f582e3          	beq	a1,a5,80002454 <vsnprintf+0x970>
80001af4:	00064883          	lbu	a7,0(a2)
80001af8:	fff58313          	addi	t1,a1,-1
80001afc:	00000513          	li	a0,0
80001b00:	00000813          	li	a6,0
80001b04:	00000793          	li	a5,0
80001b08:	34088e63          	beqz	a7,80001e64 <vsnprintf+0x380>
80001b0c:	f8010113          	addi	sp,sp,-128
80001b10:	06812e23          	sw	s0,124(sp)
80001b14:	07312823          	sw	s3,112(sp)
80001b18:	05912c23          	sw	s9,88(sp)
80001b1c:	05a12a23          	sw	s10,84(sp)
80001b20:	05b12823          	sw	s11,80(sp)
80001b24:	06912c23          	sw	s1,120(sp)
80001b28:	07212a23          	sw	s2,116(sp)
80001b2c:	07412623          	sw	s4,108(sp)
80001b30:	07512423          	sw	s5,104(sp)
80001b34:	07612223          	sw	s6,100(sp)
80001b38:	07712023          	sw	s7,96(sp)
80001b3c:	02500413          	li	s0,37
80001b40:	01000993          	li	s3,16
80001b44:	00002d97          	auipc	s11,0x2
80001b48:	ddcd8d93          	addi	s11,s11,-548 # 80003920 <mainargs+0x40>
80001b4c:	02e00c93          	li	s9,46
80001b50:	06800d13          	li	s10,104
80001b54:	00078593          	mv	a1,a5
80001b58:	00180713          	addi	a4,a6,1
80001b5c:	06888863          	beq	a7,s0,80001bcc <vsnprintf+0xe8>
80001b60:	00150513          	addi	a0,a0,1
80001b64:	0067fa63          	bgeu	a5,t1,80001b78 <vsnprintf+0x94>
80001b68:	00ff05b3          	add	a1,t5,a5
80001b6c:	00178793          	addi	a5,a5,1
80001b70:	01158023          	sb	a7,0(a1)
80001b74:	00078593          	mv	a1,a5
80001b78:	00070813          	mv	a6,a4
80001b7c:	01060733          	add	a4,a2,a6
80001b80:	00074883          	lbu	a7,0(a4)
80001b84:	fc0898e3          	bnez	a7,80001b54 <vsnprintf+0x70>
80001b88:	00b37463          	bgeu	t1,a1,80001b90 <vsnprintf+0xac>
80001b8c:	00030593          	mv	a1,t1
80001b90:	00bf0f33          	add	t5,t5,a1
80001b94:	000f0023          	sb	zero,0(t5)
80001b98:	07c12403          	lw	s0,124(sp)
80001b9c:	07812483          	lw	s1,120(sp)
80001ba0:	07412903          	lw	s2,116(sp)
80001ba4:	07012983          	lw	s3,112(sp)
80001ba8:	06c12a03          	lw	s4,108(sp)
80001bac:	06812a83          	lw	s5,104(sp)
80001bb0:	06412b03          	lw	s6,100(sp)
80001bb4:	06012b83          	lw	s7,96(sp)
80001bb8:	05812c83          	lw	s9,88(sp)
80001bbc:	05412d03          	lw	s10,84(sp)
80001bc0:	05012d83          	lw	s11,80(sp)
80001bc4:	08010113          	addi	sp,sp,128
80001bc8:	00008067          	ret
80001bcc:	00e60733          	add	a4,a2,a4
80001bd0:	00280e13          	addi	t3,a6,2
80001bd4:	00000b13          	li	s6,0
80001bd8:	00000f93          	li	t6,0
80001bdc:	00000913          	li	s2,0
80001be0:	00000a93          	li	s5,0
80001be4:	00000493          	li	s1,0
80001be8:	00074e83          	lbu	t4,0(a4)
80001bec:	00070393          	mv	t2,a4
80001bf0:	fe0e8813          	addi	a6,t4,-32
80001bf4:	0ff87813          	zext.b	a6,a6
80001bf8:	0109ec63          	bltu	s3,a6,80001c10 <vsnprintf+0x12c>
80001bfc:	00281813          	slli	a6,a6,0x2
80001c00:	01b80833          	add	a6,a6,s11
80001c04:	00082803          	lw	a6,0(a6)
80001c08:	01b80833          	add	a6,a6,s11
80001c0c:	00080067          	jr	a6
80001c10:	02a00713          	li	a4,42
80001c14:	06ee9c63          	bne	t4,a4,80001c8c <vsnprintf+0x1a8>
80001c18:	0006a703          	lw	a4,0(a3)
80001c1c:	00468693          	addi	a3,a3,4
80001c20:	00075663          	bgez	a4,80001c2c <vsnprintf+0x148>
80001c24:	40e00733          	neg	a4,a4
80001c28:	00100493          	li	s1,1
80001c2c:	01c603b3          	add	t2,a2,t3
80001c30:	0003ce83          	lbu	t4,0(t2)
80001c34:	000e0813          	mv	a6,t3
80001c38:	fff00893          	li	a7,-1
80001c3c:	0b9e8663          	beq	t4,s9,80001ce8 <vsnprintf+0x204>
80001c40:	00180e13          	addi	t3,a6,1
80001c44:	01c602b3          	add	t0,a2,t3
80001c48:	0dae8c63          	beq	t4,s10,80001d20 <vsnprintf+0x23c>
80001c4c:	06c00a13          	li	s4,108
80001c50:	154e8663          	beq	t4,s4,80001d9c <vsnprintf+0x2b8>
80001c54:	07a00a13          	li	s4,122
80001c58:	194e8263          	beq	t4,s4,80001ddc <vsnprintf+0x2f8>
80001c5c:	7c8e8a63          	beq	t4,s0,80002430 <vsnprintf+0x94c>
80001c60:	fa8e8e13          	addi	t3,t4,-88
80001c64:	0ffe7e13          	zext.b	t3,t3
80001c68:	02000293          	li	t0,32
80001c6c:	0fc2ec63          	bltu	t0,t3,80001d64 <vsnprintf+0x280>
80001c70:	00002297          	auipc	t0,0x2
80001c74:	cf428293          	addi	t0,t0,-780 # 80003964 <mainargs+0x84>
80001c78:	002e1e13          	slli	t3,t3,0x2
80001c7c:	005e0e33          	add	t3,t3,t0
80001c80:	000e2e03          	lw	t3,0(t3)
80001c84:	005e0e33          	add	t3,t3,t0
80001c88:	000e0067          	jr	t3
80001c8c:	fd0e8293          	addi	t0,t4,-48
80001c90:	0ff2f893          	zext.b	a7,t0
80001c94:	00900b93          	li	s7,9
80001c98:	fffe0813          	addi	a6,t3,-1
80001c9c:	00000713          	li	a4,0
80001ca0:	01c60e33          	add	t3,a2,t3
80001ca4:	00900a13          	li	s4,9
80001ca8:	f91be8e3          	bltu	s7,a7,80001c38 <vsnprintf+0x154>
80001cac:	00070893          	mv	a7,a4
80001cb0:	000e4e83          	lbu	t4,0(t3)
80001cb4:	00289713          	slli	a4,a7,0x2
80001cb8:	01170733          	add	a4,a4,a7
80001cbc:	00171713          	slli	a4,a4,0x1
80001cc0:	00e288b3          	add	a7,t0,a4
80001cc4:	fd0e8293          	addi	t0,t4,-48
80001cc8:	0ff2f713          	zext.b	a4,t0
80001ccc:	000e0393          	mv	t2,t3
80001cd0:	00180813          	addi	a6,a6,1
80001cd4:	001e0e13          	addi	t3,t3,1
80001cd8:	fcea7ce3          	bgeu	s4,a4,80001cb0 <vsnprintf+0x1cc>
80001cdc:	00088713          	mv	a4,a7
80001ce0:	fff00893          	li	a7,-1
80001ce4:	f59e9ee3          	bne	t4,s9,80001c40 <vsnprintf+0x15c>
80001ce8:	00180893          	addi	a7,a6,1
80001cec:	011603b3          	add	t2,a2,a7
80001cf0:	0003ce83          	lbu	t4,0(t2)
80001cf4:	02a00e13          	li	t3,42
80001cf8:	6dce9c63          	bne	t4,t3,800023d0 <vsnprintf+0x8ec>
80001cfc:	0006a883          	lw	a7,0(a3)
80001d00:	00468693          	addi	a3,a3,4
80001d04:	1008cc63          	bltz	a7,80001e1c <vsnprintf+0x338>
80001d08:	00280813          	addi	a6,a6,2
80001d0c:	010603b3          	add	t2,a2,a6
80001d10:	0003ce83          	lbu	t4,0(t2)
80001d14:	00180e13          	addi	t3,a6,1
80001d18:	01c602b3          	add	t0,a2,t3
80001d1c:	f3ae98e3          	bne	t4,s10,80001c4c <vsnprintf+0x168>
80001d20:	0002ce83          	lbu	t4,0(t0)
80001d24:	73ae8e63          	beq	t4,s10,80002460 <vsnprintf+0x97c>
80001d28:	02500813          	li	a6,37
80001d2c:	710e8063          	beq	t4,a6,8000242c <vsnprintf+0x948>
80001d30:	fa8e8813          	addi	a6,t4,-88
80001d34:	0ff87813          	zext.b	a6,a6
80001d38:	02000393          	li	t2,32
80001d3c:	0303e063          	bltu	t2,a6,80001d5c <vsnprintf+0x278>
80001d40:	00002397          	auipc	t2,0x2
80001d44:	ca838393          	addi	t2,t2,-856 # 800039e8 <mainargs+0x108>
80001d48:	00281813          	slli	a6,a6,0x2
80001d4c:	00780833          	add	a6,a6,t2
80001d50:	00082803          	lw	a6,0(a6)
80001d54:	00780833          	add	a6,a6,t2
80001d58:	00080067          	jr	a6
80001d5c:	000e0813          	mv	a6,t3
80001d60:	00028393          	mv	t2,t0
80001d64:	00250513          	addi	a0,a0,2
80001d68:	0267f663          	bgeu	a5,t1,80001d94 <vsnprintf+0x2b0>
80001d6c:	02500593          	li	a1,37
80001d70:	00ff0733          	add	a4,t5,a5
80001d74:	00b70023          	sb	a1,0(a4)
80001d78:	00178593          	addi	a1,a5,1
80001d7c:	5265f4e3          	bgeu	a1,t1,80002aa4 <vsnprintf+0xfc0>
80001d80:	0003c703          	lbu	a4,0(t2)
80001d84:	00bf05b3          	add	a1,t5,a1
80001d88:	00278793          	addi	a5,a5,2
80001d8c:	00e58023          	sb	a4,0(a1)
80001d90:	00078593          	mv	a1,a5
80001d94:	00180813          	addi	a6,a6,1
80001d98:	de5ff06f          	j	80001b7c <vsnprintf+0x98>
80001d9c:	0002ce83          	lbu	t4,0(t0)
80001da0:	06c00393          	li	t2,108
80001da4:	087e8063          	beq	t4,t2,80001e24 <vsnprintf+0x340>
80001da8:	02500813          	li	a6,37
80001dac:	690e8063          	beq	t4,a6,8000242c <vsnprintf+0x948>
80001db0:	fa8e8813          	addi	a6,t4,-88
80001db4:	0ff87813          	zext.b	a6,a6
80001db8:	02000393          	li	t2,32
80001dbc:	fb03e0e3          	bltu	t2,a6,80001d5c <vsnprintf+0x278>
80001dc0:	00002397          	auipc	t2,0x2
80001dc4:	cac38393          	addi	t2,t2,-852 # 80003a6c <mainargs+0x18c>
80001dc8:	00281813          	slli	a6,a6,0x2
80001dcc:	00780833          	add	a6,a6,t2
80001dd0:	00082803          	lw	a6,0(a6)
80001dd4:	00780833          	add	a6,a6,t2
80001dd8:	00080067          	jr	a6
80001ddc:	0002ce83          	lbu	t4,0(t0)
80001de0:	00028393          	mv	t2,t0
80001de4:	000e0813          	mv	a6,t3
80001de8:	e75ff06f          	j	80001c5c <vsnprintf+0x178>
80001dec:	00100b13          	li	s6,1
80001df0:	00170713          	addi	a4,a4,1
80001df4:	001e0e13          	addi	t3,t3,1
80001df8:	df1ff06f          	j	80001be8 <vsnprintf+0x104>
80001dfc:	00100f93          	li	t6,1
80001e00:	ff1ff06f          	j	80001df0 <vsnprintf+0x30c>
80001e04:	00100913          	li	s2,1
80001e08:	fe9ff06f          	j	80001df0 <vsnprintf+0x30c>
80001e0c:	00100a93          	li	s5,1
80001e10:	fe1ff06f          	j	80001df0 <vsnprintf+0x30c>
80001e14:	00100493          	li	s1,1
80001e18:	fd9ff06f          	j	80001df0 <vsnprintf+0x30c>
80001e1c:	fff00893          	li	a7,-1
80001e20:	ee9ff06f          	j	80001d08 <vsnprintf+0x224>
80001e24:	00280813          	addi	a6,a6,2
80001e28:	010603b3          	add	t2,a2,a6
80001e2c:	0003ce83          	lbu	t4,0(t2)
80001e30:	02500e13          	li	t3,37
80001e34:	5fce8e63          	beq	t4,t3,80002430 <vsnprintf+0x94c>
80001e38:	fa8e8e13          	addi	t3,t4,-88
80001e3c:	0ffe7e13          	zext.b	t3,t3
80001e40:	02000293          	li	t0,32
80001e44:	f3c2e0e3          	bltu	t0,t3,80001d64 <vsnprintf+0x280>
80001e48:	00002297          	auipc	t0,0x2
80001e4c:	ca828293          	addi	t0,t0,-856 # 80003af0 <mainargs+0x210>
80001e50:	002e1e13          	slli	t3,t3,0x2
80001e54:	005e0e33          	add	t3,t3,t0
80001e58:	000e2e03          	lw	t3,0(t3)
80001e5c:	005e0e33          	add	t3,t3,t0
80001e60:	000e0067          	jr	t3
80001e64:	000f0023          	sb	zero,0(t5)
80001e68:	00008067          	ret
80001e6c:	0006ae83          	lw	t4,0(a3)
80001e70:	00468a13          	addi	s4,a3,4
80001e74:	41fedf93          	srai	t6,t4,0x1f
80001e78:	7a0fcc63          	bltz	t6,80002630 <vsnprintf+0xb4c>
80001e7c:	01fee6b3          	or	a3,t4,t6
80001e80:	3c0696e3          	bnez	a3,80002a4c <vsnprintf+0xf68>
80001e84:	320886e3          	beqz	a7,800029b0 <vsnprintf+0xecc>
80001e88:	03000693          	li	a3,48
80001e8c:	00d10823          	sb	a3,16(sp)
80001e90:	00100293          	li	t0,1
80001e94:	00000693          	li	a3,0
80001e98:	01010e13          	addi	t3,sp,16
80001e9c:	2712dce3          	bge	t0,a7,80002914 <vsnprintf+0xe30>
80001ea0:	00028e93          	mv	t4,t0
80001ea4:	03000393          	li	t2,48
80001ea8:	001e8e93          	addi	t4,t4,1
80001eac:	01de0fb3          	add	t6,t3,t4
80001eb0:	fe7f8fa3          	sb	t2,-1(t6)
80001eb4:	ff1ecae3          	blt	t4,a7,80001ea8 <vsnprintf+0x3c4>
80001eb8:	00128e93          	addi	t4,t0,1
80001ebc:	00000e13          	li	t3,0
80001ec0:	0112d663          	bge	t0,a7,80001ecc <vsnprintf+0x3e8>
80001ec4:	fff88e13          	addi	t3,a7,-1
80001ec8:	405e0e33          	sub	t3,t3,t0
80001ecc:	01de02b3          	add	t0,t3,t4
80001ed0:	240682e3          	beqz	a3,80002914 <vsnprintf+0xe30>
80001ed4:	01010e13          	addi	t3,sp,16
80001ed8:	04028693          	addi	a3,t0,64
80001edc:	01c686b3          	add	a3,a3,t3
80001ee0:	02d00e13          	li	t3,45
80001ee4:	fdc68023          	sb	t3,-64(a3)
80001ee8:	00128e93          	addi	t4,t0,1
80001eec:	000a0693          	mv	a3,s4
80001ef0:	41d70fb3          	sub	t6,a4,t4
80001ef4:	01f04463          	bgtz	t6,80001efc <vsnprintf+0x418>
80001ef8:	000e8713          	mv	a4,t4
80001efc:	00e50533          	add	a0,a0,a4
80001f00:	1c0482e3          	beqz	s1,800028c4 <vsnprintf+0xde0>
80001f04:	020e8a63          	beqz	t4,80001f38 <vsnprintf+0x454>
80001f08:	01010e13          	addi	t3,sp,16
80001f0c:	01de0733          	add	a4,t3,t4
80001f10:	00078593          	mv	a1,a5
80001f14:	0067fc63          	bgeu	a5,t1,80001f2c <vsnprintf+0x448>
80001f18:	fff74883          	lbu	a7,-1(a4)
80001f1c:	00ff05b3          	add	a1,t5,a5
80001f20:	00178793          	addi	a5,a5,1
80001f24:	01158023          	sb	a7,0(a1)
80001f28:	00078593          	mv	a1,a5
80001f2c:	fff70713          	addi	a4,a4,-1
80001f30:	feee10e3          	bne	t3,a4,80001f10 <vsnprintf+0x42c>
80001f34:	e60480e3          	beqz	s1,80001d94 <vsnprintf+0x2b0>
80001f38:	ffff8713          	addi	a4,t6,-1
80001f3c:	e5f05ce3          	blez	t6,80001d94 <vsnprintf+0x2b0>
80001f40:	02000e13          	li	t3,32
80001f44:	fff00893          	li	a7,-1
80001f48:	00078593          	mv	a1,a5
80001f4c:	0067fa63          	bgeu	a5,t1,80001f60 <vsnprintf+0x47c>
80001f50:	00ff05b3          	add	a1,t5,a5
80001f54:	00178793          	addi	a5,a5,1
80001f58:	01c58023          	sb	t3,0(a1)
80001f5c:	00078593          	mv	a1,a5
80001f60:	fff70713          	addi	a4,a4,-1
80001f64:	ff1712e3          	bne	a4,a7,80001f48 <vsnprintf+0x464>
80001f68:	00180813          	addi	a6,a6,1
80001f6c:	c11ff06f          	j	80001b7c <vsnprintf+0x98>
80001f70:	00069e83          	lh	t4,0(a3)
80001f74:	00468a13          	addi	s4,a3,4
80001f78:	000e0813          	mv	a6,t3
80001f7c:	41fedf93          	srai	t6,t4,0x1f
80001f80:	ef9ff06f          	j	80001e78 <vsnprintf+0x394>
80001f84:	0006d283          	lhu	t0,0(a3)
80001f88:	00000913          	li	s2,0
80001f8c:	000e0813          	mv	a6,t3
80001f90:	00468693          	addi	a3,a3,4
80001f94:	07800e13          	li	t3,120
80001f98:	00001a97          	auipc	s5,0x1
80001f9c:	360a8a93          	addi	s5,s5,864 # 800032f8 <_etext+0x74c>
80001fa0:	01ce9663          	bne	t4,t3,80001fac <vsnprintf+0x4c8>
80001fa4:	00001a97          	auipc	s5,0x1
80001fa8:	340a8a93          	addi	s5,s5,832 # 800032e4 <_etext+0x738>
80001fac:	0122ee33          	or	t3,t0,s2
80001fb0:	0c0e16e3          	bnez	t3,8000287c <vsnprintf+0xd98>
80001fb4:	20088ee3          	beqz	a7,800029d0 <vsnprintf+0xeec>
80001fb8:	03000e13          	li	t3,48
80001fbc:	01c10823          	sb	t3,16(sp)
80001fc0:	00100393          	li	t2,1
80001fc4:	01010e13          	addi	t3,sp,16
80001fc8:	2913d8e3          	bge	t2,a7,80002a58 <vsnprintf+0xf74>
80001fcc:	00038293          	mv	t0,t2
80001fd0:	03000a13          	li	s4,48
80001fd4:	00128293          	addi	t0,t0,1
80001fd8:	005e0933          	add	s2,t3,t0
80001fdc:	ff490fa3          	sb	s4,-1(s2)
80001fe0:	ff12cae3          	blt	t0,a7,80001fd4 <vsnprintf+0x4f0>
80001fe4:	00138913          	addi	s2,t2,1
80001fe8:	00000293          	li	t0,0
80001fec:	0113d663          	bge	t2,a7,80001ff8 <vsnprintf+0x514>
80001ff0:	fff88293          	addi	t0,a7,-1
80001ff4:	407282b3          	sub	t0,t0,t2
80001ff8:	012283b3          	add	t2,t0,s2
80001ffc:	360f8c63          	beqz	t6,80002374 <vsnprintf+0x890>
80002000:	01014283          	lbu	t0,16(sp)
80002004:	03000f93          	li	t6,48
80002008:	37f28663          	beq	t0,t6,80002374 <vsnprintf+0x890>
8000200c:	07800f93          	li	t6,120
80002010:	01fe8463          	beq	t4,t6,80002018 <vsnprintf+0x534>
80002014:	05800e93          	li	t4,88
80002018:	04038293          	addi	t0,t2,64
8000201c:	01010913          	addi	s2,sp,16
80002020:	00138f93          	addi	t6,t2,1
80002024:	012282b3          	add	t0,t0,s2
80002028:	fdd28023          	sb	t4,-64(t0)
8000202c:	040f8e93          	addi	t4,t6,64
80002030:	012e8eb3          	add	t4,t4,s2
80002034:	00238393          	addi	t2,t2,2
80002038:	03000f93          	li	t6,48
8000203c:	fdfe8023          	sb	t6,-64(t4)
80002040:	40770eb3          	sub	t4,a4,t2
80002044:	1fd058e3          	blez	t4,80002a34 <vsnprintf+0xf50>
80002048:	00e50533          	add	a0,a0,a4
8000204c:	5a048c63          	beqz	s1,80002604 <vsnprintf+0xb20>
80002050:	007e0733          	add	a4,t3,t2
80002054:	00078593          	mv	a1,a5
80002058:	0067fc63          	bgeu	a5,t1,80002070 <vsnprintf+0x58c>
8000205c:	fff74883          	lbu	a7,-1(a4)
80002060:	00ff05b3          	add	a1,t5,a5
80002064:	00178793          	addi	a5,a5,1
80002068:	01158023          	sb	a7,0(a1)
8000206c:	00078593          	mv	a1,a5
80002070:	fff70713          	addi	a4,a4,-1
80002074:	feee10e3          	bne	t3,a4,80002054 <vsnprintf+0x570>
80002078:	d0048ee3          	beqz	s1,80001d94 <vsnprintf+0x2b0>
8000207c:	fffe8713          	addi	a4,t4,-1
80002080:	d1d05ae3          	blez	t4,80001d94 <vsnprintf+0x2b0>
80002084:	02000e13          	li	t3,32
80002088:	fff00893          	li	a7,-1
8000208c:	00078593          	mv	a1,a5
80002090:	0067fa63          	bgeu	a5,t1,800020a4 <vsnprintf+0x5c0>
80002094:	00ff05b3          	add	a1,t5,a5
80002098:	00178793          	addi	a5,a5,1
8000209c:	01c58023          	sb	t3,0(a1)
800020a0:	00078593          	mv	a1,a5
800020a4:	fff70713          	addi	a4,a4,-1
800020a8:	ff1712e3          	bne	a4,a7,8000208c <vsnprintf+0x5a8>
800020ac:	00180813          	addi	a6,a6,1
800020b0:	acdff06f          	j	80001b7c <vsnprintf+0x98>
800020b4:	000e0813          	mv	a6,t3
800020b8:	0006a583          	lw	a1,0(a3)
800020bc:	00468f93          	addi	t6,a3,4
800020c0:	64058863          	beqz	a1,80002710 <vsnprintf+0xc2c>
800020c4:	000036b7          	lui	a3,0x3
800020c8:	07868693          	addi	a3,a3,120 # 3078 <_entry_offset+0x3078>
800020cc:	00d11823          	sh	a3,16(sp)
800020d0:	00200893          	li	a7,2
800020d4:	01010e13          	addi	t3,sp,16
800020d8:	00001297          	auipc	t0,0x1
800020dc:	20c28293          	addi	t0,t0,524 # 800032e4 <_etext+0x738>
800020e0:	00f5f693          	andi	a3,a1,15
800020e4:	00d286b3          	add	a3,t0,a3
800020e8:	0006ce83          	lbu	t4,0(a3)
800020ec:	00188893          	addi	a7,a7,1
800020f0:	011e06b3          	add	a3,t3,a7
800020f4:	ffd68fa3          	sb	t4,-1(a3)
800020f8:	0045d593          	srli	a1,a1,0x4
800020fc:	fe0592e3          	bnez	a1,800020e0 <vsnprintf+0x5fc>
80002100:	41170eb3          	sub	t4,a4,a7
80002104:	67d05663          	blez	t4,80002770 <vsnprintf+0xc8c>
80002108:	00e50533          	add	a0,a0,a4
8000210c:	3c048463          	beqz	s1,800024d4 <vsnprintf+0x9f0>
80002110:	00068713          	mv	a4,a3
80002114:	00078593          	mv	a1,a5
80002118:	0067fc63          	bgeu	a5,t1,80002130 <vsnprintf+0x64c>
8000211c:	fff74683          	lbu	a3,-1(a4)
80002120:	00ff05b3          	add	a1,t5,a5
80002124:	00178793          	addi	a5,a5,1
80002128:	00d58023          	sb	a3,0(a1)
8000212c:	00078593          	mv	a1,a5
80002130:	fff70713          	addi	a4,a4,-1
80002134:	feee10e3          	bne	t3,a4,80002114 <vsnprintf+0x630>
80002138:	000f8693          	mv	a3,t6
8000213c:	c4048ce3          	beqz	s1,80001d94 <vsnprintf+0x2b0>
80002140:	fffe8713          	addi	a4,t4,-1
80002144:	c5d058e3          	blez	t4,80001d94 <vsnprintf+0x2b0>
80002148:	02000893          	li	a7,32
8000214c:	fff00693          	li	a3,-1
80002150:	00078593          	mv	a1,a5
80002154:	0067fa63          	bgeu	a5,t1,80002168 <vsnprintf+0x684>
80002158:	00ff05b3          	add	a1,t5,a5
8000215c:	00178793          	addi	a5,a5,1
80002160:	01158023          	sb	a7,0(a1)
80002164:	00078593          	mv	a1,a5
80002168:	fff70713          	addi	a4,a4,-1
8000216c:	fed712e3          	bne	a4,a3,80002150 <vsnprintf+0x66c>
80002170:	000f8693          	mv	a3,t6
80002174:	00180813          	addi	a6,a6,1
80002178:	a05ff06f          	j	80001b7c <vsnprintf+0x98>
8000217c:	000e0813          	mv	a6,t3
80002180:	0006ae83          	lw	t4,0(a3)
80002184:	00468f93          	addi	t6,a3,4
80002188:	560e8c63          	beqz	t4,80002700 <vsnprintf+0xc1c>
8000218c:	000ec683          	lbu	a3,0(t4)
80002190:	40068063          	beqz	a3,80002590 <vsnprintf+0xaac>
80002194:	00000693          	li	a3,0
80002198:	30d88463          	beq	a7,a3,800024a0 <vsnprintf+0x9bc>
8000219c:	00168693          	addi	a3,a3,1
800021a0:	00de8e33          	add	t3,t4,a3
800021a4:	000e4e03          	lbu	t3,0(t3)
800021a8:	fe0e18e3          	bnez	t3,80002198 <vsnprintf+0x6b4>
800021ac:	40d70e33          	sub	t3,a4,a3
800021b0:	7bc05663          	blez	t3,8000295c <vsnprintf+0xe78>
800021b4:	00e50533          	add	a0,a0,a4
800021b8:	34048663          	beqz	s1,80002504 <vsnprintf+0xa20>
800021bc:	00000713          	li	a4,0
800021c0:	00078593          	mv	a1,a5
800021c4:	0067fe63          	bgeu	a5,t1,800021e0 <vsnprintf+0x6fc>
800021c8:	00ee88b3          	add	a7,t4,a4
800021cc:	0008c883          	lbu	a7,0(a7)
800021d0:	00ff05b3          	add	a1,t5,a5
800021d4:	00178793          	addi	a5,a5,1
800021d8:	01158023          	sb	a7,0(a1)
800021dc:	00078593          	mv	a1,a5
800021e0:	00170713          	addi	a4,a4,1
800021e4:	fcd74ee3          	blt	a4,a3,800021c0 <vsnprintf+0x6dc>
800021e8:	000f8693          	mv	a3,t6
800021ec:	ba0484e3          	beqz	s1,80001d94 <vsnprintf+0x2b0>
800021f0:	fffe0713          	addi	a4,t3,-1
800021f4:	bbc050e3          	blez	t3,80001d94 <vsnprintf+0x2b0>
800021f8:	02000893          	li	a7,32
800021fc:	fff00693          	li	a3,-1
80002200:	00078593          	mv	a1,a5
80002204:	0067fa63          	bgeu	a5,t1,80002218 <vsnprintf+0x734>
80002208:	00ff05b3          	add	a1,t5,a5
8000220c:	00178793          	addi	a5,a5,1
80002210:	01158023          	sb	a7,0(a1)
80002214:	00078593          	mv	a1,a5
80002218:	fff70713          	addi	a4,a4,-1
8000221c:	fed712e3          	bne	a4,a3,80002200 <vsnprintf+0x71c>
80002220:	000f8693          	mv	a3,t6
80002224:	f51ff06f          	j	80002174 <vsnprintf+0x690>
80002228:	000e0813          	mv	a6,t3
8000222c:	40e008b3          	neg	a7,a4
80002230:	fff70e13          	addi	t3,a4,-1
80002234:	41f8d893          	srai	a7,a7,0x1f
80002238:	011e78b3          	and	a7,t3,a7
8000223c:	00188893          	addi	a7,a7,1
80002240:	0006af83          	lw	t6,0(a3)
80002244:	01150533          	add	a0,a0,a7
80002248:	00468693          	addi	a3,a3,4
8000224c:	52048a63          	beqz	s1,80002780 <vsnprintf+0xc9c>
80002250:	0067fa63          	bgeu	a5,t1,80002264 <vsnprintf+0x780>
80002254:	00bf05b3          	add	a1,t5,a1
80002258:	00178793          	addi	a5,a5,1
8000225c:	01f58023          	sb	t6,0(a1)
80002260:	00078593          	mv	a1,a5
80002264:	ffe70713          	addi	a4,a4,-2
80002268:	b3c056e3          	blez	t3,80001d94 <vsnprintf+0x2b0>
8000226c:	02000e13          	li	t3,32
80002270:	fff00893          	li	a7,-1
80002274:	00078593          	mv	a1,a5
80002278:	0067fa63          	bgeu	a5,t1,8000228c <vsnprintf+0x7a8>
8000227c:	00ff05b3          	add	a1,t5,a5
80002280:	00178793          	addi	a5,a5,1
80002284:	01c58023          	sb	t3,0(a1)
80002288:	00078593          	mv	a1,a5
8000228c:	fff70713          	addi	a4,a4,-1
80002290:	ff1712e3          	bne	a4,a7,80002274 <vsnprintf+0x790>
80002294:	00180813          	addi	a6,a6,1
80002298:	8e5ff06f          	j	80001b7c <vsnprintf+0x98>
8000229c:	0006af83          	lw	t6,0(a3)
800022a0:	00000293          	li	t0,0
800022a4:	00468693          	addi	a3,a3,4
800022a8:	005fee33          	or	t3,t6,t0
800022ac:	520e1063          	bnez	t3,800027cc <vsnprintf+0xce8>
800022b0:	70088663          	beqz	a7,800029bc <vsnprintf+0xed8>
800022b4:	03000e13          	li	t3,48
800022b8:	01c10823          	sb	t3,16(sp)
800022bc:	00100393          	li	t2,1
800022c0:	01010e13          	addi	t3,sp,16
800022c4:	007e0eb3          	add	t4,t3,t2
800022c8:	03000f93          	li	t6,48
800022cc:	011e0e33          	add	t3,t3,a7
800022d0:	7513d263          	bge	t2,a7,80002a14 <vsnprintf+0xf30>
800022d4:	01fe8023          	sb	t6,0(t4)
800022d8:	001e8e93          	addi	t4,t4,1
800022dc:	ffde1ce3          	bne	t3,t4,800022d4 <vsnprintf+0x7f0>
800022e0:	41170eb3          	sub	t4,a4,a7
800022e4:	00088393          	mv	t2,a7
800022e8:	01d04463          	bgtz	t4,800022f0 <vsnprintf+0x80c>
800022ec:	00038713          	mv	a4,t2
800022f0:	00e50533          	add	a0,a0,a4
800022f4:	66048c63          	beqz	s1,8000296c <vsnprintf+0xe88>
800022f8:	01010e13          	addi	t3,sp,16
800022fc:	007e03b3          	add	t2,t3,t2
80002300:	00078593          	mv	a1,a5
80002304:	0067fc63          	bgeu	a5,t1,8000231c <vsnprintf+0x838>
80002308:	fff3c703          	lbu	a4,-1(t2)
8000230c:	00ff05b3          	add	a1,t5,a5
80002310:	00178793          	addi	a5,a5,1
80002314:	00e58023          	sb	a4,0(a1)
80002318:	00078593          	mv	a1,a5
8000231c:	fff38393          	addi	t2,t2,-1
80002320:	fe7e10e3          	bne	t3,t2,80002300 <vsnprintf+0x81c>
80002324:	a60488e3          	beqz	s1,80001d94 <vsnprintf+0x2b0>
80002328:	fffe8713          	addi	a4,t4,-1
8000232c:	a7d054e3          	blez	t4,80001d94 <vsnprintf+0x2b0>
80002330:	02000e13          	li	t3,32
80002334:	fff00893          	li	a7,-1
80002338:	00078593          	mv	a1,a5
8000233c:	0067fa63          	bgeu	a5,t1,80002350 <vsnprintf+0x86c>
80002340:	00ff05b3          	add	a1,t5,a5
80002344:	00178793          	addi	a5,a5,1
80002348:	01c58023          	sb	t3,0(a1)
8000234c:	00078593          	mv	a1,a5
80002350:	fff70713          	addi	a4,a4,-1
80002354:	ff1712e3          	bne	a4,a7,80002338 <vsnprintf+0x854>
80002358:	00180813          	addi	a6,a6,1
8000235c:	821ff06f          	j	80001b7c <vsnprintf+0x98>
80002360:	0006df83          	lhu	t6,0(a3)
80002364:	00000293          	li	t0,0
80002368:	000e0813          	mv	a6,t3
8000236c:	00468693          	addi	a3,a3,4
80002370:	f39ff06f          	j	800022a8 <vsnprintf+0x7c4>
80002374:	40770eb3          	sub	t4,a4,t2
80002378:	15d05a63          	blez	t4,800024cc <vsnprintf+0x9e8>
8000237c:	00e50533          	add	a0,a0,a4
80002380:	cc0498e3          	bnez	s1,80002050 <vsnprintf+0x56c>
80002384:	1e0b1063          	bnez	s6,80002564 <vsnprintf+0xa80>
80002388:	02000e13          	li	t3,32
8000238c:	fffe8713          	addi	a4,t4,-1
80002390:	71d05663          	blez	t4,80002a9c <vsnprintf+0xfb8>
80002394:	00070f93          	mv	t6,a4
80002398:	fff00893          	li	a7,-1
8000239c:	00078593          	mv	a1,a5
800023a0:	0067fa63          	bgeu	a5,t1,800023b4 <vsnprintf+0x8d0>
800023a4:	00ff05b3          	add	a1,t5,a5
800023a8:	00178793          	addi	a5,a5,1
800023ac:	01c58023          	sb	t3,0(a1)
800023b0:	00078593          	mv	a1,a5
800023b4:	fff70713          	addi	a4,a4,-1
800023b8:	ff1712e3          	bne	a4,a7,8000239c <vsnprintf+0x8b8>
800023bc:	41df8eb3          	sub	t4,t6,t4
800023c0:	01010e13          	addi	t3,sp,16
800023c4:	c80396e3          	bnez	t2,80002050 <vsnprintf+0x56c>
800023c8:	00180813          	addi	a6,a6,1
800023cc:	fb0ff06f          	j	80001b7c <vsnprintf+0x98>
800023d0:	fd0e8293          	addi	t0,t4,-48
800023d4:	0ff2fa13          	zext.b	s4,t0
800023d8:	00900e13          	li	t3,9
800023dc:	614e6e63          	bltu	t3,s4,800029f8 <vsnprintf+0xf14>
800023e0:	00280e13          	addi	t3,a6,2
800023e4:	00088813          	mv	a6,a7
800023e8:	00000893          	li	a7,0
800023ec:	01c60e33          	add	t3,a2,t3
800023f0:	00900a13          	li	s4,9
800023f4:	00088b93          	mv	s7,a7
800023f8:	000e4e83          	lbu	t4,0(t3)
800023fc:	002b9893          	slli	a7,s7,0x2
80002400:	017888b3          	add	a7,a7,s7
80002404:	00189893          	slli	a7,a7,0x1
80002408:	01128bb3          	add	s7,t0,a7
8000240c:	fd0e8293          	addi	t0,t4,-48
80002410:	0ff2f893          	zext.b	a7,t0
80002414:	000e0393          	mv	t2,t3
80002418:	00180813          	addi	a6,a6,1
8000241c:	001e0e13          	addi	t3,t3,1
80002420:	fd1a7ce3          	bgeu	s4,a7,800023f8 <vsnprintf+0x914>
80002424:	000b8893          	mv	a7,s7
80002428:	819ff06f          	j	80001c40 <vsnprintf+0x15c>
8000242c:	000e0813          	mv	a6,t3
80002430:	00150513          	addi	a0,a0,1
80002434:	9667f0e3          	bgeu	a5,t1,80001d94 <vsnprintf+0x2b0>
80002438:	00bf05b3          	add	a1,t5,a1
8000243c:	00178793          	addi	a5,a5,1
80002440:	02500713          	li	a4,37
80002444:	00e58023          	sb	a4,0(a1)
80002448:	00180813          	addi	a6,a6,1
8000244c:	00078593          	mv	a1,a5
80002450:	f2cff06f          	j	80001b7c <vsnprintf+0x98>
80002454:	00050023          	sb	zero,0(a0)
80002458:	00000513          	li	a0,0
8000245c:	00008067          	ret
80002460:	00280813          	addi	a6,a6,2
80002464:	010603b3          	add	t2,a2,a6
80002468:	0003ce83          	lbu	t4,0(t2)
8000246c:	02500e13          	li	t3,37
80002470:	fdce80e3          	beq	t4,t3,80002430 <vsnprintf+0x94c>
80002474:	fa8e8e13          	addi	t3,t4,-88
80002478:	0ffe7e13          	zext.b	t3,t3
8000247c:	02000293          	li	t0,32
80002480:	8fc2e2e3          	bltu	t0,t3,80001d64 <vsnprintf+0x280>
80002484:	00001297          	auipc	t0,0x1
80002488:	6f028293          	addi	t0,t0,1776 # 80003b74 <mainargs+0x294>
8000248c:	002e1e13          	slli	t3,t3,0x2
80002490:	005e0e33          	add	t3,t3,t0
80002494:	000e2e03          	lw	t3,0(t3)
80002498:	005e0e33          	add	t3,t3,t0
8000249c:	000e0067          	jr	t3
800024a0:	41170e33          	sub	t3,a4,a7
800024a4:	55c05063          	blez	t3,800029e4 <vsnprintf+0xf00>
800024a8:	00e50533          	add	a0,a0,a4
800024ac:	04048c63          	beqz	s1,80002504 <vsnprintf+0xa20>
800024b0:	d00896e3          	bnez	a7,800021bc <vsnprintf+0x6d8>
800024b4:	fffe0713          	addi	a4,t3,-1
800024b8:	d41ff06f          	j	800021f8 <vsnprintf+0x714>
800024bc:	0006a283          	lw	t0,0(a3)
800024c0:	00000913          	li	s2,0
800024c4:	00468693          	addi	a3,a3,4
800024c8:	acdff06f          	j	80001f94 <vsnprintf+0x4b0>
800024cc:	00038713          	mv	a4,t2
800024d0:	eadff06f          	j	8000237c <vsnprintf+0x898>
800024d4:	fffe8e93          	addi	t4,t4,-1
800024d8:	02000893          	li	a7,32
800024dc:	fff00593          	li	a1,-1
800024e0:	0067f863          	bgeu	a5,t1,800024f0 <vsnprintf+0xa0c>
800024e4:	00ff0733          	add	a4,t5,a5
800024e8:	01170023          	sb	a7,0(a4)
800024ec:	00178793          	addi	a5,a5,1
800024f0:	fffe8e93          	addi	t4,t4,-1
800024f4:	febe96e3          	bne	t4,a1,800024e0 <vsnprintf+0x9fc>
800024f8:	c19ff06f          	j	80002110 <vsnprintf+0x62c>
800024fc:	00070e13          	mv	t3,a4
80002500:	00000693          	li	a3,0
80002504:	fffe0e13          	addi	t3,t3,-1
80002508:	02000893          	li	a7,32
8000250c:	fff00713          	li	a4,-1
80002510:	00078593          	mv	a1,a5
80002514:	0067fa63          	bgeu	a5,t1,80002528 <vsnprintf+0xa44>
80002518:	00ff05b3          	add	a1,t5,a5
8000251c:	00178793          	addi	a5,a5,1
80002520:	01158023          	sb	a7,0(a1)
80002524:	00078593          	mv	a1,a5
80002528:	fffe0e13          	addi	t3,t3,-1
8000252c:	feee12e3          	bne	t3,a4,80002510 <vsnprintf+0xa2c>
80002530:	c80696e3          	bnez	a3,800021bc <vsnprintf+0x6d8>
80002534:	000f8693          	mv	a3,t6
80002538:	c3dff06f          	j	80002174 <vsnprintf+0x690>
8000253c:	0006ae83          	lw	t4,0(a3)
80002540:	00468a13          	addi	s4,a3,4
80002544:	000e0813          	mv	a6,t3
80002548:	41fedf93          	srai	t6,t4,0x1f
8000254c:	92dff06f          	j	80001e78 <vsnprintf+0x394>
80002550:	0006a283          	lw	t0,0(a3)
80002554:	00000913          	li	s2,0
80002558:	000e0813          	mv	a6,t3
8000255c:	00468693          	addi	a3,a3,4
80002560:	a35ff06f          	j	80001f94 <vsnprintf+0x4b0>
80002564:	e208d2e3          	bgez	a7,80002388 <vsnprintf+0x8a4>
80002568:	03000e13          	li	t3,48
8000256c:	e21ff06f          	j	8000238c <vsnprintf+0x8a8>
80002570:	0006ce83          	lbu	t4,0(a3)
80002574:	00468a13          	addi	s4,a3,4
80002578:	00000f93          	li	t6,0
8000257c:	901ff06f          	j	80001e7c <vsnprintf+0x398>
80002580:	0006c283          	lbu	t0,0(a3)
80002584:	00000913          	li	s2,0
80002588:	00468693          	addi	a3,a3,4
8000258c:	a09ff06f          	j	80001f94 <vsnprintf+0x4b0>
80002590:	000f8693          	mv	a3,t6
80002594:	80e050e3          	blez	a4,80001d94 <vsnprintf+0x2b0>
80002598:	00e50533          	add	a0,a0,a4
8000259c:	f60480e3          	beqz	s1,800024fc <vsnprintf+0xa18>
800025a0:	fff70713          	addi	a4,a4,-1
800025a4:	c55ff06f          	j	800021f8 <vsnprintf+0x714>
800025a8:	00768693          	addi	a3,a3,7
800025ac:	ff86f693          	andi	a3,a3,-8
800025b0:	0006a283          	lw	t0,0(a3)
800025b4:	0046a903          	lw	s2,4(a3)
800025b8:	00868693          	addi	a3,a3,8
800025bc:	9d9ff06f          	j	80001f94 <vsnprintf+0x4b0>
800025c0:	00768693          	addi	a3,a3,7
800025c4:	ff86f693          	andi	a3,a3,-8
800025c8:	0006ae83          	lw	t4,0(a3)
800025cc:	0046af83          	lw	t6,4(a3)
800025d0:	00868a13          	addi	s4,a3,8
800025d4:	8a5ff06f          	j	80001e78 <vsnprintf+0x394>
800025d8:	0006af83          	lw	t6,0(a3)
800025dc:	00000293          	li	t0,0
800025e0:	000e0813          	mv	a6,t3
800025e4:	00468693          	addi	a3,a3,4
800025e8:	cc1ff06f          	j	800022a8 <vsnprintf+0x7c4>
800025ec:	0006cf83          	lbu	t6,0(a3)
800025f0:	00000293          	li	t0,0
800025f4:	00468693          	addi	a3,a3,4
800025f8:	cb1ff06f          	j	800022a8 <vsnprintf+0x7c4>
800025fc:	00070e93          	mv	t4,a4
80002600:	00000393          	li	t2,0
80002604:	f60b10e3          	bnez	s6,80002564 <vsnprintf+0xa80>
80002608:	fffe8713          	addi	a4,t4,-1
8000260c:	00070f93          	mv	t6,a4
80002610:	02000e13          	li	t3,32
80002614:	d85ff06f          	j	80002398 <vsnprintf+0x8b4>
80002618:	00768693          	addi	a3,a3,7
8000261c:	ff86f693          	andi	a3,a3,-8
80002620:	0006af83          	lw	t6,0(a3)
80002624:	0046a283          	lw	t0,4(a3)
80002628:	00868693          	addi	a3,a3,8
8000262c:	c7dff06f          	j	800022a8 <vsnprintf+0x7c4>
80002630:	01d036b3          	snez	a3,t4
80002634:	41f00fb3          	neg	t6,t6
80002638:	40df8fb3          	sub	t6,t6,a3
8000263c:	05812e23          	sw	s8,92(sp)
80002640:	41d00eb3          	neg	t4,t4
80002644:	00100693          	li	a3,1
80002648:	ccccd3b7          	lui	t2,0xccccd
8000264c:	ccccdbb7          	lui	s7,0xccccd
80002650:	00000293          	li	t0,0
80002654:	01010e13          	addi	t3,sp,16
80002658:	00500c13          	li	s8,5
8000265c:	ccd38393          	addi	t2,t2,-819 # cccccccd <_end+0x4cc2eccd>
80002660:	cccb8b93          	addi	s7,s7,-820 # cccccccc <_end+0x4cc2eccc>
80002664:	01512023          	sw	s5,0(sp)
80002668:	00912223          	sw	s1,4(sp)
8000266c:	01212423          	sw	s2,8(sp)
80002670:	01612623          	sw	s6,12(sp)
80002674:	01fe84b3          	add	s1,t4,t6
80002678:	01d4b933          	sltu	s2,s1,t4
8000267c:	012484b3          	add	s1,s1,s2
80002680:	0384f4b3          	remu	s1,s1,s8
80002684:	00128293          	addi	t0,t0,1
80002688:	005e0ab3          	add	s5,t3,t0
8000268c:	409e84b3          	sub	s1,t4,s1
80002690:	009eb933          	sltu	s2,t4,s1
80002694:	412f8933          	sub	s2,t6,s2
80002698:	02790933          	mul	s2,s2,t2
8000269c:	03748fb3          	mul	t6,s1,s7
800026a0:	0274bb33          	mulhu	s6,s1,t2
800026a4:	01f90fb3          	add	t6,s2,t6
800026a8:	027484b3          	mul	s1,s1,t2
800026ac:	016f8fb3          	add	t6,t6,s6
800026b0:	01ff9913          	slli	s2,t6,0x1f
800026b4:	001fdf93          	srli	t6,t6,0x1
800026b8:	0014d493          	srli	s1,s1,0x1
800026bc:	009964b3          	or	s1,s2,s1
800026c0:	00249913          	slli	s2,s1,0x2
800026c4:	00990933          	add	s2,s2,s1
800026c8:	00191913          	slli	s2,s2,0x1
800026cc:	412e8933          	sub	s2,t4,s2
800026d0:	03090913          	addi	s2,s2,48
800026d4:	00048e93          	mv	t4,s1
800026d8:	ff2a8fa3          	sb	s2,-1(s5)
800026dc:	01f4e4b3          	or	s1,s1,t6
800026e0:	f8049ae3          	bnez	s1,80002674 <vsnprintf+0xb90>
800026e4:	00012a83          	lw	s5,0(sp)
800026e8:	00412483          	lw	s1,4(sp)
800026ec:	00812903          	lw	s2,8(sp)
800026f0:	00c12b03          	lw	s6,12(sp)
800026f4:	05c12c03          	lw	s8,92(sp)
800026f8:	fb12c463          	blt	t0,a7,80001ea0 <vsnprintf+0x3bc>
800026fc:	fd4ff06f          	j	80001ed0 <vsnprintf+0x3ec>
80002700:	00001e97          	auipc	t4,0x1
80002704:	c0ce8e93          	addi	t4,t4,-1012 # 8000330c <_etext+0x760>
80002708:	00000693          	li	a3,0
8000270c:	a8dff06f          	j	80002198 <vsnprintf+0x6b4>
80002710:	00001897          	auipc	a7,0x1
80002714:	c0588893          	addi	a7,a7,-1019 # 80003315 <_etext+0x769>
80002718:	00088693          	mv	a3,a7
8000271c:	00000713          	li	a4,0
80002720:	0006c583          	lbu	a1,0(a3)
80002724:	00070e13          	mv	t3,a4
80002728:	00168693          	addi	a3,a3,1
8000272c:	00170713          	addi	a4,a4,1
80002730:	fe0598e3          	bnez	a1,80002720 <vsnprintf+0xc3c>
80002734:	00e50533          	add	a0,a0,a4
80002738:	01c886b3          	add	a3,a7,t3
8000273c:	00001717          	auipc	a4,0x1
80002740:	bd870713          	addi	a4,a4,-1064 # 80003314 <_etext+0x768>
80002744:	00078593          	mv	a1,a5
80002748:	0067fc63          	bgeu	a5,t1,80002760 <vsnprintf+0xc7c>
8000274c:	00074883          	lbu	a7,0(a4)
80002750:	00ff05b3          	add	a1,t5,a5
80002754:	00178793          	addi	a5,a5,1
80002758:	01158023          	sb	a7,0(a1)
8000275c:	00078593          	mv	a1,a5
80002760:	00170713          	addi	a4,a4,1
80002764:	fee690e3          	bne	a3,a4,80002744 <vsnprintf+0xc60>
80002768:	000f8693          	mv	a3,t6
8000276c:	a09ff06f          	j	80002174 <vsnprintf+0x690>
80002770:	0014b713          	seqz	a4,s1
80002774:	01150533          	add	a0,a0,a7
80002778:	40ee8eb3          	sub	t4,t4,a4
8000277c:	995ff06f          	j	80002110 <vsnprintf+0x62c>
80002780:	ffe70713          	addi	a4,a4,-2
80002784:	02000e93          	li	t4,32
80002788:	fff00893          	li	a7,-1
8000278c:	03c05263          	blez	t3,800027b0 <vsnprintf+0xccc>
80002790:	00078593          	mv	a1,a5
80002794:	0067fa63          	bgeu	a5,t1,800027a8 <vsnprintf+0xcc4>
80002798:	00ff05b3          	add	a1,t5,a5
8000279c:	00178793          	addi	a5,a5,1
800027a0:	01d58023          	sb	t4,0(a1)
800027a4:	00078593          	mv	a1,a5
800027a8:	fff70713          	addi	a4,a4,-1
800027ac:	ff1712e3          	bne	a4,a7,80002790 <vsnprintf+0xcac>
800027b0:	de67f263          	bgeu	a5,t1,80001d94 <vsnprintf+0x2b0>
800027b4:	00bf05b3          	add	a1,t5,a1
800027b8:	00178793          	addi	a5,a5,1
800027bc:	01f58023          	sb	t6,0(a1)
800027c0:	00180813          	addi	a6,a6,1
800027c4:	00078593          	mv	a1,a5
800027c8:	bb4ff06f          	j	80001b7c <vsnprintf+0x98>
800027cc:	05812e23          	sw	s8,92(sp)
800027d0:	ccccd937          	lui	s2,0xccccd
800027d4:	ccccdc37          	lui	s8,0xccccd
800027d8:	00000393          	li	t2,0
800027dc:	01010e13          	addi	t3,sp,16
800027e0:	ccd90913          	addi	s2,s2,-819 # cccccccd <_end+0x4cc2eccd>
800027e4:	cccc0c13          	addi	s8,s8,-820 # cccccccc <_end+0x4cc2eccc>
800027e8:	00912223          	sw	s1,4(sp)
800027ec:	005f8eb3          	add	t4,t6,t0
800027f0:	01feb4b3          	sltu	s1,t4,t6
800027f4:	009e8eb3          	add	t4,t4,s1
800027f8:	00500493          	li	s1,5
800027fc:	029efeb3          	remu	t4,t4,s1
80002800:	00028a13          	mv	s4,t0
80002804:	00138393          	addi	t2,t2,1
80002808:	007e0ab3          	add	s5,t3,t2
8000280c:	01f12023          	sw	t6,0(sp)
80002810:	41df8eb3          	sub	t4,t6,t4
80002814:	01dfb4b3          	sltu	s1,t6,t4
80002818:	409284b3          	sub	s1,t0,s1
8000281c:	032484b3          	mul	s1,s1,s2
80002820:	038e82b3          	mul	t0,t4,s8
80002824:	032ebbb3          	mulhu	s7,t4,s2
80002828:	005482b3          	add	t0,s1,t0
8000282c:	032e8eb3          	mul	t4,t4,s2
80002830:	017282b3          	add	t0,t0,s7
80002834:	01f29493          	slli	s1,t0,0x1f
80002838:	0012d293          	srli	t0,t0,0x1
8000283c:	001ede93          	srli	t4,t4,0x1
80002840:	01d4eeb3          	or	t4,s1,t4
80002844:	002e9493          	slli	s1,t4,0x2
80002848:	01d484b3          	add	s1,s1,t4
8000284c:	00149493          	slli	s1,s1,0x1
80002850:	409f84b3          	sub	s1,t6,s1
80002854:	03048493          	addi	s1,s1,48
80002858:	fe9a8fa3          	sb	s1,-1(s5)
8000285c:	000e8f93          	mv	t6,t4
80002860:	f80a16e3          	bnez	s4,800027ec <vsnprintf+0xd08>
80002864:	00012e83          	lw	t4,0(sp)
80002868:	00900493          	li	s1,9
8000286c:	f9d4e0e3          	bltu	s1,t4,800027ec <vsnprintf+0xd08>
80002870:	00412483          	lw	s1,4(sp)
80002874:	05c12c03          	lw	s8,92(sp)
80002878:	a49ff06f          	j	800022c0 <vsnprintf+0x7dc>
8000287c:	05812e23          	sw	s8,92(sp)
80002880:	00000393          	li	t2,0
80002884:	01010e13          	addi	t3,sp,16
80002888:	00f2fa13          	andi	s4,t0,15
8000288c:	014a8a33          	add	s4,s5,s4
80002890:	000a4b83          	lbu	s7,0(s4)
80002894:	01c91c13          	slli	s8,s2,0x1c
80002898:	00138393          	addi	t2,t2,1
8000289c:	0042d293          	srli	t0,t0,0x4
800028a0:	007e0a33          	add	s4,t3,t2
800028a4:	005c62b3          	or	t0,s8,t0
800028a8:	00495913          	srli	s2,s2,0x4
800028ac:	ff7a0fa3          	sb	s7,-1(s4)
800028b0:	0122ea33          	or	s4,t0,s2
800028b4:	fc0a1ae3          	bnez	s4,80002888 <vsnprintf+0xda4>
800028b8:	05c12c03          	lw	s8,92(sp)
800028bc:	f113c863          	blt	t2,a7,80001fcc <vsnprintf+0x4e8>
800028c0:	f3cff06f          	j	80001ffc <vsnprintf+0x518>
800028c4:	02000e13          	li	t3,32
800028c8:	000b0863          	beqz	s6,800028d8 <vsnprintf+0xdf4>
800028cc:	41f8de13          	srai	t3,a7,0x1f
800028d0:	010e7e13          	andi	t3,t3,16
800028d4:	020e0e13          	addi	t3,t3,32
800028d8:	ffff8713          	addi	a4,t6,-1
800028dc:	1bf05263          	blez	t6,80002a80 <vsnprintf+0xf9c>
800028e0:	00070f93          	mv	t6,a4
800028e4:	fff00713          	li	a4,-1
800028e8:	00078593          	mv	a1,a5
800028ec:	0067fa63          	bgeu	a5,t1,80002900 <vsnprintf+0xe1c>
800028f0:	00ff05b3          	add	a1,t5,a5
800028f4:	00178793          	addi	a5,a5,1
800028f8:	01c58023          	sb	t3,0(a1)
800028fc:	00078593          	mv	a1,a5
80002900:	ffff8f93          	addi	t6,t6,-1
80002904:	feef92e3          	bne	t6,a4,800028e8 <vsnprintf+0xe04>
80002908:	e00e9063          	bnez	t4,80001f08 <vsnprintf+0x424>
8000290c:	00180813          	addi	a6,a6,1
80002910:	a6cff06f          	j	80001b7c <vsnprintf+0x98>
80002914:	000a0693          	mv	a3,s4
80002918:	020a8063          	beqz	s5,80002938 <vsnprintf+0xe54>
8000291c:	01010e93          	addi	t4,sp,16
80002920:	04028e13          	addi	t3,t0,64
80002924:	01de0e33          	add	t3,t3,t4
80002928:	02b00f93          	li	t6,43
8000292c:	00128e93          	addi	t4,t0,1
80002930:	fdfe0023          	sb	t6,-64(t3)
80002934:	dbcff06f          	j	80001ef0 <vsnprintf+0x40c>
80002938:	00028e93          	mv	t4,t0
8000293c:	da090a63          	beqz	s2,80001ef0 <vsnprintf+0x40c>
80002940:	04028e13          	addi	t3,t0,64
80002944:	01010f93          	addi	t6,sp,16
80002948:	01fe02b3          	add	t0,t3,t6
8000294c:	02000e13          	li	t3,32
80002950:	001e8e93          	addi	t4,t4,1
80002954:	fdc28023          	sb	t3,-64(t0)
80002958:	d98ff06f          	j	80001ef0 <vsnprintf+0x40c>
8000295c:	0014b713          	seqz	a4,s1
80002960:	00d50533          	add	a0,a0,a3
80002964:	40ee0e33          	sub	t3,t3,a4
80002968:	855ff06f          	j	800021bc <vsnprintf+0x6d8>
8000296c:	080b1c63          	bnez	s6,80002a04 <vsnprintf+0xf20>
80002970:	000e8713          	mv	a4,t4
80002974:	02000893          	li	a7,32
80002978:	fff70e93          	addi	t4,a4,-1
8000297c:	02e05463          	blez	a4,800029a4 <vsnprintf+0xec0>
80002980:	fff00713          	li	a4,-1
80002984:	00078593          	mv	a1,a5
80002988:	0067fa63          	bgeu	a5,t1,8000299c <vsnprintf+0xeb8>
8000298c:	00ff05b3          	add	a1,t5,a5
80002990:	00178793          	addi	a5,a5,1
80002994:	01158023          	sb	a7,0(a1)
80002998:	00078593          	mv	a1,a5
8000299c:	fffe8e93          	addi	t4,t4,-1
800029a0:	feee92e3          	bne	t4,a4,80002984 <vsnprintf+0xea0>
800029a4:	94039ae3          	bnez	t2,800022f8 <vsnprintf+0x814>
800029a8:	00180813          	addi	a6,a6,1
800029ac:	9d0ff06f          	j	80001b7c <vsnprintf+0x98>
800029b0:	00000293          	li	t0,0
800029b4:	000a0693          	mv	a3,s4
800029b8:	f61ff06f          	j	80002918 <vsnprintf+0xe34>
800029bc:	06e05063          	blez	a4,80002a1c <vsnprintf+0xf38>
800029c0:	00e50533          	add	a0,a0,a4
800029c4:	04048e63          	beqz	s1,80002a20 <vsnprintf+0xf3c>
800029c8:	fff70713          	addi	a4,a4,-1
800029cc:	965ff06f          	j	80002330 <vsnprintf+0x84c>
800029d0:	bce05263          	blez	a4,80001d94 <vsnprintf+0x2b0>
800029d4:	00e50533          	add	a0,a0,a4
800029d8:	c20482e3          	beqz	s1,800025fc <vsnprintf+0xb18>
800029dc:	fff70713          	addi	a4,a4,-1
800029e0:	ea4ff06f          	j	80002084 <vsnprintf+0x5a0>
800029e4:	01150533          	add	a0,a0,a7
800029e8:	08048463          	beqz	s1,80002a70 <vsnprintf+0xf8c>
800029ec:	fc089863          	bnez	a7,800021bc <vsnprintf+0x6d8>
800029f0:	000f8693          	mv	a3,t6
800029f4:	f80ff06f          	j	80002174 <vsnprintf+0x690>
800029f8:	00088813          	mv	a6,a7
800029fc:	00000893          	li	a7,0
80002a00:	a40ff06f          	j	80001c40 <vsnprintf+0x15c>
80002a04:	f608d6e3          	bgez	a7,80002970 <vsnprintf+0xe8c>
80002a08:	000e8713          	mv	a4,t4
80002a0c:	03000893          	li	a7,48
80002a10:	f69ff06f          	j	80002978 <vsnprintf+0xe94>
80002a14:	40770eb3          	sub	t4,a4,t2
80002a18:	8d1ff06f          	j	800022e8 <vsnprintf+0x804>
80002a1c:	b6049c63          	bnez	s1,80001d94 <vsnprintf+0x2b0>
80002a20:	00000393          	li	t2,0
80002a24:	00070e93          	mv	t4,a4
80002a28:	f40b04e3          	beqz	s6,80002970 <vsnprintf+0xe8c>
80002a2c:	02000893          	li	a7,32
80002a30:	f49ff06f          	j	80002978 <vsnprintf+0xe94>
80002a34:	00750533          	add	a0,a0,t2
80002a38:	e0049c63          	bnez	s1,80002050 <vsnprintf+0x56c>
80002a3c:	b20b14e3          	bnez	s6,80002564 <vsnprintf+0xa80>
80002a40:	fffe8e93          	addi	t4,t4,-1
80002a44:	01010e13          	addi	t3,sp,16
80002a48:	e08ff06f          	j	80002050 <vsnprintf+0x56c>
80002a4c:	05812e23          	sw	s8,92(sp)
80002a50:	00000693          	li	a3,0
80002a54:	bf5ff06f          	j	80002648 <vsnprintf+0xb64>
80002a58:	fff70e93          	addi	t4,a4,-1
80002a5c:	03d05863          	blez	t4,80002a8c <vsnprintf+0xfa8>
80002a60:	00e50533          	add	a0,a0,a4
80002a64:	ba0480e3          	beqz	s1,80002604 <vsnprintf+0xb20>
80002a68:	00048393          	mv	t2,s1
80002a6c:	de4ff06f          	j	80002050 <vsnprintf+0x56c>
80002a70:	fffe0e13          	addi	t3,t3,-1
80002a74:	f4089463          	bnez	a7,800021bc <vsnprintf+0x6d8>
80002a78:	000f8693          	mv	a3,t6
80002a7c:	ef8ff06f          	j	80002174 <vsnprintf+0x690>
80002a80:	00070f93          	mv	t6,a4
80002a84:	c80e9263          	bnez	t4,80001f08 <vsnprintf+0x424>
80002a88:	e85ff06f          	j	8000290c <vsnprintf+0xe28>
80002a8c:	00150513          	addi	a0,a0,1
80002a90:	fa0486e3          	beqz	s1,80002a3c <vsnprintf+0xf58>
80002a94:	00048393          	mv	t2,s1
80002a98:	db8ff06f          	j	80002050 <vsnprintf+0x56c>
80002a9c:	00070e93          	mv	t4,a4
80002aa0:	921ff06f          	j	800023c0 <vsnprintf+0x8dc>
80002aa4:	00058793          	mv	a5,a1
80002aa8:	00180813          	addi	a6,a6,1
80002aac:	8d0ff06f          	j	80001b7c <vsnprintf+0x98>

80002ab0 <printf>:
80002ab0:	fb010113          	addi	sp,sp,-80
80002ab4:	00001e37          	lui	t3,0x1
80002ab8:	fffff2b7          	lui	t0,0xfffff
80002abc:	02912223          	sw	s1,36(sp)
80002ac0:	02112623          	sw	ra,44(sp)
80002ac4:	02812423          	sw	s0,40(sp)
80002ac8:	fffff337          	lui	t1,0xfffff
80002acc:	00510133          	add	sp,sp,t0
80002ad0:	010e0e93          	addi	t4,t3,16 # 1010 <_entry_offset+0x1010>
80002ad4:	006e8eb3          	add	t4,t4,t1
80002ad8:	01010313          	addi	t1,sp,16
80002adc:	01010f13          	addi	t5,sp,16
80002ae0:	006e8333          	add	t1,t4,t1
80002ae4:	024e0e93          	addi	t4,t3,36
80002ae8:	00612623          	sw	t1,12(sp)
80002aec:	01ee8eb3          	add	t4,t4,t5
80002af0:	00bea023          	sw	a1,0(t4)
80002af4:	028e0593          	addi	a1,t3,40
80002af8:	01e585b3          	add	a1,a1,t5
80002afc:	00c5a023          	sw	a2,0(a1)
80002b00:	02ce0613          	addi	a2,t3,44
80002b04:	01e60633          	add	a2,a2,t5
80002b08:	030e0e93          	addi	t4,t3,48
80002b0c:	00d62023          	sw	a3,0(a2)
80002b10:	01ee8eb3          	add	t4,t4,t5
80002b14:	034e0313          	addi	t1,t3,52
80002b18:	00050613          	mv	a2,a0
80002b1c:	00c12503          	lw	a0,12(sp)
80002b20:	00eea023          	sw	a4,0(t4)
80002b24:	000e0713          	mv	a4,t3
80002b28:	034e0e13          	addi	t3,t3,52
80002b2c:	01ee0e33          	add	t3,t3,t5
80002b30:	00fe2023          	sw	a5,0(t3)
80002b34:	00070793          	mv	a5,a4
80002b38:	03870713          	addi	a4,a4,56
80002b3c:	01e70733          	add	a4,a4,t5
80002b40:	03c78793          	addi	a5,a5,60
80002b44:	01072023          	sw	a6,0(a4)
80002b48:	01e787b3          	add	a5,a5,t5
80002b4c:	0117a023          	sw	a7,0(a5)
80002b50:	00c12783          	lw	a5,12(sp)
80002b54:	00230333          	add	t1,t1,sp
80002b58:	00030693          	mv	a3,t1
80002b5c:	000015b7          	lui	a1,0x1
80002b60:	fe67ae23          	sw	t1,-4(a5)
80002b64:	f81fe0ef          	jal	80001ae4 <vsnprintf>
80002b68:	00c12783          	lw	a5,12(sp)
80002b6c:	00050493          	mv	s1,a0
80002b70:	0007c503          	lbu	a0,0(a5)
80002b74:	00050c63          	beqz	a0,80002b8c <printf+0xdc>
80002b78:	00178413          	addi	s0,a5,1
80002b7c:	bfcfe0ef          	jal	80000f78 <putch>
80002b80:	00044503          	lbu	a0,0(s0)
80002b84:	00140413          	addi	s0,s0,1
80002b88:	fe051ae3          	bnez	a0,80002b7c <printf+0xcc>
80002b8c:	000012b7          	lui	t0,0x1
80002b90:	00510133          	add	sp,sp,t0
80002b94:	02c12083          	lw	ra,44(sp)
80002b98:	00048513          	mv	a0,s1
80002b9c:	02812403          	lw	s0,40(sp)
80002ba0:	02412483          	lw	s1,36(sp)
80002ba4:	05010113          	addi	sp,sp,80
80002ba8:	00008067          	ret
