
/home/mubai/ysyx-workbench/am-kernels/tests/am-tests/build/amtest-riscv32-nemu.elf:     file format elf32-littleriscv


Disassembly of section .text:

80000000 <_start>:
80000000:	00000413          	li	s0,0
80000004:	0009f117          	auipc	sp,0x9f
80000008:	ffc10113          	addi	sp,sp,-4 # 8009f000 <_end>
8000000c:	7b5000ef          	jal	80000fc0 <_trm_init>

80000010 <main>:
80000010:	fe010113          	addi	sp,sp,-32
80000014:	00112e23          	sw	ra,28(sp)
80000018:	00054783          	lbu	a5,0(a0)
8000001c:	01500713          	li	a4,21
80000020:	f9f78793          	addi	a5,a5,-97
80000024:	0ff7f793          	zext.b	a5,a5
80000028:	02f76063          	bltu	a4,a5,80000048 <main+0x38>
8000002c:	00004717          	auipc	a4,0x4
80000030:	b3470713          	addi	a4,a4,-1228 # 80003b60 <_etext+0x7e0>
80000034:	00279793          	slli	a5,a5,0x2
80000038:	00e787b3          	add	a5,a5,a4
8000003c:	0007a783          	lw	a5,0(a5)
80000040:	00e787b3          	add	a5,a5,a4
80000044:	00078067          	jr	a5
80000048:	00003517          	auipc	a0,0x3
8000004c:	33850513          	addi	a0,a0,824 # 80003380 <_etext>
80000050:	00812c23          	sw	s0,24(sp)
80000054:	00912a23          	sw	s1,20(sp)
80000058:	01212823          	sw	s2,16(sp)
8000005c:	01312623          	sw	s3,12(sp)
80000060:	00004497          	auipc	s1,0x4
80000064:	b5848493          	addi	s1,s1,-1192 # 80003bb8 <tests>
80000068:	21c030ef          	jal	80003284 <printf>
8000006c:	00000413          	li	s0,0
80000070:	00003997          	auipc	s3,0x3
80000074:	32c98993          	addi	s3,s3,812 # 8000339c <_etext+0x1c>
80000078:	10000913          	li	s2,256
8000007c:	0004a603          	lw	a2,0(s1)
80000080:	00060863          	beqz	a2,80000090 <main+0x80>
80000084:	00040593          	mv	a1,s0
80000088:	00098513          	mv	a0,s3
8000008c:	1f8030ef          	jal	80003284 <printf>
80000090:	00140413          	addi	s0,s0,1
80000094:	00448493          	addi	s1,s1,4
80000098:	ff2412e3          	bne	s0,s2,8000007c <main+0x6c>
8000009c:	01812403          	lw	s0,24(sp)
800000a0:	01412483          	lw	s1,20(sp)
800000a4:	01012903          	lw	s2,16(sp)
800000a8:	00c12983          	lw	s3,12(sp)
800000ac:	01c12083          	lw	ra,28(sp)
800000b0:	00000513          	li	a0,0
800000b4:	02010113          	addi	sp,sp,32
800000b8:	00008067          	ret
800000bc:	00000797          	auipc	a5,0x0
800000c0:	5f078793          	addi	a5,a5,1520 # 800006ac <audio_test>
800000c4:	00096717          	auipc	a4,0x96
800000c8:	48f72023          	sw	a5,1152(a4) # 80096544 <entry>
800000cc:	7a9000ef          	jal	80001074 <ioe_init>
800000d0:	5dc000ef          	jal	800006ac <audio_test>
800000d4:	fd9ff06f          	j	800000ac <main+0x9c>
800000d8:	00000797          	auipc	a5,0x0
800000dc:	2fc78793          	addi	a5,a5,764 # 800003d4 <devscan>
800000e0:	00096717          	auipc	a4,0x96
800000e4:	46f72223          	sw	a5,1124(a4) # 80096544 <entry>
800000e8:	78d000ef          	jal	80001074 <ioe_init>
800000ec:	2e8000ef          	jal	800003d4 <devscan>
800000f0:	fbdff06f          	j	800000ac <main+0x9c>
800000f4:	00000797          	auipc	a5,0x0
800000f8:	54478793          	addi	a5,a5,1348 # 80000638 <hello>
800000fc:	00096717          	auipc	a4,0x96
80000100:	44f72423          	sw	a5,1096(a4) # 80096544 <entry>
80000104:	534000ef          	jal	80000638 <hello>
80000108:	fa5ff06f          	j	800000ac <main+0x9c>
8000010c:	00000797          	auipc	a5,0x0
80000110:	1b078793          	addi	a5,a5,432 # 800002bc <hello_intr>
80000114:	00096717          	auipc	a4,0x96
80000118:	42f72823          	sw	a5,1072(a4) # 80096544 <entry>
8000011c:	759000ef          	jal	80001074 <ioe_init>
80000120:	00000517          	auipc	a0,0x0
80000124:	0c050513          	addi	a0,a0,192 # 800001e0 <simple_trap>
80000128:	270010ef          	jal	80001398 <cte_init>
8000012c:	190000ef          	jal	800002bc <hello_intr>
80000130:	f7dff06f          	j	800000ac <main+0x9c>
80000134:	00001797          	auipc	a5,0x1
80000138:	d6878793          	addi	a5,a5,-664 # 80000e9c <keyboard_test>
8000013c:	00096717          	auipc	a4,0x96
80000140:	40f72423          	sw	a5,1032(a4) # 80096544 <entry>
80000144:	731000ef          	jal	80001074 <ioe_init>
80000148:	555000ef          	jal	80000e9c <keyboard_test>
8000014c:	f61ff06f          	j	800000ac <main+0x9c>
80000150:	00000797          	auipc	a5,0x0
80000154:	53478793          	addi	a5,a5,1332 # 80000684 <mp_print>
80000158:	00078513          	mv	a0,a5
8000015c:	00096717          	auipc	a4,0x96
80000160:	3ef72423          	sw	a5,1000(a4) # 80096544 <entry>
80000164:	120010ef          	jal	80001284 <mpe_init>
80000168:	51c000ef          	jal	80000684 <mp_print>
8000016c:	f41ff06f          	j	800000ac <main+0x9c>
80000170:	00000797          	auipc	a5,0x0
80000174:	7ec78793          	addi	a5,a5,2028 # 8000095c <vm_test>
80000178:	00000517          	auipc	a0,0x0
8000017c:	69c50513          	addi	a0,a0,1692 # 80000814 <vm_handler>
80000180:	00096717          	auipc	a4,0x96
80000184:	3cf72223          	sw	a5,964(a4) # 80096544 <entry>
80000188:	210010ef          	jal	80001398 <cte_init>
8000018c:	00000597          	auipc	a1,0x0
80000190:	68458593          	addi	a1,a1,1668 # 80000810 <simple_pgfree>
80000194:	00000517          	auipc	a0,0x0
80000198:	63850513          	addi	a0,a0,1592 # 800007cc <simple_pgalloc>
8000019c:	36c010ef          	jal	80001508 <vme_init>
800001a0:	7bc000ef          	jal	8000095c <vm_test>
800001a4:	f09ff06f          	j	800000ac <main+0x9c>
800001a8:	00000797          	auipc	a5,0x0
800001ac:	15078793          	addi	a5,a5,336 # 800002f8 <rtc_test>
800001b0:	00096717          	auipc	a4,0x96
800001b4:	38f72a23          	sw	a5,916(a4) # 80096544 <entry>
800001b8:	6bd000ef          	jal	80001074 <ioe_init>
800001bc:	13c000ef          	jal	800002f8 <rtc_test>
800001c0:	eedff06f          	j	800000ac <main+0x9c>
800001c4:	00001797          	auipc	a5,0x1
800001c8:	c3478793          	addi	a5,a5,-972 # 80000df8 <video_test>
800001cc:	00096717          	auipc	a4,0x96
800001d0:	36f72c23          	sw	a5,888(a4) # 80096544 <entry>
800001d4:	6a1000ef          	jal	80001074 <ioe_init>
800001d8:	421000ef          	jal	80000df8 <video_test>
800001dc:	ed1ff06f          	j	800000ac <main+0x9c>

800001e0 <simple_trap>:
800001e0:	00052783          	lw	a5,0(a0)
800001e4:	ff010113          	addi	sp,sp,-16
800001e8:	00812423          	sw	s0,8(sp)
800001ec:	00112623          	sw	ra,12(sp)
800001f0:	00500713          	li	a4,5
800001f4:	00058413          	mv	s0,a1
800001f8:	04e78663          	beq	a5,a4,80000244 <simple_trap+0x64>
800001fc:	00600713          	li	a4,6
80000200:	02e78463          	beq	a5,a4,80000228 <simple_trap+0x48>
80000204:	00100713          	li	a4,1
80000208:	04e79c63          	bne	a5,a4,80000260 <simple_trap+0x80>
8000020c:	07900513          	li	a0,121
80000210:	599000ef          	jal	80000fa8 <putch>
80000214:	00c12083          	lw	ra,12(sp)
80000218:	00040513          	mv	a0,s0
8000021c:	00812403          	lw	s0,8(sp)
80000220:	01010113          	addi	sp,sp,16
80000224:	00008067          	ret
80000228:	06400513          	li	a0,100
8000022c:	57d000ef          	jal	80000fa8 <putch>
80000230:	00c12083          	lw	ra,12(sp)
80000234:	00040513          	mv	a0,s0
80000238:	00812403          	lw	s0,8(sp)
8000023c:	01010113          	addi	sp,sp,16
80000240:	00008067          	ret
80000244:	07400513          	li	a0,116
80000248:	561000ef          	jal	80000fa8 <putch>
8000024c:	00c12083          	lw	ra,12(sp)
80000250:	00040513          	mv	a0,s0
80000254:	00812403          	lw	s0,8(sp)
80000258:	01010113          	addi	sp,sp,16
8000025c:	00008067          	ret
80000260:	00003417          	auipc	s0,0x3
80000264:	20440413          	addi	s0,s0,516 # 80003464 <_etext+0xe4>
80000268:	04100513          	li	a0,65
8000026c:	53d000ef          	jal	80000fa8 <putch>
80000270:	00144503          	lbu	a0,1(s0)
80000274:	00140413          	addi	s0,s0,1
80000278:	fe051ae3          	bnez	a0,8000026c <simple_trap+0x8c>
8000027c:	00003417          	auipc	s0,0x3
80000280:	1f440413          	addi	s0,s0,500 # 80003470 <_etext+0xf0>
80000284:	05500513          	li	a0,85
80000288:	521000ef          	jal	80000fa8 <putch>
8000028c:	00144503          	lbu	a0,1(s0)
80000290:	00140413          	addi	s0,s0,1
80000294:	fe051ae3          	bnez	a0,80000288 <simple_trap+0xa8>
80000298:	00003417          	auipc	s0,0x3
8000029c:	1e840413          	addi	s0,s0,488 # 80003480 <_etext+0x100>
800002a0:	02000513          	li	a0,32
800002a4:	505000ef          	jal	80000fa8 <putch>
800002a8:	00144503          	lbu	a0,1(s0)
800002ac:	00140413          	addi	s0,s0,1
800002b0:	fe051ae3          	bnez	a0,800002a4 <simple_trap+0xc4>
800002b4:	00100513          	li	a0,1
800002b8:	4fd000ef          	jal	80000fb4 <halt>

800002bc <hello_intr>:
800002bc:	fe010113          	addi	sp,sp,-32
800002c0:	00003517          	auipc	a0,0x3
800002c4:	21050513          	addi	a0,a0,528 # 800034d0 <_etext+0x150>
800002c8:	00112e23          	sw	ra,28(sp)
800002cc:	7b9020ef          	jal	80003284 <printf>
800002d0:	00003517          	auipc	a0,0x3
800002d4:	21c50513          	addi	a0,a0,540 # 800034ec <_etext+0x16c>
800002d8:	7ad020ef          	jal	80003284 <printf>
800002dc:	00700513          	li	a0,7
800002e0:	00c10593          	addi	a1,sp,12
800002e4:	5ed000ef          	jal	800010d0 <ioe_read>
800002e8:	00100513          	li	a0,1
800002ec:	0d8010ef          	jal	800013c4 <iset>
800002f0:	0c8010ef          	jal	800013b8 <yield>
800002f4:	ffdff06f          	j	800002f0 <hello_intr+0x34>

800002f8 <rtc_test>:
800002f8:	fb010113          	addi	sp,sp,-80
800002fc:	05212023          	sw	s2,64(sp)
80000300:	000f4937          	lui	s2,0xf4
80000304:	04812423          	sw	s0,72(sp)
80000308:	04912223          	sw	s1,68(sp)
8000030c:	03312e23          	sw	s3,60(sp)
80000310:	03412c23          	sw	s4,56(sp)
80000314:	03512a23          	sw	s5,52(sp)
80000318:	03612823          	sw	s6,48(sp)
8000031c:	03712623          	sw	s7,44(sp)
80000320:	04112623          	sw	ra,76(sp)
80000324:	00100493          	li	s1,1
80000328:	00000413          	li	s0,0
8000032c:	24090913          	addi	s2,s2,576 # f4240 <_entry_offset+0xf4240>
80000330:	00000993          	li	s3,0
80000334:	00003b17          	auipc	s6,0x3
80000338:	1dcb0b13          	addi	s6,s6,476 # 80003510 <_etext+0x190>
8000033c:	00100a93          	li	s5,1
80000340:	00003b97          	auipc	s7,0x3
80000344:	200b8b93          	addi	s7,s7,512 # 80003540 <_etext+0x1c0>
80000348:	00003a17          	auipc	s4,0x3
8000034c:	1e8a0a13          	addi	s4,s4,488 # 80003530 <_etext+0x1b0>
80000350:	00810593          	addi	a1,sp,8
80000354:	00600513          	li	a0,6
80000358:	579000ef          	jal	800010d0 <ioe_read>
8000035c:	00812503          	lw	a0,8(sp)
80000360:	00c12583          	lw	a1,12(sp)
80000364:	00090613          	mv	a2,s2
80000368:	00098693          	mv	a3,s3
8000036c:	5c0010ef          	jal	8000192c <__udivdi3>
80000370:	fe85e0e3          	bltu	a1,s0,80000350 <rtc_test+0x58>
80000374:	00b41463          	bne	s0,a1,8000037c <rtc_test+0x84>
80000378:	fc956ce3          	bltu	a0,s1,80000350 <rtc_test+0x58>
8000037c:	00810593          	addi	a1,sp,8
80000380:	00500513          	li	a0,5
80000384:	54d000ef          	jal	800010d0 <ioe_read>
80000388:	00812583          	lw	a1,8(sp)
8000038c:	01c12803          	lw	a6,28(sp)
80000390:	01812783          	lw	a5,24(sp)
80000394:	01412703          	lw	a4,20(sp)
80000398:	01012683          	lw	a3,16(sp)
8000039c:	00c12603          	lw	a2,12(sp)
800003a0:	000b0513          	mv	a0,s6
800003a4:	6e1020ef          	jal	80003284 <printf>
800003a8:	00100593          	li	a1,1
800003ac:	000a0513          	mv	a0,s4
800003b0:	01548663          	beq	s1,s5,800003bc <rtc_test+0xc4>
800003b4:	00048593          	mv	a1,s1
800003b8:	000b8513          	mv	a0,s7
800003bc:	6c9020ef          	jal	80003284 <printf>
800003c0:	00148793          	addi	a5,s1,1
800003c4:	0097b4b3          	sltu	s1,a5,s1
800003c8:	00848433          	add	s0,s1,s0
800003cc:	00078493          	mv	s1,a5
800003d0:	f81ff06f          	j	80000350 <rtc_test+0x58>

800003d4 <devscan>:
800003d4:	00012797          	auipc	a5,0x12
800003d8:	f4478793          	addi	a5,a5,-188 # 80012318 <heap>
800003dc:	0047a603          	lw	a2,4(a5)
800003e0:	0007a583          	lw	a1,0(a5)
800003e4:	fc010113          	addi	sp,sp,-64
800003e8:	00003517          	auipc	a0,0x3
800003ec:	16850513          	addi	a0,a0,360 # 80003550 <_etext+0x1d0>
800003f0:	02112e23          	sw	ra,60(sp)
800003f4:	02812c23          	sw	s0,56(sp)
800003f8:	02912a23          	sw	s1,52(sp)
800003fc:	03212823          	sw	s2,48(sp)
80000400:	03312623          	sw	s3,44(sp)
80000404:	03412423          	sw	s4,40(sp)
80000408:	67d020ef          	jal	80003284 <printf>
8000040c:	00003517          	auipc	a0,0x3
80000410:	15c50513          	addi	a0,a0,348 # 80003568 <_etext+0x1e8>
80000414:	671020ef          	jal	80003284 <printf>
80000418:	01010593          	addi	a1,sp,16
8000041c:	00600513          	li	a0,6
80000420:	4b1000ef          	jal	800010d0 <ioe_read>
80000424:	01012503          	lw	a0,16(sp)
80000428:	01412583          	lw	a1,20(sp)
8000042c:	3e800613          	li	a2,1000
80000430:	00000693          	li	a3,0
80000434:	4f8010ef          	jal	8000192c <__udivdi3>
80000438:	00012623          	sw	zero,12(sp)
8000043c:	00c12783          	lw	a5,12(sp)
80000440:	00989737          	lui	a4,0x989
80000444:	67f70713          	addi	a4,a4,1663 # 98967f <_entry_offset+0x98967f>
80000448:	00050413          	mv	s0,a0
8000044c:	00f74c63          	blt	a4,a5,80000464 <devscan+0x90>
80000450:	00c12783          	lw	a5,12(sp)
80000454:	00178793          	addi	a5,a5,1
80000458:	00f12623          	sw	a5,12(sp)
8000045c:	00c12783          	lw	a5,12(sp)
80000460:	fef758e3          	bge	a4,a5,80000450 <devscan+0x7c>
80000464:	01010593          	addi	a1,sp,16
80000468:	00600513          	li	a0,6
8000046c:	465000ef          	jal	800010d0 <ioe_read>
80000470:	01012503          	lw	a0,16(sp)
80000474:	01412583          	lw	a1,20(sp)
80000478:	3e800613          	li	a2,1000
8000047c:	00000693          	li	a3,0
80000480:	4ac010ef          	jal	8000192c <__udivdi3>
80000484:	408505b3          	sub	a1,a0,s0
80000488:	00003517          	auipc	a0,0x3
8000048c:	0fc50513          	addi	a0,a0,252 # 80003584 <_etext+0x204>
80000490:	5f5020ef          	jal	80003284 <printf>
80000494:	01010593          	addi	a1,sp,16
80000498:	00900513          	li	a0,9
8000049c:	435000ef          	jal	800010d0 <ioe_read>
800004a0:	01412983          	lw	s3,20(sp)
800004a4:	01812903          	lw	s2,24(sp)
800004a8:	00003517          	auipc	a0,0x3
800004ac:	0fc50513          	addi	a0,a0,252 # 800035a4 <_etext+0x224>
800004b0:	00098593          	mv	a1,s3
800004b4:	00090613          	mv	a2,s2
800004b8:	5cd020ef          	jal	80003284 <printf>
800004bc:	00012417          	auipc	s0,0x12
800004c0:	13840413          	addi	s0,s0,312 # 800125f4 <vmem+0xd0>
800004c4:	00092497          	auipc	s1,0x92
800004c8:	06048493          	addi	s1,s1,96 # 80092524 <stack.0>
800004cc:	654010ef          	jal	80001b20 <rand>
800004d0:	00a40023          	sb	a0,0(s0)
800004d4:	00140413          	addi	s0,s0,1
800004d8:	fe941ae3          	bne	s0,s1,800004cc <devscan+0xf8>
800004dc:	41f9d713          	srai	a4,s3,0x1f
800004e0:	00377713          	andi	a4,a4,3
800004e4:	01370733          	add	a4,a4,s3
800004e8:	00012797          	auipc	a5,0x12
800004ec:	03c78793          	addi	a5,a5,60 # 80012524 <vmem>
800004f0:	40275713          	srai	a4,a4,0x2
800004f4:	00e79323          	sh	a4,6(a5)
800004f8:	00012717          	auipc	a4,0x12
800004fc:	02071a23          	sh	zero,52(a4) # 8001252c <vmem+0x8>
80000500:	01f9d693          	srli	a3,s3,0x1f
80000504:	02500713          	li	a4,37
80000508:	00e79923          	sh	a4,18(a5)
8000050c:	013686b3          	add	a3,a3,s3
80000510:	00a00713          	li	a4,10
80000514:	ffff0837          	lui	a6,0xffff0
80000518:	fff00613          	li	a2,-1
8000051c:	00180813          	addi	a6,a6,1 # ffff0001 <_end+0x7ff51001>
80000520:	4016d693          	srai	a3,a3,0x1
80000524:	00e79a23          	sh	a4,20(a5)
80000528:	f9c90913          	addi	s2,s2,-100
8000052c:	0d000713          	li	a4,208
80000530:	00e79b23          	sh	a4,22(a5)
80000534:	0107a023          	sw	a6,0(a5)
80000538:	00d79523          	sh	a3,10(a5)
8000053c:	00c79223          	sh	a2,4(a5)
80000540:	00c79723          	sh	a2,14(a5)
80000544:	00c79823          	sh	a2,16(a5)
80000548:	01279623          	sh	s2,12(a5)
8000054c:	01010593          	addi	a1,sp,16
80000550:	00c00513          	li	a0,12
80000554:	00f12a23          	sw	a5,20(sp)
80000558:	000807b7          	lui	a5,0x80
8000055c:	00f12c23          	sw	a5,24(sp)
80000560:	00012717          	auipc	a4,0x12
80000564:	fc071e23          	sh	zero,-36(a4) # 8001253c <vmem+0x18>
80000568:	00012823          	sw	zero,16(sp)
8000056c:	381000ef          	jal	800010ec <ioe_write>
80000570:	01010593          	addi	a1,sp,16
80000574:	00d00513          	li	a0,13
80000578:	00012823          	sw	zero,16(sp)
8000057c:	371000ef          	jal	800010ec <ioe_write>
80000580:	01010593          	addi	a1,sp,16
80000584:	01200513          	li	a0,18
80000588:	349000ef          	jal	800010d0 <ioe_read>
8000058c:	01412403          	lw	s0,20(sp)
80000590:	01812583          	lw	a1,24(sp)
80000594:	00003517          	auipc	a0,0x3
80000598:	02850513          	addi	a0,a0,40 # 800035bc <_etext+0x23c>
8000059c:	00040613          	mv	a2,s0
800005a0:	4e5020ef          	jal	80003284 <printf>
800005a4:	20000793          	li	a5,512
800005a8:	0287c7b3          	div	a5,a5,s0
800005ac:	01010593          	addi	a1,sp,16
800005b0:	00012417          	auipc	s0,0x12
800005b4:	d7440413          	addi	s0,s0,-652 # 80012324 <buf.0>
800005b8:	01400513          	li	a0,20
800005bc:	00200493          	li	s1,2
800005c0:	00010823          	sb	zero,16(sp)
800005c4:	00812a23          	sw	s0,20(sp)
800005c8:	00012c23          	sw	zero,24(sp)
800005cc:	00012997          	auipc	s3,0x12
800005d0:	f5898993          	addi	s3,s3,-168 # 80012524 <vmem>
800005d4:	00003917          	auipc	s2,0x3
800005d8:	02090913          	addi	s2,s2,32 # 800035f4 <_etext+0x274>
800005dc:	408484b3          	sub	s1,s1,s0
800005e0:	00003a17          	auipc	s4,0x3
800005e4:	f6ca0a13          	addi	s4,s4,-148 # 8000354c <_etext+0x1cc>
800005e8:	00f12e23          	sw	a5,28(sp)
800005ec:	301000ef          	jal	800010ec <ioe_write>
800005f0:	00c0006f          	j	800005fc <devscan+0x228>
800005f4:	00240413          	addi	s0,s0,2
800005f8:	03340863          	beq	s0,s3,80000628 <devscan+0x254>
800005fc:	00144603          	lbu	a2,1(s0)
80000600:	00044583          	lbu	a1,0(s0)
80000604:	00090513          	mv	a0,s2
80000608:	47d020ef          	jal	80003284 <printf>
8000060c:	008487b3          	add	a5,s1,s0
80000610:	01f7f793          	andi	a5,a5,31
80000614:	fe0790e3          	bnez	a5,800005f4 <devscan+0x220>
80000618:	000a0513          	mv	a0,s4
8000061c:	00240413          	addi	s0,s0,2
80000620:	465020ef          	jal	80003284 <printf>
80000624:	fd341ce3          	bne	s0,s3,800005fc <devscan+0x228>
80000628:	00003517          	auipc	a0,0x3
8000062c:	fd850513          	addi	a0,a0,-40 # 80003600 <_etext+0x280>
80000630:	455020ef          	jal	80003284 <printf>
80000634:	0000006f          	j	80000634 <devscan+0x260>

80000638 <hello>:
80000638:	ff010113          	addi	sp,sp,-16
8000063c:	00912223          	sw	s1,4(sp)
80000640:	00112623          	sw	ra,12(sp)
80000644:	00812423          	sw	s0,8(sp)
80000648:	00a00493          	li	s1,10
8000064c:	00003417          	auipc	s0,0x3
80000650:	e8440413          	addi	s0,s0,-380 # 800034d0 <_etext+0x150>
80000654:	04800513          	li	a0,72
80000658:	151000ef          	jal	80000fa8 <putch>
8000065c:	00144503          	lbu	a0,1(s0)
80000660:	00140413          	addi	s0,s0,1
80000664:	fe051ae3          	bnez	a0,80000658 <hello+0x20>
80000668:	fff48493          	addi	s1,s1,-1
8000066c:	fe0490e3          	bnez	s1,8000064c <hello+0x14>
80000670:	00c12083          	lw	ra,12(sp)
80000674:	00812403          	lw	s0,8(sp)
80000678:	00412483          	lw	s1,4(sp)
8000067c:	01010113          	addi	sp,sp,16
80000680:	00008067          	ret

80000684 <mp_print>:
80000684:	ff010113          	addi	sp,sp,-16
80000688:	00812423          	sw	s0,8(sp)
8000068c:	00112623          	sw	ra,12(sp)
80000690:	00003417          	auipc	s0,0x3
80000694:	f7c40413          	addi	s0,s0,-132 # 8000360c <_etext+0x28c>
80000698:	459000ef          	jal	800012f0 <cpu_current>
8000069c:	00050593          	mv	a1,a0
800006a0:	00040513          	mv	a0,s0
800006a4:	3e1020ef          	jal	80003284 <printf>
800006a8:	ff1ff06f          	j	80000698 <mp_print+0x14>

800006ac <audio_test>:
800006ac:	fd010113          	addi	sp,sp,-48
800006b0:	00410593          	addi	a1,sp,4
800006b4:	00e00513          	li	a0,14
800006b8:	02112623          	sw	ra,44(sp)
800006bc:	215000ef          	jal	800010d0 <ioe_read>
800006c0:	00414783          	lbu	a5,4(sp)
800006c4:	0e078663          	beqz	a5,800007b0 <audio_test+0x104>
800006c8:	000027b7          	lui	a5,0x2
800006cc:	f4078793          	addi	a5,a5,-192 # 1f40 <_entry_offset+0x1f40>
800006d0:	00f12223          	sw	a5,4(sp)
800006d4:	00100793          	li	a5,1
800006d8:	00f12423          	sw	a5,8(sp)
800006dc:	00410593          	addi	a1,sp,4
800006e0:	40000793          	li	a5,1024
800006e4:	00f00513          	li	a0,15
800006e8:	03212023          	sw	s2,32(sp)
800006ec:	01312e23          	sw	s3,28(sp)
800006f0:	00f12623          	sw	a5,12(sp)
800006f4:	1f9000ef          	jal	800010ec <ioe_write>
800006f8:	00012797          	auipc	a5,0x12
800006fc:	a0c78793          	addi	a5,a5,-1524 # 80012104 <code>
80000700:	00004917          	auipc	s2,0x4
80000704:	bf890913          	addi	s2,s2,-1032 # 800042f8 <audio_payload>
80000708:	412789b3          	sub	s3,a5,s2
8000070c:	07278e63          	beq	a5,s2,80000788 <audio_test+0xdc>
80000710:	02812423          	sw	s0,40(sp)
80000714:	02912223          	sw	s1,36(sp)
80000718:	01412c23          	sw	s4,24(sp)
8000071c:	01512a23          	sw	s5,20(sp)
80000720:	00000493          	li	s1,0
80000724:	00000413          	li	s0,0
80000728:	00001ab7          	lui	s5,0x1
8000072c:	00003a17          	auipc	s4,0x3
80000730:	f18a0a13          	addi	s4,s4,-232 # 80003644 <_etext+0x2c4>
80000734:	40898433          	sub	s0,s3,s0
80000738:	00090793          	mv	a5,s2
8000073c:	00410593          	addi	a1,sp,4
80000740:	01100513          	li	a0,17
80000744:	008af463          	bgeu	s5,s0,8000074c <audio_test+0xa0>
80000748:	00001437          	lui	s0,0x1
8000074c:	00890933          	add	s2,s2,s0
80000750:	00f12223          	sw	a5,4(sp)
80000754:	008484b3          	add	s1,s1,s0
80000758:	01212423          	sw	s2,8(sp)
8000075c:	191000ef          	jal	800010ec <ioe_write>
80000760:	00098613          	mv	a2,s3
80000764:	00048593          	mv	a1,s1
80000768:	000a0513          	mv	a0,s4
8000076c:	319020ef          	jal	80003284 <printf>
80000770:	00048413          	mv	s0,s1
80000774:	fd34e0e3          	bltu	s1,s3,80000734 <audio_test+0x88>
80000778:	02812403          	lw	s0,40(sp)
8000077c:	02412483          	lw	s1,36(sp)
80000780:	01812a03          	lw	s4,24(sp)
80000784:	01412a83          	lw	s5,20(sp)
80000788:	00410593          	addi	a1,sp,4
8000078c:	01000513          	li	a0,16
80000790:	141000ef          	jal	800010d0 <ioe_read>
80000794:	00412783          	lw	a5,4(sp)
80000798:	fef048e3          	bgtz	a5,80000788 <audio_test+0xdc>
8000079c:	02c12083          	lw	ra,44(sp)
800007a0:	02012903          	lw	s2,32(sp)
800007a4:	01c12983          	lw	s3,28(sp)
800007a8:	03010113          	addi	sp,sp,48
800007ac:	00008067          	ret
800007b0:	02c12083          	lw	ra,44(sp)
800007b4:	00003597          	auipc	a1,0x3
800007b8:	e5c58593          	addi	a1,a1,-420 # 80003610 <_etext+0x290>
800007bc:	00003517          	auipc	a0,0x3
800007c0:	e6450513          	addi	a0,a0,-412 # 80003620 <_etext+0x2a0>
800007c4:	03010113          	addi	sp,sp,48
800007c8:	2bd0206f          	j	80003284 <printf>

800007cc <simple_pgalloc>:
800007cc:	00096617          	auipc	a2,0x96
800007d0:	d7c60613          	addi	a2,a2,-644 # 80096548 <st>
800007d4:	00062683          	lw	a3,0(a2)
800007d8:	00069663          	bnez	a3,800007e4 <simple_pgalloc+0x18>
800007dc:	00012697          	auipc	a3,0x12
800007e0:	b3c6a683          	lw	a3,-1220(a3) # 80012318 <heap>
800007e4:	02a6f7b3          	remu	a5,a3,a0
800007e8:	00078c63          	beqz	a5,80000800 <simple_pgalloc+0x34>
800007ec:	00168793          	addi	a5,a3,1
800007f0:	02a7f733          	remu	a4,a5,a0
800007f4:	00078693          	mv	a3,a5
800007f8:	00178793          	addi	a5,a5,1
800007fc:	fe071ae3          	bnez	a4,800007f0 <simple_pgalloc+0x24>
80000800:	00d50533          	add	a0,a0,a3
80000804:	00a62023          	sw	a0,0(a2)
80000808:	00068513          	mv	a0,a3
8000080c:	00008067          	ret

80000810 <simple_pgfree>:
80000810:	00008067          	ret

80000814 <vm_handler>:
80000814:	00052783          	lw	a5,0(a0)
80000818:	fe010113          	addi	sp,sp,-32
8000081c:	00812c23          	sw	s0,24(sp)
80000820:	00112e23          	sw	ra,28(sp)
80000824:	00300713          	li	a4,3
80000828:	00452603          	lw	a2,4(a0)
8000082c:	00058413          	mv	s0,a1
80000830:	0ae78a63          	beq	a5,a4,800008e4 <vm_handler+0xd0>
80000834:	08f76263          	bltu	a4,a5,800008b8 <vm_handler+0xa4>
80000838:	00100713          	li	a4,1
8000083c:	04e78663          	beq	a5,a4,80000888 <vm_handler+0x74>
80000840:	00200713          	li	a4,2
80000844:	0ee79c63          	bne	a5,a4,8000093c <vm_handler+0x128>
80000848:	00100513          	li	a0,1
8000084c:	379000ef          	jal	800013c4 <iset>
80000850:	00012623          	sw	zero,12(sp)
80000854:	00c12783          	lw	a5,12(sp)
80000858:	000f4737          	lui	a4,0xf4
8000085c:	23f70713          	addi	a4,a4,575 # f423f <_entry_offset+0xf423f>
80000860:	00f74c63          	blt	a4,a5,80000878 <vm_handler+0x64>
80000864:	00c12783          	lw	a5,12(sp)
80000868:	00178793          	addi	a5,a5,1
8000086c:	00f12623          	sw	a5,12(sp)
80000870:	00c12783          	lw	a5,12(sp)
80000874:	fef758e3          	bge	a4,a5,80000864 <vm_handler+0x50>
80000878:	00042583          	lw	a1,0(s0) # 1000 <_entry_offset+0x1000>
8000087c:	00003517          	auipc	a0,0x3
80000880:	e3450513          	addi	a0,a0,-460 # 800036b0 <_etext+0x330>
80000884:	201020ef          	jal	80003284 <printf>
80000888:	00012797          	auipc	a5,0x12
8000088c:	a8c7a783          	lw	a5,-1396(a5) # 80012314 <first_trap>
80000890:	00078a63          	beqz	a5,800008a4 <vm_handler+0x90>
80000894:	00012797          	auipc	a5,0x12
80000898:	a807a023          	sw	zero,-1408(a5) # 80012314 <first_trap>
8000089c:	00096417          	auipc	s0,0x96
800008a0:	cb042403          	lw	s0,-848(s0) # 8009654c <uctx>
800008a4:	01c12083          	lw	ra,28(sp)
800008a8:	00040513          	mv	a0,s0
800008ac:	01812403          	lw	s0,24(sp)
800008b0:	02010113          	addi	sp,sp,32
800008b4:	00008067          	ret
800008b8:	ffb78793          	addi	a5,a5,-5
800008bc:	00100713          	li	a4,1
800008c0:	06f76e63          	bltu	a4,a5,8000093c <vm_handler+0x128>
800008c4:	00c52583          	lw	a1,12(a0)
800008c8:	00003517          	auipc	a0,0x3
800008cc:	dbc50513          	addi	a0,a0,-580 # 80003684 <_etext+0x304>
800008d0:	1b5020ef          	jal	80003284 <printf>
800008d4:	00012797          	auipc	a5,0x12
800008d8:	a407a783          	lw	a5,-1472(a5) # 80012314 <first_trap>
800008dc:	fc0784e3          	beqz	a5,800008a4 <vm_handler+0x90>
800008e0:	fb5ff06f          	j	80000894 <vm_handler+0x80>
800008e4:	00167793          	andi	a5,a2,1
800008e8:	00852583          	lw	a1,8(a0)
800008ec:	00003697          	auipc	a3,0x3
800008f0:	f4468693          	addi	a3,a3,-188 # 80003830 <_etext+0x4b0>
800008f4:	00078663          	beqz	a5,80000900 <vm_handler+0xec>
800008f8:	00003697          	auipc	a3,0x3
800008fc:	d7068693          	addi	a3,a3,-656 # 80003668 <_etext+0x2e8>
80000900:	00267613          	andi	a2,a2,2
80000904:	00003717          	auipc	a4,0x3
80000908:	f2c70713          	addi	a4,a4,-212 # 80003830 <_etext+0x4b0>
8000090c:	00060663          	beqz	a2,80000918 <vm_handler+0x104>
80000910:	00003717          	auipc	a4,0x3
80000914:	d6470713          	addi	a4,a4,-668 # 80003674 <_etext+0x2f4>
80000918:	00003617          	auipc	a2,0x3
8000091c:	f1860613          	addi	a2,a2,-232 # 80003830 <_etext+0x4b0>
80000920:	00003517          	auipc	a0,0x3
80000924:	d8050513          	addi	a0,a0,-640 # 800036a0 <_etext+0x320>
80000928:	15d020ef          	jal	80003284 <printf>
8000092c:	00012797          	auipc	a5,0x12
80000930:	9e87a783          	lw	a5,-1560(a5) # 80012314 <first_trap>
80000934:	f60788e3          	beqz	a5,800008a4 <vm_handler+0x90>
80000938:	f5dff06f          	j	80000894 <vm_handler+0x80>
8000093c:	02800613          	li	a2,40
80000940:	00003597          	auipc	a1,0x3
80000944:	d7458593          	addi	a1,a1,-652 # 800036b4 <_etext+0x334>
80000948:	00003517          	auipc	a0,0x3
8000094c:	db050513          	addi	a0,a0,-592 # 800036f8 <_etext+0x378>
80000950:	135020ef          	jal	80003284 <printf>
80000954:	00100513          	li	a0,1
80000958:	65c000ef          	jal	80000fb4 <halt>

8000095c <vm_test>:
8000095c:	fe010113          	addi	sp,sp,-32
80000960:	00300613          	li	a2,3
80000964:	00003597          	auipc	a1,0x3
80000968:	db058593          	addi	a1,a1,-592 # 80003714 <_etext+0x394>
8000096c:	00003517          	auipc	a0,0x3
80000970:	dac50513          	addi	a0,a0,-596 # 80003718 <_etext+0x398>
80000974:	00112e23          	sw	ra,28(sp)
80000978:	108010ef          	jal	80001a80 <strncmp>
8000097c:	00050e63          	beqz	a0,80000998 <vm_test+0x3c>
80000980:	00003597          	auipc	a1,0x3
80000984:	da058593          	addi	a1,a1,-608 # 80003720 <_etext+0x3a0>
80000988:	00003517          	auipc	a0,0x3
8000098c:	d9050513          	addi	a0,a0,-624 # 80003718 <_etext+0x398>
80000990:	0ac010ef          	jal	80001a3c <strcmp>
80000994:	10051863          	bnez	a0,80000aa4 <vm_test+0x148>
80000998:	00093517          	auipc	a0,0x93
8000099c:	b8c50513          	addi	a0,a0,-1140 # 80093524 <prot>
800009a0:	00812c23          	sw	s0,24(sp)
800009a4:	00912a23          	sw	s1,20(sp)
800009a8:	01212823          	sw	s2,16(sp)
800009ac:	3ad000ef          	jal	80001558 <protect>
800009b0:	00093917          	auipc	s2,0x93
800009b4:	b7490913          	addi	s2,s2,-1164 # 80093524 <prot>
800009b8:	00892603          	lw	a2,8(s2)
800009bc:	00492583          	lw	a1,4(s2)
800009c0:	00003517          	auipc	a0,0x3
800009c4:	d8850513          	addi	a0,a0,-632 # 80003748 <_etext+0x3c8>
800009c8:	0bd020ef          	jal	80003284 <printf>
800009cc:	00492783          	lw	a5,4(s2)
800009d0:	00892483          	lw	s1,8(s2)
800009d4:	00096697          	auipc	a3,0x96
800009d8:	b7468693          	addi	a3,a3,-1164 # 80096548 <st>
800009dc:	0006a403          	lw	s0,0(a3)
800009e0:	40f484b3          	sub	s1,s1,a5
800009e4:	0014d493          	srli	s1,s1,0x1
800009e8:	00092703          	lw	a4,0(s2)
800009ec:	00f484b3          	add	s1,s1,a5
800009f0:	00041c63          	bnez	s0,80000a08 <vm_test+0xac>
800009f4:	00012417          	auipc	s0,0x12
800009f8:	92442403          	lw	s0,-1756(s0) # 80012318 <heap>
800009fc:	02e477b3          	remu	a5,s0,a4
80000a00:	00078863          	beqz	a5,80000a10 <vm_test+0xb4>
80000a04:	00140413          	addi	s0,s0,1
80000a08:	02e477b3          	remu	a5,s0,a4
80000a0c:	fe079ce3          	bnez	a5,80000a04 <vm_test+0xa8>
80000a10:	00870733          	add	a4,a4,s0
80000a14:	00f00613          	li	a2,15
80000a18:	00011597          	auipc	a1,0x11
80000a1c:	6ec58593          	addi	a1,a1,1772 # 80012104 <code>
80000a20:	00040513          	mv	a0,s0
80000a24:	00e6a023          	sw	a4,0(a3)
80000a28:	094010ef          	jal	80001abc <memcpy>
80000a2c:	00300693          	li	a3,3
80000a30:	00040613          	mv	a2,s0
80000a34:	00048593          	mv	a1,s1
80000a38:	00093517          	auipc	a0,0x93
80000a3c:	aec50513          	addi	a0,a0,-1300 # 80093524 <prot>
80000a40:	371000ef          	jal	800015b0 <map>
80000a44:	00040613          	mv	a2,s0
80000a48:	00048593          	mv	a1,s1
80000a4c:	00003517          	auipc	a0,0x3
80000a50:	d2050513          	addi	a0,a0,-736 # 8000376c <_etext+0x3ec>
80000a54:	031020ef          	jal	80003284 <printf>
80000a58:	00048693          	mv	a3,s1
80000a5c:	00092597          	auipc	a1,0x92
80000a60:	ac858593          	addi	a1,a1,-1336 # 80092524 <stack.0>
80000a64:	00093617          	auipc	a2,0x93
80000a68:	ac060613          	addi	a2,a2,-1344 # 80093524 <prot>
80000a6c:	00093517          	auipc	a0,0x93
80000a70:	ab850513          	addi	a0,a0,-1352 # 80093524 <prot>
80000a74:	341000ef          	jal	800015b4 <ucontext>
80000a78:	00050793          	mv	a5,a0
80000a7c:	00100513          	li	a0,1
80000a80:	00096717          	auipc	a4,0x96
80000a84:	acf72623          	sw	a5,-1332(a4) # 8009654c <uctx>
80000a88:	13d000ef          	jal	800013c4 <iset>
80000a8c:	01812403          	lw	s0,24(sp)
80000a90:	01412483          	lw	s1,20(sp)
80000a94:	01012903          	lw	s2,16(sp)
80000a98:	01c12083          	lw	ra,28(sp)
80000a9c:	02010113          	addi	sp,sp,32
80000aa0:	1190006f          	j	800013b8 <yield>
80000aa4:	01c12083          	lw	ra,28(sp)
80000aa8:	00003517          	auipc	a0,0x3
80000aac:	c8050513          	addi	a0,a0,-896 # 80003728 <_etext+0x3a8>
80000ab0:	02010113          	addi	sp,sp,32
80000ab4:	7d00206f          	j	80003284 <printf>

80000ab8 <redraw>:
80000ab8:	fb010113          	addi	sp,sp,-80
80000abc:	00810593          	addi	a1,sp,8
80000ac0:	00900513          	li	a0,9
80000ac4:	04112623          	sw	ra,76(sp)
80000ac8:	03312e23          	sw	s3,60(sp)
80000acc:	03512a23          	sw	s5,52(sp)
80000ad0:	03712623          	sw	s7,44(sp)
80000ad4:	04812423          	sw	s0,72(sp)
80000ad8:	04912223          	sw	s1,68(sp)
80000adc:	05212023          	sw	s2,64(sp)
80000ae0:	03412c23          	sw	s4,56(sp)
80000ae4:	03612823          	sw	s6,48(sp)
80000ae8:	03812423          	sw	s8,40(sp)
80000aec:	03912223          	sw	s9,36(sp)
80000af0:	5e0000ef          	jal	800010d0 <ioe_read>
80000af4:	00c12783          	lw	a5,12(sp)
80000af8:	00810593          	addi	a1,sp,8
80000afc:	00900513          	li	a0,9
80000b00:	41f7d993          	srai	s3,a5,0x1f
80000b04:	01f9f993          	andi	s3,s3,31
80000b08:	00f989b3          	add	s3,s3,a5
80000b0c:	5c4000ef          	jal	800010d0 <ioe_read>
80000b10:	01012783          	lw	a5,16(sp)
80000b14:	4059d993          	srai	s3,s3,0x5
80000b18:	40000713          	li	a4,1024
80000b1c:	41f7da93          	srai	s5,a5,0x1f
80000b20:	01fafa93          	andi	s5,s5,31
80000b24:	00fa8ab3          	add	s5,s5,a5
80000b28:	405ada93          	srai	s5,s5,0x5
80000b2c:	03598bb3          	mul	s7,s3,s5
80000b30:	0f776063          	bltu	a4,s7,80000c10 <redraw+0x158>
80000b34:	00093a17          	auipc	s4,0x93
80000b38:	a00a0a13          	addi	s4,s4,-1536 # 80093534 <color_buf>
80000b3c:	002b9413          	slli	s0,s7,0x2
80000b40:	00095b17          	auipc	s6,0x95
80000b44:	a74b0b13          	addi	s6,s6,-1420 # 800955b4 <canvas+0x80>
80000b48:	00096c17          	auipc	s8,0x96
80000b4c:	a6cc0c13          	addi	s8,s8,-1428 # 800965b4 <pgalloc_usr+0x54>
80000b50:	008a0433          	add	s0,s4,s0
80000b54:	00000c93          	li	s9,0
80000b58:	f80b0493          	addi	s1,s6,-128
80000b5c:	00000913          	li	s2,0
80000b60:	000b8c63          	beqz	s7,80000b78 <redraw+0xc0>
80000b64:	0004a703          	lw	a4,0(s1)
80000b68:	000a0793          	mv	a5,s4
80000b6c:	00e7a023          	sw	a4,0(a5)
80000b70:	00478793          	addi	a5,a5,4
80000b74:	fe879ce3          	bne	a5,s0,80000b6c <redraw+0xb4>
80000b78:	00810593          	addi	a1,sp,8
80000b7c:	00b00513          	li	a0,11
80000b80:	00448493          	addi	s1,s1,4
80000b84:	01212423          	sw	s2,8(sp)
80000b88:	01912623          	sw	s9,12(sp)
80000b8c:	01412823          	sw	s4,16(sp)
80000b90:	01312a23          	sw	s3,20(sp)
80000b94:	01512c23          	sw	s5,24(sp)
80000b98:	00010e23          	sb	zero,28(sp)
80000b9c:	01390933          	add	s2,s2,s3
80000ba0:	54c000ef          	jal	800010ec <ioe_write>
80000ba4:	fb649ee3          	bne	s1,s6,80000b60 <redraw+0xa8>
80000ba8:	08048b13          	addi	s6,s1,128
80000bac:	015c8cb3          	add	s9,s9,s5
80000bb0:	fb8b14e3          	bne	s6,s8,80000b58 <redraw+0xa0>
80000bb4:	00810593          	addi	a1,sp,8
80000bb8:	00100793          	li	a5,1
80000bbc:	00b00513          	li	a0,11
80000bc0:	00012423          	sw	zero,8(sp)
80000bc4:	00012623          	sw	zero,12(sp)
80000bc8:	00012823          	sw	zero,16(sp)
80000bcc:	00012a23          	sw	zero,20(sp)
80000bd0:	00012c23          	sw	zero,24(sp)
80000bd4:	00f10e23          	sb	a5,28(sp)
80000bd8:	514000ef          	jal	800010ec <ioe_write>
80000bdc:	04c12083          	lw	ra,76(sp)
80000be0:	04812403          	lw	s0,72(sp)
80000be4:	04412483          	lw	s1,68(sp)
80000be8:	04012903          	lw	s2,64(sp)
80000bec:	03c12983          	lw	s3,60(sp)
80000bf0:	03812a03          	lw	s4,56(sp)
80000bf4:	03412a83          	lw	s5,52(sp)
80000bf8:	03012b03          	lw	s6,48(sp)
80000bfc:	02c12b83          	lw	s7,44(sp)
80000c00:	02812c03          	lw	s8,40(sp)
80000c04:	02412c83          	lw	s9,36(sp)
80000c08:	05010113          	addi	sp,sp,80
80000c0c:	00008067          	ret
80000c10:	01600613          	li	a2,22
80000c14:	00003597          	auipc	a1,0x3
80000c18:	b8458593          	addi	a1,a1,-1148 # 80003798 <_etext+0x418>
80000c1c:	00003517          	auipc	a0,0x3
80000c20:	adc50513          	addi	a0,a0,-1316 # 800036f8 <_etext+0x378>
80000c24:	660020ef          	jal	80003284 <printf>
80000c28:	00100513          	li	a0,1
80000c2c:	388000ef          	jal	80000fb4 <halt>

80000c30 <update>:
80000c30:	00096797          	auipc	a5,0x96
80000c34:	92078793          	addi	a5,a5,-1760 # 80096550 <tsc.2>
80000c38:	0007a383          	lw	t2,0(a5)
80000c3c:	fe010113          	addi	sp,sp,-32
80000c40:	00812e23          	sw	s0,28(sp)
80000c44:	00912c23          	sw	s1,24(sp)
80000c48:	01212a23          	sw	s2,20(sp)
80000c4c:	01312823          	sw	s3,16(sp)
80000c50:	01412623          	sw	s4,12(sp)
80000c54:	00138393          	addi	t2,t2,1
80000c58:	00094717          	auipc	a4,0x94
80000c5c:	95c70713          	addi	a4,a4,-1700 # 800945b4 <used+0x80>
80000c60:	00095697          	auipc	a3,0x95
80000c64:	95468693          	addi	a3,a3,-1708 # 800955b4 <canvas+0x80>
80000c68:	0077a023          	sw	t2,0(a5)
80000c6c:	f8070793          	addi	a5,a4,-128
80000c70:	0007a023          	sw	zero,0(a5)
80000c74:	00478793          	addi	a5,a5,4
80000c78:	fef71ce3          	bne	a4,a5,80000c70 <update+0x40>
80000c7c:	08070713          	addi	a4,a4,128
80000c80:	fee696e3          	bne	a3,a4,80000c6c <update+0x3c>
80000c84:	0ff3f693          	zext.b	a3,t2
80000c88:	00169793          	slli	a5,a3,0x1
80000c8c:	00f687b3          	add	a5,a3,a5
80000c90:	00369713          	slli	a4,a3,0x3
80000c94:	40d70733          	sub	a4,a4,a3
80000c98:	00179793          	slli	a5,a5,0x1
80000c9c:	0ff7f793          	zext.b	a5,a5
80000ca0:	0ff77713          	zext.b	a4,a4
80000ca4:	00871713          	slli	a4,a4,0x8
80000ca8:	01079793          	slli	a5,a5,0x10
80000cac:	00e7e7b3          	or	a5,a5,a4
80000cb0:	0ff3f713          	zext.b	a4,t2
80000cb4:	00e7e7b3          	or	a5,a5,a4
80000cb8:	00095417          	auipc	s0,0x95
80000cbc:	87c40413          	addi	s0,s0,-1924 # 80095534 <canvas>
80000cc0:	00094e97          	auipc	t4,0x94
80000cc4:	874e8e93          	addi	t4,t4,-1932 # 80094534 <used>
80000cc8:	00f42023          	sw	a5,0(s0)
80000ccc:	00100793          	li	a5,1
80000cd0:	00fea023          	sw	a5,0(t4)
80000cd4:	00100693          	li	a3,1
80000cd8:	00000713          	li	a4,0
80000cdc:	00100f93          	li	t6,1
80000ce0:	00000813          	li	a6,0
80000ce4:	00000913          	li	s2,0
80000ce8:	00000e13          	li	t3,0
80000cec:	01f00f13          	li	t5,31
80000cf0:	00003317          	auipc	t1,0x3
80000cf4:	2d830313          	addi	t1,t1,728 # 80003fc8 <dx.1>
80000cf8:	00003897          	auipc	a7,0x3
80000cfc:	2c088893          	addi	a7,a7,704 # 80003fb8 <dy.0>
80000d00:	00100493          	li	s1,1
80000d04:	40000293          	li	t0,1024
80000d08:	00400513          	li	a0,4
80000d0c:	00180793          	addi	a5,a6,1
80000d10:	00ee05b3          	add	a1,t3,a4
80000d14:	41f7d613          	srai	a2,a5,0x1f
80000d18:	00d906b3          	add	a3,s2,a3
80000d1c:	00559713          	slli	a4,a1,0x5
80000d20:	01e65613          	srli	a2,a2,0x1e
80000d24:	00d70733          	add	a4,a4,a3
80000d28:	00271713          	slli	a4,a4,0x2
80000d2c:	00c787b3          	add	a5,a5,a2
80000d30:	00d5e9b3          	or	s3,a1,a3
80000d34:	00ee8a33          	add	s4,t4,a4
80000d38:	0037f793          	andi	a5,a5,3
80000d3c:	fff50513          	addi	a0,a0,-1
80000d40:	013f6663          	bltu	t5,s3,80000d4c <update+0x11c>
80000d44:	000a2983          	lw	s3,0(s4)
80000d48:	02098263          	beqz	s3,80000d6c <update+0x13c>
80000d4c:	40c78833          	sub	a6,a5,a2
80000d50:	00281793          	slli	a5,a6,0x2
80000d54:	00f30733          	add	a4,t1,a5
80000d58:	00f887b3          	add	a5,a7,a5
80000d5c:	06050063          	beqz	a0,80000dbc <update+0x18c>
80000d60:	00072703          	lw	a4,0(a4)
80000d64:	0007a683          	lw	a3,0(a5)
80000d68:	fa5ff06f          	j	80000d0c <update+0xdc>
80000d6c:	401fd513          	srai	a0,t6,0x1
80000d70:	00750533          	add	a0,a0,t2
80000d74:	0ff57e13          	zext.b	t3,a0
80000d78:	001e1613          	slli	a2,t3,0x1
80000d7c:	00ce0633          	add	a2,t3,a2
80000d80:	003e1793          	slli	a5,t3,0x3
80000d84:	41c787b3          	sub	a5,a5,t3
80000d88:	00161613          	slli	a2,a2,0x1
80000d8c:	0ff67613          	zext.b	a2,a2
80000d90:	0ff7f793          	zext.b	a5,a5
80000d94:	00879793          	slli	a5,a5,0x8
80000d98:	01061613          	slli	a2,a2,0x10
80000d9c:	00f66633          	or	a2,a2,a5
80000da0:	0ff57513          	zext.b	a0,a0
80000da4:	00e407b3          	add	a5,s0,a4
80000da8:	00a66733          	or	a4,a2,a0
80000dac:	009a2023          	sw	s1,0(s4)
80000db0:	00e7a023          	sw	a4,0(a5)
80000db4:	00068913          	mv	s2,a3
80000db8:	00058e13          	mv	t3,a1
80000dbc:	001f8f93          	addi	t6,t6,1
80000dc0:	005f8e63          	beq	t6,t0,80000ddc <update+0x1ac>
80000dc4:	00281793          	slli	a5,a6,0x2
80000dc8:	00f30733          	add	a4,t1,a5
80000dcc:	00f887b3          	add	a5,a7,a5
80000dd0:	00072703          	lw	a4,0(a4)
80000dd4:	0007a683          	lw	a3,0(a5)
80000dd8:	f31ff06f          	j	80000d08 <update+0xd8>
80000ddc:	01c12403          	lw	s0,28(sp)
80000de0:	01812483          	lw	s1,24(sp)
80000de4:	01412903          	lw	s2,20(sp)
80000de8:	01012983          	lw	s3,16(sp)
80000dec:	00c12a03          	lw	s4,12(sp)
80000df0:	02010113          	addi	sp,sp,32
80000df4:	00008067          	ret

80000df8 <video_test>:
80000df8:	fd010113          	addi	sp,sp,-48
80000dfc:	02912223          	sw	s1,36(sp)
80000e00:	03212023          	sw	s2,32(sp)
80000e04:	01312e23          	sw	s3,28(sp)
80000e08:	01412c23          	sw	s4,24(sp)
80000e0c:	01512a23          	sw	s5,20(sp)
80000e10:	01612823          	sw	s6,16(sp)
80000e14:	02112623          	sw	ra,44(sp)
80000e18:	02812423          	sw	s0,40(sp)
80000e1c:	00000993          	li	s3,0
80000e20:	00000913          	li	s2,0
80000e24:	00000493          	li	s1,0
80000e28:	02100a93          	li	s5,33
80000e2c:	3e800a13          	li	s4,1000
80000e30:	00003b17          	auipc	s6,0x3
80000e34:	9b0b0b13          	addi	s6,s6,-1616 # 800037e0 <_etext+0x460>
80000e38:	00810593          	addi	a1,sp,8
80000e3c:	00600513          	li	a0,6
80000e40:	290000ef          	jal	800010d0 <ioe_read>
80000e44:	00812503          	lw	a0,8(sp)
80000e48:	00c12583          	lw	a1,12(sp)
80000e4c:	3e800613          	li	a2,1000
80000e50:	00000693          	li	a3,0
80000e54:	2d9000ef          	jal	8000192c <__udivdi3>
80000e58:	409507b3          	sub	a5,a0,s1
80000e5c:	00050413          	mv	s0,a0
80000e60:	02fae463          	bltu	s5,a5,80000e88 <video_test+0x90>
80000e64:	412407b3          	sub	a5,s0,s2
80000e68:	fcfa78e3          	bgeu	s4,a5,80000e38 <video_test+0x40>
80000e6c:	00098613          	mv	a2,s3
80000e70:	00040593          	mv	a1,s0
80000e74:	000b0513          	mv	a0,s6
80000e78:	40c020ef          	jal	80003284 <printf>
80000e7c:	00040913          	mv	s2,s0
80000e80:	00000993          	li	s3,0
80000e84:	fb5ff06f          	j	80000e38 <video_test+0x40>
80000e88:	da9ff0ef          	jal	80000c30 <update>
80000e8c:	00198993          	addi	s3,s3,1
80000e90:	c29ff0ef          	jal	80000ab8 <redraw>
80000e94:	00040493          	mv	s1,s0
80000e98:	fcdff06f          	j	80000e64 <video_test+0x6c>

80000e9c <keyboard_test>:
80000e9c:	fc010113          	addi	sp,sp,-64
80000ea0:	00003517          	auipc	a0,0x3
80000ea4:	95050513          	addi	a0,a0,-1712 # 800037f0 <_etext+0x470>
80000ea8:	02112e23          	sw	ra,60(sp)
80000eac:	02812c23          	sw	s0,56(sp)
80000eb0:	02912a23          	sw	s1,52(sp)
80000eb4:	03212823          	sw	s2,48(sp)
80000eb8:	03312623          	sw	s3,44(sp)
80000ebc:	03412423          	sw	s4,40(sp)
80000ec0:	03512223          	sw	s5,36(sp)
80000ec4:	03612023          	sw	s6,32(sp)
80000ec8:	01712e23          	sw	s7,28(sp)
80000ecc:	3b8020ef          	jal	80003284 <printf>
80000ed0:	00810593          	addi	a1,sp,8
80000ed4:	00100513          	li	a0,1
80000ed8:	1f8000ef          	jal	800010d0 <ioe_read>
80000edc:	00814783          	lbu	a5,8(sp)
80000ee0:	00095b97          	auipc	s7,0x95
80000ee4:	675b8b93          	addi	s7,s7,1653 # 80096555 <has_uart>
80000ee8:	00810593          	addi	a1,sp,8
80000eec:	00700513          	li	a0,7
80000ef0:	00fb8023          	sb	a5,0(s7)
80000ef4:	1dc000ef          	jal	800010d0 <ioe_read>
80000ef8:	00814783          	lbu	a5,8(sp)
80000efc:	00095b17          	auipc	s6,0x95
80000f00:	658b0b13          	addi	s6,s6,1624 # 80096554 <has_kbd>
80000f04:	00003997          	auipc	s3,0x3
80000f08:	0d498993          	addi	s3,s3,212 # 80003fd8 <names>
80000f0c:	00fb0023          	sb	a5,0(s6)
80000f10:	0ff00913          	li	s2,255
80000f14:	00003497          	auipc	s1,0x3
80000f18:	90848493          	addi	s1,s1,-1784 # 8000381c <_etext+0x49c>
80000f1c:	00003a17          	auipc	s4,0x3
80000f20:	ad4a0a13          	addi	s4,s4,-1324 # 800039f0 <_etext+0x670>
80000f24:	00003a97          	auipc	s5,0x3
80000f28:	ad4a8a93          	addi	s5,s5,-1324 # 800039f8 <_etext+0x678>
80000f2c:	00003417          	auipc	s0,0x3
80000f30:	90840413          	addi	s0,s0,-1784 # 80003834 <_etext+0x4b4>
80000f34:	000bc783          	lbu	a5,0(s7)
80000f38:	00079a63          	bnez	a5,80000f4c <keyboard_test+0xb0>
80000f3c:	000b4783          	lbu	a5,0(s6)
80000f40:	fe078ae3          	beqz	a5,80000f34 <keyboard_test+0x98>
80000f44:	03c0006f          	j	80000f80 <keyboard_test+0xe4>
80000f48:	33c020ef          	jal	80003284 <printf>
80000f4c:	00810593          	addi	a1,sp,8
80000f50:	00300513          	li	a0,3
80000f54:	17c000ef          	jal	800010d0 <ioe_read>
80000f58:	00814603          	lbu	a2,8(sp)
80000f5c:	00048513          	mv	a0,s1
80000f60:	00060593          	mv	a1,a2
80000f64:	ff2612e3          	bne	a2,s2,80000f48 <keyboard_test+0xac>
80000f68:	fd5ff06f          	j	80000f3c <keyboard_test+0xa0>
80000f6c:	0007a583          	lw	a1,0(a5)
80000f70:	000a0693          	mv	a3,s4
80000f74:	00070463          	beqz	a4,80000f7c <keyboard_test+0xe0>
80000f78:	000a8693          	mv	a3,s5
80000f7c:	308020ef          	jal	80003284 <printf>
80000f80:	00800513          	li	a0,8
80000f84:	00810593          	addi	a1,sp,8
80000f88:	148000ef          	jal	800010d0 <ioe_read>
80000f8c:	00c12603          	lw	a2,12(sp)
80000f90:	00814703          	lbu	a4,8(sp)
80000f94:	00040513          	mv	a0,s0
80000f98:	00261793          	slli	a5,a2,0x2
80000f9c:	00f987b3          	add	a5,s3,a5
80000fa0:	fc0616e3          	bnez	a2,80000f6c <keyboard_test+0xd0>
80000fa4:	f91ff06f          	j	80000f34 <keyboard_test+0x98>

80000fa8 <putch>:
80000fa8:	a00007b7          	lui	a5,0xa0000
80000fac:	3ea78c23          	sb	a0,1016(a5) # a00003f8 <_end+0x1ff613f8>
80000fb0:	00008067          	ret

80000fb4 <halt>:
80000fb4:	00050513          	mv	a0,a0
80000fb8:	00100073          	ebreak
80000fbc:	0000006f          	j	80000fbc <halt+0x8>

80000fc0 <_trm_init>:
80000fc0:	ff010113          	addi	sp,sp,-16
80000fc4:	00003517          	auipc	a0,0x3
80000fc8:	16050513          	addi	a0,a0,352 # 80004124 <mainargs>
80000fcc:	00112623          	sw	ra,12(sp)
80000fd0:	840ff0ef          	jal	80000010 <main>
80000fd4:	00050513          	mv	a0,a0
80000fd8:	00100073          	ebreak
80000fdc:	0000006f          	j	80000fdc <_trm_init+0x1c>

80000fe0 <__am_timer_config>:
80000fe0:	00100793          	li	a5,1
80000fe4:	00f50023          	sb	a5,0(a0)
80000fe8:	00f500a3          	sb	a5,1(a0)
80000fec:	00008067          	ret

80000ff0 <__am_input_config>:
80000ff0:	00100793          	li	a5,1
80000ff4:	00f50023          	sb	a5,0(a0)
80000ff8:	00008067          	ret

80000ffc <__am_uart_config>:
80000ffc:	00050023          	sb	zero,0(a0)
80001000:	00008067          	ret

80001004 <__am_net_config>:
80001004:	00050023          	sb	zero,0(a0)
80001008:	00008067          	ret

8000100c <fail>:
8000100c:	ff010113          	addi	sp,sp,-16
80001010:	00812423          	sw	s0,8(sp)
80001014:	00112623          	sw	ra,12(sp)
80001018:	00002417          	auipc	s0,0x2
8000101c:	44c40413          	addi	s0,s0,1100 # 80003464 <_etext+0xe4>
80001020:	04100513          	li	a0,65
80001024:	f85ff0ef          	jal	80000fa8 <putch>
80001028:	00144503          	lbu	a0,1(s0)
8000102c:	00140413          	addi	s0,s0,1
80001030:	fe051ae3          	bnez	a0,80001024 <fail+0x18>
80001034:	00003417          	auipc	s0,0x3
80001038:	9cc40413          	addi	s0,s0,-1588 # 80003a00 <_etext+0x680>
8000103c:	06100513          	li	a0,97
80001040:	f69ff0ef          	jal	80000fa8 <putch>
80001044:	00144503          	lbu	a0,1(s0)
80001048:	00140413          	addi	s0,s0,1
8000104c:	fe051ae3          	bnez	a0,80001040 <fail+0x34>
80001050:	00003417          	auipc	s0,0x3
80001054:	9cc40413          	addi	s0,s0,-1588 # 80003a1c <_etext+0x69c>
80001058:	02000513          	li	a0,32
8000105c:	f4dff0ef          	jal	80000fa8 <putch>
80001060:	00144503          	lbu	a0,1(s0)
80001064:	00140413          	addi	s0,s0,1
80001068:	fe051ae3          	bnez	a0,8000105c <fail+0x50>
8000106c:	00100513          	li	a0,1
80001070:	f45ff0ef          	jal	80000fb4 <halt>

80001074 <ioe_init>:
80001074:	ff010113          	addi	sp,sp,-16
80001078:	00112623          	sw	ra,12(sp)
8000107c:	00011797          	auipc	a5,0x11
80001080:	09878793          	addi	a5,a5,152 # 80012114 <lut>
80001084:	00011697          	auipc	a3,0x11
80001088:	29068693          	addi	a3,a3,656 # 80012314 <first_trap>
8000108c:	00000617          	auipc	a2,0x0
80001090:	f8060613          	addi	a2,a2,-128 # 8000100c <fail>
80001094:	00c0006f          	j	800010a0 <ioe_init+0x2c>
80001098:	00478793          	addi	a5,a5,4
8000109c:	00d78c63          	beq	a5,a3,800010b4 <ioe_init+0x40>
800010a0:	0007a703          	lw	a4,0(a5)
800010a4:	fe071ae3          	bnez	a4,80001098 <ioe_init+0x24>
800010a8:	00c7a023          	sw	a2,0(a5)
800010ac:	00478793          	addi	a5,a5,4
800010b0:	fed798e3          	bne	a5,a3,800010a0 <ioe_init+0x2c>
800010b4:	0c0000ef          	jal	80001174 <__am_gpu_init>
800010b8:	050000ef          	jal	80001108 <__am_timer_init>
800010bc:	19c000ef          	jal	80001258 <__am_audio_init>
800010c0:	00c12083          	lw	ra,12(sp)
800010c4:	00100513          	li	a0,1
800010c8:	01010113          	addi	sp,sp,16
800010cc:	00008067          	ret

800010d0 <ioe_read>:
800010d0:	00251513          	slli	a0,a0,0x2
800010d4:	00011797          	auipc	a5,0x11
800010d8:	04078793          	addi	a5,a5,64 # 80012114 <lut>
800010dc:	00a787b3          	add	a5,a5,a0
800010e0:	0007a783          	lw	a5,0(a5)
800010e4:	00058513          	mv	a0,a1
800010e8:	00078067          	jr	a5

800010ec <ioe_write>:
800010ec:	00251513          	slli	a0,a0,0x2
800010f0:	00011797          	auipc	a5,0x11
800010f4:	02478793          	addi	a5,a5,36 # 80012114 <lut>
800010f8:	00a787b3          	add	a5,a5,a0
800010fc:	0007a783          	lw	a5,0(a5)
80001100:	00058513          	mv	a0,a1
80001104:	00078067          	jr	a5

80001108 <__am_timer_init>:
80001108:	00008067          	ret

8000110c <__am_timer_uptime>:
8000110c:	a0000737          	lui	a4,0xa0000
80001110:	a00007b7          	lui	a5,0xa0000
80001114:	04870713          	addi	a4,a4,72 # a0000048 <_end+0x1ff61048>
80001118:	04c7a683          	lw	a3,76(a5) # a000004c <_end+0x1ff6104c>
8000111c:	00072703          	lw	a4,0(a4)
80001120:	00d52223          	sw	a3,4(a0)
80001124:	00e52023          	sw	a4,0(a0)
80001128:	00008067          	ret

8000112c <__am_timer_rtc>:
8000112c:	76c00793          	li	a5,1900
80001130:	00052a23          	sw	zero,20(a0)
80001134:	00052823          	sw	zero,16(a0)
80001138:	00052623          	sw	zero,12(a0)
8000113c:	00052423          	sw	zero,8(a0)
80001140:	00052223          	sw	zero,4(a0)
80001144:	00f52023          	sw	a5,0(a0)
80001148:	00008067          	ret

8000114c <__am_input_keybrd>:
8000114c:	a00006b7          	lui	a3,0xa0000
80001150:	0606a783          	lw	a5,96(a3) # a0000060 <_end+0x1ff61060>
80001154:	ffff8637          	lui	a2,0xffff8
80001158:	fff60613          	addi	a2,a2,-1 # ffff7fff <_end+0x7ff58fff>
8000115c:	00f7d713          	srli	a4,a5,0xf
80001160:	00177713          	andi	a4,a4,1
80001164:	00c7f7b3          	and	a5,a5,a2
80001168:	00e50023          	sb	a4,0(a0)
8000116c:	00f52223          	sw	a5,4(a0)
80001170:	00008067          	ret

80001174 <__am_gpu_init>:
80001174:	00008067          	ret

80001178 <__am_gpu_config>:
80001178:	a00006b7          	lui	a3,0xa0000
8000117c:	1006a783          	lw	a5,256(a3) # a0000100 <_end+0x1ff61100>
80001180:	00100693          	li	a3,1
80001184:	00d51023          	sh	a3,0(a0)
80001188:	0107d613          	srli	a2,a5,0x10
8000118c:	01079793          	slli	a5,a5,0x10
80001190:	0107d793          	srli	a5,a5,0x10
80001194:	02f60733          	mul	a4,a2,a5
80001198:	00f52423          	sw	a5,8(a0)
8000119c:	00c52223          	sw	a2,4(a0)
800011a0:	00271793          	slli	a5,a4,0x2
800011a4:	00f52623          	sw	a5,12(a0)
800011a8:	00008067          	ret

800011ac <__am_gpu_fbdraw>:
800011ac:	00c52783          	lw	a5,12(a0)
800011b0:	08f05263          	blez	a5,80001234 <__am_gpu_fbdraw+0x88>
800011b4:	01052f03          	lw	t5,16(a0)
800011b8:	07e05e63          	blez	t5,80001234 <__am_gpu_fbdraw+0x88>
800011bc:	a00006b7          	lui	a3,0xa0000
800011c0:	1006a703          	lw	a4,256(a3) # a0000100 <_end+0x1ff61100>
800011c4:	00452603          	lw	a2,4(a0)
800011c8:	00052e03          	lw	t3,0(a0)
800011cc:	01075713          	srli	a4,a4,0x10
800011d0:	02c70633          	mul	a2,a4,a2
800011d4:	00852303          	lw	t1,8(a0)
800011d8:	40f70733          	sub	a4,a4,a5
800011dc:	00279f93          	slli	t6,a5,0x2
800011e0:	40f007b3          	neg	a5,a5
800011e4:	00271e93          	slli	t4,a4,0x2
800011e8:	01f305b3          	add	a1,t1,t6
800011ec:	00000893          	li	a7,0
800011f0:	a1000837          	lui	a6,0xa1000
800011f4:	01c60633          	add	a2,a2,t3
800011f8:	00261613          	slli	a2,a2,0x2
800011fc:	40660633          	sub	a2,a2,t1
80001200:	00379e13          	slli	t3,a5,0x3
80001204:	41f58333          	sub	t1,a1,t6
80001208:	00030793          	mv	a5,t1
8000120c:	0007a683          	lw	a3,0(a5)
80001210:	00c78733          	add	a4,a5,a2
80001214:	00e80733          	add	a4,a6,a4
80001218:	00d72023          	sw	a3,0(a4)
8000121c:	00478793          	addi	a5,a5,4
80001220:	feb796e3          	bne	a5,a1,8000120c <__am_gpu_fbdraw+0x60>
80001224:	00188893          	addi	a7,a7,1
80001228:	01d60633          	add	a2,a2,t4
8000122c:	41c305b3          	sub	a1,t1,t3
80001230:	fd1f1ae3          	bne	t5,a7,80001204 <__am_gpu_fbdraw+0x58>
80001234:	01454783          	lbu	a5,20(a0)
80001238:	00078863          	beqz	a5,80001248 <__am_gpu_fbdraw+0x9c>
8000123c:	a00007b7          	lui	a5,0xa0000
80001240:	00100713          	li	a4,1
80001244:	10e7a223          	sw	a4,260(a5) # a0000104 <_end+0x1ff61104>
80001248:	00008067          	ret

8000124c <__am_gpu_status>:
8000124c:	00100793          	li	a5,1
80001250:	00f50023          	sb	a5,0(a0)
80001254:	00008067          	ret

80001258 <__am_audio_init>:
80001258:	00008067          	ret

8000125c <__am_audio_config>:
8000125c:	00050023          	sb	zero,0(a0)
80001260:	00008067          	ret

80001264 <__am_audio_ctrl>:
80001264:	00008067          	ret

80001268 <__am_audio_status>:
80001268:	00052023          	sw	zero,0(a0)
8000126c:	00008067          	ret

80001270 <__am_audio_play>:
80001270:	00008067          	ret

80001274 <__am_disk_config>:
80001274:	00050023          	sb	zero,0(a0)
80001278:	00008067          	ret

8000127c <__am_disk_status>:
8000127c:	00008067          	ret

80001280 <__am_disk_blkio>:
80001280:	00008067          	ret

80001284 <mpe_init>:
80001284:	ff010113          	addi	sp,sp,-16
80001288:	00812423          	sw	s0,8(sp)
8000128c:	00112623          	sw	ra,12(sp)
80001290:	000500e7          	jalr	a0
80001294:	00002417          	auipc	s0,0x2
80001298:	1d040413          	addi	s0,s0,464 # 80003464 <_etext+0xe4>
8000129c:	04100513          	li	a0,65
800012a0:	d09ff0ef          	jal	80000fa8 <putch>
800012a4:	00144503          	lbu	a0,1(s0)
800012a8:	00140413          	addi	s0,s0,1
800012ac:	fe051ae3          	bnez	a0,800012a0 <mpe_init+0x1c>
800012b0:	00002417          	auipc	s0,0x2
800012b4:	7c040413          	addi	s0,s0,1984 # 80003a70 <_etext+0x6f0>
800012b8:	04d00513          	li	a0,77
800012bc:	cedff0ef          	jal	80000fa8 <putch>
800012c0:	00144503          	lbu	a0,1(s0)
800012c4:	00140413          	addi	s0,s0,1
800012c8:	fe051ae3          	bnez	a0,800012bc <mpe_init+0x38>
800012cc:	00002417          	auipc	s0,0x2
800012d0:	7b840413          	addi	s0,s0,1976 # 80003a84 <_etext+0x704>
800012d4:	02000513          	li	a0,32
800012d8:	cd1ff0ef          	jal	80000fa8 <putch>
800012dc:	00144503          	lbu	a0,1(s0)
800012e0:	00140413          	addi	s0,s0,1
800012e4:	fe051ae3          	bnez	a0,800012d8 <mpe_init+0x54>
800012e8:	00100513          	li	a0,1
800012ec:	cc9ff0ef          	jal	80000fb4 <halt>

800012f0 <cpu_current>:
800012f0:	00000513          	li	a0,0
800012f4:	00008067          	ret

800012f8 <__am_irq_handle>:
800012f8:	00095717          	auipc	a4,0x95
800012fc:	26072703          	lw	a4,608(a4) # 80096558 <user_handler>
80001300:	00050593          	mv	a1,a0
80001304:	06070863          	beqz	a4,80001374 <__am_irq_handle+0x7c>
80001308:	08052603          	lw	a2,128(a0)
8000130c:	fd010113          	addi	sp,sp,-48
80001310:	02112623          	sw	ra,44(sp)
80001314:	00012a23          	sw	zero,20(sp)
80001318:	00012c23          	sw	zero,24(sp)
8000131c:	00012e23          	sw	zero,28(sp)
80001320:	00b00793          	li	a5,11
80001324:	00400693          	li	a3,4
80001328:	04f60263          	beq	a2,a5,8000136c <__am_irq_handle+0x74>
8000132c:	0885a783          	lw	a5,136(a1)
80001330:	00010513          	mv	a0,sp
80001334:	00478793          	addi	a5,a5,4
80001338:	08f5a423          	sw	a5,136(a1)
8000133c:	01412783          	lw	a5,20(sp)
80001340:	00d12023          	sw	a3,0(sp)
80001344:	00f12223          	sw	a5,4(sp)
80001348:	01812783          	lw	a5,24(sp)
8000134c:	00f12423          	sw	a5,8(sp)
80001350:	01c12783          	lw	a5,28(sp)
80001354:	00f12623          	sw	a5,12(sp)
80001358:	000700e7          	jalr	a4
8000135c:	00050e63          	beqz	a0,80001378 <__am_irq_handle+0x80>
80001360:	02c12083          	lw	ra,44(sp)
80001364:	03010113          	addi	sp,sp,48
80001368:	00008067          	ret
8000136c:	00100693          	li	a3,1
80001370:	fbdff06f          	j	8000132c <__am_irq_handle+0x34>
80001374:	00008067          	ret
80001378:	01000613          	li	a2,16
8000137c:	00002597          	auipc	a1,0x2
80001380:	75858593          	addi	a1,a1,1880 # 80003ad4 <_etext+0x754>
80001384:	00002517          	auipc	a0,0x2
80001388:	37450513          	addi	a0,a0,884 # 800036f8 <_etext+0x378>
8000138c:	6f9010ef          	jal	80003284 <printf>
80001390:	00100513          	li	a0,1
80001394:	c21ff0ef          	jal	80000fb4 <halt>

80001398 <cte_init>:
80001398:	00050793          	mv	a5,a0
8000139c:	00000717          	auipc	a4,0x0
800013a0:	02c70713          	addi	a4,a4,44 # 800013c8 <__am_asm_trap>
800013a4:	30571073          	csrw	mtvec,a4
800013a8:	00100513          	li	a0,1
800013ac:	00095717          	auipc	a4,0x95
800013b0:	1af72623          	sw	a5,428(a4) # 80096558 <user_handler>
800013b4:	00008067          	ret

800013b8 <yield>:
800013b8:	fff00893          	li	a7,-1
800013bc:	00000073          	ecall
800013c0:	00008067          	ret

800013c4 <iset>:
800013c4:	00008067          	ret

800013c8 <__am_asm_trap>:
800013c8:	f7410113          	addi	sp,sp,-140
800013cc:	00112223          	sw	ra,4(sp)
800013d0:	00312623          	sw	gp,12(sp)
800013d4:	00412823          	sw	tp,16(sp)
800013d8:	00512a23          	sw	t0,20(sp)
800013dc:	00612c23          	sw	t1,24(sp)
800013e0:	00712e23          	sw	t2,28(sp)
800013e4:	02812023          	sw	s0,32(sp)
800013e8:	02912223          	sw	s1,36(sp)
800013ec:	02a12423          	sw	a0,40(sp)
800013f0:	02b12623          	sw	a1,44(sp)
800013f4:	02c12823          	sw	a2,48(sp)
800013f8:	02d12a23          	sw	a3,52(sp)
800013fc:	02e12c23          	sw	a4,56(sp)
80001400:	02f12e23          	sw	a5,60(sp)
80001404:	05012023          	sw	a6,64(sp)
80001408:	05112223          	sw	a7,68(sp)
8000140c:	05212423          	sw	s2,72(sp)
80001410:	05312623          	sw	s3,76(sp)
80001414:	05412823          	sw	s4,80(sp)
80001418:	05512a23          	sw	s5,84(sp)
8000141c:	05612c23          	sw	s6,88(sp)
80001420:	05712e23          	sw	s7,92(sp)
80001424:	07812023          	sw	s8,96(sp)
80001428:	07912223          	sw	s9,100(sp)
8000142c:	07a12423          	sw	s10,104(sp)
80001430:	07b12623          	sw	s11,108(sp)
80001434:	07c12823          	sw	t3,112(sp)
80001438:	07d12a23          	sw	t4,116(sp)
8000143c:	07e12c23          	sw	t5,120(sp)
80001440:	07f12e23          	sw	t6,124(sp)
80001444:	342022f3          	csrr	t0,mcause
80001448:	30002373          	csrr	t1,mstatus
8000144c:	341023f3          	csrr	t2,mepc
80001450:	08512023          	sw	t0,128(sp)
80001454:	08612223          	sw	t1,132(sp)
80001458:	08712423          	sw	t2,136(sp)
8000145c:	00020537          	lui	a0,0x20
80001460:	00a36333          	or	t1,t1,a0
80001464:	30031073          	csrw	mstatus,t1
80001468:	00010513          	mv	a0,sp
8000146c:	e8dff0ef          	jal	800012f8 <__am_irq_handle>
80001470:	00050113          	mv	sp,a0
80001474:	08412303          	lw	t1,132(sp)
80001478:	08812383          	lw	t2,136(sp)
8000147c:	30031073          	csrw	mstatus,t1
80001480:	34139073          	csrw	mepc,t2
80001484:	00412083          	lw	ra,4(sp)
80001488:	00c12183          	lw	gp,12(sp)
8000148c:	01012203          	lw	tp,16(sp)
80001490:	01412283          	lw	t0,20(sp)
80001494:	01812303          	lw	t1,24(sp)
80001498:	01c12383          	lw	t2,28(sp)
8000149c:	02012403          	lw	s0,32(sp)
800014a0:	02412483          	lw	s1,36(sp)
800014a4:	02812503          	lw	a0,40(sp)
800014a8:	02c12583          	lw	a1,44(sp)
800014ac:	03012603          	lw	a2,48(sp)
800014b0:	03412683          	lw	a3,52(sp)
800014b4:	03812703          	lw	a4,56(sp)
800014b8:	03c12783          	lw	a5,60(sp)
800014bc:	04012803          	lw	a6,64(sp)
800014c0:	04412883          	lw	a7,68(sp)
800014c4:	04812903          	lw	s2,72(sp)
800014c8:	04c12983          	lw	s3,76(sp)
800014cc:	05012a03          	lw	s4,80(sp)
800014d0:	05412a83          	lw	s5,84(sp)
800014d4:	05812b03          	lw	s6,88(sp)
800014d8:	05c12b83          	lw	s7,92(sp)
800014dc:	06012c03          	lw	s8,96(sp)
800014e0:	06412c83          	lw	s9,100(sp)
800014e4:	06812d03          	lw	s10,104(sp)
800014e8:	06c12d83          	lw	s11,108(sp)
800014ec:	07012e03          	lw	t3,112(sp)
800014f0:	07412e83          	lw	t4,116(sp)
800014f4:	07812f03          	lw	t5,120(sp)
800014f8:	07c12f83          	lw	t6,124(sp)
800014fc:	08c10113          	addi	sp,sp,140
80001500:	30200073          	mret
80001504:	0000                	.insn	2, 0x
	...

80001508 <vme_init>:
80001508:	ff010113          	addi	sp,sp,-16
8000150c:	00112623          	sw	ra,12(sp)
80001510:	00050793          	mv	a5,a0
80001514:	00001537          	lui	a0,0x1
80001518:	00095717          	auipc	a4,0x95
8000151c:	04f72423          	sw	a5,72(a4) # 80096560 <pgalloc_usr>
80001520:	000780e7          	jalr	a5
80001524:	00095717          	auipc	a4,0x95
80001528:	00a72e23          	sw	a0,28(a4) # 80096540 <kas+0xc>
8000152c:	00c55793          	srli	a5,a0,0xc
80001530:	80000737          	lui	a4,0x80000
80001534:	00e7e7b3          	or	a5,a5,a4
80001538:	18079073          	csrw	satp,a5
8000153c:	00c12083          	lw	ra,12(sp)
80001540:	00100793          	li	a5,1
80001544:	00095717          	auipc	a4,0x95
80001548:	00f72c23          	sw	a5,24(a4) # 8009655c <vme_enable>
8000154c:	00100513          	li	a0,1
80001550:	01010113          	addi	sp,sp,16
80001554:	00008067          	ret

80001558 <protect>:
80001558:	ff010113          	addi	sp,sp,-16
8000155c:	00812423          	sw	s0,8(sp)
80001560:	00112623          	sw	ra,12(sp)
80001564:	00050413          	mv	s0,a0
80001568:	00095797          	auipc	a5,0x95
8000156c:	ff87a783          	lw	a5,-8(a5) # 80096560 <pgalloc_usr>
80001570:	00001537          	lui	a0,0x1
80001574:	000780e7          	jalr	a5
80001578:	400007b7          	lui	a5,0x40000
8000157c:	00f42223          	sw	a5,4(s0)
80001580:	800007b7          	lui	a5,0x80000
80001584:	00f42423          	sw	a5,8(s0)
80001588:	000017b7          	lui	a5,0x1
8000158c:	00a42623          	sw	a0,12(s0)
80001590:	00f42023          	sw	a5,0(s0)
80001594:	00812403          	lw	s0,8(sp)
80001598:	00c12083          	lw	ra,12(sp)
8000159c:	00095597          	auipc	a1,0x95
800015a0:	fa45a583          	lw	a1,-92(a1) # 80096540 <kas+0xc>
800015a4:	00001637          	lui	a2,0x1
800015a8:	01010113          	addi	sp,sp,16
800015ac:	5100006f          	j	80001abc <memcpy>

800015b0 <map>:
800015b0:	00008067          	ret

800015b4 <ucontext>:
800015b4:	ff010113          	addi	sp,sp,-16
800015b8:	00000513          	li	a0,0
800015bc:	01010113          	addi	sp,sp,16
800015c0:	00008067          	ret

800015c4 <__udivmoddi4>:
800015c4:	fd010113          	addi	sp,sp,-48
800015c8:	01312e23          	sw	s3,28(sp)
800015cc:	01412c23          	sw	s4,24(sp)
800015d0:	01612823          	sw	s6,16(sp)
800015d4:	01712623          	sw	s7,12(sp)
800015d8:	02112623          	sw	ra,44(sp)
800015dc:	00068b13          	mv	s6,a3
800015e0:	00050993          	mv	s3,a0
800015e4:	00060a13          	mv	s4,a2
800015e8:	00070b93          	mv	s7,a4
800015ec:	02059e63          	bnez	a1,80001628 <__udivmoddi4+0x64>
800015f0:	1a069263          	bnez	a3,80001794 <__udivmoddi4+0x1d0>
800015f4:	00070863          	beqz	a4,80001604 <__udivmoddi4+0x40>
800015f8:	02c577b3          	remu	a5,a0,a2
800015fc:	00072223          	sw	zero,4(a4)
80001600:	00f72023          	sw	a5,0(a4)
80001604:	0349d533          	divu	a0,s3,s4
80001608:	00000593          	li	a1,0
8000160c:	02c12083          	lw	ra,44(sp)
80001610:	01c12983          	lw	s3,28(sp)
80001614:	01812a03          	lw	s4,24(sp)
80001618:	01012b03          	lw	s6,16(sp)
8000161c:	00c12b83          	lw	s7,12(sp)
80001620:	03010113          	addi	sp,sp,48
80001624:	00008067          	ret
80001628:	02912223          	sw	s1,36(sp)
8000162c:	03212023          	sw	s2,32(sp)
80001630:	01512a23          	sw	s5,20(sp)
80001634:	02812423          	sw	s0,40(sp)
80001638:	00058913          	mv	s2,a1
8000163c:	00058493          	mv	s1,a1
80001640:	00060a93          	mv	s5,a2
80001644:	0e061e63          	bnez	a2,80001740 <__udivmoddi4+0x17c>
80001648:	1c068063          	beqz	a3,80001808 <__udivmoddi4+0x244>
8000164c:	22050a63          	beqz	a0,80001880 <__udivmoddi4+0x2bc>
80001650:	fff68793          	addi	a5,a3,-1
80001654:	00d7f733          	and	a4,a5,a3
80001658:	28070263          	beqz	a4,800018dc <__udivmoddi4+0x318>
8000165c:	00068513          	mv	a0,a3
80001660:	2d4000ef          	jal	80001934 <__clzsi2>
80001664:	00050413          	mv	s0,a0
80001668:	00090513          	mv	a0,s2
8000166c:	2c8000ef          	jal	80001934 <__clzsi2>
80001670:	40a406b3          	sub	a3,s0,a0
80001674:	01e00793          	li	a5,30
80001678:	18d7ea63          	bltu	a5,a3,8000180c <__udivmoddi4+0x248>
8000167c:	00168693          	addi	a3,a3,1
80001680:	02000793          	li	a5,32
80001684:	40d787b3          	sub	a5,a5,a3
80001688:	00f91633          	sll	a2,s2,a5
8000168c:	00d9d733          	srl	a4,s3,a3
80001690:	00d95433          	srl	s0,s2,a3
80001694:	00f99833          	sll	a6,s3,a5
80001698:	00e664b3          	or	s1,a2,a4
8000169c:	00000713          	li	a4,0
800016a0:	01f85793          	srli	a5,a6,0x1f
800016a4:	00149593          	slli	a1,s1,0x1
800016a8:	00f5e5b3          	or	a1,a1,a5
800016ac:	01f4d493          	srli	s1,s1,0x1f
800016b0:	00141793          	slli	a5,s0,0x1
800016b4:	0097e7b3          	or	a5,a5,s1
800016b8:	40ba0333          	sub	t1,s4,a1
800016bc:	006a3633          	sltu	a2,s4,t1
800016c0:	40fb08b3          	sub	a7,s6,a5
800016c4:	40c888b3          	sub	a7,a7,a2
800016c8:	00133313          	seqz	t1,t1
800016cc:	406888b3          	sub	a7,a7,t1
800016d0:	41f8d313          	srai	t1,a7,0x1f
800016d4:	014374b3          	and	s1,t1,s4
800016d8:	409584b3          	sub	s1,a1,s1
800016dc:	01637333          	and	t1,t1,s6
800016e0:	01fad613          	srli	a2,s5,0x1f
800016e4:	00181813          	slli	a6,a6,0x1
800016e8:	001a9a93          	slli	s5,s5,0x1
800016ec:	0095b5b3          	sltu	a1,a1,s1
800016f0:	406787b3          	sub	a5,a5,t1
800016f4:	fff68693          	addi	a3,a3,-1
800016f8:	00eaeab3          	or	s5,s5,a4
800016fc:	00c86833          	or	a6,a6,a2
80001700:	01f8d713          	srli	a4,a7,0x1f
80001704:	40b78433          	sub	s0,a5,a1
80001708:	f8069ce3          	bnez	a3,800016a0 <__udivmoddi4+0xdc>
8000170c:	000b8663          	beqz	s7,80001718 <__udivmoddi4+0x154>
80001710:	009ba023          	sw	s1,0(s7)
80001714:	008ba223          	sw	s0,4(s7)
80001718:	01fad913          	srli	s2,s5,0x1f
8000171c:	001a9993          	slli	s3,s5,0x1
80001720:	00181793          	slli	a5,a6,0x1
80001724:	00f965b3          	or	a1,s2,a5
80001728:	02812403          	lw	s0,40(sp)
8000172c:	02412483          	lw	s1,36(sp)
80001730:	02012903          	lw	s2,32(sp)
80001734:	01412a83          	lw	s5,20(sp)
80001738:	00e9e533          	or	a0,s3,a4
8000173c:	ed1ff06f          	j	8000160c <__udivmoddi4+0x48>
80001740:	06068663          	beqz	a3,800017ac <__udivmoddi4+0x1e8>
80001744:	00068513          	mv	a0,a3
80001748:	1ec000ef          	jal	80001934 <__clzsi2>
8000174c:	00050413          	mv	s0,a0
80001750:	00090513          	mv	a0,s2
80001754:	1e0000ef          	jal	80001934 <__clzsi2>
80001758:	40a406b3          	sub	a3,s0,a0
8000175c:	01f00793          	li	a5,31
80001760:	0ad7e663          	bltu	a5,a3,8000180c <__udivmoddi4+0x248>
80001764:	00168693          	addi	a3,a3,1
80001768:	02000793          	li	a5,32
8000176c:	00098813          	mv	a6,s3
80001770:	18f68663          	beq	a3,a5,800018fc <__udivmoddi4+0x338>
80001774:	40d787b3          	sub	a5,a5,a3
80001778:	00d9d733          	srl	a4,s3,a3
8000177c:	00f91633          	sll	a2,s2,a5
80001780:	00d95433          	srl	s0,s2,a3
80001784:	00f99833          	sll	a6,s3,a5
80001788:	00e664b3          	or	s1,a2,a4
8000178c:	00000a93          	li	s5,0
80001790:	f0dff06f          	j	8000169c <__udivmoddi4+0xd8>
80001794:	00070663          	beqz	a4,800017a0 <__udivmoddi4+0x1dc>
80001798:	00aba023          	sw	a0,0(s7)
8000179c:	00072223          	sw	zero,4(a4)
800017a0:	00000513          	li	a0,0
800017a4:	00000593          	li	a1,0
800017a8:	e65ff06f          	j	8000160c <__udivmoddi4+0x48>
800017ac:	fff60793          	addi	a5,a2,-1 # fff <_entry_offset+0xfff>
800017b0:	00c7f733          	and	a4,a5,a2
800017b4:	06071c63          	bnez	a4,8000182c <__udivmoddi4+0x268>
800017b8:	000b8863          	beqz	s7,800017c8 <__udivmoddi4+0x204>
800017bc:	00a7f7b3          	and	a5,a5,a0
800017c0:	00fba023          	sw	a5,0(s7)
800017c4:	000ba223          	sw	zero,4(s7)
800017c8:	00100793          	li	a5,1
800017cc:	0efa0063          	beq	s4,a5,800018ac <__udivmoddi4+0x2e8>
800017d0:	000a0513          	mv	a0,s4
800017d4:	1f0000ef          	jal	800019c4 <__ctzsi2>
800017d8:	02000713          	li	a4,32
800017dc:	40a70733          	sub	a4,a4,a0
800017e0:	00050793          	mv	a5,a0
800017e4:	00e91733          	sll	a4,s2,a4
800017e8:	00a9d833          	srl	a6,s3,a0
800017ec:	00f955b3          	srl	a1,s2,a5
800017f0:	02812403          	lw	s0,40(sp)
800017f4:	02412483          	lw	s1,36(sp)
800017f8:	02012903          	lw	s2,32(sp)
800017fc:	01412a83          	lw	s5,20(sp)
80001800:	01076533          	or	a0,a4,a6
80001804:	e09ff06f          	j	8000160c <__udivmoddi4+0x48>
80001808:	00100073          	ebreak
8000180c:	0a0b8e63          	beqz	s7,800018c8 <__udivmoddi4+0x304>
80001810:	012ba223          	sw	s2,4(s7)
80001814:	02812403          	lw	s0,40(sp)
80001818:	02412483          	lw	s1,36(sp)
8000181c:	02012903          	lw	s2,32(sp)
80001820:	01412a83          	lw	s5,20(sp)
80001824:	013ba023          	sw	s3,0(s7)
80001828:	f79ff06f          	j	800017a0 <__udivmoddi4+0x1dc>
8000182c:	00060513          	mv	a0,a2
80001830:	00068413          	mv	s0,a3
80001834:	100000ef          	jal	80001934 <__clzsi2>
80001838:	00050913          	mv	s2,a0
8000183c:	00048513          	mv	a0,s1
80001840:	0f4000ef          	jal	80001934 <__clzsi2>
80001844:	40a90533          	sub	a0,s2,a0
80001848:	02150693          	addi	a3,a0,33 # 1021 <_entry_offset+0x1021>
8000184c:	02000793          	li	a5,32
80001850:	00098813          	mv	a6,s3
80001854:	00000a93          	li	s5,0
80001858:	e4f682e3          	beq	a3,a5,8000169c <__udivmoddi4+0xd8>
8000185c:	01f00713          	li	a4,31
80001860:	0ad76463          	bltu	a4,a3,80001908 <__udivmoddi4+0x344>
80001864:	40d78733          	sub	a4,a5,a3
80001868:	00d4d433          	srl	s0,s1,a3
8000186c:	00d9d7b3          	srl	a5,s3,a3
80001870:	00e494b3          	sll	s1,s1,a4
80001874:	00f4e4b3          	or	s1,s1,a5
80001878:	00e99833          	sll	a6,s3,a4
8000187c:	e21ff06f          	j	8000169c <__udivmoddi4+0xd8>
80001880:	00070863          	beqz	a4,80001890 <__udivmoddi4+0x2cc>
80001884:	02d5f7b3          	remu	a5,a1,a3
80001888:	00072023          	sw	zero,0(a4)
8000188c:	00f72223          	sw	a5,4(a4)
80001890:	03695533          	divu	a0,s2,s6
80001894:	02812403          	lw	s0,40(sp)
80001898:	02412483          	lw	s1,36(sp)
8000189c:	02012903          	lw	s2,32(sp)
800018a0:	01412a83          	lw	s5,20(sp)
800018a4:	00000593          	li	a1,0
800018a8:	d65ff06f          	j	8000160c <__udivmoddi4+0x48>
800018ac:	00090593          	mv	a1,s2
800018b0:	02812403          	lw	s0,40(sp)
800018b4:	02412483          	lw	s1,36(sp)
800018b8:	02012903          	lw	s2,32(sp)
800018bc:	01412a83          	lw	s5,20(sp)
800018c0:	00098513          	mv	a0,s3
800018c4:	d49ff06f          	j	8000160c <__udivmoddi4+0x48>
800018c8:	02812403          	lw	s0,40(sp)
800018cc:	02412483          	lw	s1,36(sp)
800018d0:	02012903          	lw	s2,32(sp)
800018d4:	01412a83          	lw	s5,20(sp)
800018d8:	ec9ff06f          	j	800017a0 <__udivmoddi4+0x1dc>
800018dc:	000b8863          	beqz	s7,800018ec <__udivmoddi4+0x328>
800018e0:	00b7f7b3          	and	a5,a5,a1
800018e4:	00aba023          	sw	a0,0(s7)
800018e8:	00fba223          	sw	a5,4(s7)
800018ec:	000b0513          	mv	a0,s6
800018f0:	0d4000ef          	jal	800019c4 <__ctzsi2>
800018f4:	00a95533          	srl	a0,s2,a0
800018f8:	f9dff06f          	j	80001894 <__udivmoddi4+0x2d0>
800018fc:	00000413          	li	s0,0
80001900:	00000a93          	li	s5,0
80001904:	d99ff06f          	j	8000169c <__udivmoddi4+0xd8>
80001908:	04000a93          	li	s5,64
8000190c:	40da8ab3          	sub	s5,s5,a3
80001910:	00150513          	addi	a0,a0,1
80001914:	01549733          	sll	a4,s1,s5
80001918:	00a9d7b3          	srl	a5,s3,a0
8000191c:	01599ab3          	sll	s5,s3,s5
80001920:	00a4d4b3          	srl	s1,s1,a0
80001924:	00f76833          	or	a6,a4,a5
80001928:	d75ff06f          	j	8000169c <__udivmoddi4+0xd8>

8000192c <__udivdi3>:
8000192c:	00000713          	li	a4,0
80001930:	c95ff06f          	j	800015c4 <__udivmoddi4>

80001934 <__clzsi2>:
80001934:	000105b7          	lui	a1,0x10
80001938:	00b535b3          	sltu	a1,a0,a1
8000193c:	00459593          	slli	a1,a1,0x4
80001940:	01000793          	li	a5,16
80001944:	40b787b3          	sub	a5,a5,a1
80001948:	00010737          	lui	a4,0x10
8000194c:	00f557b3          	srl	a5,a0,a5
80001950:	f0070713          	addi	a4,a4,-256 # ff00 <_entry_offset+0xff00>
80001954:	00e7f733          	and	a4,a5,a4
80001958:	00173713          	seqz	a4,a4
8000195c:	00371713          	slli	a4,a4,0x3
80001960:	00800693          	li	a3,8
80001964:	40e686b3          	sub	a3,a3,a4
80001968:	00d7d7b3          	srl	a5,a5,a3
8000196c:	0f07f613          	andi	a2,a5,240
80001970:	00163613          	seqz	a2,a2
80001974:	00261613          	slli	a2,a2,0x2
80001978:	00400693          	li	a3,4
8000197c:	40c686b3          	sub	a3,a3,a2
80001980:	00d7d7b3          	srl	a5,a5,a3
80001984:	00c7f693          	andi	a3,a5,12
80001988:	0016b693          	seqz	a3,a3
8000198c:	00200513          	li	a0,2
80001990:	00169693          	slli	a3,a3,0x1
80001994:	40d50833          	sub	a6,a0,a3
80001998:	0107d7b3          	srl	a5,a5,a6
8000199c:	0017d813          	srli	a6,a5,0x1
800019a0:	00b70733          	add	a4,a4,a1
800019a4:	00187593          	andi	a1,a6,1
800019a8:	00e60633          	add	a2,a2,a4
800019ac:	40f50533          	sub	a0,a0,a5
800019b0:	00058463          	beqz	a1,800019b8 <__clzsi2+0x84>
800019b4:	00000513          	li	a0,0
800019b8:	00c686b3          	add	a3,a3,a2
800019bc:	00d50533          	add	a0,a0,a3
800019c0:	00008067          	ret

800019c4 <__ctzsi2>:
800019c4:	01051593          	slli	a1,a0,0x10
800019c8:	0105d593          	srli	a1,a1,0x10
800019cc:	0015b593          	seqz	a1,a1
800019d0:	00459593          	slli	a1,a1,0x4
800019d4:	00b557b3          	srl	a5,a0,a1
800019d8:	0ff7f613          	zext.b	a2,a5
800019dc:	00163613          	seqz	a2,a2
800019e0:	00361613          	slli	a2,a2,0x3
800019e4:	00c7d7b3          	srl	a5,a5,a2
800019e8:	00f7f693          	andi	a3,a5,15
800019ec:	0016b693          	seqz	a3,a3
800019f0:	00269693          	slli	a3,a3,0x2
800019f4:	00d7d7b3          	srl	a5,a5,a3
800019f8:	0037f713          	andi	a4,a5,3
800019fc:	00173713          	seqz	a4,a4
80001a00:	00171713          	slli	a4,a4,0x1
80001a04:	00e7d7b3          	srl	a5,a5,a4
80001a08:	0017d513          	srli	a0,a5,0x1
80001a0c:	fff7c793          	not	a5,a5
80001a10:	00b60633          	add	a2,a2,a1
80001a14:	0017f793          	andi	a5,a5,1
80001a18:	00157593          	andi	a1,a0,1
80001a1c:	00200513          	li	a0,2
80001a20:	00c686b3          	add	a3,a3,a2
80001a24:	40b50533          	sub	a0,a0,a1
80001a28:	40f007b3          	neg	a5,a5
80001a2c:	00f57533          	and	a0,a0,a5
80001a30:	00d70733          	add	a4,a4,a3
80001a34:	00e50533          	add	a0,a0,a4
80001a38:	00008067          	ret

80001a3c <strcmp>:
80001a3c:	00054783          	lbu	a5,0(a0)
80001a40:	00079a63          	bnez	a5,80001a54 <strcmp+0x18>
80001a44:	0340006f          	j	80001a78 <strcmp+0x3c>
80001a48:	00054783          	lbu	a5,0(a0)
80001a4c:	02078063          	beqz	a5,80001a6c <strcmp+0x30>
80001a50:	00068593          	mv	a1,a3
80001a54:	0005c703          	lbu	a4,0(a1) # 10000 <_entry_offset+0x10000>
80001a58:	00150513          	addi	a0,a0,1
80001a5c:	00158693          	addi	a3,a1,1
80001a60:	fef704e3          	beq	a4,a5,80001a48 <strcmp+0xc>
80001a64:	40e78533          	sub	a0,a5,a4
80001a68:	00008067          	ret
80001a6c:	0015c703          	lbu	a4,1(a1)
80001a70:	40e78533          	sub	a0,a5,a4
80001a74:	00008067          	ret
80001a78:	0005c703          	lbu	a4,0(a1)
80001a7c:	fe9ff06f          	j	80001a64 <strcmp+0x28>

80001a80 <strncmp>:
80001a80:	02060263          	beqz	a2,80001aa4 <strncmp+0x24>
80001a84:	00054783          	lbu	a5,0(a0)
80001a88:	fff60613          	addi	a2,a2,-1
80001a8c:	02078063          	beqz	a5,80001aac <strncmp+0x2c>
80001a90:	0005c703          	lbu	a4,0(a1)
80001a94:	00f71c63          	bne	a4,a5,80001aac <strncmp+0x2c>
80001a98:	00150513          	addi	a0,a0,1
80001a9c:	00158593          	addi	a1,a1,1
80001aa0:	fe0612e3          	bnez	a2,80001a84 <strncmp+0x4>
80001aa4:	00000513          	li	a0,0
80001aa8:	00008067          	ret
80001aac:	00054503          	lbu	a0,0(a0)
80001ab0:	0005c783          	lbu	a5,0(a1)
80001ab4:	40f50533          	sub	a0,a0,a5
80001ab8:	00008067          	ret

80001abc <memcpy>:
80001abc:	00300793          	li	a5,3
80001ac0:	04c7fc63          	bgeu	a5,a2,80001b18 <memcpy+0x5c>
80001ac4:	ffc60893          	addi	a7,a2,-4
80001ac8:	ffc8f893          	andi	a7,a7,-4
80001acc:	00488893          	addi	a7,a7,4
80001ad0:	01150833          	add	a6,a0,a7
80001ad4:	00058713          	mv	a4,a1
80001ad8:	00050793          	mv	a5,a0
80001adc:	00072683          	lw	a3,0(a4)
80001ae0:	00478793          	addi	a5,a5,4 # 1004 <_entry_offset+0x1004>
80001ae4:	00470713          	addi	a4,a4,4
80001ae8:	fed7ae23          	sw	a3,-4(a5)
80001aec:	ff0798e3          	bne	a5,a6,80001adc <memcpy+0x20>
80001af0:	00367613          	andi	a2,a2,3
80001af4:	011585b3          	add	a1,a1,a7
80001af8:	00060e63          	beqz	a2,80001b14 <memcpy+0x58>
80001afc:	00c80633          	add	a2,a6,a2
80001b00:	0005c783          	lbu	a5,0(a1)
80001b04:	00180813          	addi	a6,a6,1 # a1000001 <_end+0x20f61001>
80001b08:	00158593          	addi	a1,a1,1
80001b0c:	fef80fa3          	sb	a5,-1(a6)
80001b10:	fec818e3          	bne	a6,a2,80001b00 <memcpy+0x44>
80001b14:	00008067          	ret
80001b18:	00050813          	mv	a6,a0
80001b1c:	fddff06f          	j	80001af8 <memcpy+0x3c>

80001b20 <rand>:
80001b20:	00011697          	auipc	a3,0x11
80001b24:	80068693          	addi	a3,a3,-2048 # 80012320 <next>
80001b28:	0006a783          	lw	a5,0(a3)
80001b2c:	41c65737          	lui	a4,0x41c65
80001b30:	e6d70713          	addi	a4,a4,-403 # 41c64e6d <_entry_offset+0x41c64e6d>
80001b34:	02e787b3          	mul	a5,a5,a4
80001b38:	00003737          	lui	a4,0x3
80001b3c:	03970713          	addi	a4,a4,57 # 3039 <_entry_offset+0x3039>
80001b40:	00e787b3          	add	a5,a5,a4
80001b44:	00179513          	slli	a0,a5,0x1
80001b48:	00f6a023          	sw	a5,0(a3)
80001b4c:	01155513          	srli	a0,a0,0x11
80001b50:	00008067          	ret

80001b54 <vsnprintf>:
80001b54:	f2010113          	addi	sp,sp,-224
80001b58:	0ba12a23          	sw	s10,180(sp)
80001b5c:	180588e3          	beqz	a1,800024ec <vsnprintf+0x998>
80001b60:	00100793          	li	a5,1
80001b64:	00050293          	mv	t0,a0
80001b68:	18f580e3          	beq	a1,a5,800024e8 <vsnprintf+0x994>
80001b6c:	0d512423          	sw	s5,200(sp)
80001b70:	0d712023          	sw	s7,192(sp)
80001b74:	00064503          	lbu	a0,0(a2)
80001b78:	00060b93          	mv	s7,a2
80001b7c:	fff58a93          	addi	s5,a1,-1
80001b80:	00000d13          	li	s10,0
80001b84:	00000613          	li	a2,0
80001b88:	00000793          	li	a5,0
80001b8c:	08050a63          	beqz	a0,80001c20 <vsnprintf+0xcc>
80001b90:	0d412623          	sw	s4,204(sp)
80001b94:	0d612223          	sw	s6,196(sp)
80001b98:	0b812e23          	sw	s8,188(sp)
80001b9c:	0b912c23          	sw	s9,184(sp)
80001ba0:	0bb12823          	sw	s11,176(sp)
80001ba4:	0c812e23          	sw	s0,220(sp)
80001ba8:	0c912c23          	sw	s1,216(sp)
80001bac:	00068a13          	mv	s4,a3
80001bb0:	02500b13          	li	s6,37
80001bb4:	01000c93          	li	s9,16
80001bb8:	00002c17          	auipc	s8,0x2
80001bbc:	5acc0c13          	addi	s8,s8,1452 # 80004164 <mainargs+0x40>
80001bc0:	06800d93          	li	s11,104
80001bc4:	00078693          	mv	a3,a5
80001bc8:	00160713          	addi	a4,a2,1
80001bcc:	07650863          	beq	a0,s6,80001c3c <vsnprintf+0xe8>
80001bd0:	001d0d13          	addi	s10,s10,1
80001bd4:	0157fa63          	bgeu	a5,s5,80001be8 <vsnprintf+0x94>
80001bd8:	00f286b3          	add	a3,t0,a5
80001bdc:	00178793          	addi	a5,a5,1
80001be0:	00a68023          	sb	a0,0(a3)
80001be4:	00078693          	mv	a3,a5
80001be8:	00070613          	mv	a2,a4
80001bec:	00cb8733          	add	a4,s7,a2
80001bf0:	00074503          	lbu	a0,0(a4)
80001bf4:	fc0518e3          	bnez	a0,80001bc4 <vsnprintf+0x70>
80001bf8:	00daf463          	bgeu	s5,a3,80001c00 <vsnprintf+0xac>
80001bfc:	000a8693          	mv	a3,s5
80001c00:	0dc12403          	lw	s0,220(sp)
80001c04:	0d812483          	lw	s1,216(sp)
80001c08:	0cc12a03          	lw	s4,204(sp)
80001c0c:	0c412b03          	lw	s6,196(sp)
80001c10:	0bc12c03          	lw	s8,188(sp)
80001c14:	0b812c83          	lw	s9,184(sp)
80001c18:	0b012d83          	lw	s11,176(sp)
80001c1c:	00d282b3          	add	t0,t0,a3
80001c20:	00028023          	sb	zero,0(t0)
80001c24:	0c812a83          	lw	s5,200(sp)
80001c28:	0c012b83          	lw	s7,192(sp)
80001c2c:	000d0513          	mv	a0,s10
80001c30:	0b412d03          	lw	s10,180(sp)
80001c34:	0e010113          	addi	sp,sp,224
80001c38:	00008067          	ret
80001c3c:	00eb8733          	add	a4,s7,a4
80001c40:	00260613          	addi	a2,a2,2
80001c44:	00000813          	li	a6,0
80001c48:	00000313          	li	t1,0
80001c4c:	00000413          	li	s0,0
80001c50:	00000f13          	li	t5,0
80001c54:	00000f93          	li	t6,0
80001c58:	00074883          	lbu	a7,0(a4)
80001c5c:	00070e93          	mv	t4,a4
80001c60:	fe088593          	addi	a1,a7,-32
80001c64:	0ff5f593          	zext.b	a1,a1
80001c68:	00bcec63          	bltu	s9,a1,80001c80 <vsnprintf+0x12c>
80001c6c:	00259593          	slli	a1,a1,0x2
80001c70:	018585b3          	add	a1,a1,s8
80001c74:	0005a583          	lw	a1,0(a1)
80001c78:	018585b3          	add	a1,a1,s8
80001c7c:	00058067          	jr	a1
80001c80:	02a00713          	li	a4,42
80001c84:	08e89263          	bne	a7,a4,80001d08 <vsnprintf+0x1b4>
80001c88:	000a2703          	lw	a4,0(s4)
80001c8c:	004a0a13          	addi	s4,s4,4
80001c90:	00075663          	bgez	a4,80001c9c <vsnprintf+0x148>
80001c94:	40e00733          	neg	a4,a4
80001c98:	00100f93          	li	t6,1
80001c9c:	00cb8eb3          	add	t4,s7,a2
80001ca0:	000ec883          	lbu	a7,0(t4)
80001ca4:	00060e13          	mv	t3,a2
80001ca8:	02e00613          	li	a2,46
80001cac:	fff00593          	li	a1,-1
80001cb0:	0ac88c63          	beq	a7,a2,80001d68 <vsnprintf+0x214>
80001cb4:	001e0613          	addi	a2,t3,1
80001cb8:	00cb83b3          	add	t2,s7,a2
80001cbc:	0fb88263          	beq	a7,s11,80001da0 <vsnprintf+0x24c>
80001cc0:	06c00513          	li	a0,108
80001cc4:	14a88263          	beq	a7,a0,80001e08 <vsnprintf+0x2b4>
80001cc8:	07a00513          	li	a0,122
80001ccc:	7aa88a63          	beq	a7,a0,80002480 <vsnprintf+0x92c>
80001cd0:	000e8393          	mv	t2,t4
80001cd4:	000e0613          	mv	a2,t3
80001cd8:	00000e93          	li	t4,0
80001cdc:	fdb88513          	addi	a0,a7,-37
80001ce0:	0ff57513          	zext.b	a0,a0
80001ce4:	05300e13          	li	t3,83
80001ce8:	0eae6263          	bltu	t3,a0,80001dcc <vsnprintf+0x278>
80001cec:	00002e17          	auipc	t3,0x2
80001cf0:	4bce0e13          	addi	t3,t3,1212 # 800041a8 <mainargs+0x84>
80001cf4:	00251513          	slli	a0,a0,0x2
80001cf8:	01c50533          	add	a0,a0,t3
80001cfc:	00052503          	lw	a0,0(a0)
80001d00:	01c50533          	add	a0,a0,t3
80001d04:	00050067          	jr	a0
80001d08:	fd088513          	addi	a0,a7,-48
80001d0c:	0ff57593          	zext.b	a1,a0
80001d10:	00900493          	li	s1,9
80001d14:	fff60e13          	addi	t3,a2,-1
80001d18:	00000713          	li	a4,0
80001d1c:	00cb8633          	add	a2,s7,a2
80001d20:	00900393          	li	t2,9
80001d24:	f8b4e2e3          	bltu	s1,a1,80001ca8 <vsnprintf+0x154>
80001d28:	00070593          	mv	a1,a4
80001d2c:	00064883          	lbu	a7,0(a2)
80001d30:	00259713          	slli	a4,a1,0x2
80001d34:	00b70733          	add	a4,a4,a1
80001d38:	00171713          	slli	a4,a4,0x1
80001d3c:	00e505b3          	add	a1,a0,a4
80001d40:	fd088513          	addi	a0,a7,-48
80001d44:	0ff57713          	zext.b	a4,a0
80001d48:	00060e93          	mv	t4,a2
80001d4c:	001e0e13          	addi	t3,t3,1
80001d50:	00160613          	addi	a2,a2,1
80001d54:	fce3fce3          	bgeu	t2,a4,80001d2c <vsnprintf+0x1d8>
80001d58:	02e00613          	li	a2,46
80001d5c:	00058713          	mv	a4,a1
80001d60:	fff00593          	li	a1,-1
80001d64:	f4c898e3          	bne	a7,a2,80001cb4 <vsnprintf+0x160>
80001d68:	001e0613          	addi	a2,t3,1
80001d6c:	00cb8eb3          	add	t4,s7,a2
80001d70:	000ec883          	lbu	a7,0(t4)
80001d74:	02a00593          	li	a1,42
80001d78:	70b89a63          	bne	a7,a1,8000248c <vsnprintf+0x938>
80001d7c:	000a2583          	lw	a1,0(s4)
80001d80:	004a0a13          	addi	s4,s4,4
80001d84:	1a05ca63          	bltz	a1,80001f38 <vsnprintf+0x3e4>
80001d88:	002e0e13          	addi	t3,t3,2
80001d8c:	01cb8eb3          	add	t4,s7,t3
80001d90:	000ec883          	lbu	a7,0(t4)
80001d94:	001e0613          	addi	a2,t3,1
80001d98:	00cb83b3          	add	t2,s7,a2
80001d9c:	f3b892e3          	bne	a7,s11,80001cc0 <vsnprintf+0x16c>
80001da0:	0003c883          	lbu	a7,0(t2)
80001da4:	00100e93          	li	t4,1
80001da8:	f3b89ae3          	bne	a7,s11,80001cdc <vsnprintf+0x188>
80001dac:	002e0613          	addi	a2,t3,2
80001db0:	00cb83b3          	add	t2,s7,a2
80001db4:	0003c883          	lbu	a7,0(t2)
80001db8:	05300e13          	li	t3,83
80001dbc:	00200e93          	li	t4,2
80001dc0:	fdb88513          	addi	a0,a7,-37
80001dc4:	0ff57513          	zext.b	a0,a0
80001dc8:	f2ae72e3          	bgeu	t3,a0,80001cec <vsnprintf+0x198>
80001dcc:	002d0d13          	addi	s10,s10,2
80001dd0:	0357f863          	bgeu	a5,s5,80001e00 <vsnprintf+0x2ac>
80001dd4:	02500693          	li	a3,37
80001dd8:	00f28733          	add	a4,t0,a5
80001ddc:	00d70023          	sb	a3,0(a4)
80001de0:	00178693          	addi	a3,a5,1
80001de4:	0156e463          	bltu	a3,s5,80001dec <vsnprintf+0x298>
80001de8:	4900106f          	j	80003278 <vsnprintf+0x1724>
80001dec:	0003c703          	lbu	a4,0(t2)
80001df0:	00d286b3          	add	a3,t0,a3
80001df4:	00278793          	addi	a5,a5,2
80001df8:	00e68023          	sb	a4,0(a3)
80001dfc:	00078693          	mv	a3,a5
80001e00:	00160613          	addi	a2,a2,1
80001e04:	de9ff06f          	j	80001bec <vsnprintf+0x98>
80001e08:	0003c883          	lbu	a7,0(t2)
80001e0c:	00300e93          	li	t4,3
80001e10:	eca896e3          	bne	a7,a0,80001cdc <vsnprintf+0x188>
80001e14:	002e0613          	addi	a2,t3,2
80001e18:	00cb83b3          	add	t2,s7,a2
80001e1c:	0003c883          	lbu	a7,0(t2)
80001e20:	00400e93          	li	t4,4
80001e24:	eb9ff06f          	j	80001cdc <vsnprintf+0x188>
80001e28:	00100813          	li	a6,1
80001e2c:	00170713          	addi	a4,a4,1
80001e30:	00160613          	addi	a2,a2,1
80001e34:	e25ff06f          	j	80001c58 <vsnprintf+0x104>
80001e38:	00100313          	li	t1,1
80001e3c:	ff1ff06f          	j	80001e2c <vsnprintf+0x2d8>
80001e40:	00100413          	li	s0,1
80001e44:	fe9ff06f          	j	80001e2c <vsnprintf+0x2d8>
80001e48:	00100f93          	li	t6,1
80001e4c:	fe1ff06f          	j	80001e2c <vsnprintf+0x2d8>
80001e50:	00100f13          	li	t5,1
80001e54:	fd9ff06f          	j	80001e2c <vsnprintf+0x2d8>
80001e58:	007a0a13          	addi	s4,s4,7
80001e5c:	ff8a7a13          	andi	s4,s4,-8
80001e60:	004a2303          	lw	t1,4(s4)
80001e64:	7ff00e13          	li	t3,2047
80001e68:	000a2483          	lw	s1,0(s4)
80001e6c:	01435893          	srli	a7,t1,0x14
80001e70:	00c31513          	slli	a0,t1,0xc
80001e74:	7ff8f893          	andi	a7,a7,2047
80001e78:	008a0a13          	addi	s4,s4,8
80001e7c:	01f35393          	srli	t2,t1,0x1f
80001e80:	00c55513          	srli	a0,a0,0xc
80001e84:	63c88ee3          	beq	a7,t3,80002cc0 <vsnprintf+0x116c>
80001e88:	00956333          	or	t1,a0,s1
80001e8c:	01136333          	or	t1,t1,a7
80001e90:	3e031ee3          	bnez	t1,80002a8c <vsnprintf+0xf38>
80001e94:	6805ce63          	bltz	a1,80002530 <vsnprintf+0x9dc>
80001e98:	00100513          	li	a0,1
80001e9c:	00058463          	beqz	a1,80001ea4 <vsnprintf+0x350>
80001ea0:	00258513          	addi	a0,a1,2
80001ea4:	008f68b3          	or	a7,t5,s0
80001ea8:	0078e8b3          	or	a7,a7,t2
80001eac:	00a888b3          	add	a7,a7,a0
80001eb0:	41170533          	sub	a0,a4,a7
80001eb4:	00a05463          	blez	a0,80001ebc <vsnprintf+0x368>
80001eb8:	00070893          	mv	a7,a4
80001ebc:	011d0d33          	add	s10,s10,a7
80001ec0:	6a0f8063          	beqz	t6,80002560 <vsnprintf+0xa0c>
80001ec4:	160384e3          	beqz	t2,8000282c <vsnprintf+0xcd8>
80001ec8:	1557fee3          	bgeu	a5,s5,80002824 <vsnprintf+0xcd0>
80001ecc:	00178713          	addi	a4,a5,1
80001ed0:	02d00693          	li	a3,45
80001ed4:	00f287b3          	add	a5,t0,a5
80001ed8:	00d78023          	sb	a3,0(a5)
80001edc:	00070693          	mv	a3,a4
80001ee0:	1556f0e3          	bgeu	a3,s5,80002820 <vsnprintf+0xccc>
80001ee4:	00d286b3          	add	a3,t0,a3
80001ee8:	03000813          	li	a6,48
80001eec:	00170793          	addi	a5,a4,1
80001ef0:	01068023          	sb	a6,0(a3)
80001ef4:	00078693          	mv	a3,a5
80001ef8:	70059863          	bnez	a1,80002608 <vsnprintf+0xab4>
80001efc:	f00f82e3          	beqz	t6,80001e00 <vsnprintf+0x2ac>
80001f00:	fff50713          	addi	a4,a0,-1
80001f04:	eea05ee3          	blez	a0,80001e00 <vsnprintf+0x2ac>
80001f08:	02000513          	li	a0,32
80001f0c:	fff00593          	li	a1,-1
80001f10:	00078693          	mv	a3,a5
80001f14:	0157fa63          	bgeu	a5,s5,80001f28 <vsnprintf+0x3d4>
80001f18:	00f286b3          	add	a3,t0,a5
80001f1c:	00178793          	addi	a5,a5,1
80001f20:	00a68023          	sb	a0,0(a3)
80001f24:	00078693          	mv	a3,a5
80001f28:	fff70713          	addi	a4,a4,-1
80001f2c:	feb712e3          	bne	a4,a1,80001f10 <vsnprintf+0x3bc>
80001f30:	00160613          	addi	a2,a2,1
80001f34:	cb9ff06f          	j	80001bec <vsnprintf+0x98>
80001f38:	fff00593          	li	a1,-1
80001f3c:	e4dff06f          	j	80001d88 <vsnprintf+0x234>
80001f40:	00100513          	li	a0,1
80001f44:	7cae8e63          	beq	t4,a0,80002720 <vsnprintf+0xbcc>
80001f48:	00200513          	li	a0,2
80001f4c:	4cae8ce3          	beq	t4,a0,80002c24 <vsnprintf+0x10d0>
80001f50:	00300513          	li	a0,3
80001f54:	00ae8663          	beq	t4,a0,80001f60 <vsnprintf+0x40c>
80001f58:	00400513          	li	a0,4
80001f5c:	62ae8ee3          	beq	t4,a0,80002d98 <vsnprintf+0x1244>
80001f60:	000a2e03          	lw	t3,0(s4)
80001f64:	00000f13          	li	t5,0
80001f68:	004a0a13          	addi	s4,s4,4
80001f6c:	07800513          	li	a0,120
80001f70:	00002417          	auipc	s0,0x2
80001f74:	bbc40413          	addi	s0,s0,-1092 # 80003b2c <_etext+0x7ac>
80001f78:	00a89663          	bne	a7,a0,80001f84 <vsnprintf+0x430>
80001f7c:	00002417          	auipc	s0,0x2
80001f80:	b9c40413          	addi	s0,s0,-1124 # 80003b18 <_etext+0x798>
80001f84:	01ee6533          	or	a0,t3,t5
80001f88:	240514e3          	bnez	a0,800029d0 <vsnprintf+0xe7c>
80001f8c:	520580e3          	beqz	a1,80002cac <vsnprintf+0x1158>
80001f90:	03000513          	li	a0,48
80001f94:	06a10823          	sb	a0,112(sp)
80001f98:	00100e93          	li	t4,1
80001f9c:	07010513          	addi	a0,sp,112
80001fa0:	6cbed063          	bge	t4,a1,80002660 <vsnprintf+0xb0c>
80001fa4:	000e8e13          	mv	t3,t4
80001fa8:	03000393          	li	t2,48
80001fac:	001e0e13          	addi	t3,t3,1
80001fb0:	01c50f33          	add	t5,a0,t3
80001fb4:	fe7f0fa3          	sb	t2,-1(t5)
80001fb8:	febe4ae3          	blt	t3,a1,80001fac <vsnprintf+0x458>
80001fbc:	001e8f13          	addi	t5,t4,1
80001fc0:	00000e13          	li	t3,0
80001fc4:	00bed663          	bge	t4,a1,80001fd0 <vsnprintf+0x47c>
80001fc8:	fff58e13          	addi	t3,a1,-1
80001fcc:	41de0e33          	sub	t3,t3,t4
80001fd0:	01ee0eb3          	add	t4,t3,t5
80001fd4:	6e030263          	beqz	t1,800026b8 <vsnprintf+0xb64>
80001fd8:	07014e03          	lbu	t3,112(sp)
80001fdc:	03000313          	li	t1,48
80001fe0:	6c6e0c63          	beq	t3,t1,800026b8 <vsnprintf+0xb64>
80001fe4:	07800313          	li	t1,120
80001fe8:	00688463          	beq	a7,t1,80001ff0 <vsnprintf+0x49c>
80001fec:	05800893          	li	a7,88
80001ff0:	080e8e13          	addi	t3,t4,128
80001ff4:	03010f13          	addi	t5,sp,48
80001ff8:	001e8313          	addi	t1,t4,1
80001ffc:	01ee0e33          	add	t3,t3,t5
80002000:	fd1e0023          	sb	a7,-64(t3)
80002004:	08030893          	addi	a7,t1,128
80002008:	01e888b3          	add	a7,a7,t5
8000200c:	002e8e93          	addi	t4,t4,2
80002010:	03000313          	li	t1,48
80002014:	fc688023          	sb	t1,-64(a7)
80002018:	41d708b3          	sub	a7,a4,t4
8000201c:	6b1050e3          	blez	a7,80002ebc <vsnprintf+0x1368>
80002020:	00ed0d33          	add	s10,s10,a4
80002024:	640f8663          	beqz	t6,80002670 <vsnprintf+0xb1c>
80002028:	01d50733          	add	a4,a0,t4
8000202c:	00078693          	mv	a3,a5
80002030:	0157fc63          	bgeu	a5,s5,80002048 <vsnprintf+0x4f4>
80002034:	fff74583          	lbu	a1,-1(a4)
80002038:	00f286b3          	add	a3,t0,a5
8000203c:	00178793          	addi	a5,a5,1
80002040:	00b68023          	sb	a1,0(a3)
80002044:	00078693          	mv	a3,a5
80002048:	fff70713          	addi	a4,a4,-1
8000204c:	fee510e3          	bne	a0,a4,8000202c <vsnprintf+0x4d8>
80002050:	da0f88e3          	beqz	t6,80001e00 <vsnprintf+0x2ac>
80002054:	fff88713          	addi	a4,a7,-1
80002058:	db1054e3          	blez	a7,80001e00 <vsnprintf+0x2ac>
8000205c:	02000513          	li	a0,32
80002060:	fff00593          	li	a1,-1
80002064:	00078693          	mv	a3,a5
80002068:	0157fa63          	bgeu	a5,s5,8000207c <vsnprintf+0x528>
8000206c:	00f286b3          	add	a3,t0,a5
80002070:	00178793          	addi	a5,a5,1
80002074:	00a68023          	sb	a0,0(a3)
80002078:	00078693          	mv	a3,a5
8000207c:	fff70713          	addi	a4,a4,-1
80002080:	feb712e3          	bne	a4,a1,80002064 <vsnprintf+0x510>
80002084:	00160613          	addi	a2,a2,1
80002088:	b65ff06f          	j	80001bec <vsnprintf+0x98>
8000208c:	00100513          	li	a0,1
80002090:	6aae8063          	beq	t4,a0,80002730 <vsnprintf+0xbdc>
80002094:	00200513          	li	a0,2
80002098:	38ae8ee3          	beq	t4,a0,80002c34 <vsnprintf+0x10e0>
8000209c:	00300513          	li	a0,3
800020a0:	00ae8663          	beq	t4,a0,800020ac <vsnprintf+0x558>
800020a4:	00400513          	li	a0,4
800020a8:	50ae84e3          	beq	t4,a0,80002db0 <vsnprintf+0x125c>
800020ac:	000a2883          	lw	a7,0(s4)
800020b0:	004a0a13          	addi	s4,s4,4
800020b4:	41f8d313          	srai	t1,a7,0x1f
800020b8:	68034c63          	bltz	t1,80002750 <vsnprintf+0xbfc>
800020bc:	0068e533          	or	a0,a7,t1
800020c0:	78051ae3          	bnez	a0,80003054 <vsnprintf+0x1500>
800020c4:	62058c63          	beqz	a1,800026fc <vsnprintf+0xba8>
800020c8:	03000513          	li	a0,48
800020cc:	06a10823          	sb	a0,112(sp)
800020d0:	00100e13          	li	t3,1
800020d4:	00000393          	li	t2,0
800020d8:	07010513          	addi	a0,sp,112
800020dc:	62be5263          	bge	t3,a1,80002700 <vsnprintf+0xbac>
800020e0:	000e0893          	mv	a7,t3
800020e4:	03000e93          	li	t4,48
800020e8:	00188893          	addi	a7,a7,1
800020ec:	01150333          	add	t1,a0,a7
800020f0:	ffd30fa3          	sb	t4,-1(t1)
800020f4:	feb8cae3          	blt	a7,a1,800020e8 <vsnprintf+0x594>
800020f8:	001e0893          	addi	a7,t3,1
800020fc:	00000513          	li	a0,0
80002100:	00be5663          	bge	t3,a1,8000210c <vsnprintf+0x5b8>
80002104:	fff58513          	addi	a0,a1,-1
80002108:	41c50533          	sub	a0,a0,t3
8000210c:	01150e33          	add	t3,a0,a7
80002110:	5e038863          	beqz	t2,80002700 <vsnprintf+0xbac>
80002114:	03010893          	addi	a7,sp,48
80002118:	080e0513          	addi	a0,t3,128
8000211c:	01150533          	add	a0,a0,a7
80002120:	02d00313          	li	t1,45
80002124:	001e0893          	addi	a7,t3,1
80002128:	fc650023          	sb	t1,-64(a0)
8000212c:	41170333          	sub	t1,a4,a7
80002130:	00604463          	bgtz	t1,80002138 <vsnprintf+0x5e4>
80002134:	00088713          	mv	a4,a7
80002138:	00ed0d33          	add	s10,s10,a4
8000213c:	0c0f8ee3          	beqz	t6,80002a18 <vsnprintf+0xec4>
80002140:	02088a63          	beqz	a7,80002174 <vsnprintf+0x620>
80002144:	07010513          	addi	a0,sp,112
80002148:	01150733          	add	a4,a0,a7
8000214c:	00078693          	mv	a3,a5
80002150:	0157fc63          	bgeu	a5,s5,80002168 <vsnprintf+0x614>
80002154:	fff74583          	lbu	a1,-1(a4)
80002158:	00f286b3          	add	a3,t0,a5
8000215c:	00178793          	addi	a5,a5,1
80002160:	00b68023          	sb	a1,0(a3)
80002164:	00078693          	mv	a3,a5
80002168:	fff70713          	addi	a4,a4,-1
8000216c:	fee510e3          	bne	a0,a4,8000214c <vsnprintf+0x5f8>
80002170:	c80f88e3          	beqz	t6,80001e00 <vsnprintf+0x2ac>
80002174:	fff30713          	addi	a4,t1,-1
80002178:	c86054e3          	blez	t1,80001e00 <vsnprintf+0x2ac>
8000217c:	02000513          	li	a0,32
80002180:	fff00593          	li	a1,-1
80002184:	00078693          	mv	a3,a5
80002188:	0157fa63          	bgeu	a5,s5,8000219c <vsnprintf+0x648>
8000218c:	00f286b3          	add	a3,t0,a5
80002190:	00178793          	addi	a5,a5,1
80002194:	00a68023          	sb	a0,0(a3)
80002198:	00078693          	mv	a3,a5
8000219c:	fff70713          	addi	a4,a4,-1
800021a0:	feb712e3          	bne	a4,a1,80002184 <vsnprintf+0x630>
800021a4:	00160613          	addi	a2,a2,1
800021a8:	a45ff06f          	j	80001bec <vsnprintf+0x98>
800021ac:	000a2583          	lw	a1,0(s4)
800021b0:	004a0313          	addi	t1,s4,4
800021b4:	6a058463          	beqz	a1,8000285c <vsnprintf+0xd08>
800021b8:	000036b7          	lui	a3,0x3
800021bc:	07868693          	addi	a3,a3,120 # 3078 <_entry_offset+0x3078>
800021c0:	06d11823          	sh	a3,112(sp)
800021c4:	00200813          	li	a6,2
800021c8:	07010513          	addi	a0,sp,112
800021cc:	00002e17          	auipc	t3,0x2
800021d0:	94ce0e13          	addi	t3,t3,-1716 # 80003b18 <_etext+0x798>
800021d4:	00f5f693          	andi	a3,a1,15
800021d8:	00de06b3          	add	a3,t3,a3
800021dc:	0006c883          	lbu	a7,0(a3)
800021e0:	00180813          	addi	a6,a6,1
800021e4:	010506b3          	add	a3,a0,a6
800021e8:	ff168fa3          	sb	a7,-1(a3)
800021ec:	0045d593          	srli	a1,a1,0x4
800021f0:	fe0592e3          	bnez	a1,800021d4 <vsnprintf+0x680>
800021f4:	410705b3          	sub	a1,a4,a6
800021f8:	6cb05263          	blez	a1,800028bc <vsnprintf+0xd68>
800021fc:	00ed0d33          	add	s10,s10,a4
80002200:	3a0f8063          	beqz	t6,800025a0 <vsnprintf+0xa4c>
80002204:	00068713          	mv	a4,a3
80002208:	00078693          	mv	a3,a5
8000220c:	0157fc63          	bgeu	a5,s5,80002224 <vsnprintf+0x6d0>
80002210:	fff74803          	lbu	a6,-1(a4)
80002214:	00f286b3          	add	a3,t0,a5
80002218:	00178793          	addi	a5,a5,1
8000221c:	01068023          	sb	a6,0(a3)
80002220:	00078693          	mv	a3,a5
80002224:	fff70713          	addi	a4,a4,-1
80002228:	fee510e3          	bne	a0,a4,80002208 <vsnprintf+0x6b4>
8000222c:	00030a13          	mv	s4,t1
80002230:	bc0f88e3          	beqz	t6,80001e00 <vsnprintf+0x2ac>
80002234:	fff58713          	addi	a4,a1,-1
80002238:	bcb054e3          	blez	a1,80001e00 <vsnprintf+0x2ac>
8000223c:	02000513          	li	a0,32
80002240:	fff00593          	li	a1,-1
80002244:	00078693          	mv	a3,a5
80002248:	0157fa63          	bgeu	a5,s5,8000225c <vsnprintf+0x708>
8000224c:	00f286b3          	add	a3,t0,a5
80002250:	00178793          	addi	a5,a5,1
80002254:	00a68023          	sb	a0,0(a3)
80002258:	00078693          	mv	a3,a5
8000225c:	fff70713          	addi	a4,a4,-1
80002260:	feb712e3          	bne	a4,a1,80002244 <vsnprintf+0x6f0>
80002264:	00030a13          	mv	s4,t1
80002268:	00160613          	addi	a2,a2,1
8000226c:	981ff06f          	j	80001bec <vsnprintf+0x98>
80002270:	00100513          	li	a0,1
80002274:	4cae8663          	beq	t4,a0,80002740 <vsnprintf+0xbec>
80002278:	00200513          	li	a0,2
8000227c:	1cae84e3          	beq	t4,a0,80002c44 <vsnprintf+0x10f0>
80002280:	00300513          	li	a0,3
80002284:	00ae8663          	beq	t4,a0,80002290 <vsnprintf+0x73c>
80002288:	00400513          	li	a0,4
8000228c:	32ae8ee3          	beq	t4,a0,80002dc8 <vsnprintf+0x1274>
80002290:	000a2883          	lw	a7,0(s4)
80002294:	00000313          	li	t1,0
80002298:	004a0a13          	addi	s4,s4,4
8000229c:	0068e533          	or	a0,a7,t1
800022a0:	66051c63          	bnez	a0,80002918 <vsnprintf+0xdc4>
800022a4:	1e058ae3          	beqz	a1,80002c98 <vsnprintf+0x1144>
800022a8:	03000513          	li	a0,48
800022ac:	06a10823          	sb	a0,112(sp)
800022b0:	00100e13          	li	t3,1
800022b4:	07010513          	addi	a0,sp,112
800022b8:	01c508b3          	add	a7,a0,t3
800022bc:	03000313          	li	t1,48
800022c0:	00b50533          	add	a0,a0,a1
800022c4:	3cbe56e3          	bge	t3,a1,80002e90 <vsnprintf+0x133c>
800022c8:	00688023          	sb	t1,0(a7)
800022cc:	00188893          	addi	a7,a7,1
800022d0:	fea89ce3          	bne	a7,a0,800022c8 <vsnprintf+0x774>
800022d4:	40b708b3          	sub	a7,a4,a1
800022d8:	00058e13          	mv	t3,a1
800022dc:	01104463          	bgtz	a7,800022e4 <vsnprintf+0x790>
800022e0:	000e0713          	mv	a4,t3
800022e4:	00ed0d33          	add	s10,s10,a4
800022e8:	160f86e3          	beqz	t6,80002c54 <vsnprintf+0x1100>
800022ec:	07010513          	addi	a0,sp,112
800022f0:	01c50e33          	add	t3,a0,t3
800022f4:	00078693          	mv	a3,a5
800022f8:	0157fc63          	bgeu	a5,s5,80002310 <vsnprintf+0x7bc>
800022fc:	fffe4703          	lbu	a4,-1(t3)
80002300:	00f286b3          	add	a3,t0,a5
80002304:	00178793          	addi	a5,a5,1
80002308:	00e68023          	sb	a4,0(a3)
8000230c:	00078693          	mv	a3,a5
80002310:	fffe0e13          	addi	t3,t3,-1
80002314:	ffc510e3          	bne	a0,t3,800022f4 <vsnprintf+0x7a0>
80002318:	ae0f84e3          	beqz	t6,80001e00 <vsnprintf+0x2ac>
8000231c:	fff88713          	addi	a4,a7,-1
80002320:	af1050e3          	blez	a7,80001e00 <vsnprintf+0x2ac>
80002324:	02000513          	li	a0,32
80002328:	fff00593          	li	a1,-1
8000232c:	00078693          	mv	a3,a5
80002330:	0157fa63          	bgeu	a5,s5,80002344 <vsnprintf+0x7f0>
80002334:	00f286b3          	add	a3,t0,a5
80002338:	00178793          	addi	a5,a5,1
8000233c:	00a68023          	sb	a0,0(a3)
80002340:	00078693          	mv	a3,a5
80002344:	fff70713          	addi	a4,a4,-1
80002348:	feb712e3          	bne	a4,a1,8000232c <vsnprintf+0x7d8>
8000234c:	00160613          	addi	a2,a2,1
80002350:	89dff06f          	j	80001bec <vsnprintf+0x98>
80002354:	000a2883          	lw	a7,0(s4)
80002358:	004a0313          	addi	t1,s4,4
8000235c:	4e088863          	beqz	a7,8000284c <vsnprintf+0xcf8>
80002360:	0008c503          	lbu	a0,0(a7)
80002364:	2e050263          	beqz	a0,80002648 <vsnprintf+0xaf4>
80002368:	00000513          	li	a0,0
8000236c:	18a58a63          	beq	a1,a0,80002500 <vsnprintf+0x9ac>
80002370:	00150513          	addi	a0,a0,1
80002374:	00a88833          	add	a6,a7,a0
80002378:	00084803          	lbu	a6,0(a6)
8000237c:	fe0818e3          	bnez	a6,8000236c <vsnprintf+0x818>
80002380:	40a70833          	sub	a6,a4,a0
80002384:	1d005663          	blez	a6,80002550 <vsnprintf+0x9fc>
80002388:	00ed0d33          	add	s10,s10,a4
8000238c:	240f8263          	beqz	t6,800025d0 <vsnprintf+0xa7c>
80002390:	00000713          	li	a4,0
80002394:	00078693          	mv	a3,a5
80002398:	0157fe63          	bgeu	a5,s5,800023b4 <vsnprintf+0x860>
8000239c:	00e885b3          	add	a1,a7,a4
800023a0:	0005c583          	lbu	a1,0(a1)
800023a4:	00f286b3          	add	a3,t0,a5
800023a8:	00178793          	addi	a5,a5,1
800023ac:	00b68023          	sb	a1,0(a3)
800023b0:	00078693          	mv	a3,a5
800023b4:	00170713          	addi	a4,a4,1
800023b8:	fca74ee3          	blt	a4,a0,80002394 <vsnprintf+0x840>
800023bc:	00030a13          	mv	s4,t1
800023c0:	a40f80e3          	beqz	t6,80001e00 <vsnprintf+0x2ac>
800023c4:	fff80713          	addi	a4,a6,-1
800023c8:	a3005ce3          	blez	a6,80001e00 <vsnprintf+0x2ac>
800023cc:	02000513          	li	a0,32
800023d0:	fff00593          	li	a1,-1
800023d4:	00078693          	mv	a3,a5
800023d8:	0157fa63          	bgeu	a5,s5,800023ec <vsnprintf+0x898>
800023dc:	00f286b3          	add	a3,t0,a5
800023e0:	00178793          	addi	a5,a5,1
800023e4:	00a68023          	sb	a0,0(a3)
800023e8:	00078693          	mv	a3,a5
800023ec:	fff70713          	addi	a4,a4,-1
800023f0:	feb712e3          	bne	a4,a1,800023d4 <vsnprintf+0x880>
800023f4:	00030a13          	mv	s4,t1
800023f8:	e71ff06f          	j	80002268 <vsnprintf+0x714>
800023fc:	40e005b3          	neg	a1,a4
80002400:	fff70513          	addi	a0,a4,-1
80002404:	41f5d593          	srai	a1,a1,0x1f
80002408:	00b575b3          	and	a1,a0,a1
8000240c:	00158593          	addi	a1,a1,1
80002410:	000a2883          	lw	a7,0(s4)
80002414:	00bd0d33          	add	s10,s10,a1
80002418:	004a0a13          	addi	s4,s4,4
8000241c:	4a0f8863          	beqz	t6,800028cc <vsnprintf+0xd78>
80002420:	0f57ee63          	bltu	a5,s5,8000251c <vsnprintf+0x9c8>
80002424:	ffe70713          	addi	a4,a4,-2
80002428:	9ca05ce3          	blez	a0,80001e00 <vsnprintf+0x2ac>
8000242c:	02000513          	li	a0,32
80002430:	fff00593          	li	a1,-1
80002434:	00078693          	mv	a3,a5
80002438:	0157fa63          	bgeu	a5,s5,8000244c <vsnprintf+0x8f8>
8000243c:	00f286b3          	add	a3,t0,a5
80002440:	00178793          	addi	a5,a5,1
80002444:	00a68023          	sb	a0,0(a3)
80002448:	00078693          	mv	a3,a5
8000244c:	fff70713          	addi	a4,a4,-1
80002450:	feb712e3          	bne	a4,a1,80002434 <vsnprintf+0x8e0>
80002454:	00160613          	addi	a2,a2,1
80002458:	f94ff06f          	j	80001bec <vsnprintf+0x98>
8000245c:	001d0d13          	addi	s10,s10,1
80002460:	9b57f0e3          	bgeu	a5,s5,80001e00 <vsnprintf+0x2ac>
80002464:	00d286b3          	add	a3,t0,a3
80002468:	02500713          	li	a4,37
8000246c:	00178793          	addi	a5,a5,1
80002470:	00e68023          	sb	a4,0(a3)
80002474:	00078693          	mv	a3,a5
80002478:	00160613          	addi	a2,a2,1
8000247c:	f70ff06f          	j	80001bec <vsnprintf+0x98>
80002480:	0003c883          	lbu	a7,0(t2)
80002484:	00500e93          	li	t4,5
80002488:	855ff06f          	j	80001cdc <vsnprintf+0x188>
8000248c:	fd088513          	addi	a0,a7,-48
80002490:	0ff57393          	zext.b	t2,a0
80002494:	00900593          	li	a1,9
80002498:	0c75e4e3          	bltu	a1,t2,80002d60 <vsnprintf+0x120c>
8000249c:	002e0393          	addi	t2,t3,2
800024a0:	00000593          	li	a1,0
800024a4:	00060e13          	mv	t3,a2
800024a8:	007b83b3          	add	t2,s7,t2
800024ac:	00900493          	li	s1,9
800024b0:	00058613          	mv	a2,a1
800024b4:	0003c883          	lbu	a7,0(t2)
800024b8:	00261593          	slli	a1,a2,0x2
800024bc:	00c585b3          	add	a1,a1,a2
800024c0:	00159593          	slli	a1,a1,0x1
800024c4:	00b50633          	add	a2,a0,a1
800024c8:	fd088513          	addi	a0,a7,-48
800024cc:	0ff57593          	zext.b	a1,a0
800024d0:	00038e93          	mv	t4,t2
800024d4:	001e0e13          	addi	t3,t3,1
800024d8:	00138393          	addi	t2,t2,1
800024dc:	fcb4fce3          	bgeu	s1,a1,800024b4 <vsnprintf+0x960>
800024e0:	00060593          	mv	a1,a2
800024e4:	fd0ff06f          	j	80001cb4 <vsnprintf+0x160>
800024e8:	00050023          	sb	zero,0(a0)
800024ec:	00000d13          	li	s10,0
800024f0:	000d0513          	mv	a0,s10
800024f4:	0b412d03          	lw	s10,180(sp)
800024f8:	0e010113          	addi	sp,sp,224
800024fc:	00008067          	ret
80002500:	40b70833          	sub	a6,a4,a1
80002504:	03005c63          	blez	a6,8000253c <vsnprintf+0x9e8>
80002508:	00ed0d33          	add	s10,s10,a4
8000250c:	0c0f8263          	beqz	t6,800025d0 <vsnprintf+0xa7c>
80002510:	e80590e3          	bnez	a1,80002390 <vsnprintf+0x83c>
80002514:	fff80713          	addi	a4,a6,-1
80002518:	eb5ff06f          	j	800023cc <vsnprintf+0x878>
8000251c:	00d286b3          	add	a3,t0,a3
80002520:	00178793          	addi	a5,a5,1
80002524:	01168023          	sb	a7,0(a3)
80002528:	00078693          	mv	a3,a5
8000252c:	ef9ff06f          	j	80002424 <vsnprintf+0x8d0>
80002530:	00800513          	li	a0,8
80002534:	00600593          	li	a1,6
80002538:	96dff06f          	j	80001ea4 <vsnprintf+0x350>
8000253c:	00bd0d33          	add	s10,s10,a1
80002540:	360f8ce3          	beqz	t6,800030b8 <vsnprintf+0x1564>
80002544:	e40596e3          	bnez	a1,80002390 <vsnprintf+0x83c>
80002548:	00030a13          	mv	s4,t1
8000254c:	d1dff06f          	j	80002268 <vsnprintf+0x714>
80002550:	001fb713          	seqz	a4,t6
80002554:	00ad0d33          	add	s10,s10,a0
80002558:	40e80833          	sub	a6,a6,a4
8000255c:	e35ff06f          	j	80002390 <vsnprintf+0x83c>
80002560:	fff80813          	addi	a6,a6,-1
80002564:	ff087813          	andi	a6,a6,-16
80002568:	03080813          	addi	a6,a6,48
8000256c:	fff50713          	addi	a4,a0,-1
80002570:	48a05ee3          	blez	a0,8000320c <vsnprintf+0x16b8>
80002574:	00070513          	mv	a0,a4
80002578:	fff00713          	li	a4,-1
8000257c:	00078693          	mv	a3,a5
80002580:	0157fa63          	bgeu	a5,s5,80002594 <vsnprintf+0xa40>
80002584:	00f286b3          	add	a3,t0,a5
80002588:	00178793          	addi	a5,a5,1
8000258c:	01068023          	sb	a6,0(a3)
80002590:	00078693          	mv	a3,a5
80002594:	fff50513          	addi	a0,a0,-1
80002598:	fee512e3          	bne	a0,a4,8000257c <vsnprintf+0xa28>
8000259c:	929ff06f          	j	80001ec4 <vsnprintf+0x370>
800025a0:	fff58593          	addi	a1,a1,-1
800025a4:	02000893          	li	a7,32
800025a8:	fff00813          	li	a6,-1
800025ac:	0157f863          	bgeu	a5,s5,800025bc <vsnprintf+0xa68>
800025b0:	00f28733          	add	a4,t0,a5
800025b4:	01170023          	sb	a7,0(a4)
800025b8:	00178793          	addi	a5,a5,1
800025bc:	fff58593          	addi	a1,a1,-1
800025c0:	ff0596e3          	bne	a1,a6,800025ac <vsnprintf+0xa58>
800025c4:	c41ff06f          	j	80002204 <vsnprintf+0x6b0>
800025c8:	00070813          	mv	a6,a4
800025cc:	00000513          	li	a0,0
800025d0:	fff80813          	addi	a6,a6,-1
800025d4:	02000593          	li	a1,32
800025d8:	fff00713          	li	a4,-1
800025dc:	00078693          	mv	a3,a5
800025e0:	0157fa63          	bgeu	a5,s5,800025f4 <vsnprintf+0xaa0>
800025e4:	00f286b3          	add	a3,t0,a5
800025e8:	00178793          	addi	a5,a5,1
800025ec:	00b68023          	sb	a1,0(a3)
800025f0:	00078693          	mv	a3,a5
800025f4:	fff80813          	addi	a6,a6,-1
800025f8:	fee812e3          	bne	a6,a4,800025dc <vsnprintf+0xa88>
800025fc:	d8051ae3          	bnez	a0,80002390 <vsnprintf+0x83c>
80002600:	00030a13          	mv	s4,t1
80002604:	c65ff06f          	j	80002268 <vsnprintf+0x714>
80002608:	0157fa63          	bgeu	a5,s5,8000261c <vsnprintf+0xac8>
8000260c:	00f286b3          	add	a3,t0,a5
80002610:	00270793          	addi	a5,a4,2
80002614:	02e00713          	li	a4,46
80002618:	00e68023          	sb	a4,0(a3)
8000261c:	00000713          	li	a4,0
80002620:	03000813          	li	a6,48
80002624:	00078693          	mv	a3,a5
80002628:	0157fa63          	bgeu	a5,s5,8000263c <vsnprintf+0xae8>
8000262c:	00f286b3          	add	a3,t0,a5
80002630:	00178793          	addi	a5,a5,1
80002634:	01068023          	sb	a6,0(a3)
80002638:	00078693          	mv	a3,a5
8000263c:	00170713          	addi	a4,a4,1
80002640:	feb742e3          	blt	a4,a1,80002624 <vsnprintf+0xad0>
80002644:	8b9ff06f          	j	80001efc <vsnprintf+0x3a8>
80002648:	00030a13          	mv	s4,t1
8000264c:	fae05a63          	blez	a4,80001e00 <vsnprintf+0x2ac>
80002650:	00ed0d33          	add	s10,s10,a4
80002654:	f60f8ae3          	beqz	t6,800025c8 <vsnprintf+0xa74>
80002658:	fff70713          	addi	a4,a4,-1
8000265c:	d71ff06f          	j	800023cc <vsnprintf+0x878>
80002660:	fff70893          	addi	a7,a4,-1
80002664:	21105ee3          	blez	a7,80003080 <vsnprintf+0x152c>
80002668:	00ed0d33          	add	s10,s10,a4
8000266c:	200f9ee3          	bnez	t6,80003088 <vsnprintf+0x1534>
80002670:	06081063          	bnez	a6,800026d0 <vsnprintf+0xb7c>
80002674:	fff88713          	addi	a4,a7,-1
80002678:	00070813          	mv	a6,a4
8000267c:	02000513          	li	a0,32
80002680:	fff00593          	li	a1,-1
80002684:	00078693          	mv	a3,a5
80002688:	0157fa63          	bgeu	a5,s5,8000269c <vsnprintf+0xb48>
8000268c:	00f286b3          	add	a3,t0,a5
80002690:	00178793          	addi	a5,a5,1
80002694:	00a68023          	sb	a0,0(a3)
80002698:	00078693          	mv	a3,a5
8000269c:	fff70713          	addi	a4,a4,-1
800026a0:	feb712e3          	bne	a4,a1,80002684 <vsnprintf+0xb30>
800026a4:	411808b3          	sub	a7,a6,a7
800026a8:	07010513          	addi	a0,sp,112
800026ac:	960e9ee3          	bnez	t4,80002028 <vsnprintf+0x4d4>
800026b0:	00160613          	addi	a2,a2,1
800026b4:	d38ff06f          	j	80001bec <vsnprintf+0x98>
800026b8:	41d708b3          	sub	a7,a4,t4
800026bc:	01104463          	bgtz	a7,800026c4 <vsnprintf+0xb70>
800026c0:	000e8713          	mv	a4,t4
800026c4:	00ed0d33          	add	s10,s10,a4
800026c8:	960f90e3          	bnez	t6,80002028 <vsnprintf+0x4d4>
800026cc:	02080463          	beqz	a6,800026f4 <vsnprintf+0xba0>
800026d0:	03000513          	li	a0,48
800026d4:	0205d063          	bgez	a1,800026f4 <vsnprintf+0xba0>
800026d8:	fff88713          	addi	a4,a7,-1
800026dc:	23105ce3          	blez	a7,80003114 <vsnprintf+0x15c0>
800026e0:	00070813          	mv	a6,a4
800026e4:	f9dff06f          	j	80002680 <vsnprintf+0xb2c>
800026e8:	f00f9c63          	bnez	t6,80001e00 <vsnprintf+0x2ac>
800026ec:	00070893          	mv	a7,a4
800026f0:	00000e93          	li	t4,0
800026f4:	02000513          	li	a0,32
800026f8:	fe1ff06f          	j	800026d8 <vsnprintf+0xb84>
800026fc:	00000e13          	li	t3,0
80002700:	360f0463          	beqz	t5,80002a68 <vsnprintf+0xf14>
80002704:	03010893          	addi	a7,sp,48
80002708:	080e0513          	addi	a0,t3,128
8000270c:	01150533          	add	a0,a0,a7
80002710:	02b00313          	li	t1,43
80002714:	001e0893          	addi	a7,t3,1
80002718:	fc650023          	sb	t1,-64(a0)
8000271c:	a11ff06f          	j	8000212c <vsnprintf+0x5d8>
80002720:	000a5e03          	lhu	t3,0(s4)
80002724:	00000f13          	li	t5,0
80002728:	004a0a13          	addi	s4,s4,4
8000272c:	841ff06f          	j	80001f6c <vsnprintf+0x418>
80002730:	000a1883          	lh	a7,0(s4)
80002734:	004a0a13          	addi	s4,s4,4
80002738:	41f8d313          	srai	t1,a7,0x1f
8000273c:	97dff06f          	j	800020b8 <vsnprintf+0x564>
80002740:	000a5883          	lhu	a7,0(s4)
80002744:	00000313          	li	t1,0
80002748:	004a0a13          	addi	s4,s4,4
8000274c:	b51ff06f          	j	8000229c <vsnprintf+0x748>
80002750:	01103533          	snez	a0,a7
80002754:	40600333          	neg	t1,t1
80002758:	0d212a23          	sw	s2,212(sp)
8000275c:	0d312823          	sw	s3,208(sp)
80002760:	40a30333          	sub	t1,t1,a0
80002764:	411008b3          	neg	a7,a7
80002768:	00100393          	li	t2,1
8000276c:	ccccdeb7          	lui	t4,0xccccd
80002770:	ccccd4b7          	lui	s1,0xccccd
80002774:	00000e13          	li	t3,0
80002778:	07010513          	addi	a0,sp,112
8000277c:	00500913          	li	s2,5
80002780:	ccde8e93          	addi	t4,t4,-819 # cccccccd <_end+0x4cc2dccd>
80002784:	ccc48493          	addi	s1,s1,-820 # cccccccc <_end+0x4cc2dccc>
80002788:	01e12823          	sw	t5,16(sp)
8000278c:	01f12a23          	sw	t6,20(sp)
80002790:	00812c23          	sw	s0,24(sp)
80002794:	00688f33          	add	t5,a7,t1
80002798:	011f3fb3          	sltu	t6,t5,a7
8000279c:	01ff0f33          	add	t5,t5,t6
800027a0:	032f7f33          	remu	t5,t5,s2
800027a4:	001e0e13          	addi	t3,t3,1
800027a8:	01c50433          	add	s0,a0,t3
800027ac:	41e88f33          	sub	t5,a7,t5
800027b0:	01e8bfb3          	sltu	t6,a7,t5
800027b4:	41f30fb3          	sub	t6,t1,t6
800027b8:	03df8fb3          	mul	t6,t6,t4
800027bc:	029f0333          	mul	t1,t5,s1
800027c0:	03df39b3          	mulhu	s3,t5,t4
800027c4:	006f8333          	add	t1,t6,t1
800027c8:	03df0f33          	mul	t5,t5,t4
800027cc:	01330333          	add	t1,t1,s3
800027d0:	01f31f93          	slli	t6,t1,0x1f
800027d4:	00135313          	srli	t1,t1,0x1
800027d8:	001f5f13          	srli	t5,t5,0x1
800027dc:	01efef33          	or	t5,t6,t5
800027e0:	002f1f93          	slli	t6,t5,0x2
800027e4:	01ef8fb3          	add	t6,t6,t5
800027e8:	001f9f93          	slli	t6,t6,0x1
800027ec:	41f88fb3          	sub	t6,a7,t6
800027f0:	030f8f93          	addi	t6,t6,48
800027f4:	000f0893          	mv	a7,t5
800027f8:	fff40fa3          	sb	t6,-1(s0)
800027fc:	006f6f33          	or	t5,t5,t1
80002800:	f80f1ae3          	bnez	t5,80002794 <vsnprintf+0xc40>
80002804:	01012f03          	lw	t5,16(sp)
80002808:	01412f83          	lw	t6,20(sp)
8000280c:	01812403          	lw	s0,24(sp)
80002810:	0d412903          	lw	s2,212(sp)
80002814:	0d012983          	lw	s3,208(sp)
80002818:	8cbe44e3          	blt	t3,a1,800020e0 <vsnprintf+0x58c>
8000281c:	8f5ff06f          	j	80002110 <vsnprintf+0x5bc>
80002820:	00070793          	mv	a5,a4
80002824:	ec058c63          	beqz	a1,80001efc <vsnprintf+0x3a8>
80002828:	df5ff06f          	j	8000261c <vsnprintf+0xac8>
8000282c:	500f0a63          	beqz	t5,80002d40 <vsnprintf+0x11ec>
80002830:	ff57fae3          	bgeu	a5,s5,80002824 <vsnprintf+0xcd0>
80002834:	00178713          	addi	a4,a5,1
80002838:	02b00693          	li	a3,43
8000283c:	00f287b3          	add	a5,t0,a5
80002840:	00d78023          	sb	a3,0(a5)
80002844:	00070693          	mv	a3,a4
80002848:	e98ff06f          	j	80001ee0 <vsnprintf+0x38c>
8000284c:	00001897          	auipc	a7,0x1
80002850:	2f488893          	addi	a7,a7,756 # 80003b40 <_etext+0x7c0>
80002854:	00000513          	li	a0,0
80002858:	b15ff06f          	j	8000236c <vsnprintf+0x818>
8000285c:	00001517          	auipc	a0,0x1
80002860:	2ed50513          	addi	a0,a0,749 # 80003b49 <_etext+0x7c9>
80002864:	00050693          	mv	a3,a0
80002868:	00000713          	li	a4,0
8000286c:	0006c583          	lbu	a1,0(a3)
80002870:	00070813          	mv	a6,a4
80002874:	00168693          	addi	a3,a3,1
80002878:	00170713          	addi	a4,a4,1
8000287c:	fe0598e3          	bnez	a1,8000286c <vsnprintf+0xd18>
80002880:	00ed0d33          	add	s10,s10,a4
80002884:	010505b3          	add	a1,a0,a6
80002888:	00001717          	auipc	a4,0x1
8000288c:	2c070713          	addi	a4,a4,704 # 80003b48 <_etext+0x7c8>
80002890:	00078693          	mv	a3,a5
80002894:	0157fc63          	bgeu	a5,s5,800028ac <vsnprintf+0xd58>
80002898:	00074503          	lbu	a0,0(a4)
8000289c:	00f286b3          	add	a3,t0,a5
800028a0:	00178793          	addi	a5,a5,1
800028a4:	00a68023          	sb	a0,0(a3)
800028a8:	00078693          	mv	a3,a5
800028ac:	00170713          	addi	a4,a4,1
800028b0:	fee590e3          	bne	a1,a4,80002890 <vsnprintf+0xd3c>
800028b4:	00030a13          	mv	s4,t1
800028b8:	9b1ff06f          	j	80002268 <vsnprintf+0x714>
800028bc:	001fb713          	seqz	a4,t6
800028c0:	010d0d33          	add	s10,s10,a6
800028c4:	40e585b3          	sub	a1,a1,a4
800028c8:	93dff06f          	j	80002204 <vsnprintf+0x6b0>
800028cc:	ffe70713          	addi	a4,a4,-2
800028d0:	02000813          	li	a6,32
800028d4:	fff00593          	li	a1,-1
800028d8:	02a05263          	blez	a0,800028fc <vsnprintf+0xda8>
800028dc:	00078693          	mv	a3,a5
800028e0:	0157fa63          	bgeu	a5,s5,800028f4 <vsnprintf+0xda0>
800028e4:	00f286b3          	add	a3,t0,a5
800028e8:	00178793          	addi	a5,a5,1
800028ec:	01068023          	sb	a6,0(a3)
800028f0:	00078693          	mv	a3,a5
800028f4:	fff70713          	addi	a4,a4,-1
800028f8:	feb712e3          	bne	a4,a1,800028dc <vsnprintf+0xd88>
800028fc:	d157f263          	bgeu	a5,s5,80001e00 <vsnprintf+0x2ac>
80002900:	00d286b3          	add	a3,t0,a3
80002904:	00178793          	addi	a5,a5,1
80002908:	01168023          	sb	a7,0(a3)
8000290c:	00160613          	addi	a2,a2,1
80002910:	00078693          	mv	a3,a5
80002914:	ad8ff06f          	j	80001bec <vsnprintf+0x98>
80002918:	ccccdeb7          	lui	t4,0xccccd
8000291c:	ccccd4b7          	lui	s1,0xccccd
80002920:	0d312823          	sw	s3,208(sp)
80002924:	0d212a23          	sw	s2,212(sp)
80002928:	00000e13          	li	t3,0
8000292c:	07010513          	addi	a0,sp,112
80002930:	00500993          	li	s3,5
80002934:	ccde8e93          	addi	t4,t4,-819 # cccccccd <_end+0x4cc2dccd>
80002938:	ccc48493          	addi	s1,s1,-820 # cccccccc <_end+0x4cc2dccc>
8000293c:	01f12a23          	sw	t6,20(sp)
80002940:	00688f33          	add	t5,a7,t1
80002944:	011f3fb3          	sltu	t6,t5,a7
80002948:	01ff0f33          	add	t5,t5,t6
8000294c:	033f7f33          	remu	t5,t5,s3
80002950:	00030393          	mv	t2,t1
80002954:	001e0e13          	addi	t3,t3,1
80002958:	01c50433          	add	s0,a0,t3
8000295c:	01112823          	sw	a7,16(sp)
80002960:	41e88f33          	sub	t5,a7,t5
80002964:	01e8bfb3          	sltu	t6,a7,t5
80002968:	41f30fb3          	sub	t6,t1,t6
8000296c:	03df8fb3          	mul	t6,t6,t4
80002970:	029f0333          	mul	t1,t5,s1
80002974:	03df3933          	mulhu	s2,t5,t4
80002978:	006f8333          	add	t1,t6,t1
8000297c:	03df0f33          	mul	t5,t5,t4
80002980:	01230333          	add	t1,t1,s2
80002984:	01f31f93          	slli	t6,t1,0x1f
80002988:	00135313          	srli	t1,t1,0x1
8000298c:	001f5f13          	srli	t5,t5,0x1
80002990:	01efef33          	or	t5,t6,t5
80002994:	002f1f93          	slli	t6,t5,0x2
80002998:	01ef8fb3          	add	t6,t6,t5
8000299c:	001f9f93          	slli	t6,t6,0x1
800029a0:	41f88fb3          	sub	t6,a7,t6
800029a4:	030f8f93          	addi	t6,t6,48
800029a8:	fff40fa3          	sb	t6,-1(s0)
800029ac:	000f0893          	mv	a7,t5
800029b0:	f80398e3          	bnez	t2,80002940 <vsnprintf+0xdec>
800029b4:	01012f03          	lw	t5,16(sp)
800029b8:	00900f93          	li	t6,9
800029bc:	f9efe2e3          	bltu	t6,t5,80002940 <vsnprintf+0xdec>
800029c0:	01412f83          	lw	t6,20(sp)
800029c4:	0d412903          	lw	s2,212(sp)
800029c8:	0d012983          	lw	s3,208(sp)
800029cc:	8e9ff06f          	j	800022b4 <vsnprintf+0x760>
800029d0:	0d212a23          	sw	s2,212(sp)
800029d4:	00000e93          	li	t4,0
800029d8:	07010513          	addi	a0,sp,112
800029dc:	00fe7393          	andi	t2,t3,15
800029e0:	007403b3          	add	t2,s0,t2
800029e4:	0003c483          	lbu	s1,0(t2)
800029e8:	01cf1913          	slli	s2,t5,0x1c
800029ec:	001e8e93          	addi	t4,t4,1
800029f0:	004e5e13          	srli	t3,t3,0x4
800029f4:	01d503b3          	add	t2,a0,t4
800029f8:	01c96e33          	or	t3,s2,t3
800029fc:	004f5f13          	srli	t5,t5,0x4
80002a00:	fe938fa3          	sb	s1,-1(t2)
80002a04:	01ee63b3          	or	t2,t3,t5
80002a08:	fc039ae3          	bnez	t2,800029dc <vsnprintf+0xe88>
80002a0c:	0d412903          	lw	s2,212(sp)
80002a10:	d8beca63          	blt	t4,a1,80001fa4 <vsnprintf+0x450>
80002a14:	dc0ff06f          	j	80001fd4 <vsnprintf+0x480>
80002a18:	02000513          	li	a0,32
80002a1c:	00080863          	beqz	a6,80002a2c <vsnprintf+0xed8>
80002a20:	41f5d513          	srai	a0,a1,0x1f
80002a24:	01057513          	andi	a0,a0,16
80002a28:	02050513          	addi	a0,a0,32
80002a2c:	fff30713          	addi	a4,t1,-1
80002a30:	68605c63          	blez	t1,800030c8 <vsnprintf+0x1574>
80002a34:	00070313          	mv	t1,a4
80002a38:	fff00713          	li	a4,-1
80002a3c:	00078693          	mv	a3,a5
80002a40:	0157fa63          	bgeu	a5,s5,80002a54 <vsnprintf+0xf00>
80002a44:	00f286b3          	add	a3,t0,a5
80002a48:	00178793          	addi	a5,a5,1
80002a4c:	00a68023          	sb	a0,0(a3)
80002a50:	00078693          	mv	a3,a5
80002a54:	fff30313          	addi	t1,t1,-1
80002a58:	fee312e3          	bne	t1,a4,80002a3c <vsnprintf+0xee8>
80002a5c:	ee089463          	bnez	a7,80002144 <vsnprintf+0x5f0>
80002a60:	00160613          	addi	a2,a2,1
80002a64:	988ff06f          	j	80001bec <vsnprintf+0x98>
80002a68:	000e0893          	mv	a7,t3
80002a6c:	ec040063          	beqz	s0,8000212c <vsnprintf+0x5d8>
80002a70:	080e0513          	addi	a0,t3,128
80002a74:	03010313          	addi	t1,sp,48
80002a78:	00650e33          	add	t3,a0,t1
80002a7c:	02000513          	li	a0,32
80002a80:	00188893          	addi	a7,a7,1
80002a84:	fcae0023          	sb	a0,-64(t3)
80002a88:	ea4ff06f          	j	8000212c <vsnprintf+0x5d8>
80002a8c:	0d212a23          	sw	s2,212(sp)
80002a90:	0d312823          	sw	s3,208(sp)
80002a94:	c0188913          	addi	s2,a7,-1023
80002a98:	3405c463          	bltz	a1,80002de0 <vsnprintf+0x128c>
80002a9c:	5e094a63          	bltz	s2,80003090 <vsnprintf+0x153c>
80002aa0:	00100e37          	lui	t3,0x100
80002aa4:	03400313          	li	t1,52
80002aa8:	00ae6e33          	or	t3,t3,a0
80002aac:	43235463          	bge	t1,s2,80002ed4 <vsnprintf+0x1380>
80002ab0:	bcd88313          	addi	t1,a7,-1075
80002ab4:	03f00e93          	li	t4,63
80002ab8:	786ee263          	bltu	t4,t1,8000323c <vsnprintf+0x16e8>
80002abc:	bad88893          	addi	a7,a7,-1107
80002ac0:	6208ca63          	bltz	a7,800030f4 <vsnprintf+0x15a0>
80002ac4:	01149e33          	sll	t3,s1,a7
80002ac8:	00000313          	li	t1,0
80002acc:	01c368b3          	or	a7,t1,t3
80002ad0:	40089c63          	bnez	a7,80002ee8 <vsnprintf+0x1394>
80002ad4:	03000513          	li	a0,48
80002ad8:	02a10823          	sb	a0,48(sp)
80002adc:	5c058063          	beqz	a1,8000309c <vsnprintf+0x1548>
80002ae0:	03010513          	addi	a0,sp,48
80002ae4:	00100993          	li	s3,1
80002ae8:	00a12a23          	sw	a0,20(sp)
80002aec:	07010893          	addi	a7,sp,112
80002af0:	00000513          	li	a0,0
80002af4:	03000313          	li	t1,48
80002af8:	00688023          	sb	t1,0(a7)
80002afc:	00150513          	addi	a0,a0,1
80002b00:	00188893          	addi	a7,a7,1
80002b04:	feb54ae3          	blt	a0,a1,80002af8 <vsnprintf+0xfa4>
80002b08:	00058893          	mv	a7,a1
80002b0c:	00098513          	mv	a0,s3
80002b10:	00058663          	beqz	a1,80002b1c <vsnprintf+0xfc8>
80002b14:	00158513          	addi	a0,a1,1
80002b18:	01350533          	add	a0,a0,s3
80002b1c:	008f6333          	or	t1,t5,s0
80002b20:	00736333          	or	t1,t1,t2
80002b24:	00a30333          	add	t1,t1,a0
80002b28:	40670533          	sub	a0,a4,t1
80002b2c:	00a05463          	blez	a0,80002b34 <vsnprintf+0xfe0>
80002b30:	00070313          	mv	t1,a4
80002b34:	006d0d33          	add	s10,s10,t1
80002b38:	0a0f8663          	beqz	t6,80002be4 <vsnprintf+0x1090>
80002b3c:	22038863          	beqz	t2,80002d6c <vsnprintf+0x1218>
80002b40:	0157fa63          	bgeu	a5,s5,80002b54 <vsnprintf+0x1000>
80002b44:	00d286b3          	add	a3,t0,a3
80002b48:	02d00713          	li	a4,45
80002b4c:	00178793          	addi	a5,a5,1
80002b50:	00e68023          	sb	a4,0(a3)
80002b54:	01412703          	lw	a4,20(sp)
80002b58:	00e98833          	add	a6,s3,a4
80002b5c:	00078693          	mv	a3,a5
80002b60:	0157fc63          	bgeu	a5,s5,80002b78 <vsnprintf+0x1024>
80002b64:	00074303          	lbu	t1,0(a4)
80002b68:	00f286b3          	add	a3,t0,a5
80002b6c:	00178793          	addi	a5,a5,1
80002b70:	00668023          	sb	t1,0(a3)
80002b74:	00078693          	mv	a3,a5
80002b78:	00170713          	addi	a4,a4,1
80002b7c:	ff0710e3          	bne	a4,a6,80002b5c <vsnprintf+0x1008>
80002b80:	00059c63          	bnez	a1,80002b98 <vsnprintf+0x1044>
80002b84:	480f9e63          	bnez	t6,80003020 <vsnprintf+0x14cc>
80002b88:	0d412903          	lw	s2,212(sp)
80002b8c:	0d012983          	lw	s3,208(sp)
80002b90:	00160613          	addi	a2,a2,1
80002b94:	858ff06f          	j	80001bec <vsnprintf+0x98>
80002b98:	0157fc63          	bgeu	a5,s5,80002bb0 <vsnprintf+0x105c>
80002b9c:	00d286b3          	add	a3,t0,a3
80002ba0:	00178793          	addi	a5,a5,1
80002ba4:	02e00713          	li	a4,46
80002ba8:	00e68023          	sb	a4,0(a3)
80002bac:	00078693          	mv	a3,a5
80002bb0:	fc088ae3          	beqz	a7,80002b84 <vsnprintf+0x1030>
80002bb4:	07010713          	addi	a4,sp,112
80002bb8:	011708b3          	add	a7,a4,a7
80002bbc:	00078693          	mv	a3,a5
80002bc0:	0157fc63          	bgeu	a5,s5,80002bd8 <vsnprintf+0x1084>
80002bc4:	00074583          	lbu	a1,0(a4)
80002bc8:	00f286b3          	add	a3,t0,a5
80002bcc:	00178793          	addi	a5,a5,1
80002bd0:	00b68023          	sb	a1,0(a3)
80002bd4:	00078693          	mv	a3,a5
80002bd8:	00170713          	addi	a4,a4,1
80002bdc:	ff1710e3          	bne	a4,a7,80002bbc <vsnprintf+0x1068>
80002be0:	fa5ff06f          	j	80002b84 <vsnprintf+0x1030>
80002be4:	fff80813          	addi	a6,a6,-1
80002be8:	ff087813          	andi	a6,a6,-16
80002bec:	03080813          	addi	a6,a6,48
80002bf0:	fff50713          	addi	a4,a0,-1
80002bf4:	66a05e63          	blez	a0,80003270 <vsnprintf+0x171c>
80002bf8:	00070513          	mv	a0,a4
80002bfc:	fff00713          	li	a4,-1
80002c00:	00078693          	mv	a3,a5
80002c04:	0157fa63          	bgeu	a5,s5,80002c18 <vsnprintf+0x10c4>
80002c08:	00f286b3          	add	a3,t0,a5
80002c0c:	00178793          	addi	a5,a5,1
80002c10:	01068023          	sb	a6,0(a3)
80002c14:	00078693          	mv	a3,a5
80002c18:	fff50513          	addi	a0,a0,-1
80002c1c:	fee512e3          	bne	a0,a4,80002c00 <vsnprintf+0x10ac>
80002c20:	f1dff06f          	j	80002b3c <vsnprintf+0xfe8>
80002c24:	000a4e03          	lbu	t3,0(s4)
80002c28:	00000f13          	li	t5,0
80002c2c:	004a0a13          	addi	s4,s4,4
80002c30:	b3cff06f          	j	80001f6c <vsnprintf+0x418>
80002c34:	000a4883          	lbu	a7,0(s4)
80002c38:	00000313          	li	t1,0
80002c3c:	004a0a13          	addi	s4,s4,4
80002c40:	c7cff06f          	j	800020bc <vsnprintf+0x568>
80002c44:	000a4883          	lbu	a7,0(s4)
80002c48:	00000313          	li	t1,0
80002c4c:	004a0a13          	addi	s4,s4,4
80002c50:	e4cff06f          	j	8000229c <vsnprintf+0x748>
80002c54:	12081a63          	bnez	a6,80002d88 <vsnprintf+0x1234>
80002c58:	00088713          	mv	a4,a7
80002c5c:	02000593          	li	a1,32
80002c60:	fff70893          	addi	a7,a4,-1
80002c64:	02e05463          	blez	a4,80002c8c <vsnprintf+0x1138>
80002c68:	fff00713          	li	a4,-1
80002c6c:	00078693          	mv	a3,a5
80002c70:	0157fa63          	bgeu	a5,s5,80002c84 <vsnprintf+0x1130>
80002c74:	00f286b3          	add	a3,t0,a5
80002c78:	00178793          	addi	a5,a5,1
80002c7c:	00b68023          	sb	a1,0(a3)
80002c80:	00078693          	mv	a3,a5
80002c84:	fff88893          	addi	a7,a7,-1
80002c88:	fee892e3          	bne	a7,a4,80002c6c <vsnprintf+0x1118>
80002c8c:	e60e1063          	bnez	t3,800022ec <vsnprintf+0x798>
80002c90:	00160613          	addi	a2,a2,1
80002c94:	f59fe06f          	j	80001bec <vsnprintf+0x98>
80002c98:	20e05063          	blez	a4,80002e98 <vsnprintf+0x1344>
80002c9c:	00ed0d33          	add	s10,s10,a4
80002ca0:	200f8063          	beqz	t6,80002ea0 <vsnprintf+0x134c>
80002ca4:	fff70713          	addi	a4,a4,-1
80002ca8:	e7cff06f          	j	80002324 <vsnprintf+0x7d0>
80002cac:	a2e05ee3          	blez	a4,800026e8 <vsnprintf+0xb94>
80002cb0:	00ed0d33          	add	s10,s10,a4
80002cb4:	a20f8ce3          	beqz	t6,800026ec <vsnprintf+0xb98>
80002cb8:	fff70713          	addi	a4,a4,-1
80002cbc:	ba0ff06f          	j	8000205c <vsnprintf+0x508>
80002cc0:	00956533          	or	a0,a0,s1
80002cc4:	00001817          	auipc	a6,0x1
80002cc8:	e9880813          	addi	a6,a6,-360 # 80003b5c <_etext+0x7dc>
80002ccc:	00051c63          	bnez	a0,80002ce4 <vsnprintf+0x1190>
80002cd0:	00001817          	auipc	a6,0x1
80002cd4:	e8480813          	addi	a6,a6,-380 # 80003b54 <_etext+0x7d4>
80002cd8:	00039663          	bnez	t2,80002ce4 <vsnprintf+0x1190>
80002cdc:	00001817          	auipc	a6,0x1
80002ce0:	e7480813          	addi	a6,a6,-396 # 80003b50 <_etext+0x7d0>
80002ce4:	00000713          	li	a4,0
80002ce8:	00070513          	mv	a0,a4
80002cec:	00170713          	addi	a4,a4,1
80002cf0:	00e805b3          	add	a1,a6,a4
80002cf4:	0005c583          	lbu	a1,0(a1)
80002cf8:	fe0598e3          	bnez	a1,80002ce8 <vsnprintf+0x1194>
80002cfc:	00ed0d33          	add	s10,s10,a4
80002d00:	9157f063          	bgeu	a5,s5,80001e00 <vsnprintf+0x2ac>
80002d04:	00178593          	addi	a1,a5,1
80002d08:	00a58533          	add	a0,a1,a0
80002d0c:	00c0006f          	j	80002d18 <vsnprintf+0x11c4>
80002d10:	f755f263          	bgeu	a1,s5,80002474 <vsnprintf+0x920>
80002d14:	00158593          	addi	a1,a1,1
80002d18:	40d58733          	sub	a4,a1,a3
80002d1c:	00e80733          	add	a4,a6,a4
80002d20:	fff74883          	lbu	a7,-1(a4)
80002d24:	00b28733          	add	a4,t0,a1
80002d28:	00058793          	mv	a5,a1
80002d2c:	ff170fa3          	sb	a7,-1(a4)
80002d30:	fea590e3          	bne	a1,a0,80002d10 <vsnprintf+0x11bc>
80002d34:	00050693          	mv	a3,a0
80002d38:	00160613          	addi	a2,a2,1
80002d3c:	eb1fe06f          	j	80001bec <vsnprintf+0x98>
80002d40:	16040a63          	beqz	s0,80002eb4 <vsnprintf+0x1360>
80002d44:	af57f0e3          	bgeu	a5,s5,80002824 <vsnprintf+0xcd0>
80002d48:	00178713          	addi	a4,a5,1
80002d4c:	02000693          	li	a3,32
80002d50:	00f287b3          	add	a5,t0,a5
80002d54:	00d78023          	sb	a3,0(a5)
80002d58:	00070693          	mv	a3,a4
80002d5c:	984ff06f          	j	80001ee0 <vsnprintf+0x38c>
80002d60:	00060e13          	mv	t3,a2
80002d64:	00000593          	li	a1,0
80002d68:	f4dfe06f          	j	80001cb4 <vsnprintf+0x160>
80002d6c:	2e0f0c63          	beqz	t5,80003064 <vsnprintf+0x1510>
80002d70:	df57f2e3          	bgeu	a5,s5,80002b54 <vsnprintf+0x1000>
80002d74:	00d286b3          	add	a3,t0,a3
80002d78:	02b00713          	li	a4,43
80002d7c:	00178793          	addi	a5,a5,1
80002d80:	00e68023          	sb	a4,0(a3)
80002d84:	dd1ff06f          	j	80002b54 <vsnprintf+0x1000>
80002d88:	ec05d8e3          	bgez	a1,80002c58 <vsnprintf+0x1104>
80002d8c:	00088713          	mv	a4,a7
80002d90:	03000593          	li	a1,48
80002d94:	ecdff06f          	j	80002c60 <vsnprintf+0x110c>
80002d98:	007a0a13          	addi	s4,s4,7
80002d9c:	ff8a7a13          	andi	s4,s4,-8
80002da0:	000a2e03          	lw	t3,0(s4)
80002da4:	004a2f03          	lw	t5,4(s4)
80002da8:	008a0a13          	addi	s4,s4,8
80002dac:	9c0ff06f          	j	80001f6c <vsnprintf+0x418>
80002db0:	007a0a13          	addi	s4,s4,7
80002db4:	ff8a7a13          	andi	s4,s4,-8
80002db8:	000a2883          	lw	a7,0(s4)
80002dbc:	004a2303          	lw	t1,4(s4)
80002dc0:	008a0a13          	addi	s4,s4,8
80002dc4:	af4ff06f          	j	800020b8 <vsnprintf+0x564>
80002dc8:	007a0a13          	addi	s4,s4,7
80002dcc:	ff8a7a13          	andi	s4,s4,-8
80002dd0:	000a2883          	lw	a7,0(s4)
80002dd4:	004a2303          	lw	t1,4(s4)
80002dd8:	008a0a13          	addi	s4,s4,8
80002ddc:	cc0ff06f          	j	8000229c <vsnprintf+0x748>
80002de0:	00600593          	li	a1,6
80002de4:	ca095ee3          	bgez	s2,80002aa0 <vsnprintf+0xf4c>
80002de8:	03000893          	li	a7,48
80002dec:	03110823          	sb	a7,48(sp)
80002df0:	001008b7          	lui	a7,0x100
80002df4:	00048e13          	mv	t3,s1
80002df8:	07010e93          	addi	t4,sp,112
80002dfc:	00a8e533          	or	a0,a7,a0
80002e00:	fff88893          	addi	a7,a7,-1 # fffff <_entry_offset+0xfffff>
80002e04:	01112823          	sw	a7,16(sp)
80002e08:	41200933          	neg	s2,s2
80002e0c:	00be84b3          	add	s1,t4,a1
80002e10:	000e0893          	mv	a7,t3
80002e14:	00289313          	slli	t1,a7,0x2
80002e18:	01e8de13          	srli	t3,a7,0x1e
80002e1c:	00251993          	slli	s3,a0,0x2
80002e20:	011308b3          	add	a7,t1,a7
80002e24:	013e69b3          	or	s3,t3,s3
80002e28:	0068b333          	sltu	t1,a7,t1
80002e2c:	00a989b3          	add	s3,s3,a0
80002e30:	01330533          	add	a0,t1,s3
80002e34:	00151513          	slli	a0,a0,0x1
80002e38:	01f8d313          	srli	t1,a7,0x1f
80002e3c:	00a36533          	or	a0,t1,a0
80002e40:	00189893          	slli	a7,a7,0x1
80002e44:	01205c63          	blez	s2,80002e5c <vsnprintf+0x1308>
80002e48:	01f51313          	slli	t1,a0,0x1f
80002e4c:	0018d893          	srli	a7,a7,0x1
80002e50:	011368b3          	or	a7,t1,a7
80002e54:	00155513          	srli	a0,a0,0x1
80002e58:	fff90913          	addi	s2,s2,-1
80002e5c:	01455313          	srli	t1,a0,0x14
80002e60:	00f37313          	andi	t1,t1,15
80002e64:	03030313          	addi	t1,t1,48
80002e68:	006e8023          	sb	t1,0(t4)
80002e6c:	01012303          	lw	t1,16(sp)
80002e70:	001e8e93          	addi	t4,t4,1
80002e74:	00657533          	and	a0,a0,t1
80002e78:	f89e9ee3          	bne	t4,s1,80002e14 <vsnprintf+0x12c0>
80002e7c:	03010513          	addi	a0,sp,48
80002e80:	00100993          	li	s3,1
80002e84:	00a12a23          	sw	a0,20(sp)
80002e88:	00058893          	mv	a7,a1
80002e8c:	c89ff06f          	j	80002b14 <vsnprintf+0xfc0>
80002e90:	41c708b3          	sub	a7,a4,t3
80002e94:	c48ff06f          	j	800022dc <vsnprintf+0x788>
80002e98:	000f8463          	beqz	t6,80002ea0 <vsnprintf+0x134c>
80002e9c:	f65fe06f          	j	80001e00 <vsnprintf+0x2ac>
80002ea0:	00000e13          	li	t3,0
80002ea4:	00070893          	mv	a7,a4
80002ea8:	da0808e3          	beqz	a6,80002c58 <vsnprintf+0x1104>
80002eac:	02000593          	li	a1,32
80002eb0:	db1ff06f          	j	80002c60 <vsnprintf+0x110c>
80002eb4:	00078713          	mv	a4,a5
80002eb8:	828ff06f          	j	80001ee0 <vsnprintf+0x38c>
80002ebc:	01dd0d33          	add	s10,s10,t4
80002ec0:	960f9463          	bnez	t6,80002028 <vsnprintf+0x4d4>
80002ec4:	800816e3          	bnez	a6,800026d0 <vsnprintf+0xb7c>
80002ec8:	fff88893          	addi	a7,a7,-1
80002ecc:	07010513          	addi	a0,sp,112
80002ed0:	958ff06f          	j	80002028 <vsnprintf+0x4d4>
80002ed4:	412308b3          	sub	a7,t1,s2
80002ed8:	fe088313          	addi	t1,a7,-32
80002edc:	1e034c63          	bltz	t1,800030d4 <vsnprintf+0x1580>
80002ee0:	006e5333          	srl	t1,t3,t1
80002ee4:	00000e13          	li	t3,0
80002ee8:	ccccd8b7          	lui	a7,0xccccd
80002eec:	01112623          	sw	a7,12(sp)
80002ef0:	03010893          	addi	a7,sp,48
80002ef4:	01112a23          	sw	a7,20(sp)
80002ef8:	ccccd8b7          	lui	a7,0xccccd
80002efc:	ccd88893          	addi	a7,a7,-819 # cccccccd <_end+0x4cc2dccd>
80002f00:	ccccdeb7          	lui	t4,0xccccd
80002f04:	01112823          	sw	a7,16(sp)
80002f08:	ccce8893          	addi	a7,t4,-820 # cccccccc <_end+0x4cc2dccc>
80002f0c:	00000993          	li	s3,0
80002f10:	03112223          	sw	a7,36(sp)
80002f14:	03e12623          	sw	t5,44(sp)
80002f18:	01c308b3          	add	a7,t1,t3
80002f1c:	0068beb3          	sltu	t4,a7,t1
80002f20:	01d888b3          	add	a7,a7,t4
80002f24:	00500e93          	li	t4,5
80002f28:	03d8f8b3          	remu	a7,a7,t4
80002f2c:	01412e83          	lw	t4,20(sp)
80002f30:	03312023          	sw	s3,32(sp)
80002f34:	00198993          	addi	s3,s3,1
80002f38:	013e8eb3          	add	t4,t4,s3
80002f3c:	01d12c23          	sw	t4,24(sp)
80002f40:	01012f03          	lw	t5,16(sp)
80002f44:	01c12e23          	sw	t3,28(sp)
80002f48:	02612423          	sw	t1,40(sp)
80002f4c:	411308b3          	sub	a7,t1,a7
80002f50:	01133eb3          	sltu	t4,t1,a7
80002f54:	41de0eb3          	sub	t4,t3,t4
80002f58:	02412e03          	lw	t3,36(sp)
80002f5c:	03ee8eb3          	mul	t4,t4,t5
80002f60:	03c88e33          	mul	t3,a7,t3
80002f64:	01ce8e33          	add	t3,t4,t3
80002f68:	01012e83          	lw	t4,16(sp)
80002f6c:	03e8bf33          	mulhu	t5,a7,t5
80002f70:	03d888b3          	mul	a7,a7,t4
80002f74:	01ee0e33          	add	t3,t3,t5
80002f78:	01fe1e93          	slli	t4,t3,0x1f
80002f7c:	001e5e13          	srli	t3,t3,0x1
80002f80:	0018d893          	srli	a7,a7,0x1
80002f84:	011ee8b3          	or	a7,t4,a7
80002f88:	00289e93          	slli	t4,a7,0x2
80002f8c:	011e8eb3          	add	t4,t4,a7
80002f90:	001e9e93          	slli	t4,t4,0x1
80002f94:	41d30333          	sub	t1,t1,t4
80002f98:	01812e83          	lw	t4,24(sp)
80002f9c:	03030313          	addi	t1,t1,48
80002fa0:	fe6e8fa3          	sb	t1,-1(t4)
80002fa4:	00088313          	mv	t1,a7
80002fa8:	01c12883          	lw	a7,28(sp)
80002fac:	f60896e3          	bnez	a7,80002f18 <vsnprintf+0x13c4>
80002fb0:	02812e83          	lw	t4,40(sp)
80002fb4:	00900893          	li	a7,9
80002fb8:	f7d8e0e3          	bltu	a7,t4,80002f18 <vsnprintf+0x13c4>
80002fbc:	02012e83          	lw	t4,32(sp)
80002fc0:	02c12f03          	lw	t5,44(sp)
80002fc4:	040e8663          	beqz	t4,80003010 <vsnprintf+0x14bc>
80002fc8:	01412883          	lw	a7,20(sp)
80002fcc:	00f12c23          	sw	a5,24(sp)
80002fd0:	01e12823          	sw	t5,16(sp)
80002fd4:	00088e13          	mv	t3,a7
80002fd8:	01d88333          	add	t1,a7,t4
80002fdc:	000e8793          	mv	a5,t4
80002fe0:	00000893          	li	a7,0
80002fe4:	00034f03          	lbu	t5,0(t1)
80002fe8:	000e4e83          	lbu	t4,0(t3) # 100000 <_entry_offset+0x100000>
80002fec:	00188893          	addi	a7,a7,1
80002ff0:	01ee0023          	sb	t5,0(t3)
80002ff4:	01d30023          	sb	t4,0(t1)
80002ff8:	41178eb3          	sub	t4,a5,a7
80002ffc:	001e0e13          	addi	t3,t3,1
80003000:	fff30313          	addi	t1,t1,-1
80003004:	ffd8c0e3          	blt	a7,t4,80002fe4 <vsnprintf+0x1490>
80003008:	01012f03          	lw	t5,16(sp)
8000300c:	01812783          	lw	a5,24(sp)
80003010:	10059663          	bnez	a1,8000311c <vsnprintf+0x15c8>
80003014:	00098513          	mv	a0,s3
80003018:	00000893          	li	a7,0
8000301c:	b01ff06f          	j	80002b1c <vsnprintf+0xfc8>
80003020:	fff50713          	addi	a4,a0,-1
80003024:	b6a052e3          	blez	a0,80002b88 <vsnprintf+0x1034>
80003028:	02000513          	li	a0,32
8000302c:	fff00593          	li	a1,-1
80003030:	00078693          	mv	a3,a5
80003034:	0157fa63          	bgeu	a5,s5,80003048 <vsnprintf+0x14f4>
80003038:	00f286b3          	add	a3,t0,a5
8000303c:	00178793          	addi	a5,a5,1
80003040:	00a68023          	sb	a0,0(a3)
80003044:	00078693          	mv	a3,a5
80003048:	fff70713          	addi	a4,a4,-1
8000304c:	feb712e3          	bne	a4,a1,80003030 <vsnprintf+0x14dc>
80003050:	b39ff06f          	j	80002b88 <vsnprintf+0x1034>
80003054:	0d212a23          	sw	s2,212(sp)
80003058:	0d312823          	sw	s3,208(sp)
8000305c:	00000393          	li	t2,0
80003060:	f0cff06f          	j	8000276c <vsnprintf+0xc18>
80003064:	ae0408e3          	beqz	s0,80002b54 <vsnprintf+0x1000>
80003068:	af57f6e3          	bgeu	a5,s5,80002b54 <vsnprintf+0x1000>
8000306c:	00d286b3          	add	a3,t0,a3
80003070:	02000713          	li	a4,32
80003074:	00178793          	addi	a5,a5,1
80003078:	00e68023          	sb	a4,0(a3)
8000307c:	ad9ff06f          	j	80002b54 <vsnprintf+0x1000>
80003080:	001d0d13          	addi	s10,s10,1
80003084:	e40f80e3          	beqz	t6,80002ec4 <vsnprintf+0x1370>
80003088:	000f8e93          	mv	t4,t6
8000308c:	f9dfe06f          	j	80002028 <vsnprintf+0x4d4>
80003090:	03000893          	li	a7,48
80003094:	03110823          	sb	a7,48(sp)
80003098:	d4059ce3          	bnez	a1,80002df0 <vsnprintf+0x129c>
8000309c:	03010313          	addi	t1,sp,48
800030a0:	00100513          	li	a0,1
800030a4:	00000593          	li	a1,0
800030a8:	00000893          	li	a7,0
800030ac:	00100993          	li	s3,1
800030b0:	00612a23          	sw	t1,20(sp)
800030b4:	a69ff06f          	j	80002b1c <vsnprintf+0xfc8>
800030b8:	fff80813          	addi	a6,a6,-1
800030bc:	ac059a63          	bnez	a1,80002390 <vsnprintf+0x83c>
800030c0:	00030a13          	mv	s4,t1
800030c4:	9a4ff06f          	j	80002268 <vsnprintf+0x714>
800030c8:	00070313          	mv	t1,a4
800030cc:	86089c63          	bnez	a7,80002144 <vsnprintf+0x5f0>
800030d0:	991ff06f          	j	80002a60 <vsnprintf+0xf0c>
800030d4:	01f00313          	li	t1,31
800030d8:	001e1e93          	slli	t4,t3,0x1
800030dc:	41130333          	sub	t1,t1,a7
800030e0:	006e9eb3          	sll	t4,t4,t1
800030e4:	0114d333          	srl	t1,s1,a7
800030e8:	006ee333          	or	t1,t4,t1
800030ec:	011e5e33          	srl	t3,t3,a7
800030f0:	df9ff06f          	j	80002ee8 <vsnprintf+0x1394>
800030f4:	01f00e93          	li	t4,31
800030f8:	406e8eb3          	sub	t4,t4,t1
800030fc:	0014d893          	srli	a7,s1,0x1
80003100:	006e1e33          	sll	t3,t3,t1
80003104:	01d8d8b3          	srl	a7,a7,t4
80003108:	01c8ee33          	or	t3,a7,t3
8000310c:	00649333          	sll	t1,s1,t1
80003110:	9bdff06f          	j	80002acc <vsnprintf+0xf78>
80003114:	00070893          	mv	a7,a4
80003118:	d90ff06f          	j	800026a8 <vsnprintf+0xb54>
8000311c:	03300893          	li	a7,51
80003120:	9d28c6e3          	blt	a7,s2,80002aec <vsnprintf+0xf98>
80003124:	03400893          	li	a7,52
80003128:	412888b3          	sub	a7,a7,s2
8000312c:	01112823          	sw	a7,16(sp)
80003130:	fe088913          	addi	s2,a7,-32
80003134:	0e094063          	bltz	s2,80003214 <vsnprintf+0x16c0>
80003138:	fff00893          	li	a7,-1
8000313c:	012898b3          	sll	a7,a7,s2
80003140:	00000313          	li	t1,0
80003144:	fff34e13          	not	t3,t1
80003148:	fff8c313          	not	t1,a7
8000314c:	00657533          	and	a0,a0,t1
80003150:	00a12e23          	sw	a0,28(sp)
80003154:	01012503          	lw	a0,16(sp)
80003158:	009e78b3          	and	a7,t3,s1
8000315c:	00030493          	mv	s1,t1
80003160:	01f00313          	li	t1,31
80003164:	40a30333          	sub	t1,t1,a0
80003168:	07010e93          	addi	t4,sp,112
8000316c:	03f12223          	sw	t6,36(sp)
80003170:	02712423          	sw	t2,40(sp)
80003174:	01c12503          	lw	a0,28(sp)
80003178:	00612c23          	sw	t1,24(sp)
8000317c:	03e12023          	sw	t5,32(sp)
80003180:	00be8fb3          	add	t6,t4,a1
80003184:	000e0393          	mv	t2,t3
80003188:	0180006f          	j	800031a0 <vsnprintf+0x164c>
8000318c:	01235e33          	srl	t3,t1,s2
80003190:	030e0e13          	addi	t3,t3,48
80003194:	01ce8023          	sb	t3,0(t4)
80003198:	001e8e93          	addi	t4,t4,1
8000319c:	05df8e63          	beq	t6,t4,800031f8 <vsnprintf+0x16a4>
800031a0:	00289313          	slli	t1,a7,0x2
800031a4:	01e8df13          	srli	t5,a7,0x1e
800031a8:	00251e13          	slli	t3,a0,0x2
800031ac:	011308b3          	add	a7,t1,a7
800031b0:	01cf6e33          	or	t3,t5,t3
800031b4:	00ae0533          	add	a0,t3,a0
800031b8:	0068b333          	sltu	t1,a7,t1
800031bc:	00a30333          	add	t1,t1,a0
800031c0:	00131313          	slli	t1,t1,0x1
800031c4:	01f8d513          	srli	a0,a7,0x1f
800031c8:	00656333          	or	t1,a0,t1
800031cc:	00189e13          	slli	t3,a7,0x1
800031d0:	01c3f8b3          	and	a7,t2,t3
800031d4:	0064f533          	and	a0,s1,t1
800031d8:	fa095ae3          	bgez	s2,8000318c <vsnprintf+0x1638>
800031dc:	01812f03          	lw	t5,24(sp)
800031e0:	00131313          	slli	t1,t1,0x1
800031e4:	01e31333          	sll	t1,t1,t5
800031e8:	01012f03          	lw	t5,16(sp)
800031ec:	01ee5e33          	srl	t3,t3,t5
800031f0:	01c36e33          	or	t3,t1,t3
800031f4:	f9dff06f          	j	80003190 <vsnprintf+0x163c>
800031f8:	02012f03          	lw	t5,32(sp)
800031fc:	02412f83          	lw	t6,36(sp)
80003200:	02812383          	lw	t2,40(sp)
80003204:	00058893          	mv	a7,a1
80003208:	90dff06f          	j	80002b14 <vsnprintf+0xfc0>
8000320c:	00070513          	mv	a0,a4
80003210:	cb5fe06f          	j	80001ec4 <vsnprintf+0x370>
80003214:	01012e83          	lw	t4,16(sp)
80003218:	fff00313          	li	t1,-1
8000321c:	01f00e13          	li	t3,31
80003220:	00135893          	srli	a7,t1,0x1
80003224:	41de0e33          	sub	t3,t3,t4
80003228:	01c8de33          	srl	t3,a7,t3
8000322c:	01d318b3          	sll	a7,t1,t4
80003230:	011e68b3          	or	a7,t3,a7
80003234:	01d31333          	sll	t1,t1,t4
80003238:	f0dff06f          	j	80003144 <vsnprintf+0x15f0>
8000323c:	03100513          	li	a0,49
80003240:	02a10823          	sb	a0,48(sp)
80003244:	04010313          	addi	t1,sp,64
80003248:	03110513          	addi	a0,sp,49
8000324c:	03000893          	li	a7,48
80003250:	01150023          	sb	a7,0(a0)
80003254:	00150513          	addi	a0,a0,1
80003258:	fea31ce3          	bne	t1,a0,80003250 <vsnprintf+0x16fc>
8000325c:	03010513          	addi	a0,sp,48
80003260:	00000893          	li	a7,0
80003264:	01000993          	li	s3,16
80003268:	00a12a23          	sw	a0,20(sp)
8000326c:	8a1ff06f          	j	80002b0c <vsnprintf+0xfb8>
80003270:	00070513          	mv	a0,a4
80003274:	8c9ff06f          	j	80002b3c <vsnprintf+0xfe8>
80003278:	00068793          	mv	a5,a3
8000327c:	00160613          	addi	a2,a2,1
80003280:	96dfe06f          	j	80001bec <vsnprintf+0x98>

80003284 <printf>:
80003284:	fb010113          	addi	sp,sp,-80
80003288:	00001e37          	lui	t3,0x1
8000328c:	fffff2b7          	lui	t0,0xfffff
80003290:	02912223          	sw	s1,36(sp)
80003294:	02112623          	sw	ra,44(sp)
80003298:	02812423          	sw	s0,40(sp)
8000329c:	fffff337          	lui	t1,0xfffff
800032a0:	00510133          	add	sp,sp,t0
800032a4:	010e0e93          	addi	t4,t3,16 # 1010 <_entry_offset+0x1010>
800032a8:	006e8eb3          	add	t4,t4,t1
800032ac:	01010313          	addi	t1,sp,16
800032b0:	01010f13          	addi	t5,sp,16
800032b4:	006e8333          	add	t1,t4,t1
800032b8:	024e0e93          	addi	t4,t3,36
800032bc:	00612623          	sw	t1,12(sp)
800032c0:	01ee8eb3          	add	t4,t4,t5
800032c4:	00bea023          	sw	a1,0(t4)
800032c8:	028e0593          	addi	a1,t3,40
800032cc:	01e585b3          	add	a1,a1,t5
800032d0:	00c5a023          	sw	a2,0(a1)
800032d4:	02ce0613          	addi	a2,t3,44
800032d8:	01e60633          	add	a2,a2,t5
800032dc:	030e0e93          	addi	t4,t3,48
800032e0:	00d62023          	sw	a3,0(a2)
800032e4:	01ee8eb3          	add	t4,t4,t5
800032e8:	034e0313          	addi	t1,t3,52
800032ec:	00050613          	mv	a2,a0
800032f0:	00c12503          	lw	a0,12(sp)
800032f4:	00eea023          	sw	a4,0(t4)
800032f8:	000e0713          	mv	a4,t3
800032fc:	034e0e13          	addi	t3,t3,52
80003300:	01ee0e33          	add	t3,t3,t5
80003304:	00fe2023          	sw	a5,0(t3)
80003308:	00070793          	mv	a5,a4
8000330c:	03870713          	addi	a4,a4,56
80003310:	01e70733          	add	a4,a4,t5
80003314:	03c78793          	addi	a5,a5,60
80003318:	01072023          	sw	a6,0(a4)
8000331c:	01e787b3          	add	a5,a5,t5
80003320:	0117a023          	sw	a7,0(a5)
80003324:	00c12783          	lw	a5,12(sp)
80003328:	00230333          	add	t1,t1,sp
8000332c:	00030693          	mv	a3,t1
80003330:	000015b7          	lui	a1,0x1
80003334:	fe67ae23          	sw	t1,-4(a5)
80003338:	81dfe0ef          	jal	80001b54 <vsnprintf>
8000333c:	00c12783          	lw	a5,12(sp)
80003340:	00050493          	mv	s1,a0
80003344:	0007c503          	lbu	a0,0(a5)
80003348:	00050c63          	beqz	a0,80003360 <printf+0xdc>
8000334c:	00178413          	addi	s0,a5,1
80003350:	c59fd0ef          	jal	80000fa8 <putch>
80003354:	00044503          	lbu	a0,0(s0)
80003358:	00140413          	addi	s0,s0,1
8000335c:	fe051ae3          	bnez	a0,80003350 <printf+0xcc>
80003360:	000012b7          	lui	t0,0x1
80003364:	00510133          	add	sp,sp,t0
80003368:	02c12083          	lw	ra,44(sp)
8000336c:	00048513          	mv	a0,s1
80003370:	02812403          	lw	s0,40(sp)
80003374:	02412483          	lw	s1,36(sp)
80003378:	05010113          	addi	sp,sp,80
8000337c:	00008067          	ret
